GAS LISTING C:\Users\Kalle\AppData\Local\Temp\cc02FuFw.s 			page 1


   1              		.file	"gd32vf103v_eval.c"
   2              		.option nopic
   3              		.attribute arch, "rv32i2p0_m2p0_a2p0_c2p0"
   4              		.attribute unaligned_access, 0
   5              		.attribute stack_align, 16
   6              		.text
   7              	.Ltext0:
   8              		.cfi_sections	.debug_frame
   9              		.section	.text.gd_eval_led_init,"ax",@progbits
  10              		.align	1
  11              		.globl	gd_eval_led_init
  13              	gd_eval_led_init:
  14              	.LFB2:
  15              		.file 1 "lib/gd32vf103/src/gd32vf103v_eval.c"
   1:lib/gd32vf103/src/gd32vf103v_eval.c **** /*!
   2:lib/gd32vf103/src/gd32vf103v_eval.c ****     \file    gd32vf103v_eval.c
   3:lib/gd32vf103/src/gd32vf103v_eval.c ****     \brief   firmware functions to manage leds, keys, COM ports
   4:lib/gd32vf103/src/gd32vf103v_eval.c **** 
   5:lib/gd32vf103/src/gd32vf103v_eval.c ****     \version 2019-6-5, V1.0.0, demo for GD32VF103
   6:lib/gd32vf103/src/gd32vf103v_eval.c **** */
   7:lib/gd32vf103/src/gd32vf103v_eval.c **** 
   8:lib/gd32vf103/src/gd32vf103v_eval.c **** #include "gd32vf103v_eval.h"
   9:lib/gd32vf103/src/gd32vf103v_eval.c **** 
  10:lib/gd32vf103/src/gd32vf103v_eval.c **** /* private variables */
  11:lib/gd32vf103/src/gd32vf103v_eval.c **** static uint32_t GPIO_PORT[LEDn] = {LED1_GPIO_PORT, LED2_GPIO_PORT,
  12:lib/gd32vf103/src/gd32vf103v_eval.c ****                                    LED3_GPIO_PORT, LED4_GPIO_PORT};
  13:lib/gd32vf103/src/gd32vf103v_eval.c **** static uint32_t GPIO_PIN[LEDn] = {LED1_PIN, LED2_PIN, LED3_PIN, LED4_PIN};
  14:lib/gd32vf103/src/gd32vf103v_eval.c **** 
  15:lib/gd32vf103/src/gd32vf103v_eval.c **** static rcu_periph_enum COM_CLK[COMn] = {EVAL_COM0_CLK, EVAL_COM1_CLK};
  16:lib/gd32vf103/src/gd32vf103v_eval.c **** static uint32_t COM_TX_PIN[COMn] = {EVAL_COM0_TX_PIN, EVAL_COM1_TX_PIN};
  17:lib/gd32vf103/src/gd32vf103v_eval.c **** static uint32_t COM_RX_PIN[COMn] = {EVAL_COM0_RX_PIN, EVAL_COM1_RX_PIN};
  18:lib/gd32vf103/src/gd32vf103v_eval.c **** static uint32_t COM_GPIO_PORT[COMn] = {EVAL_COM0_GPIO_PORT, EVAL_COM1_GPIO_PORT};
  19:lib/gd32vf103/src/gd32vf103v_eval.c **** static rcu_periph_enum COM_GPIO_CLK[COMn] = {EVAL_COM0_GPIO_CLK, EVAL_COM1_GPIO_CLK};
  20:lib/gd32vf103/src/gd32vf103v_eval.c **** 
  21:lib/gd32vf103/src/gd32vf103v_eval.c **** static rcu_periph_enum GPIO_CLK[LEDn] = {LED1_GPIO_CLK, LED2_GPIO_CLK,
  22:lib/gd32vf103/src/gd32vf103v_eval.c ****                                          LED3_GPIO_CLK, LED4_GPIO_CLK};
  23:lib/gd32vf103/src/gd32vf103v_eval.c **** 
  24:lib/gd32vf103/src/gd32vf103v_eval.c **** static uint32_t KEY_PORT[KEYn] = {KEY_A_GPIO_PORT,
  25:lib/gd32vf103/src/gd32vf103v_eval.c ****                                   KEY_B_GPIO_PORT,
  26:lib/gd32vf103/src/gd32vf103v_eval.c ****                                   KEY_C_GPIO_PORT,
  27:lib/gd32vf103/src/gd32vf103v_eval.c ****                                   KEY_D_GPIO_PORT,
  28:lib/gd32vf103/src/gd32vf103v_eval.c ****                                   KEY_CET_GPIO_PORT};
  29:lib/gd32vf103/src/gd32vf103v_eval.c **** static uint32_t KEY_PIN[KEYn] = {KEY_A_PIN,
  30:lib/gd32vf103/src/gd32vf103v_eval.c ****                                  KEY_B_PIN,
  31:lib/gd32vf103/src/gd32vf103v_eval.c ****                                  KEY_C_PIN,
  32:lib/gd32vf103/src/gd32vf103v_eval.c ****                                  KEY_D_PIN,
  33:lib/gd32vf103/src/gd32vf103v_eval.c ****                                  KEY_CET_PIN};
  34:lib/gd32vf103/src/gd32vf103v_eval.c **** static rcu_periph_enum KEY_CLK[KEYn] = {KEY_A_GPIO_CLK,
  35:lib/gd32vf103/src/gd32vf103v_eval.c ****                                         KEY_B_GPIO_CLK,
  36:lib/gd32vf103/src/gd32vf103v_eval.c ****                                         KEY_C_GPIO_CLK,
  37:lib/gd32vf103/src/gd32vf103v_eval.c ****                                         KEY_D_GPIO_CLK,
  38:lib/gd32vf103/src/gd32vf103v_eval.c ****                                         KEY_CET_GPIO_CLK};
  39:lib/gd32vf103/src/gd32vf103v_eval.c **** static exti_line_enum KEY_EXTI_LINE[KEYn] = {KEY_A_EXTI_LINE,
  40:lib/gd32vf103/src/gd32vf103v_eval.c ****                                              KEY_B_EXTI_LINE,
  41:lib/gd32vf103/src/gd32vf103v_eval.c ****                                              KEY_C_EXTI_LINE,
  42:lib/gd32vf103/src/gd32vf103v_eval.c ****                                              KEY_D_EXTI_LINE,
  43:lib/gd32vf103/src/gd32vf103v_eval.c ****                                              KEY_CET_EXTI_LINE};
GAS LISTING C:\Users\Kalle\AppData\Local\Temp\cc02FuFw.s 			page 2


  44:lib/gd32vf103/src/gd32vf103v_eval.c **** static uint8_t KEY_PORT_SOURCE[KEYn] = {KEY_A_EXTI_PORT_SOURCE,
  45:lib/gd32vf103/src/gd32vf103v_eval.c ****                                         KEY_B_EXTI_PORT_SOURCE,
  46:lib/gd32vf103/src/gd32vf103v_eval.c ****                                         KEY_C_EXTI_PORT_SOURCE,
  47:lib/gd32vf103/src/gd32vf103v_eval.c ****                                         KEY_D_EXTI_PORT_SOURCE,
  48:lib/gd32vf103/src/gd32vf103v_eval.c ****                                         KEY_CET_EXTI_PORT_SOURCE};
  49:lib/gd32vf103/src/gd32vf103v_eval.c **** static uint8_t KEY_PIN_SOURCE[KEYn] = {KEY_A_EXTI_PIN_SOURCE,
  50:lib/gd32vf103/src/gd32vf103v_eval.c ****                                        KEY_B_EXTI_PIN_SOURCE,
  51:lib/gd32vf103/src/gd32vf103v_eval.c ****                                        KEY_C_EXTI_PIN_SOURCE,
  52:lib/gd32vf103/src/gd32vf103v_eval.c ****                                        KEY_D_EXTI_PIN_SOURCE,
  53:lib/gd32vf103/src/gd32vf103v_eval.c ****                                        KEY_CET_EXTI_PIN_SOURCE};
  54:lib/gd32vf103/src/gd32vf103v_eval.c **** static uint8_t KEY_IRQn[KEYn] = {KEY_A_EXTI_IRQn,
  55:lib/gd32vf103/src/gd32vf103v_eval.c ****                                  KEY_B_EXTI_IRQn,
  56:lib/gd32vf103/src/gd32vf103v_eval.c ****                                  KEY_C_EXTI_IRQn,
  57:lib/gd32vf103/src/gd32vf103v_eval.c ****                                  KEY_D_EXTI_IRQn,
  58:lib/gd32vf103/src/gd32vf103v_eval.c ****                                  KEY_CET_EXTI_IRQn};
  59:lib/gd32vf103/src/gd32vf103v_eval.c **** 
  60:lib/gd32vf103/src/gd32vf103v_eval.c **** /*!
  61:lib/gd32vf103/src/gd32vf103v_eval.c ****     \brief      configure led GPIO
  62:lib/gd32vf103/src/gd32vf103v_eval.c ****     \param[in]  lednum: specify the led to be configured
  63:lib/gd32vf103/src/gd32vf103v_eval.c ****       \arg        LED1
  64:lib/gd32vf103/src/gd32vf103v_eval.c ****       \arg        LED2
  65:lib/gd32vf103/src/gd32vf103v_eval.c ****       \arg        LED3
  66:lib/gd32vf103/src/gd32vf103v_eval.c ****       \arg        LED4
  67:lib/gd32vf103/src/gd32vf103v_eval.c ****     \param[out] none
  68:lib/gd32vf103/src/gd32vf103v_eval.c ****     \retval     none
  69:lib/gd32vf103/src/gd32vf103v_eval.c **** */
  70:lib/gd32vf103/src/gd32vf103v_eval.c **** void gd_eval_led_init(led_typedef_enum lednum)
  71:lib/gd32vf103/src/gd32vf103v_eval.c **** {
  16              		.loc 1 71 1
  17              		.cfi_startproc
  18              	.LVL0:
  72:lib/gd32vf103/src/gd32vf103v_eval.c ****     /* enable the led clock */
  73:lib/gd32vf103/src/gd32vf103v_eval.c ****     rcu_periph_clock_enable(GPIO_CLK[lednum]);
  19              		.loc 1 73 5
  71:lib/gd32vf103/src/gd32vf103v_eval.c ****     /* enable the led clock */
  20              		.loc 1 71 1 is_stmt 0
  21 0000 4111     		addi	sp,sp,-16
  22              	.LCFI0:
  23              		.cfi_def_cfa_offset 16
  24              		.loc 1 73 5
  25 0002 B7070000 		lui	a5,%hi(.LANCHOR0)
  71:lib/gd32vf103/src/gd32vf103v_eval.c ****     /* enable the led clock */
  26              		.loc 1 71 1
  27 0006 22C4     		sw	s0,8(sp)
  28              		.loc 1 73 5
  29 0008 93870700 		addi	a5,a5,%lo(.LANCHOR0)
  30              		.cfi_offset 8, -8
  31 000c 13142500 		slli	s0,a0,2
  32 0010 A297     		add	a5,a5,s0
  33 0012 8843     		lw	a0,0(a5)
  34              	.LVL1:
  71:lib/gd32vf103/src/gd32vf103v_eval.c ****     /* enable the led clock */
  35              		.loc 1 71 1
  36 0014 06C6     		sw	ra,12(sp)
  37 0016 26C2     		sw	s1,4(sp)
  38              		.cfi_offset 1, -4
  39              		.cfi_offset 9, -12
GAS LISTING C:\Users\Kalle\AppData\Local\Temp\cc02FuFw.s 			page 3


  40              		.loc 1 73 5
  41 0018 97000000 		call	rcu_periph_clock_enable
  41      E7800000 
  42              	.LVL2:
  74:lib/gd32vf103/src/gd32vf103v_eval.c ****     /* configure led GPIO port */ 
  75:lib/gd32vf103/src/gd32vf103v_eval.c ****     gpio_init(GPIO_PORT[lednum], GPIO_MODE_OUT_PP, GPIO_OSPEED_50MHZ, GPIO_PIN[lednum]);
  43              		.loc 1 75 5 is_stmt 1
  44 0020 B7070000 		lui	a5,%hi(.LANCHOR1)
  45 0024 37050000 		lui	a0,%hi(.LANCHOR2)
  46 0028 93870700 		addi	a5,a5,%lo(.LANCHOR1)
  47 002c 13050500 		addi	a0,a0,%lo(.LANCHOR2)
  48 0030 2295     		add	a0,a0,s0
  49 0032 A297     		add	a5,a5,s0
  50 0034 0441     		lw	s1,0(a0)
  51 0036 8043     		lw	s0,0(a5)
  52 0038 0D46     		li	a2,3
  53 003a A686     		mv	a3,s1
  54 003c 2285     		mv	a0,s0
  55 003e C145     		li	a1,16
  56 0040 97000000 		call	gpio_init
  56      E7800000 
  57              	.LVL3:
  76:lib/gd32vf103/src/gd32vf103v_eval.c **** 
  77:lib/gd32vf103/src/gd32vf103v_eval.c ****     GPIO_BC(GPIO_PORT[lednum]) = GPIO_PIN[lednum];
  58              		.loc 1 77 5
  78:lib/gd32vf103/src/gd32vf103v_eval.c **** }
  59              		.loc 1 78 1 is_stmt 0
  60 0048 B240     		lw	ra,12(sp)
  61              		.cfi_restore 1
  77:lib/gd32vf103/src/gd32vf103v_eval.c **** }
  62              		.loc 1 77 32
  63 004a 44C8     		sw	s1,20(s0)
  64              		.loc 1 78 1
  65 004c 2244     		lw	s0,8(sp)
  66              		.cfi_restore 8
  67 004e 9244     		lw	s1,4(sp)
  68              		.cfi_restore 9
  69 0050 4101     		addi	sp,sp,16
  70              	.LCFI1:
  71              		.cfi_def_cfa_offset 0
  72 0052 8280     		jr	ra
  73              		.cfi_endproc
  74              	.LFE2:
  76              		.section	.text.gd_eval_led_on,"ax",@progbits
  77              		.align	1
  78              		.globl	gd_eval_led_on
  80              	gd_eval_led_on:
  81              	.LFB3:
  79:lib/gd32vf103/src/gd32vf103v_eval.c **** 
  80:lib/gd32vf103/src/gd32vf103v_eval.c **** /*!
  81:lib/gd32vf103/src/gd32vf103v_eval.c ****     \brief      turn on selected led
  82:lib/gd32vf103/src/gd32vf103v_eval.c ****     \param[in]  lednum: specify the led to be turned on
  83:lib/gd32vf103/src/gd32vf103v_eval.c ****       \arg        LED1
  84:lib/gd32vf103/src/gd32vf103v_eval.c ****       \arg        LED2
  85:lib/gd32vf103/src/gd32vf103v_eval.c ****       \arg        LED3
  86:lib/gd32vf103/src/gd32vf103v_eval.c ****       \arg        LED4
  87:lib/gd32vf103/src/gd32vf103v_eval.c ****     \param[out] none
GAS LISTING C:\Users\Kalle\AppData\Local\Temp\cc02FuFw.s 			page 4


  88:lib/gd32vf103/src/gd32vf103v_eval.c ****     \retval     none
  89:lib/gd32vf103/src/gd32vf103v_eval.c **** */
  90:lib/gd32vf103/src/gd32vf103v_eval.c **** void gd_eval_led_on(led_typedef_enum lednum)
  91:lib/gd32vf103/src/gd32vf103v_eval.c **** {
  82              		.loc 1 91 1 is_stmt 1
  83              		.cfi_startproc
  84              	.LVL4:
  92:lib/gd32vf103/src/gd32vf103v_eval.c ****     GPIO_BOP(GPIO_PORT[lednum]) = GPIO_PIN[lednum];
  85              		.loc 1 92 5
  86 0000 37070000 		lui	a4,%hi(.LANCHOR1)
  87              		.loc 1 92 43 is_stmt 0
  88 0004 B7070000 		lui	a5,%hi(.LANCHOR2)
  89              		.loc 1 92 5
  90 0008 0A05     		slli	a0,a0,2
  91              	.LVL5:
  92 000a 13070700 		addi	a4,a4,%lo(.LANCHOR1)
  93              		.loc 1 92 43
  94 000e 93870700 		addi	a5,a5,%lo(.LANCHOR2)
  95              		.loc 1 92 5
  96 0012 2A97     		add	a4,a4,a0
  97              		.loc 1 92 43
  98 0014 AA97     		add	a5,a5,a0
  99              		.loc 1 92 5
 100 0016 1843     		lw	a4,0(a4)
 101              		.loc 1 92 43
 102 0018 9C43     		lw	a5,0(a5)
 103              		.loc 1 92 33
 104 001a 1CCB     		sw	a5,16(a4)
  93:lib/gd32vf103/src/gd32vf103v_eval.c **** }
 105              		.loc 1 93 1
 106 001c 8280     		ret
 107              		.cfi_endproc
 108              	.LFE3:
 110              		.section	.text.gd_eval_led_off,"ax",@progbits
 111              		.align	1
 112              		.globl	gd_eval_led_off
 114              	gd_eval_led_off:
 115              	.LFB4:
  94:lib/gd32vf103/src/gd32vf103v_eval.c **** 
  95:lib/gd32vf103/src/gd32vf103v_eval.c **** /*!
  96:lib/gd32vf103/src/gd32vf103v_eval.c ****     \brief      turn off selected led
  97:lib/gd32vf103/src/gd32vf103v_eval.c ****     \param[in]  lednum: specify the led to be turned off
  98:lib/gd32vf103/src/gd32vf103v_eval.c ****       \arg        LED1
  99:lib/gd32vf103/src/gd32vf103v_eval.c ****       \arg        LED2
 100:lib/gd32vf103/src/gd32vf103v_eval.c ****       \arg        LED3
 101:lib/gd32vf103/src/gd32vf103v_eval.c ****       \arg        LED4
 102:lib/gd32vf103/src/gd32vf103v_eval.c ****     \param[out] none
 103:lib/gd32vf103/src/gd32vf103v_eval.c ****     \retval     none
 104:lib/gd32vf103/src/gd32vf103v_eval.c **** */
 105:lib/gd32vf103/src/gd32vf103v_eval.c **** void gd_eval_led_off(led_typedef_enum lednum)
 106:lib/gd32vf103/src/gd32vf103v_eval.c **** {
 116              		.loc 1 106 1 is_stmt 1
 117              		.cfi_startproc
 118              	.LVL6:
 107:lib/gd32vf103/src/gd32vf103v_eval.c ****     GPIO_BC(GPIO_PORT[lednum]) = GPIO_PIN[lednum];
 119              		.loc 1 107 5
 120 0000 37070000 		lui	a4,%hi(.LANCHOR1)
GAS LISTING C:\Users\Kalle\AppData\Local\Temp\cc02FuFw.s 			page 5


 121              		.loc 1 107 42 is_stmt 0
 122 0004 B7070000 		lui	a5,%hi(.LANCHOR2)
 123              		.loc 1 107 5
 124 0008 0A05     		slli	a0,a0,2
 125              	.LVL7:
 126 000a 13070700 		addi	a4,a4,%lo(.LANCHOR1)
 127              		.loc 1 107 42
 128 000e 93870700 		addi	a5,a5,%lo(.LANCHOR2)
 129              		.loc 1 107 5
 130 0012 2A97     		add	a4,a4,a0
 131              		.loc 1 107 42
 132 0014 AA97     		add	a5,a5,a0
 133              		.loc 1 107 5
 134 0016 1843     		lw	a4,0(a4)
 135              		.loc 1 107 42
 136 0018 9C43     		lw	a5,0(a5)
 137              		.loc 1 107 32
 138 001a 5CCB     		sw	a5,20(a4)
 108:lib/gd32vf103/src/gd32vf103v_eval.c **** }
 139              		.loc 1 108 1
 140 001c 8280     		ret
 141              		.cfi_endproc
 142              	.LFE4:
 144              		.section	.text.gd_eval_led_toggle,"ax",@progbits
 145              		.align	1
 146              		.globl	gd_eval_led_toggle
 148              	gd_eval_led_toggle:
 149              	.LFB5:
 109:lib/gd32vf103/src/gd32vf103v_eval.c **** 
 110:lib/gd32vf103/src/gd32vf103v_eval.c **** /*!
 111:lib/gd32vf103/src/gd32vf103v_eval.c ****     \brief      toggle selected led
 112:lib/gd32vf103/src/gd32vf103v_eval.c ****     \param[in]  lednum: specify the led to be toggled
 113:lib/gd32vf103/src/gd32vf103v_eval.c ****       \arg        LED1
 114:lib/gd32vf103/src/gd32vf103v_eval.c ****       \arg        LED2
 115:lib/gd32vf103/src/gd32vf103v_eval.c ****       \arg        LED3
 116:lib/gd32vf103/src/gd32vf103v_eval.c ****       \arg        LED4
 117:lib/gd32vf103/src/gd32vf103v_eval.c ****     \param[out] none
 118:lib/gd32vf103/src/gd32vf103v_eval.c ****     \retval     none
 119:lib/gd32vf103/src/gd32vf103v_eval.c **** */
 120:lib/gd32vf103/src/gd32vf103v_eval.c **** void gd_eval_led_toggle(led_typedef_enum lednum)
 121:lib/gd32vf103/src/gd32vf103v_eval.c **** {
 150              		.loc 1 121 1 is_stmt 1
 151              		.cfi_startproc
 152              	.LVL8:
 122:lib/gd32vf103/src/gd32vf103v_eval.c ****     gpio_bit_write(GPIO_PORT[lednum], GPIO_PIN[lednum], 
 153              		.loc 1 122 5
 154 0000 37070000 		lui	a4,%hi(.LANCHOR1)
 155 0004 B7070000 		lui	a5,%hi(.LANCHOR2)
 156 0008 0A05     		slli	a0,a0,2
 157              	.LVL9:
 158 000a 13070700 		addi	a4,a4,%lo(.LANCHOR1)
 159 000e 93870700 		addi	a5,a5,%lo(.LANCHOR2)
 121:lib/gd32vf103/src/gd32vf103v_eval.c ****     gpio_bit_write(GPIO_PORT[lednum], GPIO_PIN[lednum], 
 160              		.loc 1 121 1 is_stmt 0
 161 0012 4111     		addi	sp,sp,-16
 162              	.LCFI2:
 163              		.cfi_def_cfa_offset 16
GAS LISTING C:\Users\Kalle\AppData\Local\Temp\cc02FuFw.s 			page 6


 164              		.loc 1 122 5
 165 0014 2A97     		add	a4,a4,a0
 166 0016 AA97     		add	a5,a5,a0
 121:lib/gd32vf103/src/gd32vf103v_eval.c ****     gpio_bit_write(GPIO_PORT[lednum], GPIO_PIN[lednum], 
 167              		.loc 1 121 1
 168 0018 22C4     		sw	s0,8(sp)
 169 001a 26C2     		sw	s1,4(sp)
 170              		.cfi_offset 8, -8
 171              		.cfi_offset 9, -12
 172              		.loc 1 122 5
 173 001c 0043     		lw	s0,0(a4)
 174 001e 8443     		lw	s1,0(a5)
 121:lib/gd32vf103/src/gd32vf103v_eval.c ****     gpio_bit_write(GPIO_PORT[lednum], GPIO_PIN[lednum], 
 175              		.loc 1 121 1
 176 0020 06C6     		sw	ra,12(sp)
 177              		.cfi_offset 1, -4
 123:lib/gd32vf103/src/gd32vf103v_eval.c ****         (bit_status)(1-gpio_input_bit_get(GPIO_PORT[lednum], GPIO_PIN[lednum])));
 178              		.loc 1 123 24
 179 0022 2285     		mv	a0,s0
 180 0024 A685     		mv	a1,s1
 181 0026 97000000 		call	gpio_input_bit_get
 181      E7800000 
 182              	.LVL10:
 183              		.loc 1 123 23
 184 002e 0546     		li	a2,1
 122:lib/gd32vf103/src/gd32vf103v_eval.c ****     gpio_bit_write(GPIO_PORT[lednum], GPIO_PIN[lednum], 
 185              		.loc 1 122 5
 186 0030 098E     		sub	a2,a2,a0
 187 0032 2285     		mv	a0,s0
 124:lib/gd32vf103/src/gd32vf103v_eval.c **** }
 188              		.loc 1 124 1
 189 0034 2244     		lw	s0,8(sp)
 190              		.cfi_restore 8
 191 0036 B240     		lw	ra,12(sp)
 192              		.cfi_restore 1
 122:lib/gd32vf103/src/gd32vf103v_eval.c ****         (bit_status)(1-gpio_input_bit_get(GPIO_PORT[lednum], GPIO_PIN[lednum])));
 193              		.loc 1 122 5
 194 0038 A685     		mv	a1,s1
 195              		.loc 1 124 1
 196 003a 9244     		lw	s1,4(sp)
 197              		.cfi_restore 9
 198 003c 4101     		addi	sp,sp,16
 199              	.LCFI3:
 200              		.cfi_def_cfa_offset 0
 122:lib/gd32vf103/src/gd32vf103v_eval.c ****         (bit_status)(1-gpio_input_bit_get(GPIO_PORT[lednum], GPIO_PIN[lednum])));
 201              		.loc 1 122 5
 202 003e 17030000 		tail	gpio_bit_write
 202      67000300 
 203              	.LVL11:
 204              		.cfi_endproc
 205              	.LFE5:
 207              		.section	.text.gd_eval_key_init,"ax",@progbits
 208              		.align	1
 209              		.globl	gd_eval_key_init
 211              	gd_eval_key_init:
 212              	.LFB6:
 125:lib/gd32vf103/src/gd32vf103v_eval.c **** 
GAS LISTING C:\Users\Kalle\AppData\Local\Temp\cc02FuFw.s 			page 7


 126:lib/gd32vf103/src/gd32vf103v_eval.c **** /*!
 127:lib/gd32vf103/src/gd32vf103v_eval.c ****     \brief      configure key
 128:lib/gd32vf103/src/gd32vf103v_eval.c ****     \param[in]  key_num: specify the key to be configured
 129:lib/gd32vf103/src/gd32vf103v_eval.c ****       \arg        KEY_A: wakeup key
 130:lib/gd32vf103/src/gd32vf103v_eval.c ****       \arg        KEY_B: tamper key
 131:lib/gd32vf103/src/gd32vf103v_eval.c ****       \arg        KEY_C: user key
 132:lib/gd32vf103/src/gd32vf103v_eval.c ****       \arg        KEY_D: user key
 133:lib/gd32vf103/src/gd32vf103v_eval.c ****       \arg        KEY_CET: user key
 134:lib/gd32vf103/src/gd32vf103v_eval.c ****     \param[in]  key_mode: specify button mode
 135:lib/gd32vf103/src/gd32vf103v_eval.c ****       \arg        KEY_MODE_GPIO: key will be used as simple IO
 136:lib/gd32vf103/src/gd32vf103v_eval.c ****       \arg        KEY_MODE_EXTI: key will be connected to EXTI line with interrupt
 137:lib/gd32vf103/src/gd32vf103v_eval.c ****     \param[out] none
 138:lib/gd32vf103/src/gd32vf103v_eval.c ****     \retval     none
 139:lib/gd32vf103/src/gd32vf103v_eval.c **** */
 140:lib/gd32vf103/src/gd32vf103v_eval.c **** 
 141:lib/gd32vf103/src/gd32vf103v_eval.c **** void gd_eval_key_init(key_typedef_enum key_num, keymode_typedef_enum key_mode)
 142:lib/gd32vf103/src/gd32vf103v_eval.c **** {
 213              		.loc 1 142 1 is_stmt 1
 214              		.cfi_startproc
 215              	.LVL12:
 143:lib/gd32vf103/src/gd32vf103v_eval.c ****     /* enable the key clock */
 144:lib/gd32vf103/src/gd32vf103v_eval.c ****     rcu_periph_clock_enable(KEY_CLK[key_num]);
 216              		.loc 1 144 5
 142:lib/gd32vf103/src/gd32vf103v_eval.c ****     /* enable the key clock */
 217              		.loc 1 142 1 is_stmt 0
 218 0000 4111     		addi	sp,sp,-16
 219              	.LCFI4:
 220              		.cfi_def_cfa_offset 16
 221              		.loc 1 144 5
 222 0002 B7070000 		lui	a5,%hi(.LANCHOR3)
 142:lib/gd32vf103/src/gd32vf103v_eval.c ****     /* enable the key clock */
 223              		.loc 1 142 1
 224 0006 22C4     		sw	s0,8(sp)
 225              		.loc 1 144 5
 226 0008 93870700 		addi	a5,a5,%lo(.LANCHOR3)
 227              		.cfi_offset 8, -8
 228 000c 13142500 		slli	s0,a0,2
 229 0010 A297     		add	a5,a5,s0
 142:lib/gd32vf103/src/gd32vf103v_eval.c ****     /* enable the key clock */
 230              		.loc 1 142 1
 231 0012 26C2     		sw	s1,4(sp)
 232              		.cfi_offset 9, -12
 233 0014 AA84     		mv	s1,a0
 234              		.loc 1 144 5
 235 0016 8843     		lw	a0,0(a5)
 236              	.LVL13:
 142:lib/gd32vf103/src/gd32vf103v_eval.c ****     /* enable the key clock */
 237              		.loc 1 142 1
 238 0018 06C6     		sw	ra,12(sp)
 239 001a 4AC0     		sw	s2,0(sp)
 240              		.cfi_offset 1, -4
 241              		.cfi_offset 18, -16
 142:lib/gd32vf103/src/gd32vf103v_eval.c ****     /* enable the key clock */
 242              		.loc 1 142 1
 243 001c 2E89     		mv	s2,a1
 244              		.loc 1 144 5
 245 001e 97000000 		call	rcu_periph_clock_enable
GAS LISTING C:\Users\Kalle\AppData\Local\Temp\cc02FuFw.s 			page 8


 245      E7800000 
 246              	.LVL14:
 145:lib/gd32vf103/src/gd32vf103v_eval.c ****     rcu_periph_clock_enable(RCU_AF);
 247              		.loc 1 145 5 is_stmt 1
 248 0026 13050060 		li	a0,1536
 249 002a 97000000 		call	rcu_periph_clock_enable
 249      E7800000 
 250              	.LVL15:
 146:lib/gd32vf103/src/gd32vf103v_eval.c **** 
 147:lib/gd32vf103/src/gd32vf103v_eval.c ****     /* configure button pin as input */
 148:lib/gd32vf103/src/gd32vf103v_eval.c ****     gpio_init(KEY_PORT[key_num], GPIO_MODE_IN_FLOATING, GPIO_OSPEED_50MHZ, KEY_PIN[key_num]);
 251              		.loc 1 148 5
 252 0032 37070000 		lui	a4,%hi(.LANCHOR4)
 253 0036 B7070000 		lui	a5,%hi(.LANCHOR5)
 254 003a 13070700 		addi	a4,a4,%lo(.LANCHOR4)
 255 003e 93870700 		addi	a5,a5,%lo(.LANCHOR5)
 256 0042 A297     		add	a5,a5,s0
 257 0044 2297     		add	a4,a4,s0
 258 0046 8843     		lw	a0,0(a5)
 259 0048 1443     		lw	a3,0(a4)
 260 004a 0D46     		li	a2,3
 261 004c 9145     		li	a1,4
 262 004e 97000000 		call	gpio_init
 262      E7800000 
 263              	.LVL16:
 149:lib/gd32vf103/src/gd32vf103v_eval.c **** 
 150:lib/gd32vf103/src/gd32vf103v_eval.c ****     if (key_mode == KEY_MODE_EXTI) {
 264              		.loc 1 150 5
 265              		.loc 1 150 8 is_stmt 0
 266 0056 8547     		li	a5,1
 267 0058 6308F900 		beq	s2,a5,.L11
 151:lib/gd32vf103/src/gd32vf103v_eval.c ****         /* enable and set key EXTI interrupt to the lowest priority */
 152:lib/gd32vf103/src/gd32vf103v_eval.c ****         eclic_global_interrupt_enable();
 153:lib/gd32vf103/src/gd32vf103v_eval.c ****         eclic_irq_enable(KEY_IRQn[key_num],1, 1);
 154:lib/gd32vf103/src/gd32vf103v_eval.c **** 
 155:lib/gd32vf103/src/gd32vf103v_eval.c ****         /* connect key EXTI line to key GPIO pin */
 156:lib/gd32vf103/src/gd32vf103v_eval.c ****         gpio_exti_source_select(KEY_PORT_SOURCE[key_num], KEY_PIN_SOURCE[key_num]);
 157:lib/gd32vf103/src/gd32vf103v_eval.c **** 
 158:lib/gd32vf103/src/gd32vf103v_eval.c ****         /* configure key EXTI line */
 159:lib/gd32vf103/src/gd32vf103v_eval.c ****         exti_init(KEY_EXTI_LINE[key_num], EXTI_INTERRUPT, EXTI_TRIG_FALLING);
 160:lib/gd32vf103/src/gd32vf103v_eval.c ****         exti_interrupt_flag_clear(KEY_EXTI_LINE[key_num]);
 161:lib/gd32vf103/src/gd32vf103v_eval.c ****     }
 162:lib/gd32vf103/src/gd32vf103v_eval.c **** }
 268              		.loc 1 162 1
 269 005c B240     		lw	ra,12(sp)
 270              		.cfi_remember_state
 271              		.cfi_restore 1
 272 005e 2244     		lw	s0,8(sp)
 273              		.cfi_restore 8
 274 0060 9244     		lw	s1,4(sp)
 275              		.cfi_restore 9
 276              	.LVL17:
 277 0062 0249     		lw	s2,0(sp)
 278              		.cfi_restore 18
 279              	.LVL18:
 280 0064 4101     		addi	sp,sp,16
 281              	.LCFI5:
GAS LISTING C:\Users\Kalle\AppData\Local\Temp\cc02FuFw.s 			page 9


 282              		.cfi_def_cfa_offset 0
 283 0066 8280     		jr	ra
 284              	.LVL19:
 285              	.L11:
 286              	.LCFI6:
 287              		.cfi_restore_state
 152:lib/gd32vf103/src/gd32vf103v_eval.c ****         eclic_irq_enable(KEY_IRQn[key_num],1, 1);
 288              		.loc 1 152 9 is_stmt 1
 289 0068 97000000 		call	eclic_global_interrupt_enable
 289      E7800000 
 290              	.LVL20:
 153:lib/gd32vf103/src/gd32vf103v_eval.c **** 
 291              		.loc 1 153 9
 153:lib/gd32vf103/src/gd32vf103v_eval.c **** 
 292              		.loc 1 153 34 is_stmt 0
 293 0070 B7070000 		lui	a5,%hi(.LANCHOR6)
 294 0074 93870700 		addi	a5,a5,%lo(.LANCHOR6)
 295 0078 A697     		add	a5,a5,s1
 153:lib/gd32vf103/src/gd32vf103v_eval.c **** 
 296              		.loc 1 153 9
 297 007a 03C50700 		lbu	a0,0(a5)
 298 007e 0546     		li	a2,1
 299 0080 8545     		li	a1,1
 300 0082 97000000 		call	eclic_irq_enable
 300      E7800000 
 301              	.LVL21:
 156:lib/gd32vf103/src/gd32vf103v_eval.c **** 
 302              		.loc 1 156 9 is_stmt 1
 303 008a 37070000 		lui	a4,%hi(.LANCHOR7)
 304 008e B7070000 		lui	a5,%hi(.LANCHOR8)
 305 0092 93870700 		addi	a5,a5,%lo(.LANCHOR8)
 306 0096 13070700 		addi	a4,a4,%lo(.LANCHOR7)
 307 009a 2697     		add	a4,a4,s1
 308 009c BE94     		add	s1,a5,s1
 309              	.LVL22:
 310 009e 83450700 		lbu	a1,0(a4)
 311 00a2 03C50400 		lbu	a0,0(s1)
 312 00a6 97000000 		call	gpio_exti_source_select
 312      E7800000 
 313              	.LVL23:
 159:lib/gd32vf103/src/gd32vf103v_eval.c ****         exti_interrupt_flag_clear(KEY_EXTI_LINE[key_num]);
 314              		.loc 1 159 9
 315 00ae B7070000 		lui	a5,%hi(.LANCHOR9)
 316 00b2 93870700 		addi	a5,a5,%lo(.LANCHOR9)
 317 00b6 3E94     		add	s0,a5,s0
 318 00b8 0040     		lw	s0,0(s0)
 319 00ba 0546     		li	a2,1
 320 00bc 8145     		li	a1,0
 321 00be 2285     		mv	a0,s0
 322 00c0 97000000 		call	exti_init
 322      E7800000 
 323              	.LVL24:
 160:lib/gd32vf103/src/gd32vf103v_eval.c ****     }
 324              		.loc 1 160 9
 325 00c8 2285     		mv	a0,s0
 326              		.loc 1 162 1 is_stmt 0
 327 00ca 2244     		lw	s0,8(sp)
GAS LISTING C:\Users\Kalle\AppData\Local\Temp\cc02FuFw.s 			page 10


 328              		.cfi_restore 8
 329 00cc B240     		lw	ra,12(sp)
 330              		.cfi_restore 1
 331 00ce 9244     		lw	s1,4(sp)
 332              		.cfi_restore 9
 333 00d0 0249     		lw	s2,0(sp)
 334              		.cfi_restore 18
 335              	.LVL25:
 336 00d2 4101     		addi	sp,sp,16
 337              	.LCFI7:
 338              		.cfi_def_cfa_offset 0
 160:lib/gd32vf103/src/gd32vf103v_eval.c ****     }
 339              		.loc 1 160 9
 340 00d4 17030000 		tail	exti_interrupt_flag_clear
 340      67000300 
 341              	.LVL26:
 342              		.cfi_endproc
 343              	.LFE6:
 345              		.section	.text.gd_eval_key_state_get,"ax",@progbits
 346              		.align	1
 347              		.globl	gd_eval_key_state_get
 349              	gd_eval_key_state_get:
 350              	.LFB7:
 163:lib/gd32vf103/src/gd32vf103v_eval.c **** 
 164:lib/gd32vf103/src/gd32vf103v_eval.c **** /*!
 165:lib/gd32vf103/src/gd32vf103v_eval.c ****     \brief      return the selected key state
 166:lib/gd32vf103/src/gd32vf103v_eval.c ****     \param[in]  key: specify the key to be checked
 167:lib/gd32vf103/src/gd32vf103v_eval.c ****       \arg        KEY_A: wakeup key
 168:lib/gd32vf103/src/gd32vf103v_eval.c ****       \arg        KEY_B: tamper key
 169:lib/gd32vf103/src/gd32vf103v_eval.c ****       \arg        KEY_C: user key
 170:lib/gd32vf103/src/gd32vf103v_eval.c ****       \arg        KEY_D: user key
 171:lib/gd32vf103/src/gd32vf103v_eval.c ****       \arg        KEY_CET: user key
 172:lib/gd32vf103/src/gd32vf103v_eval.c ****     \param[out] none
 173:lib/gd32vf103/src/gd32vf103v_eval.c ****     \retval     the key's GPIO pin value
 174:lib/gd32vf103/src/gd32vf103v_eval.c **** */
 175:lib/gd32vf103/src/gd32vf103v_eval.c **** uint8_t gd_eval_key_state_get(key_typedef_enum key)
 176:lib/gd32vf103/src/gd32vf103v_eval.c **** {
 351              		.loc 1 176 1 is_stmt 1
 352              		.cfi_startproc
 353              	.LVL27:
 177:lib/gd32vf103/src/gd32vf103v_eval.c ****     return gpio_input_bit_get(KEY_PORT[key], KEY_PIN[key]);
 354              		.loc 1 177 5
 355              		.loc 1 177 12 is_stmt 0
 356 0000 13172500 		slli	a4,a0,2
 357 0004 B7070000 		lui	a5,%hi(.LANCHOR4)
 358 0008 37050000 		lui	a0,%hi(.LANCHOR5)
 359              	.LVL28:
 360 000c 93870700 		addi	a5,a5,%lo(.LANCHOR4)
 361 0010 13050500 		addi	a0,a0,%lo(.LANCHOR5)
 362 0014 BA97     		add	a5,a5,a4
 363 0016 3A95     		add	a0,a0,a4
 364 0018 8C43     		lw	a1,0(a5)
 365 001a 0841     		lw	a0,0(a0)
 176:lib/gd32vf103/src/gd32vf103v_eval.c ****     return gpio_input_bit_get(KEY_PORT[key], KEY_PIN[key]);
 366              		.loc 1 176 1
 367 001c 4111     		addi	sp,sp,-16
 368              	.LCFI8:
GAS LISTING C:\Users\Kalle\AppData\Local\Temp\cc02FuFw.s 			page 11


 369              		.cfi_def_cfa_offset 16
 370 001e 06C6     		sw	ra,12(sp)
 371              		.cfi_offset 1, -4
 372              		.loc 1 177 12
 373 0020 97000000 		call	gpio_input_bit_get
 373      E7800000 
 374              	.LVL29:
 178:lib/gd32vf103/src/gd32vf103v_eval.c **** }
 375              		.loc 1 178 1
 376 0028 B240     		lw	ra,12(sp)
 377              		.cfi_restore 1
 378 002a 1375F50F 		andi	a0,a0,0xff
 379 002e 4101     		addi	sp,sp,16
 380              	.LCFI9:
 381              		.cfi_def_cfa_offset 0
 382 0030 8280     		jr	ra
 383              		.cfi_endproc
 384              	.LFE7:
 386              		.section	.text.gd_eval_com_init,"ax",@progbits
 387              		.align	1
 388              		.globl	gd_eval_com_init
 390              	gd_eval_com_init:
 391              	.LFB8:
 179:lib/gd32vf103/src/gd32vf103v_eval.c **** 
 180:lib/gd32vf103/src/gd32vf103v_eval.c **** /*!
 181:lib/gd32vf103/src/gd32vf103v_eval.c ****     \brief      configure COM port
 182:lib/gd32vf103/src/gd32vf103v_eval.c ****     \param[in]  com: COM on the board
 183:lib/gd32vf103/src/gd32vf103v_eval.c ****       \arg        EVAL_COM0: COM0 on the board
 184:lib/gd32vf103/src/gd32vf103v_eval.c ****       \arg        EVAL_COM1: COM1 on the board
 185:lib/gd32vf103/src/gd32vf103v_eval.c ****     \param[out] none
 186:lib/gd32vf103/src/gd32vf103v_eval.c ****     \retval     none
 187:lib/gd32vf103/src/gd32vf103v_eval.c **** */
 188:lib/gd32vf103/src/gd32vf103v_eval.c **** void gd_eval_com_init(uint32_t com)
 189:lib/gd32vf103/src/gd32vf103v_eval.c **** {
 392              		.loc 1 189 1 is_stmt 1
 393              		.cfi_startproc
 394              	.LVL30:
 190:lib/gd32vf103/src/gd32vf103v_eval.c ****     uint32_t com_id = 0U;
 395              		.loc 1 190 5
 191:lib/gd32vf103/src/gd32vf103v_eval.c ****     if(EVAL_COM0 == com){
 396              		.loc 1 191 5
 192:lib/gd32vf103/src/gd32vf103v_eval.c ****         com_id = 0U;
 193:lib/gd32vf103/src/gd32vf103v_eval.c ****     }else if(EVAL_COM1 == com){
 397              		.loc 1 193 11
 189:lib/gd32vf103/src/gd32vf103v_eval.c ****     uint32_t com_id = 0U;
 398              		.loc 1 189 1 is_stmt 0
 399 0000 4111     		addi	sp,sp,-16
 400              	.LCFI10:
 401              		.cfi_def_cfa_offset 16
 402 0002 22C4     		sw	s0,8(sp)
 403              		.cfi_offset 8, -8
 404              		.loc 1 193 13
 405 0004 37C4FFBF 		li	s0,-1073758208
 406 0008 130404C0 		addi	s0,s0,-1024
 407 000c 2A94     		add	s0,a0,s0
 408 000e 13341400 		seqz	s0,s0
 409              	.LVL31:
GAS LISTING C:\Users\Kalle\AppData\Local\Temp\cc02FuFw.s 			page 12


 194:lib/gd32vf103/src/gd32vf103v_eval.c ****         com_id = 1U;
 195:lib/gd32vf103/src/gd32vf103v_eval.c ****     }
 196:lib/gd32vf103/src/gd32vf103v_eval.c ****     
 197:lib/gd32vf103/src/gd32vf103v_eval.c ****     /* enable GPIO clock */
 198:lib/gd32vf103/src/gd32vf103v_eval.c ****     rcu_periph_clock_enable(COM_GPIO_CLK[com_id]);
 410              		.loc 1 198 5 is_stmt 1
 411 0012 B7070000 		lui	a5,%hi(.LANCHOR10)
 412 0016 0A04     		slli	s0,s0,2
 413              	.LVL32:
 414 0018 93870700 		addi	a5,a5,%lo(.LANCHOR10)
 415 001c A297     		add	a5,a5,s0
 189:lib/gd32vf103/src/gd32vf103v_eval.c ****     uint32_t com_id = 0U;
 416              		.loc 1 189 1 is_stmt 0
 417 001e 26C2     		sw	s1,4(sp)
 418              		.cfi_offset 9, -12
 419 0020 AA84     		mv	s1,a0
 420              		.loc 1 198 5
 421 0022 8843     		lw	a0,0(a5)
 422              	.LVL33:
 189:lib/gd32vf103/src/gd32vf103v_eval.c ****     uint32_t com_id = 0U;
 423              		.loc 1 189 1
 424 0024 06C6     		sw	ra,12(sp)
 425 0026 4AC0     		sw	s2,0(sp)
 426              		.cfi_offset 1, -4
 427              		.cfi_offset 18, -16
 428              		.loc 1 198 5
 429 0028 97000000 		call	rcu_periph_clock_enable
 429      E7800000 
 430              	.LVL34:
 199:lib/gd32vf103/src/gd32vf103v_eval.c **** 
 200:lib/gd32vf103/src/gd32vf103v_eval.c ****     /* enable USART clock */
 201:lib/gd32vf103/src/gd32vf103v_eval.c ****     rcu_periph_clock_enable(COM_CLK[com_id]);
 431              		.loc 1 201 5 is_stmt 1
 432 0030 B7070000 		lui	a5,%hi(.LANCHOR11)
 433 0034 93870700 		addi	a5,a5,%lo(.LANCHOR11)
 434 0038 A297     		add	a5,a5,s0
 435 003a 8843     		lw	a0,0(a5)
 436 003c 97000000 		call	rcu_periph_clock_enable
 436      E7800000 
 437              	.LVL35:
 202:lib/gd32vf103/src/gd32vf103v_eval.c **** 
 203:lib/gd32vf103/src/gd32vf103v_eval.c ****     /* connect port to USARTx_Tx */
 204:lib/gd32vf103/src/gd32vf103v_eval.c ****     gpio_init(COM_GPIO_PORT[com_id], GPIO_MODE_AF_PP, GPIO_OSPEED_50MHZ, COM_TX_PIN[com_id]);
 438              		.loc 1 204 5
 439 0044 B7070000 		lui	a5,%hi(.LANCHOR12)
 440 0048 93870700 		addi	a5,a5,%lo(.LANCHOR12)
 441 004c A297     		add	a5,a5,s0
 442 004e 03A90700 		lw	s2,0(a5)
 443 0052 B7070000 		lui	a5,%hi(.LANCHOR13)
 444 0056 93870700 		addi	a5,a5,%lo(.LANCHOR13)
 445 005a A297     		add	a5,a5,s0
 446 005c 9443     		lw	a3,0(a5)
 447 005e 4A85     		mv	a0,s2
 448 0060 0D46     		li	a2,3
 449 0062 E145     		li	a1,24
 450 0064 97000000 		call	gpio_init
 450      E7800000 
GAS LISTING C:\Users\Kalle\AppData\Local\Temp\cc02FuFw.s 			page 13


 451              	.LVL36:
 205:lib/gd32vf103/src/gd32vf103v_eval.c **** 
 206:lib/gd32vf103/src/gd32vf103v_eval.c ****     /* connect port to USARTx_Rx */
 207:lib/gd32vf103/src/gd32vf103v_eval.c ****     gpio_init(COM_GPIO_PORT[com_id], GPIO_MODE_IN_FLOATING, GPIO_OSPEED_50MHZ, COM_RX_PIN[com_id]);
 452              		.loc 1 207 5
 453 006c B7070000 		lui	a5,%hi(.LANCHOR14)
 454 0070 93870700 		addi	a5,a5,%lo(.LANCHOR14)
 455 0074 3E94     		add	s0,a5,s0
 456 0076 1440     		lw	a3,0(s0)
 457 0078 0D46     		li	a2,3
 458 007a 9145     		li	a1,4
 459 007c 4A85     		mv	a0,s2
 460 007e 97000000 		call	gpio_init
 460      E7800000 
 461              	.LVL37:
 208:lib/gd32vf103/src/gd32vf103v_eval.c **** 
 209:lib/gd32vf103/src/gd32vf103v_eval.c ****     /* USART configure */
 210:lib/gd32vf103/src/gd32vf103v_eval.c ****     usart_deinit(com);
 462              		.loc 1 210 5
 463 0086 2685     		mv	a0,s1
 464 0088 97000000 		call	usart_deinit
 464      E7800000 
 465              	.LVL38:
 211:lib/gd32vf103/src/gd32vf103v_eval.c ****     usart_baudrate_set(com, 115200U);
 466              		.loc 1 211 5
 467 0090 F165     		li	a1,114688
 468 0092 2685     		mv	a0,s1
 469 0094 93850520 		addi	a1,a1,512
 470 0098 97000000 		call	usart_baudrate_set
 470      E7800000 
 471              	.LVL39:
 212:lib/gd32vf103/src/gd32vf103v_eval.c ****     usart_word_length_set(com, USART_WL_8BIT);
 472              		.loc 1 212 5
 473 00a0 2685     		mv	a0,s1
 474 00a2 8145     		li	a1,0
 475 00a4 97000000 		call	usart_word_length_set
 475      E7800000 
 476              	.LVL40:
 213:lib/gd32vf103/src/gd32vf103v_eval.c ****     usart_stop_bit_set(com, USART_STB_1BIT);
 477              		.loc 1 213 5
 478 00ac 2685     		mv	a0,s1
 479 00ae 8145     		li	a1,0
 480 00b0 97000000 		call	usart_stop_bit_set
 480      E7800000 
 481              	.LVL41:
 214:lib/gd32vf103/src/gd32vf103v_eval.c ****     usart_parity_config(com, USART_PM_NONE);
 482              		.loc 1 214 5
 483 00b8 2685     		mv	a0,s1
 484 00ba 8145     		li	a1,0
 485 00bc 97000000 		call	usart_parity_config
 485      E7800000 
 486              	.LVL42:
 215:lib/gd32vf103/src/gd32vf103v_eval.c ****     usart_hardware_flow_rts_config(com, USART_RTS_DISABLE);
 487              		.loc 1 215 5
 488 00c4 2685     		mv	a0,s1
 489 00c6 8145     		li	a1,0
 490 00c8 97000000 		call	usart_hardware_flow_rts_config
GAS LISTING C:\Users\Kalle\AppData\Local\Temp\cc02FuFw.s 			page 14


 490      E7800000 
 491              	.LVL43:
 216:lib/gd32vf103/src/gd32vf103v_eval.c ****     usart_hardware_flow_cts_config(com, USART_CTS_DISABLE);
 492              		.loc 1 216 5
 493 00d0 2685     		mv	a0,s1
 494 00d2 8145     		li	a1,0
 495 00d4 97000000 		call	usart_hardware_flow_cts_config
 495      E7800000 
 496              	.LVL44:
 217:lib/gd32vf103/src/gd32vf103v_eval.c ****     usart_receive_config(com, USART_RECEIVE_ENABLE);
 497              		.loc 1 217 5
 498 00dc 2685     		mv	a0,s1
 499 00de 9145     		li	a1,4
 500 00e0 97000000 		call	usart_receive_config
 500      E7800000 
 501              	.LVL45:
 218:lib/gd32vf103/src/gd32vf103v_eval.c ****     usart_transmit_config(com, USART_TRANSMIT_ENABLE);
 502              		.loc 1 218 5
 503 00e8 2685     		mv	a0,s1
 504 00ea A145     		li	a1,8
 505 00ec 97000000 		call	usart_transmit_config
 505      E7800000 
 506              	.LVL46:
 219:lib/gd32vf103/src/gd32vf103v_eval.c ****     usart_enable(com);
 507              		.loc 1 219 5
 220:lib/gd32vf103/src/gd32vf103v_eval.c **** }
 508              		.loc 1 220 1 is_stmt 0
 509 00f4 2244     		lw	s0,8(sp)
 510              		.cfi_restore 8
 511 00f6 B240     		lw	ra,12(sp)
 512              		.cfi_restore 1
 513 00f8 0249     		lw	s2,0(sp)
 514              		.cfi_restore 18
 219:lib/gd32vf103/src/gd32vf103v_eval.c ****     usart_enable(com);
 515              		.loc 1 219 5
 516 00fa 2685     		mv	a0,s1
 517              		.loc 1 220 1
 518 00fc 9244     		lw	s1,4(sp)
 519              		.cfi_restore 9
 520              	.LVL47:
 521 00fe 4101     		addi	sp,sp,16
 522              	.LCFI11:
 523              		.cfi_def_cfa_offset 0
 219:lib/gd32vf103/src/gd32vf103v_eval.c ****     usart_enable(com);
 524              		.loc 1 219 5
 525 0100 17030000 		tail	usart_enable
 525      67000300 
 526              	.LVL48:
 527              		.cfi_endproc
 528              	.LFE8:
 530              		.section	.rodata.GPIO_CLK,"a"
 531              		.align	2
 532              		.set	.LANCHOR0,. + 0
 535              	GPIO_CLK:
 536 0000 04060000 		.word	1540
 537 0004 04060000 		.word	1540
 538 0008 06060000 		.word	1542
GAS LISTING C:\Users\Kalle\AppData\Local\Temp\cc02FuFw.s 			page 15


 539 000c 06060000 		.word	1542
 540              		.section	.rodata.GPIO_PIN,"a"
 541              		.align	2
 542              		.set	.LANCHOR2,. + 0
 545              	GPIO_PIN:
 546 0000 01000000 		.word	1
 547 0004 04000000 		.word	4
 548 0008 01000000 		.word	1
 549 000c 02000000 		.word	2
 550              		.section	.rodata.GPIO_PORT,"a"
 551              		.align	2
 552              		.set	.LANCHOR1,. + 0
 555              	GPIO_PORT:
 556 0000 00100140 		.word	1073811456
 557 0004 00100140 		.word	1073811456
 558 0008 00180140 		.word	1073813504
 559 000c 00180140 		.word	1073813504
 560              		.section	.rodata.KEY_CLK,"a"
 561              		.align	2
 562              		.set	.LANCHOR3,. + 0
 565              	KEY_CLK:
 566 0000 02060000 		.word	1538
 567 0004 04060000 		.word	1540
 568 0008 03060000 		.word	1539
 569 000c 04060000 		.word	1540
 570 0010 04060000 		.word	1540
 571              		.section	.rodata.KEY_EXTI_LINE,"a"
 572              		.align	2
 573              		.set	.LANCHOR9,. + 0
 576              	KEY_EXTI_LINE:
 577 0000 01000000 		.word	1
 578 0004 00200000 		.word	8192
 579 0008 00400000 		.word	16384
 580 000c 20000000 		.word	32
 581 0010 10000000 		.word	16
 582              		.section	.rodata.KEY_PIN,"a"
 583              		.align	2
 584              		.set	.LANCHOR4,. + 0
 587              	KEY_PIN:
 588 0000 01000000 		.word	1
 589 0004 00200000 		.word	8192
 590 0008 00400000 		.word	16384
 591 000c 20000000 		.word	32
 592 0010 10000000 		.word	16
 593              		.section	.rodata.KEY_PORT,"a"
 594              		.align	2
 595              		.set	.LANCHOR5,. + 0
 598              	KEY_PORT:
 599 0000 00080140 		.word	1073809408
 600 0004 00100140 		.word	1073811456
 601 0008 000C0140 		.word	1073810432
 602 000c 00100140 		.word	1073811456
 603 0010 00100140 		.word	1073811456
 604              		.section	.sdata2.COM_CLK,"a"
 605              		.align	2
 606              		.set	.LANCHOR11,. + 0
 609              	COM_CLK:
GAS LISTING C:\Users\Kalle\AppData\Local\Temp\cc02FuFw.s 			page 16


 610 0000 0E060000 		.word	1550
 611 0004 11070000 		.word	1809
 612              		.section	.sdata2.COM_GPIO_CLK,"a"
 613              		.align	2
 614              		.set	.LANCHOR10,. + 0
 617              	COM_GPIO_CLK:
 618 0000 02060000 		.word	1538
 619 0004 02060000 		.word	1538
 620              		.section	.sdata2.COM_GPIO_PORT,"a"
 621              		.align	2
 622              		.set	.LANCHOR12,. + 0
 625              	COM_GPIO_PORT:
 626 0000 00080140 		.word	1073809408
 627 0004 00080140 		.word	1073809408
 628              		.section	.sdata2.COM_RX_PIN,"a"
 629              		.align	2
 630              		.set	.LANCHOR14,. + 0
 633              	COM_RX_PIN:
 634 0000 00040000 		.word	1024
 635 0004 08000000 		.word	8
 636              		.section	.sdata2.COM_TX_PIN,"a"
 637              		.align	2
 638              		.set	.LANCHOR13,. + 0
 641              	COM_TX_PIN:
 642 0000 00020000 		.word	512
 643 0004 04000000 		.word	4
 644              		.section	.sdata2.KEY_IRQn,"a"
 645              		.align	2
 646              		.set	.LANCHOR6,. + 0
 649              	KEY_IRQn:
 650 0000 19       		.byte	25
 651 0001 3B       		.byte	59
 652 0002 3B       		.byte	59
 653 0003 2A       		.byte	42
 654 0004 1D       		.byte	29
 655              		.section	.sdata2.KEY_PIN_SOURCE,"a"
 656              		.align	2
 657              		.set	.LANCHOR7,. + 0
 660              	KEY_PIN_SOURCE:
 661 0000 00       		.byte	0
 662 0001 0D       		.byte	13
 663 0002 0E       		.byte	14
 664 0003 05       		.byte	5
 665 0004 04       		.byte	4
 666              		.section	.sdata2.KEY_PORT_SOURCE,"a"
 667              		.align	2
 668              		.set	.LANCHOR8,. + 0
 671              	KEY_PORT_SOURCE:
 672 0000 00       		.byte	0
 673 0001 02       		.byte	2
 674 0002 01       		.byte	1
 675 0003 02       		.byte	2
 676 0004 02       		.byte	2
 677              		.text
 678              	.Letext0:
 679              		.file 2 "c:\\idrotttek-kurs\\toolchain-gd32v-win\\compiler\\riscv64-unknown-elf\\include\\machine\
 680              		.file 3 "c:\\idrotttek-kurs\\toolchain-gd32v-win\\compiler\\riscv64-unknown-elf\\include\\sys\\_st
GAS LISTING C:\Users\Kalle\AppData\Local\Temp\cc02FuFw.s 			page 17


 681              		.file 4 "../../firmware/GD32VF103_standard_peripheral/gd32vf103.h"
 682              		.file 5 "../../firmware/GD32VF103_standard_peripheral/Include/gd32vf103_exti.h"
 683              		.file 6 "../../firmware/GD32VF103_standard_peripheral/Include/gd32vf103_gpio.h"
 684              		.file 7 "../../firmware/GD32VF103_standard_peripheral/Include/gd32vf103_rcu.h"
 685              		.file 8 "lib/gd32vf103/include/gd32vf103v_eval.h"
 686              		.file 9 "../../firmware/GD32VF103_standard_peripheral/Include/gd32vf103_usart.h"
 687              		.file 10 "../../firmware/GD32VF103_standard_peripheral/Include/gd32vf103_eclic.h"
 688              		.file 11 "../../firmware/GD32VF103_standard_peripheral/system_gd32vf103.h"
GAS LISTING C:\Users\Kalle\AppData\Local\Temp\cc02FuFw.s 			page 18


DEFINED SYMBOLS
                            *ABS*:0000000000000000 gd32vf103v_eval.c
C:\Users\Kalle\AppData\Local\Temp\cc02FuFw.s:13     .text.gd_eval_led_init:0000000000000000 gd_eval_led_init
C:\Users\Kalle\AppData\Local\Temp\cc02FuFw.s:17     .text.gd_eval_led_init:0000000000000000 .L0 
C:\Users\Kalle\AppData\Local\Temp\cc02FuFw.s:19     .text.gd_eval_led_init:0000000000000000 .L0 
C:\Users\Kalle\AppData\Local\Temp\cc02FuFw.s:20     .text.gd_eval_led_init:0000000000000000 .L0 
C:\Users\Kalle\AppData\Local\Temp\cc02FuFw.s:21     .text.gd_eval_led_init:0000000000000000 .L0 
C:\Users\Kalle\AppData\Local\Temp\cc02FuFw.s:23     .text.gd_eval_led_init:0000000000000002 .L0 
C:\Users\Kalle\AppData\Local\Temp\cc02FuFw.s:25     .text.gd_eval_led_init:0000000000000002 .L0 
C:\Users\Kalle\AppData\Local\Temp\cc02FuFw.s:27     .text.gd_eval_led_init:0000000000000006 .L0 
C:\Users\Kalle\AppData\Local\Temp\cc02FuFw.s:29     .text.gd_eval_led_init:0000000000000008 .L0 
C:\Users\Kalle\AppData\Local\Temp\cc02FuFw.s:30     .text.gd_eval_led_init:000000000000000c .L0 
C:\Users\Kalle\AppData\Local\Temp\cc02FuFw.s:36     .text.gd_eval_led_init:0000000000000014 .L0 
C:\Users\Kalle\AppData\Local\Temp\cc02FuFw.s:38     .text.gd_eval_led_init:0000000000000018 .L0 
C:\Users\Kalle\AppData\Local\Temp\cc02FuFw.s:39     .text.gd_eval_led_init:0000000000000018 .L0 
C:\Users\Kalle\AppData\Local\Temp\cc02FuFw.s:41     .text.gd_eval_led_init:0000000000000018 .L0 
C:\Users\Kalle\AppData\Local\Temp\cc02FuFw.s:44     .text.gd_eval_led_init:0000000000000020 .L0 
C:\Users\Kalle\AppData\Local\Temp\cc02FuFw.s:59     .text.gd_eval_led_init:0000000000000048 .L0 
C:\Users\Kalle\AppData\Local\Temp\cc02FuFw.s:60     .text.gd_eval_led_init:0000000000000048 .L0 
C:\Users\Kalle\AppData\Local\Temp\cc02FuFw.s:61     .text.gd_eval_led_init:000000000000004a .L0 
C:\Users\Kalle\AppData\Local\Temp\cc02FuFw.s:63     .text.gd_eval_led_init:000000000000004a .L0 
C:\Users\Kalle\AppData\Local\Temp\cc02FuFw.s:65     .text.gd_eval_led_init:000000000000004c .L0 
C:\Users\Kalle\AppData\Local\Temp\cc02FuFw.s:66     .text.gd_eval_led_init:000000000000004e .L0 
C:\Users\Kalle\AppData\Local\Temp\cc02FuFw.s:68     .text.gd_eval_led_init:0000000000000050 .L0 
C:\Users\Kalle\AppData\Local\Temp\cc02FuFw.s:71     .text.gd_eval_led_init:0000000000000052 .L0 
C:\Users\Kalle\AppData\Local\Temp\cc02FuFw.s:73     .text.gd_eval_led_init:0000000000000054 .L0 
C:\Users\Kalle\AppData\Local\Temp\cc02FuFw.s:80     .text.gd_eval_led_on:0000000000000000 gd_eval_led_on
C:\Users\Kalle\AppData\Local\Temp\cc02FuFw.s:83     .text.gd_eval_led_on:0000000000000000 .L0 
C:\Users\Kalle\AppData\Local\Temp\cc02FuFw.s:85     .text.gd_eval_led_on:0000000000000000 .L0 
C:\Users\Kalle\AppData\Local\Temp\cc02FuFw.s:86     .text.gd_eval_led_on:0000000000000000 .L0 
C:\Users\Kalle\AppData\Local\Temp\cc02FuFw.s:88     .text.gd_eval_led_on:0000000000000004 .L0 
C:\Users\Kalle\AppData\Local\Temp\cc02FuFw.s:90     .text.gd_eval_led_on:0000000000000008 .L0 
C:\Users\Kalle\AppData\Local\Temp\cc02FuFw.s:94     .text.gd_eval_led_on:000000000000000e .L0 
C:\Users\Kalle\AppData\Local\Temp\cc02FuFw.s:96     .text.gd_eval_led_on:0000000000000012 .L0 
C:\Users\Kalle\AppData\Local\Temp\cc02FuFw.s:98     .text.gd_eval_led_on:0000000000000014 .L0 
C:\Users\Kalle\AppData\Local\Temp\cc02FuFw.s:100    .text.gd_eval_led_on:0000000000000016 .L0 
C:\Users\Kalle\AppData\Local\Temp\cc02FuFw.s:102    .text.gd_eval_led_on:0000000000000018 .L0 
C:\Users\Kalle\AppData\Local\Temp\cc02FuFw.s:104    .text.gd_eval_led_on:000000000000001a .L0 
C:\Users\Kalle\AppData\Local\Temp\cc02FuFw.s:106    .text.gd_eval_led_on:000000000000001c .L0 
C:\Users\Kalle\AppData\Local\Temp\cc02FuFw.s:107    .text.gd_eval_led_on:000000000000001e .L0 
C:\Users\Kalle\AppData\Local\Temp\cc02FuFw.s:114    .text.gd_eval_led_off:0000000000000000 gd_eval_led_off
C:\Users\Kalle\AppData\Local\Temp\cc02FuFw.s:117    .text.gd_eval_led_off:0000000000000000 .L0 
C:\Users\Kalle\AppData\Local\Temp\cc02FuFw.s:119    .text.gd_eval_led_off:0000000000000000 .L0 
C:\Users\Kalle\AppData\Local\Temp\cc02FuFw.s:120    .text.gd_eval_led_off:0000000000000000 .L0 
C:\Users\Kalle\AppData\Local\Temp\cc02FuFw.s:122    .text.gd_eval_led_off:0000000000000004 .L0 
C:\Users\Kalle\AppData\Local\Temp\cc02FuFw.s:124    .text.gd_eval_led_off:0000000000000008 .L0 
C:\Users\Kalle\AppData\Local\Temp\cc02FuFw.s:128    .text.gd_eval_led_off:000000000000000e .L0 
C:\Users\Kalle\AppData\Local\Temp\cc02FuFw.s:130    .text.gd_eval_led_off:0000000000000012 .L0 
C:\Users\Kalle\AppData\Local\Temp\cc02FuFw.s:132    .text.gd_eval_led_off:0000000000000014 .L0 
C:\Users\Kalle\AppData\Local\Temp\cc02FuFw.s:134    .text.gd_eval_led_off:0000000000000016 .L0 
C:\Users\Kalle\AppData\Local\Temp\cc02FuFw.s:136    .text.gd_eval_led_off:0000000000000018 .L0 
C:\Users\Kalle\AppData\Local\Temp\cc02FuFw.s:138    .text.gd_eval_led_off:000000000000001a .L0 
C:\Users\Kalle\AppData\Local\Temp\cc02FuFw.s:140    .text.gd_eval_led_off:000000000000001c .L0 
C:\Users\Kalle\AppData\Local\Temp\cc02FuFw.s:141    .text.gd_eval_led_off:000000000000001e .L0 
C:\Users\Kalle\AppData\Local\Temp\cc02FuFw.s:148    .text.gd_eval_led_toggle:0000000000000000 gd_eval_led_toggle
C:\Users\Kalle\AppData\Local\Temp\cc02FuFw.s:151    .text.gd_eval_led_toggle:0000000000000000 .L0 
C:\Users\Kalle\AppData\Local\Temp\cc02FuFw.s:153    .text.gd_eval_led_toggle:0000000000000000 .L0 
GAS LISTING C:\Users\Kalle\AppData\Local\Temp\cc02FuFw.s 			page 19


C:\Users\Kalle\AppData\Local\Temp\cc02FuFw.s:154    .text.gd_eval_led_toggle:0000000000000000 .L0 
C:\Users\Kalle\AppData\Local\Temp\cc02FuFw.s:161    .text.gd_eval_led_toggle:0000000000000012 .L0 
C:\Users\Kalle\AppData\Local\Temp\cc02FuFw.s:163    .text.gd_eval_led_toggle:0000000000000014 .L0 
C:\Users\Kalle\AppData\Local\Temp\cc02FuFw.s:165    .text.gd_eval_led_toggle:0000000000000014 .L0 
C:\Users\Kalle\AppData\Local\Temp\cc02FuFw.s:168    .text.gd_eval_led_toggle:0000000000000018 .L0 
C:\Users\Kalle\AppData\Local\Temp\cc02FuFw.s:170    .text.gd_eval_led_toggle:000000000000001c .L0 
C:\Users\Kalle\AppData\Local\Temp\cc02FuFw.s:171    .text.gd_eval_led_toggle:000000000000001c .L0 
C:\Users\Kalle\AppData\Local\Temp\cc02FuFw.s:173    .text.gd_eval_led_toggle:000000000000001c .L0 
C:\Users\Kalle\AppData\Local\Temp\cc02FuFw.s:176    .text.gd_eval_led_toggle:0000000000000020 .L0 
C:\Users\Kalle\AppData\Local\Temp\cc02FuFw.s:177    .text.gd_eval_led_toggle:0000000000000022 .L0 
C:\Users\Kalle\AppData\Local\Temp\cc02FuFw.s:179    .text.gd_eval_led_toggle:0000000000000022 .L0 
C:\Users\Kalle\AppData\Local\Temp\cc02FuFw.s:184    .text.gd_eval_led_toggle:000000000000002e .L0 
C:\Users\Kalle\AppData\Local\Temp\cc02FuFw.s:186    .text.gd_eval_led_toggle:0000000000000030 .L0 
C:\Users\Kalle\AppData\Local\Temp\cc02FuFw.s:189    .text.gd_eval_led_toggle:0000000000000034 .L0 
C:\Users\Kalle\AppData\Local\Temp\cc02FuFw.s:190    .text.gd_eval_led_toggle:0000000000000036 .L0 
C:\Users\Kalle\AppData\Local\Temp\cc02FuFw.s:192    .text.gd_eval_led_toggle:0000000000000038 .L0 
C:\Users\Kalle\AppData\Local\Temp\cc02FuFw.s:194    .text.gd_eval_led_toggle:0000000000000038 .L0 
C:\Users\Kalle\AppData\Local\Temp\cc02FuFw.s:196    .text.gd_eval_led_toggle:000000000000003a .L0 
C:\Users\Kalle\AppData\Local\Temp\cc02FuFw.s:197    .text.gd_eval_led_toggle:000000000000003c .L0 
C:\Users\Kalle\AppData\Local\Temp\cc02FuFw.s:200    .text.gd_eval_led_toggle:000000000000003e .L0 
C:\Users\Kalle\AppData\Local\Temp\cc02FuFw.s:202    .text.gd_eval_led_toggle:000000000000003e .L0 
C:\Users\Kalle\AppData\Local\Temp\cc02FuFw.s:204    .text.gd_eval_led_toggle:0000000000000046 .L0 
C:\Users\Kalle\AppData\Local\Temp\cc02FuFw.s:211    .text.gd_eval_key_init:0000000000000000 gd_eval_key_init
C:\Users\Kalle\AppData\Local\Temp\cc02FuFw.s:214    .text.gd_eval_key_init:0000000000000000 .L0 
C:\Users\Kalle\AppData\Local\Temp\cc02FuFw.s:216    .text.gd_eval_key_init:0000000000000000 .L0 
C:\Users\Kalle\AppData\Local\Temp\cc02FuFw.s:217    .text.gd_eval_key_init:0000000000000000 .L0 
C:\Users\Kalle\AppData\Local\Temp\cc02FuFw.s:218    .text.gd_eval_key_init:0000000000000000 .L0 
C:\Users\Kalle\AppData\Local\Temp\cc02FuFw.s:220    .text.gd_eval_key_init:0000000000000002 .L0 
C:\Users\Kalle\AppData\Local\Temp\cc02FuFw.s:222    .text.gd_eval_key_init:0000000000000002 .L0 
C:\Users\Kalle\AppData\Local\Temp\cc02FuFw.s:224    .text.gd_eval_key_init:0000000000000006 .L0 
C:\Users\Kalle\AppData\Local\Temp\cc02FuFw.s:226    .text.gd_eval_key_init:0000000000000008 .L0 
C:\Users\Kalle\AppData\Local\Temp\cc02FuFw.s:227    .text.gd_eval_key_init:000000000000000c .L0 
C:\Users\Kalle\AppData\Local\Temp\cc02FuFw.s:231    .text.gd_eval_key_init:0000000000000012 .L0 
C:\Users\Kalle\AppData\Local\Temp\cc02FuFw.s:232    .text.gd_eval_key_init:0000000000000014 .L0 
C:\Users\Kalle\AppData\Local\Temp\cc02FuFw.s:235    .text.gd_eval_key_init:0000000000000016 .L0 
C:\Users\Kalle\AppData\Local\Temp\cc02FuFw.s:238    .text.gd_eval_key_init:0000000000000018 .L0 
C:\Users\Kalle\AppData\Local\Temp\cc02FuFw.s:240    .text.gd_eval_key_init:000000000000001c .L0 
C:\Users\Kalle\AppData\Local\Temp\cc02FuFw.s:241    .text.gd_eval_key_init:000000000000001c .L0 
C:\Users\Kalle\AppData\Local\Temp\cc02FuFw.s:243    .text.gd_eval_key_init:000000000000001c .L0 
C:\Users\Kalle\AppData\Local\Temp\cc02FuFw.s:245    .text.gd_eval_key_init:000000000000001e .L0 
C:\Users\Kalle\AppData\Local\Temp\cc02FuFw.s:248    .text.gd_eval_key_init:0000000000000026 .L0 
C:\Users\Kalle\AppData\Local\Temp\cc02FuFw.s:252    .text.gd_eval_key_init:0000000000000032 .L0 
C:\Users\Kalle\AppData\Local\Temp\cc02FuFw.s:265    .text.gd_eval_key_init:0000000000000056 .L0 
C:\Users\Kalle\AppData\Local\Temp\cc02FuFw.s:266    .text.gd_eval_key_init:0000000000000056 .L0 
C:\Users\Kalle\AppData\Local\Temp\cc02FuFw.s:269    .text.gd_eval_key_init:000000000000005c .L0 
C:\Users\Kalle\AppData\Local\Temp\cc02FuFw.s:270    .text.gd_eval_key_init:000000000000005e .L0 
C:\Users\Kalle\AppData\Local\Temp\cc02FuFw.s:271    .text.gd_eval_key_init:000000000000005e .L0 
C:\Users\Kalle\AppData\Local\Temp\cc02FuFw.s:273    .text.gd_eval_key_init:0000000000000060 .L0 
C:\Users\Kalle\AppData\Local\Temp\cc02FuFw.s:275    .text.gd_eval_key_init:0000000000000062 .L0 
C:\Users\Kalle\AppData\Local\Temp\cc02FuFw.s:278    .text.gd_eval_key_init:0000000000000064 .L0 
C:\Users\Kalle\AppData\Local\Temp\cc02FuFw.s:282    .text.gd_eval_key_init:0000000000000066 .L0 
C:\Users\Kalle\AppData\Local\Temp\cc02FuFw.s:287    .text.gd_eval_key_init:0000000000000068 .L0 
C:\Users\Kalle\AppData\Local\Temp\cc02FuFw.s:289    .text.gd_eval_key_init:0000000000000068 .L0 
C:\Users\Kalle\AppData\Local\Temp\cc02FuFw.s:292    .text.gd_eval_key_init:0000000000000070 .L0 
C:\Users\Kalle\AppData\Local\Temp\cc02FuFw.s:293    .text.gd_eval_key_init:0000000000000070 .L0 
C:\Users\Kalle\AppData\Local\Temp\cc02FuFw.s:297    .text.gd_eval_key_init:000000000000007a .L0 
C:\Users\Kalle\AppData\Local\Temp\cc02FuFw.s:303    .text.gd_eval_key_init:000000000000008a .L0 
GAS LISTING C:\Users\Kalle\AppData\Local\Temp\cc02FuFw.s 			page 20


C:\Users\Kalle\AppData\Local\Temp\cc02FuFw.s:315    .text.gd_eval_key_init:00000000000000ae .L0 
C:\Users\Kalle\AppData\Local\Temp\cc02FuFw.s:325    .text.gd_eval_key_init:00000000000000c8 .L0 
C:\Users\Kalle\AppData\Local\Temp\cc02FuFw.s:327    .text.gd_eval_key_init:00000000000000ca .L0 
C:\Users\Kalle\AppData\Local\Temp\cc02FuFw.s:328    .text.gd_eval_key_init:00000000000000cc .L0 
C:\Users\Kalle\AppData\Local\Temp\cc02FuFw.s:330    .text.gd_eval_key_init:00000000000000ce .L0 
C:\Users\Kalle\AppData\Local\Temp\cc02FuFw.s:332    .text.gd_eval_key_init:00000000000000d0 .L0 
C:\Users\Kalle\AppData\Local\Temp\cc02FuFw.s:334    .text.gd_eval_key_init:00000000000000d2 .L0 
C:\Users\Kalle\AppData\Local\Temp\cc02FuFw.s:338    .text.gd_eval_key_init:00000000000000d4 .L0 
C:\Users\Kalle\AppData\Local\Temp\cc02FuFw.s:340    .text.gd_eval_key_init:00000000000000d4 .L0 
C:\Users\Kalle\AppData\Local\Temp\cc02FuFw.s:342    .text.gd_eval_key_init:00000000000000dc .L0 
C:\Users\Kalle\AppData\Local\Temp\cc02FuFw.s:349    .text.gd_eval_key_state_get:0000000000000000 gd_eval_key_state_get
C:\Users\Kalle\AppData\Local\Temp\cc02FuFw.s:352    .text.gd_eval_key_state_get:0000000000000000 .L0 
C:\Users\Kalle\AppData\Local\Temp\cc02FuFw.s:354    .text.gd_eval_key_state_get:0000000000000000 .L0 
C:\Users\Kalle\AppData\Local\Temp\cc02FuFw.s:355    .text.gd_eval_key_state_get:0000000000000000 .L0 
C:\Users\Kalle\AppData\Local\Temp\cc02FuFw.s:356    .text.gd_eval_key_state_get:0000000000000000 .L0 
C:\Users\Kalle\AppData\Local\Temp\cc02FuFw.s:367    .text.gd_eval_key_state_get:000000000000001c .L0 
C:\Users\Kalle\AppData\Local\Temp\cc02FuFw.s:369    .text.gd_eval_key_state_get:000000000000001e .L0 
C:\Users\Kalle\AppData\Local\Temp\cc02FuFw.s:371    .text.gd_eval_key_state_get:0000000000000020 .L0 
C:\Users\Kalle\AppData\Local\Temp\cc02FuFw.s:373    .text.gd_eval_key_state_get:0000000000000020 .L0 
C:\Users\Kalle\AppData\Local\Temp\cc02FuFw.s:376    .text.gd_eval_key_state_get:0000000000000028 .L0 
C:\Users\Kalle\AppData\Local\Temp\cc02FuFw.s:377    .text.gd_eval_key_state_get:000000000000002a .L0 
C:\Users\Kalle\AppData\Local\Temp\cc02FuFw.s:381    .text.gd_eval_key_state_get:0000000000000030 .L0 
C:\Users\Kalle\AppData\Local\Temp\cc02FuFw.s:383    .text.gd_eval_key_state_get:0000000000000032 .L0 
C:\Users\Kalle\AppData\Local\Temp\cc02FuFw.s:390    .text.gd_eval_com_init:0000000000000000 gd_eval_com_init
C:\Users\Kalle\AppData\Local\Temp\cc02FuFw.s:393    .text.gd_eval_com_init:0000000000000000 .L0 
C:\Users\Kalle\AppData\Local\Temp\cc02FuFw.s:395    .text.gd_eval_com_init:0000000000000000 .L0 
C:\Users\Kalle\AppData\Local\Temp\cc02FuFw.s:396    .text.gd_eval_com_init:0000000000000000 .L0 
C:\Users\Kalle\AppData\Local\Temp\cc02FuFw.s:397    .text.gd_eval_com_init:0000000000000000 .L0 
C:\Users\Kalle\AppData\Local\Temp\cc02FuFw.s:398    .text.gd_eval_com_init:0000000000000000 .L0 
C:\Users\Kalle\AppData\Local\Temp\cc02FuFw.s:399    .text.gd_eval_com_init:0000000000000000 .L0 
C:\Users\Kalle\AppData\Local\Temp\cc02FuFw.s:401    .text.gd_eval_com_init:0000000000000002 .L0 
C:\Users\Kalle\AppData\Local\Temp\cc02FuFw.s:403    .text.gd_eval_com_init:0000000000000004 .L0 
C:\Users\Kalle\AppData\Local\Temp\cc02FuFw.s:405    .text.gd_eval_com_init:0000000000000004 .L0 
C:\Users\Kalle\AppData\Local\Temp\cc02FuFw.s:411    .text.gd_eval_com_init:0000000000000012 .L0 
C:\Users\Kalle\AppData\Local\Temp\cc02FuFw.s:417    .text.gd_eval_com_init:000000000000001e .L0 
C:\Users\Kalle\AppData\Local\Temp\cc02FuFw.s:418    .text.gd_eval_com_init:0000000000000020 .L0 
C:\Users\Kalle\AppData\Local\Temp\cc02FuFw.s:421    .text.gd_eval_com_init:0000000000000022 .L0 
C:\Users\Kalle\AppData\Local\Temp\cc02FuFw.s:424    .text.gd_eval_com_init:0000000000000024 .L0 
C:\Users\Kalle\AppData\Local\Temp\cc02FuFw.s:426    .text.gd_eval_com_init:0000000000000028 .L0 
C:\Users\Kalle\AppData\Local\Temp\cc02FuFw.s:427    .text.gd_eval_com_init:0000000000000028 .L0 
C:\Users\Kalle\AppData\Local\Temp\cc02FuFw.s:429    .text.gd_eval_com_init:0000000000000028 .L0 
C:\Users\Kalle\AppData\Local\Temp\cc02FuFw.s:432    .text.gd_eval_com_init:0000000000000030 .L0 
C:\Users\Kalle\AppData\Local\Temp\cc02FuFw.s:439    .text.gd_eval_com_init:0000000000000044 .L0 
C:\Users\Kalle\AppData\Local\Temp\cc02FuFw.s:453    .text.gd_eval_com_init:000000000000006c .L0 
C:\Users\Kalle\AppData\Local\Temp\cc02FuFw.s:463    .text.gd_eval_com_init:0000000000000086 .L0 
C:\Users\Kalle\AppData\Local\Temp\cc02FuFw.s:467    .text.gd_eval_com_init:0000000000000090 .L0 
C:\Users\Kalle\AppData\Local\Temp\cc02FuFw.s:473    .text.gd_eval_com_init:00000000000000a0 .L0 
C:\Users\Kalle\AppData\Local\Temp\cc02FuFw.s:478    .text.gd_eval_com_init:00000000000000ac .L0 
C:\Users\Kalle\AppData\Local\Temp\cc02FuFw.s:483    .text.gd_eval_com_init:00000000000000b8 .L0 
C:\Users\Kalle\AppData\Local\Temp\cc02FuFw.s:488    .text.gd_eval_com_init:00000000000000c4 .L0 
C:\Users\Kalle\AppData\Local\Temp\cc02FuFw.s:493    .text.gd_eval_com_init:00000000000000d0 .L0 
C:\Users\Kalle\AppData\Local\Temp\cc02FuFw.s:498    .text.gd_eval_com_init:00000000000000dc .L0 
C:\Users\Kalle\AppData\Local\Temp\cc02FuFw.s:503    .text.gd_eval_com_init:00000000000000e8 .L0 
C:\Users\Kalle\AppData\Local\Temp\cc02FuFw.s:508    .text.gd_eval_com_init:00000000000000f4 .L0 
C:\Users\Kalle\AppData\Local\Temp\cc02FuFw.s:509    .text.gd_eval_com_init:00000000000000f4 .L0 
C:\Users\Kalle\AppData\Local\Temp\cc02FuFw.s:510    .text.gd_eval_com_init:00000000000000f6 .L0 
C:\Users\Kalle\AppData\Local\Temp\cc02FuFw.s:512    .text.gd_eval_com_init:00000000000000f8 .L0 
GAS LISTING C:\Users\Kalle\AppData\Local\Temp\cc02FuFw.s 			page 21


C:\Users\Kalle\AppData\Local\Temp\cc02FuFw.s:514    .text.gd_eval_com_init:00000000000000fa .L0 
C:\Users\Kalle\AppData\Local\Temp\cc02FuFw.s:516    .text.gd_eval_com_init:00000000000000fa .L0 
C:\Users\Kalle\AppData\Local\Temp\cc02FuFw.s:518    .text.gd_eval_com_init:00000000000000fc .L0 
C:\Users\Kalle\AppData\Local\Temp\cc02FuFw.s:519    .text.gd_eval_com_init:00000000000000fe .L0 
C:\Users\Kalle\AppData\Local\Temp\cc02FuFw.s:523    .text.gd_eval_com_init:0000000000000100 .L0 
C:\Users\Kalle\AppData\Local\Temp\cc02FuFw.s:525    .text.gd_eval_com_init:0000000000000100 .L0 
C:\Users\Kalle\AppData\Local\Temp\cc02FuFw.s:527    .text.gd_eval_com_init:0000000000000108 .L0 
C:\Users\Kalle\AppData\Local\Temp\cc02FuFw.s:532    .rodata.GPIO_CLK:0000000000000000 .LANCHOR0
C:\Users\Kalle\AppData\Local\Temp\cc02FuFw.s:535    .rodata.GPIO_CLK:0000000000000000 GPIO_CLK
C:\Users\Kalle\AppData\Local\Temp\cc02FuFw.s:542    .rodata.GPIO_PIN:0000000000000000 .LANCHOR2
C:\Users\Kalle\AppData\Local\Temp\cc02FuFw.s:545    .rodata.GPIO_PIN:0000000000000000 GPIO_PIN
C:\Users\Kalle\AppData\Local\Temp\cc02FuFw.s:552    .rodata.GPIO_PORT:0000000000000000 .LANCHOR1
C:\Users\Kalle\AppData\Local\Temp\cc02FuFw.s:555    .rodata.GPIO_PORT:0000000000000000 GPIO_PORT
C:\Users\Kalle\AppData\Local\Temp\cc02FuFw.s:562    .rodata.KEY_CLK:0000000000000000 .LANCHOR3
C:\Users\Kalle\AppData\Local\Temp\cc02FuFw.s:565    .rodata.KEY_CLK:0000000000000000 KEY_CLK
C:\Users\Kalle\AppData\Local\Temp\cc02FuFw.s:573    .rodata.KEY_EXTI_LINE:0000000000000000 .LANCHOR9
C:\Users\Kalle\AppData\Local\Temp\cc02FuFw.s:576    .rodata.KEY_EXTI_LINE:0000000000000000 KEY_EXTI_LINE
C:\Users\Kalle\AppData\Local\Temp\cc02FuFw.s:584    .rodata.KEY_PIN:0000000000000000 .LANCHOR4
C:\Users\Kalle\AppData\Local\Temp\cc02FuFw.s:587    .rodata.KEY_PIN:0000000000000000 KEY_PIN
C:\Users\Kalle\AppData\Local\Temp\cc02FuFw.s:595    .rodata.KEY_PORT:0000000000000000 .LANCHOR5
C:\Users\Kalle\AppData\Local\Temp\cc02FuFw.s:598    .rodata.KEY_PORT:0000000000000000 KEY_PORT
C:\Users\Kalle\AppData\Local\Temp\cc02FuFw.s:606    .sdata2.COM_CLK:0000000000000000 .LANCHOR11
C:\Users\Kalle\AppData\Local\Temp\cc02FuFw.s:609    .sdata2.COM_CLK:0000000000000000 COM_CLK
C:\Users\Kalle\AppData\Local\Temp\cc02FuFw.s:614    .sdata2.COM_GPIO_CLK:0000000000000000 .LANCHOR10
C:\Users\Kalle\AppData\Local\Temp\cc02FuFw.s:617    .sdata2.COM_GPIO_CLK:0000000000000000 COM_GPIO_CLK
C:\Users\Kalle\AppData\Local\Temp\cc02FuFw.s:622    .sdata2.COM_GPIO_PORT:0000000000000000 .LANCHOR12
C:\Users\Kalle\AppData\Local\Temp\cc02FuFw.s:625    .sdata2.COM_GPIO_PORT:0000000000000000 COM_GPIO_PORT
C:\Users\Kalle\AppData\Local\Temp\cc02FuFw.s:630    .sdata2.COM_RX_PIN:0000000000000000 .LANCHOR14
C:\Users\Kalle\AppData\Local\Temp\cc02FuFw.s:633    .sdata2.COM_RX_PIN:0000000000000000 COM_RX_PIN
C:\Users\Kalle\AppData\Local\Temp\cc02FuFw.s:638    .sdata2.COM_TX_PIN:0000000000000000 .LANCHOR13
C:\Users\Kalle\AppData\Local\Temp\cc02FuFw.s:641    .sdata2.COM_TX_PIN:0000000000000000 COM_TX_PIN
C:\Users\Kalle\AppData\Local\Temp\cc02FuFw.s:646    .sdata2.KEY_IRQn:0000000000000000 .LANCHOR6
C:\Users\Kalle\AppData\Local\Temp\cc02FuFw.s:649    .sdata2.KEY_IRQn:0000000000000000 KEY_IRQn
C:\Users\Kalle\AppData\Local\Temp\cc02FuFw.s:657    .sdata2.KEY_PIN_SOURCE:0000000000000000 .LANCHOR7
C:\Users\Kalle\AppData\Local\Temp\cc02FuFw.s:660    .sdata2.KEY_PIN_SOURCE:0000000000000000 KEY_PIN_SOURCE
C:\Users\Kalle\AppData\Local\Temp\cc02FuFw.s:668    .sdata2.KEY_PORT_SOURCE:0000000000000000 .LANCHOR8
C:\Users\Kalle\AppData\Local\Temp\cc02FuFw.s:671    .sdata2.KEY_PORT_SOURCE:0000000000000000 KEY_PORT_SOURCE
C:\Users\Kalle\AppData\Local\Temp\cc02FuFw.s:76     .text.gd_eval_led_init:0000000000000054 .L0 
C:\Users\Kalle\AppData\Local\Temp\cc02FuFw.s:110    .text.gd_eval_led_on:000000000000001e .L0 
C:\Users\Kalle\AppData\Local\Temp\cc02FuFw.s:144    .text.gd_eval_led_off:000000000000001e .L0 
C:\Users\Kalle\AppData\Local\Temp\cc02FuFw.s:207    .text.gd_eval_led_toggle:0000000000000046 .L0 
C:\Users\Kalle\AppData\Local\Temp\cc02FuFw.s:345    .text.gd_eval_key_init:00000000000000dc .L0 
C:\Users\Kalle\AppData\Local\Temp\cc02FuFw.s:386    .text.gd_eval_key_state_get:0000000000000032 .L0 
C:\Users\Kalle\AppData\Local\Temp\cc02FuFw.s:530    .text.gd_eval_com_init:0000000000000108 .L0 
                     .debug_frame:0000000000000000 .L0 
C:\Users\Kalle\AppData\Local\Temp\cc02FuFw.s:285    .text.gd_eval_key_init:0000000000000068 .L11
C:\Users\Kalle\AppData\Local\Temp\cc02FuFw.s:2350   .debug_abbrev:0000000000000000 .Ldebug_abbrev0
C:\Users\Kalle\AppData\Local\Temp\cc02FuFw.s:3365   .debug_str:0000000000000509 .LASF205
C:\Users\Kalle\AppData\Local\Temp\cc02FuFw.s:3553   .debug_str:0000000000000aba .LASF206
C:\Users\Kalle\AppData\Local\Temp\cc02FuFw.s:3539   .debug_str:0000000000000a18 .LASF207
C:\Users\Kalle\AppData\Local\Temp\cc02FuFw.s:3121   .debug_ranges:0000000000000000 .Ldebug_ranges0
C:\Users\Kalle\AppData\Local\Temp\cc02FuFw.s:3139   .debug_line:0000000000000000 .Ldebug_line0
C:\Users\Kalle\AppData\Local\Temp\cc02FuFw.s:3411   .debug_str:00000000000006b1 .LASF208
C:\Users\Kalle\AppData\Local\Temp\cc02FuFw.s:3413   .debug_str:00000000000006b6 .LASF0
C:\Users\Kalle\AppData\Local\Temp\cc02FuFw.s:3431   .debug_str:000000000000072a .LASF1
C:\Users\Kalle\AppData\Local\Temp\cc02FuFw.s:3375   .debug_str:00000000000005b9 .LASF2
C:\Users\Kalle\AppData\Local\Temp\cc02FuFw.s:3443   .debug_str:0000000000000789 .LASF3
GAS LISTING C:\Users\Kalle\AppData\Local\Temp\cc02FuFw.s 			page 22


C:\Users\Kalle\AppData\Local\Temp\cc02FuFw.s:3387   .debug_str:00000000000005fe .LASF4
C:\Users\Kalle\AppData\Local\Temp\cc02FuFw.s:3533   .debug_str:00000000000009f2 .LASF5
C:\Users\Kalle\AppData\Local\Temp\cc02FuFw.s:3209   .debug_str:0000000000000199 .LASF6
C:\Users\Kalle\AppData\Local\Temp\cc02FuFw.s:3555   .debug_str:0000000000000ade .LASF7
C:\Users\Kalle\AppData\Local\Temp\cc02FuFw.s:3421   .debug_str:00000000000006ee .LASF8
C:\Users\Kalle\AppData\Local\Temp\cc02FuFw.s:3275   .debug_str:00000000000002d3 .LASF9
C:\Users\Kalle\AppData\Local\Temp\cc02FuFw.s:3371   .debug_str:00000000000005a4 .LASF10
C:\Users\Kalle\AppData\Local\Temp\cc02FuFw.s:3189   .debug_str:0000000000000124 .LASF11
C:\Users\Kalle\AppData\Local\Temp\cc02FuFw.s:3453   .debug_str:00000000000007c6 .LASF12
C:\Users\Kalle\AppData\Local\Temp\cc02FuFw.s:3301   .debug_str:0000000000000377 .LASF13
C:\Users\Kalle\AppData\Local\Temp\cc02FuFw.s:3529   .debug_str:00000000000009de .LASF14
C:\Users\Kalle\AppData\Local\Temp\cc02FuFw.s:3379   .debug_str:00000000000005d2 .LASF15
C:\Users\Kalle\AppData\Local\Temp\cc02FuFw.s:3523   .debug_str:00000000000009a7 .LASF16
C:\Users\Kalle\AppData\Local\Temp\cc02FuFw.s:3319   .debug_str:00000000000003e1 .LASF17
C:\Users\Kalle\AppData\Local\Temp\cc02FuFw.s:3181   .debug_str:00000000000000ee .LASF18
C:\Users\Kalle\AppData\Local\Temp\cc02FuFw.s:3441   .debug_str:0000000000000776 .LASF19
C:\Users\Kalle\AppData\Local\Temp\cc02FuFw.s:3233   .debug_str:0000000000000225 .LASF20
C:\Users\Kalle\AppData\Local\Temp\cc02FuFw.s:3511   .debug_str:000000000000094e .LASF21
C:\Users\Kalle\AppData\Local\Temp\cc02FuFw.s:3367   .debug_str:0000000000000583 .LASF22
C:\Users\Kalle\AppData\Local\Temp\cc02FuFw.s:3177   .debug_str:00000000000000d5 .LASF23
C:\Users\Kalle\AppData\Local\Temp\cc02FuFw.s:3285   .debug_str:000000000000031e .LASF24
C:\Users\Kalle\AppData\Local\Temp\cc02FuFw.s:3307   .debug_str:0000000000000396 .LASF25
C:\Users\Kalle\AppData\Local\Temp\cc02FuFw.s:3167   .debug_str:0000000000000095 .LASF26
C:\Users\Kalle\AppData\Local\Temp\cc02FuFw.s:3473   .debug_str:0000000000000848 .LASF27
C:\Users\Kalle\AppData\Local\Temp\cc02FuFw.s:3463   .debug_str:0000000000000801 .LASF28
C:\Users\Kalle\AppData\Local\Temp\cc02FuFw.s:3499   .debug_str:000000000000090d .LASF29
C:\Users\Kalle\AppData\Local\Temp\cc02FuFw.s:3389   .debug_str:000000000000060d .LASF30
C:\Users\Kalle\AppData\Local\Temp\cc02FuFw.s:3545   .debug_str:0000000000000a6e .LASF31
C:\Users\Kalle\AppData\Local\Temp\cc02FuFw.s:3163   .debug_str:0000000000000076 .LASF32
C:\Users\Kalle\AppData\Local\Temp\cc02FuFw.s:3185   .debug_str:0000000000000109 .LASF33
C:\Users\Kalle\AppData\Local\Temp\cc02FuFw.s:3447   .debug_str:00000000000007a6 .LASF34
C:\Users\Kalle\AppData\Local\Temp\cc02FuFw.s:3297   .debug_str:0000000000000363 .LASF35
C:\Users\Kalle\AppData\Local\Temp\cc02FuFw.s:3481   .debug_str:0000000000000889 .LASF36
C:\Users\Kalle\AppData\Local\Temp\cc02FuFw.s:3337   .debug_str:0000000000000461 .LASF37
C:\Users\Kalle\AppData\Local\Temp\cc02FuFw.s:3399   .debug_str:0000000000000665 .LASF38
C:\Users\Kalle\AppData\Local\Temp\cc02FuFw.s:3455   .debug_str:00000000000007d1 .LASF39
C:\Users\Kalle\AppData\Local\Temp\cc02FuFw.s:3393   .debug_str:0000000000000630 .LASF40
C:\Users\Kalle\AppData\Local\Temp\cc02FuFw.s:3227   .debug_str:00000000000001f1 .LASF41
C:\Users\Kalle\AppData\Local\Temp\cc02FuFw.s:3199   .debug_str:000000000000015b .LASF42
C:\Users\Kalle\AppData\Local\Temp\cc02FuFw.s:3429   .debug_str:000000000000071e .LASF43
C:\Users\Kalle\AppData\Local\Temp\cc02FuFw.s:3279   .debug_str:00000000000002ea .LASF44
C:\Users\Kalle\AppData\Local\Temp\cc02FuFw.s:3423   .debug_str:00000000000006f7 .LASF45
C:\Users\Kalle\AppData\Local\Temp\cc02FuFw.s:3425   .debug_str:0000000000000706 .LASF46
C:\Users\Kalle\AppData\Local\Temp\cc02FuFw.s:3469   .debug_str:000000000000082f .LASF47
C:\Users\Kalle\AppData\Local\Temp\cc02FuFw.s:3225   .debug_str:00000000000001e7 .LASF48
C:\Users\Kalle\AppData\Local\Temp\cc02FuFw.s:3521   .debug_str:000000000000099b .LASF49
C:\Users\Kalle\AppData\Local\Temp\cc02FuFw.s:3493   .debug_str:00000000000008e0 .LASF50
C:\Users\Kalle\AppData\Local\Temp\cc02FuFw.s:3363   .debug_str:00000000000004fe .LASF51
C:\Users\Kalle\AppData\Local\Temp\cc02FuFw.s:3201   .debug_str:0000000000000167 .LASF52
C:\Users\Kalle\AppData\Local\Temp\cc02FuFw.s:3377   .debug_str:00000000000005c6 .LASF53
C:\Users\Kalle\AppData\Local\Temp\cc02FuFw.s:3211   .debug_str:00000000000001a2 .LASF54
C:\Users\Kalle\AppData\Local\Temp\cc02FuFw.s:3465   .debug_str:000000000000080e .LASF55
C:\Users\Kalle\AppData\Local\Temp\cc02FuFw.s:3315   .debug_str:00000000000003bf .LASF56
C:\Users\Kalle\AppData\Local\Temp\cc02FuFw.s:3175   .debug_str:00000000000000c2 .LASF57
C:\Users\Kalle\AppData\Local\Temp\cc02FuFw.s:3395   .debug_str:000000000000063a .LASF58
C:\Users\Kalle\AppData\Local\Temp\cc02FuFw.s:3229   .debug_str:00000000000001fb .LASF59
C:\Users\Kalle\AppData\Local\Temp\cc02FuFw.s:3403   .debug_str:000000000000067d .LASF60
GAS LISTING C:\Users\Kalle\AppData\Local\Temp\cc02FuFw.s 			page 23


C:\Users\Kalle\AppData\Local\Temp\cc02FuFw.s:3417   .debug_str:00000000000006d5 .LASF61
C:\Users\Kalle\AppData\Local\Temp\cc02FuFw.s:3261   .debug_str:0000000000000299 .LASF62
C:\Users\Kalle\AppData\Local\Temp\cc02FuFw.s:3381   .debug_str:00000000000005dd .LASF63
C:\Users\Kalle\AppData\Local\Temp\cc02FuFw.s:3329   .debug_str:0000000000000435 .LASF64
C:\Users\Kalle\AppData\Local\Temp\cc02FuFw.s:3479   .debug_str:0000000000000874 .LASF65
C:\Users\Kalle\AppData\Local\Temp\cc02FuFw.s:3179   .debug_str:00000000000000e1 .LASF66
C:\Users\Kalle\AppData\Local\Temp\cc02FuFw.s:3327   .debug_str:0000000000000429 .LASF67
C:\Users\Kalle\AppData\Local\Temp\cc02FuFw.s:3507   .debug_str:0000000000000939 .LASF72
C:\Users\Kalle\AppData\Local\Temp\cc02FuFw.s:3485   .debug_str:00000000000008a1 .LASF68
C:\Users\Kalle\AppData\Local\Temp\cc02FuFw.s:3195   .debug_str:0000000000000147 .LASF69
C:\Users\Kalle\AppData\Local\Temp\cc02FuFw.s:3527   .debug_str:00000000000009cb .LASF70
C:\Users\Kalle\AppData\Local\Temp\cc02FuFw.s:3427   .debug_str:0000000000000715 .LASF71
C:\Users\Kalle\AppData\Local\Temp\cc02FuFw.s:3489   .debug_str:00000000000008b7 .LASF73
C:\Users\Kalle\AppData\Local\Temp\cc02FuFw.s:3461   .debug_str:00000000000007ef .LASF74
C:\Users\Kalle\AppData\Local\Temp\cc02FuFw.s:3347   .debug_str:000000000000049b .LASF75
C:\Users\Kalle\AppData\Local\Temp\cc02FuFw.s:3231   .debug_str:000000000000020e .LASF76
C:\Users\Kalle\AppData\Local\Temp\cc02FuFw.s:3323   .debug_str:0000000000000413 .LASF77
C:\Users\Kalle\AppData\Local\Temp\cc02FuFw.s:3217   .debug_str:00000000000001cc .LASF78
C:\Users\Kalle\AppData\Local\Temp\cc02FuFw.s:3409   .debug_str:00000000000006a1 .LASF209
C:\Users\Kalle\AppData\Local\Temp\cc02FuFw.s:3439   .debug_str:0000000000000770 .LASF79
C:\Users\Kalle\AppData\Local\Temp\cc02FuFw.s:3407   .debug_str:0000000000000696 .LASF80
C:\Users\Kalle\AppData\Local\Temp\cc02FuFw.s:3237   .debug_str:0000000000000243 .LASF81
C:\Users\Kalle\AppData\Local\Temp\cc02FuFw.s:3239   .debug_str:000000000000024a .LASF82
C:\Users\Kalle\AppData\Local\Temp\cc02FuFw.s:3241   .debug_str:0000000000000251 .LASF83
C:\Users\Kalle\AppData\Local\Temp\cc02FuFw.s:3243   .debug_str:0000000000000258 .LASF84
C:\Users\Kalle\AppData\Local\Temp\cc02FuFw.s:3245   .debug_str:000000000000025f .LASF85
C:\Users\Kalle\AppData\Local\Temp\cc02FuFw.s:3247   .debug_str:0000000000000266 .LASF86
C:\Users\Kalle\AppData\Local\Temp\cc02FuFw.s:3249   .debug_str:000000000000026d .LASF87
C:\Users\Kalle\AppData\Local\Temp\cc02FuFw.s:3251   .debug_str:0000000000000274 .LASF88
C:\Users\Kalle\AppData\Local\Temp\cc02FuFw.s:3253   .debug_str:000000000000027b .LASF89
C:\Users\Kalle\AppData\Local\Temp\cc02FuFw.s:3255   .debug_str:0000000000000282 .LASF90
C:\Users\Kalle\AppData\Local\Temp\cc02FuFw.s:3143   .debug_str:000000000000001f .LASF91
C:\Users\Kalle\AppData\Local\Temp\cc02FuFw.s:3145   .debug_str:0000000000000027 .LASF92
C:\Users\Kalle\AppData\Local\Temp\cc02FuFw.s:3147   .debug_str:000000000000002f .LASF93
C:\Users\Kalle\AppData\Local\Temp\cc02FuFw.s:3149   .debug_str:0000000000000037 .LASF94
C:\Users\Kalle\AppData\Local\Temp\cc02FuFw.s:3151   .debug_str:000000000000003f .LASF95
C:\Users\Kalle\AppData\Local\Temp\cc02FuFw.s:3153   .debug_str:0000000000000047 .LASF96
C:\Users\Kalle\AppData\Local\Temp\cc02FuFw.s:3155   .debug_str:000000000000004f .LASF97
C:\Users\Kalle\AppData\Local\Temp\cc02FuFw.s:3157   .debug_str:0000000000000057 .LASF98
C:\Users\Kalle\AppData\Local\Temp\cc02FuFw.s:3159   .debug_str:000000000000005f .LASF99
C:\Users\Kalle\AppData\Local\Temp\cc02FuFw.s:3161   .debug_str:0000000000000067 .LASF100
C:\Users\Kalle\AppData\Local\Temp\cc02FuFw.s:3345   .debug_str:000000000000048c .LASF101
C:\Users\Kalle\AppData\Local\Temp\cc02FuFw.s:3483   .debug_str:0000000000000896 .LASF102
C:\Users\Kalle\AppData\Local\Temp\cc02FuFw.s:3525   .debug_str:00000000000009ba .LASF103
C:\Users\Kalle\AppData\Local\Temp\cc02FuFw.s:3359   .debug_str:00000000000004e2 .LASF104
C:\Users\Kalle\AppData\Local\Temp\cc02FuFw.s:3317   .debug_str:00000000000003d2 .LASF105
C:\Users\Kalle\AppData\Local\Temp\cc02FuFw.s:3547   .debug_str:0000000000000a82 .LASF106
C:\Users\Kalle\AppData\Local\Temp\cc02FuFw.s:3401   .debug_str:0000000000000672 .LASF107
C:\Users\Kalle\AppData\Local\Temp\cc02FuFw.s:3169   .debug_str:00000000000000a3 .LASF108
C:\Users\Kalle\AppData\Local\Temp\cc02FuFw.s:3171   .debug_str:00000000000000ac .LASF109
C:\Users\Kalle\AppData\Local\Temp\cc02FuFw.s:3561   .debug_str:0000000000000b0f .LASF110
C:\Users\Kalle\AppData\Local\Temp\cc02FuFw.s:3471   .debug_str:000000000000083f .LASF111
C:\Users\Kalle\AppData\Local\Temp\cc02FuFw.s:3513   .debug_str:0000000000000961 .LASF112
C:\Users\Kalle\AppData\Local\Temp\cc02FuFw.s:3331   .debug_str:0000000000000440 .LASF113
C:\Users\Kalle\AppData\Local\Temp\cc02FuFw.s:3333   .debug_str:000000000000044b .LASF114
C:\Users\Kalle\AppData\Local\Temp\cc02FuFw.s:3335   .debug_str:0000000000000456 .LASF115
C:\Users\Kalle\AppData\Local\Temp\cc02FuFw.s:3165   .debug_str:000000000000008a .LASF116
GAS LISTING C:\Users\Kalle\AppData\Local\Temp\cc02FuFw.s 			page 24


C:\Users\Kalle\AppData\Local\Temp\cc02FuFw.s:3339   .debug_str:000000000000046e .LASF117
C:\Users\Kalle\AppData\Local\Temp\cc02FuFw.s:3341   .debug_str:0000000000000479 .LASF118
C:\Users\Kalle\AppData\Local\Temp\cc02FuFw.s:3295   .debug_str:0000000000000359 .LASF119
C:\Users\Kalle\AppData\Local\Temp\cc02FuFw.s:3311   .debug_str:00000000000003ad .LASF120
C:\Users\Kalle\AppData\Local\Temp\cc02FuFw.s:3313   .debug_str:00000000000003b6 .LASF121
C:\Users\Kalle\AppData\Local\Temp\cc02FuFw.s:3419   .debug_str:00000000000006e3 .LASF122
C:\Users\Kalle\AppData\Local\Temp\cc02FuFw.s:3509   .debug_str:0000000000000943 .LASF123
C:\Users\Kalle\AppData\Local\Temp\cc02FuFw.s:3449   .debug_str:00000000000007b2 .LASF124
C:\Users\Kalle\AppData\Local\Temp\cc02FuFw.s:3451   .debug_str:00000000000007bc .LASF125
C:\Users\Kalle\AppData\Local\Temp\cc02FuFw.s:3291   .debug_str:0000000000000347 .LASF126
C:\Users\Kalle\AppData\Local\Temp\cc02FuFw.s:3293   .debug_str:0000000000000350 .LASF127
C:\Users\Kalle\AppData\Local\Temp\cc02FuFw.s:3383   .debug_str:00000000000005ec .LASF128
C:\Users\Kalle\AppData\Local\Temp\cc02FuFw.s:3385   .debug_str:00000000000005f5 .LASF129
C:\Users\Kalle\AppData\Local\Temp\cc02FuFw.s:3191   .debug_str:000000000000012f .LASF130
C:\Users\Kalle\AppData\Local\Temp\cc02FuFw.s:3487   .debug_str:00000000000008af .LASF131
C:\Users\Kalle\AppData\Local\Temp\cc02FuFw.s:3257   .debug_str:0000000000000289 .LASF132
C:\Users\Kalle\AppData\Local\Temp\cc02FuFw.s:3343   .debug_str:0000000000000484 .LASF133
C:\Users\Kalle\AppData\Local\Temp\cc02FuFw.s:3477   .debug_str:000000000000086d .LASF134
C:\Users\Kalle\AppData\Local\Temp\cc02FuFw.s:3353   .debug_str:00000000000004c4 .LASF135
C:\Users\Kalle\AppData\Local\Temp\cc02FuFw.s:3355   .debug_str:00000000000004ce .LASF136
C:\Users\Kalle\AppData\Local\Temp\cc02FuFw.s:3357   .debug_str:00000000000004d8 .LASF137
C:\Users\Kalle\AppData\Local\Temp\cc02FuFw.s:3459   .debug_str:00000000000007e5 .LASF138
C:\Users\Kalle\AppData\Local\Temp\cc02FuFw.s:3361   .debug_str:00000000000004f4 .LASF139
C:\Users\Kalle\AppData\Local\Temp\cc02FuFw.s:3503   .debug_str:0000000000000927 .LASF140
C:\Users\Kalle\AppData\Local\Temp\cc02FuFw.s:3505   .debug_str:0000000000000930 .LASF141
C:\Users\Kalle\AppData\Local\Temp\cc02FuFw.s:3235   .debug_str:0000000000000238 .LASF142
C:\Users\Kalle\AppData\Local\Temp\cc02FuFw.s:3309   .debug_str:00000000000003a4 .LASF143
C:\Users\Kalle\AppData\Local\Temp\cc02FuFw.s:3303   .debug_str:0000000000000382 .LASF144
C:\Users\Kalle\AppData\Local\Temp\cc02FuFw.s:3559   .debug_str:0000000000000aff .LASF145
C:\Users\Kalle\AppData\Local\Temp\cc02FuFw.s:3405   .debug_str:000000000000068a .LASF146
C:\Users\Kalle\AppData\Local\Temp\cc02FuFw.s:3263   .debug_str:00000000000002a7 .LASF147
C:\Users\Kalle\AppData\Local\Temp\cc02FuFw.s:3265   .debug_str:00000000000002ac .LASF148
C:\Users\Kalle\AppData\Local\Temp\cc02FuFw.s:3267   .debug_str:00000000000002b1 .LASF149
C:\Users\Kalle\AppData\Local\Temp\cc02FuFw.s:3269   .debug_str:00000000000002b6 .LASF150
C:\Users\Kalle\AppData\Local\Temp\cc02FuFw.s:3205   .debug_str:0000000000000182 .LASF151
C:\Users\Kalle\AppData\Local\Temp\cc02FuFw.s:3219   .debug_str:00000000000001d5 .LASF152
C:\Users\Kalle\AppData\Local\Temp\cc02FuFw.s:3221   .debug_str:00000000000001db .LASF153
C:\Users\Kalle\AppData\Local\Temp\cc02FuFw.s:3223   .debug_str:00000000000001e1 .LASF154
C:\Users\Kalle\AppData\Local\Temp\cc02FuFw.s:3207   .debug_str:0000000000000193 .LASF155
C:\Users\Kalle\AppData\Local\Temp\cc02FuFw.s:3183   .debug_str:0000000000000101 .LASF156
C:\Users\Kalle\AppData\Local\Temp\cc02FuFw.s:3287   .debug_str:000000000000032b .LASF157
C:\Users\Kalle\AppData\Local\Temp\cc02FuFw.s:3467   .debug_str:0000000000000821 .LASF158
C:\Users\Kalle\AppData\Local\Temp\cc02FuFw.s:3369   .debug_str:0000000000000596 .LASF159
C:\Users\Kalle\AppData\Local\Temp\cc02FuFw.s:3557   .debug_str:0000000000000aea .LASF160
C:\Users\Kalle\AppData\Local\Temp\cc02FuFw.s:3501   .debug_str:000000000000091d .LASF161
C:\Users\Kalle\AppData\Local\Temp\cc02FuFw.s:3531   .debug_str:00000000000009e9 .LASF162
C:\Users\Kalle\AppData\Local\Temp\cc02FuFw.s:3259   .debug_str:0000000000000291 .LASF163
C:\Users\Kalle\AppData\Local\Temp\cc02FuFw.s:3289   .debug_str:000000000000033c .LASF164
C:\Users\Kalle\AppData\Local\Temp\cc02FuFw.s:3213   .debug_str:00000000000001ae .LASF165
C:\Users\Kalle\AppData\Local\Temp\cc02FuFw.s:3277   .debug_str:00000000000002dc .LASF166
C:\Users\Kalle\AppData\Local\Temp\cc02FuFw.s:3173   .debug_str:00000000000000b5 .LASF167
C:\Users\Kalle\AppData\Local\Temp\cc02FuFw.s:3543   .debug_str:0000000000000a65 .LASF168
C:\Users\Kalle\AppData\Local\Temp\cc02FuFw.s:3495   .debug_str:00000000000008ea .LASF169
C:\Users\Kalle\AppData\Local\Temp\cc02FuFw.s:3351   .debug_str:00000000000004bc .LASF170
C:\Users\Kalle\AppData\Local\Temp\cc02FuFw.s:3373   .debug_str:00000000000005b1 .LASF171
C:\Users\Kalle\AppData\Local\Temp\cc02FuFw.s:3325   .debug_str:000000000000041b .LASF172
C:\Users\Kalle\AppData\Local\Temp\cc02FuFw.s:3203   .debug_str:0000000000000172 .LASF173
GAS LISTING C:\Users\Kalle\AppData\Local\Temp\cc02FuFw.s 			page 25


C:\Users\Kalle\AppData\Local\Temp\cc02FuFw.s:3193   .debug_str:0000000000000138 .LASF174
C:\Users\Kalle\AppData\Local\Temp\cc02FuFw.s:3519   .debug_str:0000000000000992 .LASF175
C:\Users\Kalle\AppData\Local\Temp\cc02FuFw.s:3271   .debug_str:00000000000002bb .LASF177
C:\Users\Kalle\AppData\Local\Temp\cc02FuFw.s:391    .text.gd_eval_com_init:0000000000000000 .LFB8
C:\Users\Kalle\AppData\Local\Temp\cc02FuFw.s:528    .text.gd_eval_com_init:0000000000000108 .LFE8
C:\Users\Kalle\AppData\Local\Temp\cc02FuFw.s:2797   .debug_loc:0000000000000000 .LLST11
C:\Users\Kalle\AppData\Local\Temp\cc02FuFw.s:2815   .debug_loc:000000000000002c .LLST12
C:\Users\Kalle\AppData\Local\Temp\cc02FuFw.s:3273   .debug_str:00000000000002cc .LASF176
C:\Users\Kalle\AppData\Local\Temp\cc02FuFw.s:2837   .debug_loc:0000000000000063 .LLST13
C:\Users\Kalle\AppData\Local\Temp\cc02FuFw.s:430    .text.gd_eval_com_init:0000000000000030 .LVL34
C:\Users\Kalle\AppData\Local\Temp\cc02FuFw.s:437    .text.gd_eval_com_init:0000000000000044 .LVL35
C:\Users\Kalle\AppData\Local\Temp\cc02FuFw.s:451    .text.gd_eval_com_init:000000000000006c .LVL36
C:\Users\Kalle\AppData\Local\Temp\cc02FuFw.s:461    .text.gd_eval_com_init:0000000000000086 .LVL37
C:\Users\Kalle\AppData\Local\Temp\cc02FuFw.s:465    .text.gd_eval_com_init:0000000000000090 .LVL38
C:\Users\Kalle\AppData\Local\Temp\cc02FuFw.s:471    .text.gd_eval_com_init:00000000000000a0 .LVL39
C:\Users\Kalle\AppData\Local\Temp\cc02FuFw.s:476    .text.gd_eval_com_init:00000000000000ac .LVL40
C:\Users\Kalle\AppData\Local\Temp\cc02FuFw.s:481    .text.gd_eval_com_init:00000000000000b8 .LVL41
C:\Users\Kalle\AppData\Local\Temp\cc02FuFw.s:486    .text.gd_eval_com_init:00000000000000c4 .LVL42
C:\Users\Kalle\AppData\Local\Temp\cc02FuFw.s:491    .text.gd_eval_com_init:00000000000000d0 .LVL43
C:\Users\Kalle\AppData\Local\Temp\cc02FuFw.s:496    .text.gd_eval_com_init:00000000000000dc .LVL44
C:\Users\Kalle\AppData\Local\Temp\cc02FuFw.s:501    .text.gd_eval_com_init:00000000000000e8 .LVL45
C:\Users\Kalle\AppData\Local\Temp\cc02FuFw.s:506    .text.gd_eval_com_init:00000000000000f4 .LVL46
C:\Users\Kalle\AppData\Local\Temp\cc02FuFw.s:526    .text.gd_eval_com_init:0000000000000108 .LVL48
C:\Users\Kalle\AppData\Local\Temp\cc02FuFw.s:3437   .debug_str:000000000000075a .LASF210
C:\Users\Kalle\AppData\Local\Temp\cc02FuFw.s:350    .text.gd_eval_key_state_get:0000000000000000 .LFB7
C:\Users\Kalle\AppData\Local\Temp\cc02FuFw.s:384    .text.gd_eval_key_state_get:0000000000000032 .LFE7
C:\Users\Kalle\AppData\Local\Temp\cc02FuFw.s:2886   .debug_loc:00000000000000cf .LLST9
C:\Users\Kalle\AppData\Local\Temp\cc02FuFw.s:2904   .debug_loc:00000000000000fb .LLST10
C:\Users\Kalle\AppData\Local\Temp\cc02FuFw.s:374    .text.gd_eval_key_state_get:0000000000000028 .LVL29
C:\Users\Kalle\AppData\Local\Temp\cc02FuFw.s:3515   .debug_str:000000000000096b .LASF178
C:\Users\Kalle\AppData\Local\Temp\cc02FuFw.s:212    .text.gd_eval_key_init:0000000000000000 .LFB6
C:\Users\Kalle\AppData\Local\Temp\cc02FuFw.s:343    .text.gd_eval_key_init:00000000000000dc .LFE6
C:\Users\Kalle\AppData\Local\Temp\cc02FuFw.s:2918   .debug_loc:000000000000011c .LLST6
C:\Users\Kalle\AppData\Local\Temp\cc02FuFw.s:3299   .debug_str:000000000000036f .LASF179
C:\Users\Kalle\AppData\Local\Temp\cc02FuFw.s:2946   .debug_loc:0000000000000160 .LLST7
C:\Users\Kalle\AppData\Local\Temp\cc02FuFw.s:3305   .debug_str:000000000000038d .LASF180
C:\Users\Kalle\AppData\Local\Temp\cc02FuFw.s:2975   .debug_loc:00000000000001a5 .LLST8
C:\Users\Kalle\AppData\Local\Temp\cc02FuFw.s:246    .text.gd_eval_key_init:0000000000000026 .LVL14
C:\Users\Kalle\AppData\Local\Temp\cc02FuFw.s:250    .text.gd_eval_key_init:0000000000000032 .LVL15
C:\Users\Kalle\AppData\Local\Temp\cc02FuFw.s:263    .text.gd_eval_key_init:0000000000000056 .LVL16
C:\Users\Kalle\AppData\Local\Temp\cc02FuFw.s:290    .text.gd_eval_key_init:0000000000000070 .LVL20
C:\Users\Kalle\AppData\Local\Temp\cc02FuFw.s:301    .text.gd_eval_key_init:000000000000008a .LVL21
C:\Users\Kalle\AppData\Local\Temp\cc02FuFw.s:313    .text.gd_eval_key_init:00000000000000ae .LVL23
C:\Users\Kalle\AppData\Local\Temp\cc02FuFw.s:323    .text.gd_eval_key_init:00000000000000c8 .LVL24
C:\Users\Kalle\AppData\Local\Temp\cc02FuFw.s:341    .text.gd_eval_key_init:00000000000000dc .LVL26
C:\Users\Kalle\AppData\Local\Temp\cc02FuFw.s:3349   .debug_str:00000000000004a9 .LASF181
C:\Users\Kalle\AppData\Local\Temp\cc02FuFw.s:149    .text.gd_eval_led_toggle:0000000000000000 .LFB5
C:\Users\Kalle\AppData\Local\Temp\cc02FuFw.s:205    .text.gd_eval_led_toggle:0000000000000046 .LFE5
C:\Users\Kalle\AppData\Local\Temp\cc02FuFw.s:3004   .debug_loc:00000000000001ea .LLST4
C:\Users\Kalle\AppData\Local\Temp\cc02FuFw.s:3457   .debug_str:00000000000007de .LASF182
C:\Users\Kalle\AppData\Local\Temp\cc02FuFw.s:3022   .debug_loc:0000000000000216 .LLST5
C:\Users\Kalle\AppData\Local\Temp\cc02FuFw.s:182    .text.gd_eval_led_toggle:000000000000002e .LVL10
C:\Users\Kalle\AppData\Local\Temp\cc02FuFw.s:203    .text.gd_eval_led_toggle:0000000000000046 .LVL11
C:\Users\Kalle\AppData\Local\Temp\cc02FuFw.s:3433   .debug_str:0000000000000737 .LASF183
C:\Users\Kalle\AppData\Local\Temp\cc02FuFw.s:115    .text.gd_eval_led_off:0000000000000000 .LFB4
C:\Users\Kalle\AppData\Local\Temp\cc02FuFw.s:142    .text.gd_eval_led_off:000000000000001e .LFE4
C:\Users\Kalle\AppData\Local\Temp\cc02FuFw.s:3036   .debug_loc:0000000000000237 .LLST3
GAS LISTING C:\Users\Kalle\AppData\Local\Temp\cc02FuFw.s 			page 26


C:\Users\Kalle\AppData\Local\Temp\cc02FuFw.s:3445   .debug_str:0000000000000797 .LASF184
C:\Users\Kalle\AppData\Local\Temp\cc02FuFw.s:81     .text.gd_eval_led_on:0000000000000000 .LFB3
C:\Users\Kalle\AppData\Local\Temp\cc02FuFw.s:108    .text.gd_eval_led_on:000000000000001e .LFE3
C:\Users\Kalle\AppData\Local\Temp\cc02FuFw.s:3050   .debug_loc:0000000000000258 .LLST2
C:\Users\Kalle\AppData\Local\Temp\cc02FuFw.s:3537   .debug_str:0000000000000a07 .LASF185
C:\Users\Kalle\AppData\Local\Temp\cc02FuFw.s:14     .text.gd_eval_led_init:0000000000000000 .LFB2
C:\Users\Kalle\AppData\Local\Temp\cc02FuFw.s:74     .text.gd_eval_led_init:0000000000000054 .LFE2
C:\Users\Kalle\AppData\Local\Temp\cc02FuFw.s:3064   .debug_loc:0000000000000279 .LLST0
C:\Users\Kalle\AppData\Local\Temp\cc02FuFw.s:3082   .debug_loc:00000000000002a5 .LLST1
C:\Users\Kalle\AppData\Local\Temp\cc02FuFw.s:42     .text.gd_eval_led_init:0000000000000020 .LVL2
C:\Users\Kalle\AppData\Local\Temp\cc02FuFw.s:57     .text.gd_eval_led_init:0000000000000048 .LVL3
C:\Users\Kalle\AppData\Local\Temp\cc02FuFw.s:3551   .debug_str:0000000000000aa2 .LASF186
C:\Users\Kalle\AppData\Local\Temp\cc02FuFw.s:3197   .debug_str:0000000000000151 .LASF187
C:\Users\Kalle\AppData\Local\Temp\cc02FuFw.s:3415   .debug_str:00000000000006c8 .LASF188
C:\Users\Kalle\AppData\Local\Temp\cc02FuFw.s:3435   .debug_str:0000000000000747 .LASF189
C:\Users\Kalle\AppData\Local\Temp\cc02FuFw.s:3517   .debug_str:000000000000097c .LASF190
C:\Users\Kalle\AppData\Local\Temp\cc02FuFw.s:3215   .debug_str:00000000000001b9 .LASF191
C:\Users\Kalle\AppData\Local\Temp\cc02FuFw.s:3391   .debug_str:000000000000061c .LASF192
C:\Users\Kalle\AppData\Local\Temp\cc02FuFw.s:3321   .debug_str:00000000000003f4 .LASF193
C:\Users\Kalle\AppData\Local\Temp\cc02FuFw.s:3141   .debug_str:0000000000000000 .LASF194
C:\Users\Kalle\AppData\Local\Temp\cc02FuFw.s:3281   .debug_str:00000000000002f6 .LASF195
C:\Users\Kalle\AppData\Local\Temp\cc02FuFw.s:3475   .debug_str:0000000000000857 .LASF196
C:\Users\Kalle\AppData\Local\Temp\cc02FuFw.s:3541   .debug_str:0000000000000a58 .LASF197
C:\Users\Kalle\AppData\Local\Temp\cc02FuFw.s:3283   .debug_str:000000000000030b .LASF198
C:\Users\Kalle\AppData\Local\Temp\cc02FuFw.s:3491   .debug_str:00000000000008c2 .LASF199
C:\Users\Kalle\AppData\Local\Temp\cc02FuFw.s:3549   .debug_str:0000000000000a91 .LASF200
C:\Users\Kalle\AppData\Local\Temp\cc02FuFw.s:3397   .debug_str:000000000000064d .LASF201
C:\Users\Kalle\AppData\Local\Temp\cc02FuFw.s:3535   .debug_str:00000000000009fd .LASF202
C:\Users\Kalle\AppData\Local\Temp\cc02FuFw.s:3497   .debug_str:00000000000008f3 .LASF203
C:\Users\Kalle\AppData\Local\Temp\cc02FuFw.s:3187   .debug_str:0000000000000115 .LASF204
C:\Users\Kalle\AppData\Local\Temp\cc02FuFw.s:400    .text.gd_eval_com_init:0000000000000002 .LCFI10
C:\Users\Kalle\AppData\Local\Temp\cc02FuFw.s:522    .text.gd_eval_com_init:0000000000000100 .LCFI11
C:\Users\Kalle\AppData\Local\Temp\cc02FuFw.s:394    .text.gd_eval_com_init:0000000000000000 .LVL30
C:\Users\Kalle\AppData\Local\Temp\cc02FuFw.s:422    .text.gd_eval_com_init:0000000000000024 .LVL33
C:\Users\Kalle\AppData\Local\Temp\cc02FuFw.s:520    .text.gd_eval_com_init:00000000000000fe .LVL47
C:\Users\Kalle\AppData\Local\Temp\cc02FuFw.s:409    .text.gd_eval_com_init:0000000000000012 .LVL31
C:\Users\Kalle\AppData\Local\Temp\cc02FuFw.s:413    .text.gd_eval_com_init:0000000000000018 .LVL32
C:\Users\Kalle\AppData\Local\Temp\cc02FuFw.s:368    .text.gd_eval_key_state_get:000000000000001e .LCFI8
C:\Users\Kalle\AppData\Local\Temp\cc02FuFw.s:380    .text.gd_eval_key_state_get:0000000000000030 .LCFI9
C:\Users\Kalle\AppData\Local\Temp\cc02FuFw.s:353    .text.gd_eval_key_state_get:0000000000000000 .LVL27
C:\Users\Kalle\AppData\Local\Temp\cc02FuFw.s:359    .text.gd_eval_key_state_get:000000000000000c .LVL28
C:\Users\Kalle\AppData\Local\Temp\cc02FuFw.s:219    .text.gd_eval_key_init:0000000000000002 .LCFI4
C:\Users\Kalle\AppData\Local\Temp\cc02FuFw.s:281    .text.gd_eval_key_init:0000000000000066 .LCFI5
C:\Users\Kalle\AppData\Local\Temp\cc02FuFw.s:286    .text.gd_eval_key_init:0000000000000068 .LCFI6
C:\Users\Kalle\AppData\Local\Temp\cc02FuFw.s:337    .text.gd_eval_key_init:00000000000000d4 .LCFI7
C:\Users\Kalle\AppData\Local\Temp\cc02FuFw.s:215    .text.gd_eval_key_init:0000000000000000 .LVL12
C:\Users\Kalle\AppData\Local\Temp\cc02FuFw.s:236    .text.gd_eval_key_init:0000000000000018 .LVL13
C:\Users\Kalle\AppData\Local\Temp\cc02FuFw.s:276    .text.gd_eval_key_init:0000000000000062 .LVL17
C:\Users\Kalle\AppData\Local\Temp\cc02FuFw.s:284    .text.gd_eval_key_init:0000000000000068 .LVL19
C:\Users\Kalle\AppData\Local\Temp\cc02FuFw.s:309    .text.gd_eval_key_init:000000000000009e .LVL22
C:\Users\Kalle\AppData\Local\Temp\cc02FuFw.s:279    .text.gd_eval_key_init:0000000000000064 .LVL18
C:\Users\Kalle\AppData\Local\Temp\cc02FuFw.s:335    .text.gd_eval_key_init:00000000000000d2 .LVL25
C:\Users\Kalle\AppData\Local\Temp\cc02FuFw.s:162    .text.gd_eval_led_toggle:0000000000000014 .LCFI2
C:\Users\Kalle\AppData\Local\Temp\cc02FuFw.s:199    .text.gd_eval_led_toggle:000000000000003e .LCFI3
C:\Users\Kalle\AppData\Local\Temp\cc02FuFw.s:152    .text.gd_eval_led_toggle:0000000000000000 .LVL8
C:\Users\Kalle\AppData\Local\Temp\cc02FuFw.s:157    .text.gd_eval_led_toggle:000000000000000a .LVL9
C:\Users\Kalle\AppData\Local\Temp\cc02FuFw.s:118    .text.gd_eval_led_off:0000000000000000 .LVL6
GAS LISTING C:\Users\Kalle\AppData\Local\Temp\cc02FuFw.s 			page 27


C:\Users\Kalle\AppData\Local\Temp\cc02FuFw.s:125    .text.gd_eval_led_off:000000000000000a .LVL7
C:\Users\Kalle\AppData\Local\Temp\cc02FuFw.s:84     .text.gd_eval_led_on:0000000000000000 .LVL4
C:\Users\Kalle\AppData\Local\Temp\cc02FuFw.s:91     .text.gd_eval_led_on:000000000000000a .LVL5
C:\Users\Kalle\AppData\Local\Temp\cc02FuFw.s:22     .text.gd_eval_led_init:0000000000000002 .LCFI0
C:\Users\Kalle\AppData\Local\Temp\cc02FuFw.s:70     .text.gd_eval_led_init:0000000000000052 .LCFI1
C:\Users\Kalle\AppData\Local\Temp\cc02FuFw.s:18     .text.gd_eval_led_init:0000000000000000 .LVL0
C:\Users\Kalle\AppData\Local\Temp\cc02FuFw.s:34     .text.gd_eval_led_init:0000000000000014 .LVL1
C:\Users\Kalle\AppData\Local\Temp\cc02FuFw.s:690    .debug_info:0000000000000000 .Ldebug_info0

UNDEFINED SYMBOLS
rcu_periph_clock_enable
gpio_init
gpio_input_bit_get
gpio_bit_write
eclic_global_interrupt_enable
eclic_irq_enable
gpio_exti_source_select
exti_init
exti_interrupt_flag_clear
usart_deinit
usart_baudrate_set
usart_word_length_set
usart_stop_bit_set
usart_parity_config
usart_hardware_flow_rts_config
usart_hardware_flow_cts_config
usart_receive_config
usart_transmit_config
usart_enable
