GAS LISTING C:\Users\Kalle\AppData\Local\Temp\cc2hNkGN.s 			page 1


   1              		.file	"lcd.c"
   2              		.option nopic
   3              		.attribute arch, "rv32i2p0_m2p0_a2p0_c2p0"
   4              		.attribute unaligned_access, 0
   5              		.attribute stack_align, 16
   6              		.text
   7              	.Ltext0:
   8              		.cfi_sections	.debug_frame
   9              		.globl	__floatundidf
  10              		.globl	__floatunsidf
  11              		.globl	__divdf3
  12              		.globl	__muldf3
  13              		.globl	__ltdf2
  14              		.section	.text.lcd_delay_1ms,"ax",@progbits
  15              		.align	1
  16              		.globl	lcd_delay_1ms
  18              	lcd_delay_1ms:
  19              	.LFB2:
  20              		.file 1 "lib/lcd/src/lcd.c"
   1:lib/lcd/src/lcd.c **** /*
   2:lib/lcd/src/lcd.c ****   Longan Nano LCD driver
   3:lib/lcd/src/lcd.c **** */
   4:lib/lcd/src/lcd.c **** 
   5:lib/lcd/src/lcd.c **** #include "lcd.h"
   6:lib/lcd/src/lcd.c **** #include "oledfont.h"
   7:lib/lcd/src/lcd.c **** 
   8:lib/lcd/src/lcd.c **** u16 BACK_COLOR;	// Background color
   9:lib/lcd/src/lcd.c **** 
  10:lib/lcd/src/lcd.c **** typedef struct{
  11:lib/lcd/src/lcd.c **** 	u8 configured;
  12:lib/lcd/src/lcd.c **** 	u8 inverted;
  13:lib/lcd/src/lcd.c **** 	u8 offset_x;
  14:lib/lcd/src/lcd.c **** 	u8 offset_y;
  15:lib/lcd/src/lcd.c **** }lcd_config_t;
  16:lib/lcd/src/lcd.c **** 
  17:lib/lcd/src/lcd.c **** lcd_config_t lcd_conf = {0};
  18:lib/lcd/src/lcd.c **** 
  19:lib/lcd/src/lcd.c **** 
  20:lib/lcd/src/lcd.c **** void lcd_delay_1ms(uint32_t count)
  21:lib/lcd/src/lcd.c **** {
  21              		.loc 1 21 1
  22              		.cfi_startproc
  23              	.LVL0:
  22:lib/lcd/src/lcd.c **** 	uint64_t start_mtime, delta_mtime;
  24              		.loc 1 22 2
  23:lib/lcd/src/lcd.c **** 
  24:lib/lcd/src/lcd.c **** 	// Don't start measuring until we see an mtime tick
  25:lib/lcd/src/lcd.c **** 	uint64_t tmp = get_timer_value();
  25              		.loc 1 25 2
  21:lib/lcd/src/lcd.c **** 	uint64_t start_mtime, delta_mtime;
  26              		.loc 1 21 1 is_stmt 0
  27 0000 7971     		addi	sp,sp,-48
  28              	.LCFI0:
  29              		.cfi_def_cfa_offset 48
  30 0002 4AD0     		sw	s2,32(sp)
  31 0004 4ECE     		sw	s3,28(sp)
  32 0006 5EC6     		sw	s7,12(sp)
GAS LISTING C:\Users\Kalle\AppData\Local\Temp\cc2hNkGN.s 			page 2


  33 0008 06D6     		sw	ra,44(sp)
  34 000a 22D4     		sw	s0,40(sp)
  35 000c 26D2     		sw	s1,36(sp)
  36 000e 52CC     		sw	s4,24(sp)
  37 0010 56CA     		sw	s5,20(sp)
  38 0012 5AC8     		sw	s6,16(sp)
  39 0014 62C4     		sw	s8,8(sp)
  40 0016 66C2     		sw	s9,4(sp)
  41              		.cfi_offset 18, -16
  42              		.cfi_offset 19, -20
  43              		.cfi_offset 23, -36
  44              		.cfi_offset 1, -4
  45              		.cfi_offset 8, -8
  46              		.cfi_offset 9, -12
  47              		.cfi_offset 20, -24
  48              		.cfi_offset 21, -28
  49              		.cfi_offset 22, -32
  50              		.cfi_offset 24, -40
  51              		.cfi_offset 25, -44
  21:lib/lcd/src/lcd.c **** 	uint64_t start_mtime, delta_mtime;
  52              		.loc 1 21 1
  53 0018 AA8B     		mv	s7,a0
  54              		.loc 1 25 17
  55 001a 97000000 		call	get_timer_value
  55      E7800000 
  56              	.LVL1:
  57 0022 2A89     		mv	s2,a0
  58 0024 AE89     		mv	s3,a1
  59              	.LVL2:
  60              	.L2:
  26:lib/lcd/src/lcd.c **** 	do {
  61              		.loc 1 26 2 is_stmt 1 discriminator 1
  27:lib/lcd/src/lcd.c **** 	start_mtime = get_timer_value();
  62              		.loc 1 27 2 discriminator 1
  63              		.loc 1 27 16 is_stmt 0 discriminator 1
  64 0026 97000000 		call	get_timer_value
  64      E7800000 
  65              	.LVL3:
  66 002e 2A84     		mv	s0,a0
  67 0030 AE84     		mv	s1,a1
  68              	.LVL4:
  28:lib/lcd/src/lcd.c **** 	} while (start_mtime == tmp);
  69              		.loc 1 28 2 discriminator 1
  70 0032 6314A900 		bne	s2,a0,.L3
  71 0036 E388B9FE 		beq	s3,a1,.L2
  72              	.L3:
  73 003a B7070000 		lui	a5,%hi(.LC0)
  29:lib/lcd/src/lcd.c **** 
  30:lib/lcd/src/lcd.c **** 	do {
  31:lib/lcd/src/lcd.c **** 	delta_mtime = get_timer_value() - start_mtime;
  32:lib/lcd/src/lcd.c **** 	}while(delta_mtime <(SystemCoreClock/4000.0 *count ));
  74              		.loc 1 32 38 discriminator 1
  75 003e 03A90700 		lw	s2,%lo(.LC0)(a5)
  76              	.LVL5:
  77 0042 83A94700 		lw	s3,%lo(.LC0+4)(a5)
  78 0046 370B0000 		lui	s6,%hi(SystemCoreClock)
  79              	.L4:
GAS LISTING C:\Users\Kalle\AppData\Local\Temp\cc2hNkGN.s 			page 3


  30:lib/lcd/src/lcd.c **** 	delta_mtime = get_timer_value() - start_mtime;
  80              		.loc 1 30 2 is_stmt 1 discriminator 1
  31:lib/lcd/src/lcd.c **** 	}while(delta_mtime <(SystemCoreClock/4000.0 *count ));
  81              		.loc 1 31 2 discriminator 1
  31:lib/lcd/src/lcd.c **** 	}while(delta_mtime <(SystemCoreClock/4000.0 *count ));
  82              		.loc 1 31 16 is_stmt 0 discriminator 1
  83 004a 97000000 		call	get_timer_value
  83      E7800000 
  84              	.LVL6:
  85 0052 AA87     		mv	a5,a0
  86              	.LVL7:
  31:lib/lcd/src/lcd.c **** 	}while(delta_mtime <(SystemCoreClock/4000.0 *count ));
  87              		.loc 1 31 14 discriminator 1
  88 0054 018D     		sub	a0,a0,s0
  89              	.LVL8:
  90 0056 B3B7A700 		sgtu	a5,a0,a5
  91              	.LVL9:
  92 005a 858D     		sub	a1,a1,s1
  93              		.loc 1 32 21 discriminator 1
  94 005c 9D8D     		sub	a1,a1,a5
  95 005e 97000000 		call	__floatundidf
  95      E7800000 
  96              	.LVL10:
  97 0066 2A8A     		mv	s4,a0
  98              		.loc 1 32 38 discriminator 1
  99 0068 03250B00 		lw	a0,%lo(SystemCoreClock)(s6)
 100              		.loc 1 32 21 discriminator 1
 101 006c AE8A     		mv	s5,a1
 102              		.loc 1 32 38 discriminator 1
 103 006e 97000000 		call	__floatunsidf
 103      E7800000 
 104              	.LVL11:
 105 0076 4A86     		mv	a2,s2
 106 0078 CE86     		mv	a3,s3
 107 007a 97000000 		call	__divdf3
 107      E7800000 
 108              	.LVL12:
 109 0082 2A8C     		mv	s8,a0
 110              		.loc 1 32 46 discriminator 1
 111 0084 5E85     		mv	a0,s7
 112              		.loc 1 32 38 discriminator 1
 113 0086 AE8C     		mv	s9,a1
 114              		.loc 1 32 46 discriminator 1
 115 0088 97000000 		call	__floatunsidf
 115      E7800000 
 116              	.LVL13:
 117 0090 2A86     		mv	a2,a0
 118 0092 AE86     		mv	a3,a1
 119 0094 6285     		mv	a0,s8
 120 0096 E685     		mv	a1,s9
 121 0098 97000000 		call	__muldf3
 121      E7800000 
 122              	.LVL14:
 123              		.loc 1 32 2 discriminator 1
 124 00a0 2A86     		mv	a2,a0
 125 00a2 AE86     		mv	a3,a1
 126 00a4 5285     		mv	a0,s4
GAS LISTING C:\Users\Kalle\AppData\Local\Temp\cc2hNkGN.s 			page 4


 127 00a6 D685     		mv	a1,s5
 128 00a8 97000000 		call	__ltdf2
 128      E7800000 
 129              	.LVL15:
 130 00b0 E34D05F8 		blt	a0,zero,.L4
  33:lib/lcd/src/lcd.c **** }
 131              		.loc 1 33 1
 132 00b4 B250     		lw	ra,44(sp)
 133              		.cfi_restore 1
 134 00b6 2254     		lw	s0,40(sp)
 135              		.cfi_restore 8
 136              	.LVL16:
 137 00b8 9254     		lw	s1,36(sp)
 138              		.cfi_restore 9
 139 00ba 0259     		lw	s2,32(sp)
 140              		.cfi_restore 18
 141 00bc F249     		lw	s3,28(sp)
 142              		.cfi_restore 19
 143 00be 624A     		lw	s4,24(sp)
 144              		.cfi_restore 20
 145 00c0 D24A     		lw	s5,20(sp)
 146              		.cfi_restore 21
 147 00c2 424B     		lw	s6,16(sp)
 148              		.cfi_restore 22
 149 00c4 B24B     		lw	s7,12(sp)
 150              		.cfi_restore 23
 151              	.LVL17:
 152 00c6 224C     		lw	s8,8(sp)
 153              		.cfi_restore 24
 154 00c8 924C     		lw	s9,4(sp)
 155              		.cfi_restore 25
 156 00ca 4561     		addi	sp,sp,48
 157              	.LCFI1:
 158              		.cfi_def_cfa_offset 0
 159 00cc 8280     		jr	ra
 160              		.cfi_endproc
 161              	.LFE2:
 163              		.section	.text.LCD_WR_Queue,"ax",@progbits
 164              		.align	1
 165              		.globl	LCD_WR_Queue
 167              	LCD_WR_Queue:
 168              	.LFB4:
  34:lib/lcd/src/lcd.c **** 
  35:lib/lcd/src/lcd.c **** 
  36:lib/lcd/src/lcd.c **** 
  37:lib/lcd/src/lcd.c **** int r=0, w=0, queue[256]={0};                       // 256 Byte wr queue
  38:lib/lcd/src/lcd.c **** 
  39:lib/lcd/src/lcd.c **** void LCD_Wait_On_Queue(){
  40:lib/lcd/src/lcd.c **** 	while(r != w) LCD_WR_Queue();					//Blocks while emptying the queue
  41:lib/lcd/src/lcd.c **** }
  42:lib/lcd/src/lcd.c **** 
  43:lib/lcd/src/lcd.c **** void LCD_WR_Queue(){
 169              		.loc 1 43 20 is_stmt 1
 170              		.cfi_startproc
  44:lib/lcd/src/lcd.c ****     if (r!=w) {                                     // Buffer empty?
 171              		.loc 1 44 5
  43:lib/lcd/src/lcd.c ****     if (r!=w) {                                     // Buffer empty?
GAS LISTING C:\Users\Kalle\AppData\Local\Temp\cc2hNkGN.s 			page 5


 172              		.loc 1 43 20 is_stmt 0
 173 0000 4111     		addi	sp,sp,-16
 174              	.LCFI2:
 175              		.cfi_def_cfa_offset 16
 176 0002 22C4     		sw	s0,8(sp)
 177              		.cfi_offset 8, -8
 178              		.loc 1 44 10
 179 0004 37040000 		lui	s0,%hi(.LANCHOR0)
 180 0008 13040400 		addi	s0,s0,%lo(.LANCHOR0)
 181              		.loc 1 44 8
 182 000c B7070000 		lui	a5,%hi(.LANCHOR1)
 183 0010 1840     		lw	a4,0(s0)
 184 0012 83A70700 		lw	a5,%lo(.LANCHOR1)(a5)
  43:lib/lcd/src/lcd.c ****     if (r!=w) {                                     // Buffer empty?
 185              		.loc 1 43 20
 186 0016 06C6     		sw	ra,12(sp)
 187 0018 26C2     		sw	s1,4(sp)
 188              		.cfi_offset 1, -4
 189              		.cfi_offset 9, -12
 190              		.loc 1 44 8
 191 001a 6309F708 		beq	a4,a5,.L9
  45:lib/lcd/src/lcd.c ****        if (spi_i2s_flag_get(SPI1,SPI_FLAG_TBE)) {   // ...no! Device redy?
 192              		.loc 1 45 8 is_stmt 1
 193              		.loc 1 45 12 is_stmt 0
 194 001e 37450040 		li	a0,1073758208
 195 0022 8945     		li	a1,2
 196 0024 13050580 		addi	a0,a0,-2048
 197 0028 97000000 		call	spi_i2s_flag_get
 197      E7800000 
 198              	.LVL18:
 199              		.loc 1 45 11
 200 0030 11E5     		bne	a0,zero,.L17
  46:lib/lcd/src/lcd.c ****           OLED_CS_Clr();                            // ......Yes! CS (again)
  47:lib/lcd/src/lcd.c ****           (queue[r]>=1<<8) ? OLED_DC_Set() : OLED_DC_Clr(); //    DC
  48:lib/lcd/src/lcd.c ****           spi_i2s_data_transmit(SPI1, queue[r++]&0xFF); //        Write!
  49:lib/lcd/src/lcd.c ****           r%=256;                                   //            Advance.
  50:lib/lcd/src/lcd.c ****         }                                           //       (No! Return!)
  51:lib/lcd/src/lcd.c ****     } else {
  52:lib/lcd/src/lcd.c ****         OLED_CS_Set();                              // ...yes! CS high, done!
  53:lib/lcd/src/lcd.c ****     }
  54:lib/lcd/src/lcd.c **** }
 201              		.loc 1 54 1
 202 0032 B240     		lw	ra,12(sp)
 203              		.cfi_remember_state
 204              		.cfi_restore 1
 205 0034 2244     		lw	s0,8(sp)
 206              		.cfi_restore 8
 207 0036 9244     		lw	s1,4(sp)
 208              		.cfi_restore 9
 209 0038 4101     		addi	sp,sp,16
 210              	.LCFI3:
 211              		.cfi_def_cfa_offset 0
 212 003a 8280     		jr	ra
 213              	.L17:
 214              	.LCFI4:
 215              		.cfi_restore_state
 216              	.LBB206:
GAS LISTING C:\Users\Kalle\AppData\Local\Temp\cc2hNkGN.s 			page 6


 217              	.LBB207:
  46:lib/lcd/src/lcd.c ****           OLED_CS_Clr();                            // ......Yes! CS (again)
 218              		.loc 1 46 11 is_stmt 1
 219 003c 8965     		li	a1,8192
 220 003e 37150140 		li	a0,1073811456
 221 0042 97000000 		call	gpio_bit_reset
 221      E7800000 
 222              	.LVL19:
  47:lib/lcd/src/lcd.c ****           spi_i2s_data_transmit(SPI1, queue[r++]&0xFF); //        Write!
 223              		.loc 1 47 11
  47:lib/lcd/src/lcd.c ****           spi_i2s_data_transmit(SPI1, queue[r++]&0xFF); //        Write!
 224              		.loc 1 47 17 is_stmt 0
 225 004a 1C40     		lw	a5,0(s0)
 226 004c B7040000 		lui	s1,%hi(.LANCHOR2)
 227 0050 93840400 		addi	s1,s1,%lo(.LANCHOR2)
 228 0054 8A07     		slli	a5,a5,2
 229 0056 A697     		add	a5,s1,a5
  47:lib/lcd/src/lcd.c ****           spi_i2s_data_transmit(SPI1, queue[r++]&0xFF); //        Write!
 230              		.loc 1 47 44
 231 0058 9843     		lw	a4,0(a5)
 232 005a 9307F00F 		li	a5,255
  47:lib/lcd/src/lcd.c ****           spi_i2s_data_transmit(SPI1, queue[r++]&0xFF); //        Write!
 233              		.loc 1 47 30
 234 005e A165     		li	a1,32768
 235 0060 37150140 		li	a0,1073811456
  47:lib/lcd/src/lcd.c ****           spi_i2s_data_transmit(SPI1, queue[r++]&0xFF); //        Write!
 236              		.loc 1 47 44
 237 0064 63CFE704 		bgt	a4,a5,.L18
  47:lib/lcd/src/lcd.c ****           spi_i2s_data_transmit(SPI1, queue[r++]&0xFF); //        Write!
 238              		.loc 1 47 46
 239 0068 97000000 		call	gpio_bit_reset
 239      E7800000 
 240              	.LVL20:
 241              	.L12:
  48:lib/lcd/src/lcd.c ****           r%=256;                                   //            Advance.
 242              		.loc 1 48 11 is_stmt 1
  48:lib/lcd/src/lcd.c ****           r%=256;                                   //            Advance.
 243              		.loc 1 48 46 is_stmt 0
 244 0070 1C40     		lw	a5,0(s0)
  48:lib/lcd/src/lcd.c ****           r%=256;                                   //            Advance.
 245              		.loc 1 48 11
 246 0072 37450040 		li	a0,1073758208
 247 0076 13050580 		addi	a0,a0,-2048
  48:lib/lcd/src/lcd.c ****           r%=256;                                   //            Advance.
 248              		.loc 1 48 44
 249 007a 13972700 		slli	a4,a5,2
 250 007e BA94     		add	s1,s1,a4
  48:lib/lcd/src/lcd.c ****           r%=256;                                   //            Advance.
 251              		.loc 1 48 11
 252 0080 83C50400 		lbu	a1,0(s1)
  48:lib/lcd/src/lcd.c ****           r%=256;                                   //            Advance.
 253              		.loc 1 48 46
 254 0084 8507     		addi	a5,a5,1
 255 0086 1CC0     		sw	a5,0(s0)
  48:lib/lcd/src/lcd.c ****           r%=256;                                   //            Advance.
 256              		.loc 1 48 11
 257 0088 97000000 		call	spi_i2s_data_transmit
GAS LISTING C:\Users\Kalle\AppData\Local\Temp\cc2hNkGN.s 			page 7


 257      E7800000 
 258              	.LVL21:
  49:lib/lcd/src/lcd.c ****         }                                           //       (No! Return!)
 259              		.loc 1 49 11 is_stmt 1
  49:lib/lcd/src/lcd.c ****         }                                           //       (No! Return!)
 260              		.loc 1 49 12 is_stmt 0
 261 0090 1C40     		lw	a5,0(s0)
 262              	.LBE207:
 263              	.LBE206:
 264              		.loc 1 54 1
 265 0092 B240     		lw	ra,12(sp)
 266              		.cfi_remember_state
 267              		.cfi_restore 1
 268 0094 9244     		lw	s1,4(sp)
 269              		.cfi_restore 9
 270              	.LBB210:
 271              	.LBB208:
  49:lib/lcd/src/lcd.c ****         }                                           //       (No! Return!)
 272              		.loc 1 49 12
 273 0096 13D7F741 		srai	a4,a5,31
 274 009a 6183     		srli	a4,a4,24
 275 009c BA97     		add	a5,a5,a4
 276 009e 93F7F70F 		andi	a5,a5,255
 277 00a2 998F     		sub	a5,a5,a4
 278 00a4 1CC0     		sw	a5,0(s0)
 279              	.LBE208:
 280              	.LBE210:
 281              		.loc 1 54 1
 282 00a6 2244     		lw	s0,8(sp)
 283              		.cfi_restore 8
 284 00a8 4101     		addi	sp,sp,16
 285              	.LCFI5:
 286              		.cfi_def_cfa_offset 0
 287 00aa 8280     		jr	ra
 288              	.L9:
 289              	.LCFI6:
 290              		.cfi_restore_state
  52:lib/lcd/src/lcd.c ****     }
 291              		.loc 1 52 9 is_stmt 1
 292              		.loc 1 54 1 is_stmt 0
 293 00ac 2244     		lw	s0,8(sp)
 294              		.cfi_remember_state
 295              		.cfi_restore 8
 296 00ae B240     		lw	ra,12(sp)
 297              		.cfi_restore 1
 298 00b0 9244     		lw	s1,4(sp)
 299              		.cfi_restore 9
  52:lib/lcd/src/lcd.c ****     }
 300              		.loc 1 52 9
 301 00b2 8965     		li	a1,8192
 302              		.loc 1 54 1
  52:lib/lcd/src/lcd.c ****     }
 303              		.loc 1 52 9
 304 00b4 37150140 		li	a0,1073811456
 305              		.loc 1 54 1
 306 00b8 4101     		addi	sp,sp,16
 307              	.LCFI7:
GAS LISTING C:\Users\Kalle\AppData\Local\Temp\cc2hNkGN.s 			page 8


 308              		.cfi_def_cfa_offset 0
  52:lib/lcd/src/lcd.c ****     }
 309              		.loc 1 52 9
 310 00ba 17030000 		tail	gpio_bit_set
 310      67000300 
 311              	.LVL22:
 312              	.L18:
 313              	.LCFI8:
 314              		.cfi_restore_state
 315              	.LBB211:
 316              	.LBB209:
  47:lib/lcd/src/lcd.c ****           spi_i2s_data_transmit(SPI1, queue[r++]&0xFF); //        Write!
 317              		.loc 1 47 30
 318 00c2 97000000 		call	gpio_bit_set
 318      E7800000 
 319              	.LVL23:
 320 00ca 5DB7     		j	.L12
 321              	.LBE209:
 322              	.LBE211:
 323              		.cfi_endproc
 324              	.LFE4:
 326              		.section	.text.LCD_Wait_On_Queue,"ax",@progbits
 327              		.align	1
 328              		.globl	LCD_Wait_On_Queue
 330              	LCD_Wait_On_Queue:
 331              	.LFB3:
  39:lib/lcd/src/lcd.c **** 	while(r != w) LCD_WR_Queue();					//Blocks while emptying the queue
 332              		.loc 1 39 25 is_stmt 1
 333              		.cfi_startproc
  40:lib/lcd/src/lcd.c **** }
 334              		.loc 1 40 2
  39:lib/lcd/src/lcd.c **** 	while(r != w) LCD_WR_Queue();					//Blocks while emptying the queue
 335              		.loc 1 39 25 is_stmt 0
 336 0000 4111     		addi	sp,sp,-16
 337              	.LCFI9:
 338              		.cfi_def_cfa_offset 16
 339 0002 22C4     		sw	s0,8(sp)
 340 0004 26C2     		sw	s1,4(sp)
 341              		.cfi_offset 8, -8
 342              		.cfi_offset 9, -12
  40:lib/lcd/src/lcd.c **** }
 343              		.loc 1 40 10
 344 0006 37040000 		lui	s0,%hi(.LANCHOR1)
 345 000a B7040000 		lui	s1,%hi(.LANCHOR0)
 346 000e 93840400 		addi	s1,s1,%lo(.LANCHOR0)
 347 0012 13040400 		addi	s0,s0,%lo(.LANCHOR1)
  40:lib/lcd/src/lcd.c **** }
 348              		.loc 1 40 7
 349 0016 9840     		lw	a4,0(s1)
 350 0018 1C40     		lw	a5,0(s0)
  39:lib/lcd/src/lcd.c **** 	while(r != w) LCD_WR_Queue();					//Blocks while emptying the queue
 351              		.loc 1 39 25
 352 001a 06C6     		sw	ra,12(sp)
 353              		.cfi_offset 1, -4
  40:lib/lcd/src/lcd.c **** }
 354              		.loc 1 40 7
 355 001c 630AF700 		beq	a4,a5,.L19
GAS LISTING C:\Users\Kalle\AppData\Local\Temp\cc2hNkGN.s 			page 9


 356              	.L21:
  40:lib/lcd/src/lcd.c **** }
 357              		.loc 1 40 16 is_stmt 1 discriminator 2
 358 0020 97000000 		call	LCD_WR_Queue
 358      E7800000 
 359              	.LVL24:
  40:lib/lcd/src/lcd.c **** }
 360              		.loc 1 40 7 is_stmt 0 discriminator 2
 361 0028 9840     		lw	a4,0(s1)
 362 002a 1C40     		lw	a5,0(s0)
 363 002c E31AF7FE 		bne	a4,a5,.L21
 364              	.L19:
  41:lib/lcd/src/lcd.c **** 
 365              		.loc 1 41 1
 366 0030 B240     		lw	ra,12(sp)
 367              		.cfi_restore 1
 368 0032 2244     		lw	s0,8(sp)
 369              		.cfi_restore 8
 370 0034 9244     		lw	s1,4(sp)
 371              		.cfi_restore 9
 372 0036 4101     		addi	sp,sp,16
 373              	.LCFI10:
 374              		.cfi_def_cfa_offset 0
 375 0038 8280     		jr	ra
 376              		.cfi_endproc
 377              	.LFE3:
 379              		.section	.text.LCD_Write_Bus,"ax",@progbits
 380              		.align	1
 381              		.globl	LCD_Write_Bus
 383              	LCD_Write_Bus:
 384              	.LFB5:
  55:lib/lcd/src/lcd.c **** 
  56:lib/lcd/src/lcd.c **** void LCD_Write_Bus(int dat) {
 385              		.loc 1 56 29 is_stmt 1
 386              		.cfi_startproc
 387              	.LVL25:
  57:lib/lcd/src/lcd.c ****    while (((w+1)%256)==r) LCD_WR_Queue(); //If buffer full then spin...
 388              		.loc 1 57 4
  56:lib/lcd/src/lcd.c ****    while (((w+1)%256)==r) LCD_WR_Queue(); //If buffer full then spin...
 389              		.loc 1 56 29 is_stmt 0
 390 0000 4111     		addi	sp,sp,-16
 391              	.LCFI11:
 392              		.cfi_def_cfa_offset 16
 393 0002 22C4     		sw	s0,8(sp)
 394              		.cfi_offset 8, -8
 395              		.loc 1 57 14
 396 0004 37040000 		lui	s0,%hi(.LANCHOR1)
 397 0008 13040400 		addi	s0,s0,%lo(.LANCHOR1)
 398 000c 1440     		lw	a3,0(s0)
  56:lib/lcd/src/lcd.c ****    while (((w+1)%256)==r) LCD_WR_Queue(); //If buffer full then spin...
 399              		.loc 1 56 29
 400 000e 26C2     		sw	s1,4(sp)
 401              		.cfi_offset 9, -12
 402              		.loc 1 57 22
 403 0010 B7040000 		lui	s1,%hi(.LANCHOR0)
 404              		.loc 1 57 14
 405 0014 13871600 		addi	a4,a3,1
GAS LISTING C:\Users\Kalle\AppData\Local\Temp\cc2hNkGN.s 			page 10


 406              		.loc 1 57 17
 407 0018 9357F741 		srai	a5,a4,31
 408 001c 13D68701 		srli	a2,a5,24
 409              		.loc 1 57 22
 410 0020 93840400 		addi	s1,s1,%lo(.LANCHOR0)
 411              		.loc 1 57 17
 412 0024 B307C700 		add	a5,a4,a2
 413              		.loc 1 57 10
 414 0028 9840     		lw	a4,0(s1)
 415              		.loc 1 57 17
 416 002a 93F7F70F 		andi	a5,a5,255
  56:lib/lcd/src/lcd.c ****    while (((w+1)%256)==r) LCD_WR_Queue(); //If buffer full then spin...
 417              		.loc 1 56 29
 418 002e 4AC0     		sw	s2,0(sp)
 419 0030 06C6     		sw	ra,12(sp)
 420              		.cfi_offset 18, -16
 421              		.cfi_offset 1, -4
 422              		.loc 1 57 17
 423 0032 918F     		sub	a5,a5,a2
  56:lib/lcd/src/lcd.c ****    while (((w+1)%256)==r) LCD_WR_Queue(); //If buffer full then spin...
 424              		.loc 1 56 29
 425 0034 2A89     		mv	s2,a0
 426              		.loc 1 57 10
 427 0036 6393E702 		bne	a5,a4,.L25
 428              	.LVL26:
 429              	.L26:
 430              		.loc 1 57 27 is_stmt 1 discriminator 2
 431 003a 97000000 		call	LCD_WR_Queue
 431      E7800000 
 432              	.LVL27:
 433              		.loc 1 57 14 is_stmt 0 discriminator 2
 434 0042 1440     		lw	a3,0(s0)
 435              		.loc 1 57 10 discriminator 2
 436 0044 9040     		lw	a2,0(s1)
 437              		.loc 1 57 14 discriminator 2
 438 0046 93871600 		addi	a5,a3,1
 439              		.loc 1 57 17 discriminator 2
 440 004a 13D7F741 		srai	a4,a5,31
 441 004e 6183     		srli	a4,a4,24
 442 0050 BA97     		add	a5,a5,a4
 443 0052 93F7F70F 		andi	a5,a5,255
 444 0056 998F     		sub	a5,a5,a4
 445              		.loc 1 57 10 discriminator 2
 446 0058 E381C7FE 		beq	a5,a2,.L26
 447              	.L25:
  58:lib/lcd/src/lcd.c ****    queue[w++]=dat;                        //...If/when not then store data...
 448              		.loc 1 58 4 is_stmt 1
 449              		.loc 1 58 14 is_stmt 0
 450 005c 37070000 		lui	a4,%hi(.LANCHOR2)
  59:lib/lcd/src/lcd.c ****    w%=256;                                //...and advance write index!
 451              		.loc 1 59 5
 452 0060 1CC0     		sw	a5,0(s0)
  60:lib/lcd/src/lcd.c **** }
 453              		.loc 1 60 1
 454 0062 B240     		lw	ra,12(sp)
 455              		.cfi_restore 1
 456 0064 2244     		lw	s0,8(sp)
GAS LISTING C:\Users\Kalle\AppData\Local\Temp\cc2hNkGN.s 			page 11


 457              		.cfi_restore 8
  58:lib/lcd/src/lcd.c ****    queue[w++]=dat;                        //...If/when not then store data...
 458              		.loc 1 58 14
 459 0066 8A06     		slli	a3,a3,2
 460 0068 13070700 		addi	a4,a4,%lo(.LANCHOR2)
 461 006c BA96     		add	a3,a4,a3
 462 006e 23A02601 		sw	s2,0(a3)
  59:lib/lcd/src/lcd.c ****    w%=256;                                //...and advance write index!
 463              		.loc 1 59 4 is_stmt 1
 464              		.loc 1 60 1 is_stmt 0
 465 0072 9244     		lw	s1,4(sp)
 466              		.cfi_restore 9
 467 0074 0249     		lw	s2,0(sp)
 468              		.cfi_restore 18
 469              	.LVL28:
 470 0076 4101     		addi	sp,sp,16
 471              	.LCFI12:
 472              		.cfi_def_cfa_offset 0
 473 0078 8280     		jr	ra
 474              		.cfi_endproc
 475              	.LFE5:
 477              		.section	.text.LCD_Writ_Bus,"ax",@progbits
 478              		.align	1
 479              		.globl	LCD_Writ_Bus
 481              	LCD_Writ_Bus:
 482              	.LFB6:
  61:lib/lcd/src/lcd.c **** 
  62:lib/lcd/src/lcd.c **** /*
  63:lib/lcd/src/lcd.c ****   Function description: LCD serial data write function (write one byte)
  64:lib/lcd/src/lcd.c ****   Entry data: dat: byte to be written
  65:lib/lcd/src/lcd.c ****   Return value: None
  66:lib/lcd/src/lcd.c ****   Note: DC must already be set (for data) or reset (for command)
  67:lib/lcd/src/lcd.c **** */
  68:lib/lcd/src/lcd.c **** void LCD_Writ_Bus(u8 dat) 
  69:lib/lcd/src/lcd.c **** {
 483              		.loc 1 69 1 is_stmt 1
 484              		.cfi_startproc
 485              	.LVL29:
  70:lib/lcd/src/lcd.c **** 	OLED_CS_Clr();
 486              		.loc 1 70 2
  69:lib/lcd/src/lcd.c **** 	OLED_CS_Clr();
 487              		.loc 1 69 1 is_stmt 0
 488 0000 4111     		addi	sp,sp,-16
 489              	.LCFI13:
 490              		.cfi_def_cfa_offset 16
 491 0002 26C2     		sw	s1,4(sp)
 492 0004 4AC0     		sw	s2,0(sp)
 493              		.loc 1 70 2
 494 0006 8965     		li	a1,8192
 495              		.cfi_offset 9, -12
 496              		.cfi_offset 18, -16
  69:lib/lcd/src/lcd.c **** 	OLED_CS_Clr();
 497              		.loc 1 69 1
 498 0008 2A89     		mv	s2,a0
  71:lib/lcd/src/lcd.c **** 
  72:lib/lcd/src/lcd.c **** 	while(RESET == spi_i2s_flag_get(SPI1, SPI_FLAG_TBE));
 499              		.loc 1 72 17
GAS LISTING C:\Users\Kalle\AppData\Local\Temp\cc2hNkGN.s 			page 12


 500 000a B7440040 		li	s1,1073758208
  70:lib/lcd/src/lcd.c **** 
 501              		.loc 1 70 2
 502 000e 37150140 		li	a0,1073811456
 503              	.LVL30:
  69:lib/lcd/src/lcd.c **** 	OLED_CS_Clr();
 504              		.loc 1 69 1
 505 0012 22C4     		sw	s0,8(sp)
 506 0014 06C6     		sw	ra,12(sp)
 507              		.cfi_offset 8, -8
 508              		.cfi_offset 1, -4
 509              		.loc 1 72 17
 510 0016 13840480 		addi	s0,s1,-2048
  70:lib/lcd/src/lcd.c **** 
 511              		.loc 1 70 2
 512 001a 97000000 		call	gpio_bit_reset
 512      E7800000 
 513              	.LVL31:
 514              		.loc 1 72 2 is_stmt 1
 515              	.L30:
 516              		.loc 1 72 54 discriminator 1
 517              		.loc 1 72 17 is_stmt 0 discriminator 1
 518 0022 8945     		li	a1,2
 519 0024 2285     		mv	a0,s0
 520 0026 97000000 		call	spi_i2s_flag_get
 520      E7800000 
 521              	.LVL32:
 522              		.loc 1 72 7 discriminator 1
 523 002e 75D9     		beq	a0,zero,.L30
  73:lib/lcd/src/lcd.c ****         spi_i2s_data_transmit(SPI1, dat);
 524              		.loc 1 73 9 is_stmt 1
 525 0030 13850480 		addi	a0,s1,-2048
 526 0034 CA85     		mv	a1,s2
  74:lib/lcd/src/lcd.c **** 
  75:lib/lcd/src/lcd.c **** 
  76:lib/lcd/src/lcd.c **** 	while(RESET == spi_i2s_flag_get(SPI1, SPI_FLAG_RBNE));
 527              		.loc 1 76 17 is_stmt 0
 528 0036 B7440040 		li	s1,1073758208
  73:lib/lcd/src/lcd.c ****         spi_i2s_data_transmit(SPI1, dat);
 529              		.loc 1 73 9
 530 003a 97000000 		call	spi_i2s_data_transmit
 530      E7800000 
 531              	.LVL33:
 532              		.loc 1 76 2 is_stmt 1
 533              		.loc 1 76 17 is_stmt 0
 534 0042 13840480 		addi	s0,s1,-2048
 535              	.L31:
 536              		.loc 1 76 55 is_stmt 1 discriminator 1
 537              		.loc 1 76 17 is_stmt 0 discriminator 1
 538 0046 8545     		li	a1,1
 539 0048 2285     		mv	a0,s0
 540 004a 97000000 		call	spi_i2s_flag_get
 540      E7800000 
 541              	.LVL34:
 542              		.loc 1 76 7 discriminator 1
 543 0052 75D9     		beq	a0,zero,.L31
  77:lib/lcd/src/lcd.c ****         spi_i2s_data_receive(SPI1);
GAS LISTING C:\Users\Kalle\AppData\Local\Temp\cc2hNkGN.s 			page 13


 544              		.loc 1 77 9 is_stmt 1
 545 0054 13850480 		addi	a0,s1,-2048
 546 0058 97000000 		call	spi_i2s_data_receive
 546      E7800000 
 547              	.LVL35:
  78:lib/lcd/src/lcd.c **** 
  79:lib/lcd/src/lcd.c **** 	OLED_CS_Set();  
 548              		.loc 1 79 2
  80:lib/lcd/src/lcd.c **** }
 549              		.loc 1 80 1 is_stmt 0
 550 0060 2244     		lw	s0,8(sp)
 551              		.cfi_restore 8
 552 0062 B240     		lw	ra,12(sp)
 553              		.cfi_restore 1
 554 0064 9244     		lw	s1,4(sp)
 555              		.cfi_restore 9
 556 0066 0249     		lw	s2,0(sp)
 557              		.cfi_restore 18
  79:lib/lcd/src/lcd.c **** }
 558              		.loc 1 79 2
 559 0068 8965     		li	a1,8192
 560              		.loc 1 80 1
  79:lib/lcd/src/lcd.c **** }
 561              		.loc 1 79 2
 562 006a 37150140 		li	a0,1073811456
 563              		.loc 1 80 1
 564 006e 4101     		addi	sp,sp,16
 565              	.LCFI14:
 566              		.cfi_def_cfa_offset 0
  79:lib/lcd/src/lcd.c **** }
 567              		.loc 1 79 2
 568 0070 17030000 		tail	gpio_bit_set
 568      67000300 
 569              	.LVL36:
 570              		.cfi_endproc
 571              	.LFE6:
 573              		.section	.text.LCD_WR_DATA8,"ax",@progbits
 574              		.align	1
 575              		.globl	LCD_WR_DATA8
 577              	LCD_WR_DATA8:
 578              	.LFB7:
  81:lib/lcd/src/lcd.c **** 
  82:lib/lcd/src/lcd.c **** 
  83:lib/lcd/src/lcd.c **** /*
  84:lib/lcd/src/lcd.c ****   Function description: LCD write 8-bit data
  85:lib/lcd/src/lcd.c ****   Entry data: dat: data to be written
  86:lib/lcd/src/lcd.c ****   Return value: None
  87:lib/lcd/src/lcd.c **** */
  88:lib/lcd/src/lcd.c **** void LCD_WR_DATA8(u8 dat)
  89:lib/lcd/src/lcd.c **** {
 579              		.loc 1 89 1 is_stmt 1
 580              		.cfi_startproc
 581              	.LVL37:
  90:lib/lcd/src/lcd.c **** 	OLED_DC_Set();  // Write data
 582              		.loc 1 90 2
  89:lib/lcd/src/lcd.c **** 	OLED_DC_Set();  // Write data
 583              		.loc 1 89 1 is_stmt 0
GAS LISTING C:\Users\Kalle\AppData\Local\Temp\cc2hNkGN.s 			page 14


 584 0000 4111     		addi	sp,sp,-16
 585              	.LCFI15:
 586              		.cfi_def_cfa_offset 16
 587 0002 22C4     		sw	s0,8(sp)
 588              		.loc 1 90 2
 589 0004 A165     		li	a1,32768
 590              		.cfi_offset 8, -8
  89:lib/lcd/src/lcd.c **** 	OLED_DC_Set();  // Write data
 591              		.loc 1 89 1
 592 0006 2A84     		mv	s0,a0
 593              		.loc 1 90 2
 594 0008 37150140 		li	a0,1073811456
 595              	.LVL38:
  89:lib/lcd/src/lcd.c **** 	OLED_DC_Set();  // Write data
 596              		.loc 1 89 1
 597 000c 06C6     		sw	ra,12(sp)
 598              		.cfi_offset 1, -4
 599              		.loc 1 90 2
 600 000e 97000000 		call	gpio_bit_set
 600      E7800000 
 601              	.LVL39:
  91:lib/lcd/src/lcd.c **** 	LCD_Writ_Bus(dat);
 602              		.loc 1 91 2 is_stmt 1
 603 0016 2285     		mv	a0,s0
  92:lib/lcd/src/lcd.c ****     //LCD_Write_Bus(((int)dat)+(1<<8));
  93:lib/lcd/src/lcd.c **** }
 604              		.loc 1 93 1 is_stmt 0
 605 0018 2244     		lw	s0,8(sp)
 606              		.cfi_restore 8
 607 001a B240     		lw	ra,12(sp)
 608              		.cfi_restore 1
 609 001c 4101     		addi	sp,sp,16
 610              	.LCFI16:
 611              		.cfi_def_cfa_offset 0
  91:lib/lcd/src/lcd.c **** 	LCD_Writ_Bus(dat);
 612              		.loc 1 91 2
 613 001e 17030000 		tail	LCD_Writ_Bus
 613      67000300 
 614              	.LVL40:
 615              		.cfi_endproc
 616              	.LFE7:
 618              		.section	.text.LCD_WR_DATA,"ax",@progbits
 619              		.align	1
 620              		.globl	LCD_WR_DATA
 622              	LCD_WR_DATA:
 623              	.LFB8:
  94:lib/lcd/src/lcd.c **** 
  95:lib/lcd/src/lcd.c **** 
  96:lib/lcd/src/lcd.c **** /*
  97:lib/lcd/src/lcd.c ****   Function description: LCD write 16-bit data
  98:lib/lcd/src/lcd.c ****   Entry data: dat: 16-bit data to be written
  99:lib/lcd/src/lcd.c ****   Return value: None
 100:lib/lcd/src/lcd.c **** */
 101:lib/lcd/src/lcd.c **** void LCD_WR_DATA(u16 dat)
 102:lib/lcd/src/lcd.c **** {
 624              		.loc 1 102 1 is_stmt 1
 625              		.cfi_startproc
GAS LISTING C:\Users\Kalle\AppData\Local\Temp\cc2hNkGN.s 			page 15


 626              	.LVL41:
 103:lib/lcd/src/lcd.c **** 	OLED_DC_Set();  // Write data
 627              		.loc 1 103 2
 102:lib/lcd/src/lcd.c **** 	OLED_DC_Set();  // Write data
 628              		.loc 1 102 1 is_stmt 0
 629 0000 4111     		addi	sp,sp,-16
 630              	.LCFI17:
 631              		.cfi_def_cfa_offset 16
 632 0002 22C4     		sw	s0,8(sp)
 633              		.loc 1 103 2
 634 0004 A165     		li	a1,32768
 635              		.cfi_offset 8, -8
 102:lib/lcd/src/lcd.c **** 	OLED_DC_Set();  // Write data
 636              		.loc 1 102 1
 637 0006 2A84     		mv	s0,a0
 638              		.loc 1 103 2
 639 0008 37150140 		li	a0,1073811456
 640              	.LVL42:
 102:lib/lcd/src/lcd.c **** 	OLED_DC_Set();  // Write data
 641              		.loc 1 102 1
 642 000c 06C6     		sw	ra,12(sp)
 643              		.cfi_offset 1, -4
 644              		.loc 1 103 2
 645 000e 97000000 		call	gpio_bit_set
 645      E7800000 
 646              	.LVL43:
 104:lib/lcd/src/lcd.c **** 	LCD_Writ_Bus(dat>>8);
 647              		.loc 1 104 2 is_stmt 1
 648              		.loc 1 104 18 is_stmt 0
 649 0016 13558400 		srli	a0,s0,8
 650              		.loc 1 104 2
 651 001a 1375F50F 		andi	a0,a0,0xff
 652 001e 97000000 		call	LCD_Writ_Bus
 652      E7800000 
 653              	.LVL44:
 105:lib/lcd/src/lcd.c **** 	LCD_Writ_Bus(dat);
 654              		.loc 1 105 2 is_stmt 1
 655 0026 1375F40F 		andi	a0,s0,0xff
 106:lib/lcd/src/lcd.c ****     //LCD_Write_Bus(((int)dat>>8)+(1<<8));
 107:lib/lcd/src/lcd.c ****     //LCD_Write_Bus(((int)dat&0xFF)+(1<<8));
 108:lib/lcd/src/lcd.c **** }
 656              		.loc 1 108 1 is_stmt 0
 657 002a 2244     		lw	s0,8(sp)
 658              		.cfi_restore 8
 659              	.LVL45:
 660 002c B240     		lw	ra,12(sp)
 661              		.cfi_restore 1
 662 002e 4101     		addi	sp,sp,16
 663              	.LCFI18:
 664              		.cfi_def_cfa_offset 0
 105:lib/lcd/src/lcd.c **** 	LCD_Writ_Bus(dat);
 665              		.loc 1 105 2
 666 0030 17030000 		tail	LCD_Writ_Bus
 666      67000300 
 667              	.LVL46:
 668              		.cfi_endproc
 669              	.LFE8:
GAS LISTING C:\Users\Kalle\AppData\Local\Temp\cc2hNkGN.s 			page 16


 671              		.section	.text.LCD_WR_REG,"ax",@progbits
 672              		.align	1
 673              		.globl	LCD_WR_REG
 675              	LCD_WR_REG:
 676              	.LFB9:
 109:lib/lcd/src/lcd.c **** 
 110:lib/lcd/src/lcd.c **** 
 111:lib/lcd/src/lcd.c **** /*
 112:lib/lcd/src/lcd.c ****   Function description: LCD write 8-bit command
 113:lib/lcd/src/lcd.c ****   Entry data: dat: command to be written
 114:lib/lcd/src/lcd.c ****   Return value: None
 115:lib/lcd/src/lcd.c **** */
 116:lib/lcd/src/lcd.c **** void LCD_WR_REG(u8 dat)
 117:lib/lcd/src/lcd.c **** {
 677              		.loc 1 117 1 is_stmt 1
 678              		.cfi_startproc
 679              	.LVL47:
 118:lib/lcd/src/lcd.c **** 	OLED_DC_Clr();  // Write command
 680              		.loc 1 118 2
 117:lib/lcd/src/lcd.c **** 	OLED_DC_Clr();  // Write command
 681              		.loc 1 117 1 is_stmt 0
 682 0000 4111     		addi	sp,sp,-16
 683              	.LCFI19:
 684              		.cfi_def_cfa_offset 16
 685 0002 22C4     		sw	s0,8(sp)
 686              		.loc 1 118 2
 687 0004 A165     		li	a1,32768
 688              		.cfi_offset 8, -8
 117:lib/lcd/src/lcd.c **** 	OLED_DC_Clr();  // Write command
 689              		.loc 1 117 1
 690 0006 2A84     		mv	s0,a0
 691              		.loc 1 118 2
 692 0008 37150140 		li	a0,1073811456
 693              	.LVL48:
 117:lib/lcd/src/lcd.c **** 	OLED_DC_Clr();  // Write command
 694              		.loc 1 117 1
 695 000c 06C6     		sw	ra,12(sp)
 696              		.cfi_offset 1, -4
 697              		.loc 1 118 2
 698 000e 97000000 		call	gpio_bit_reset
 698      E7800000 
 699              	.LVL49:
 119:lib/lcd/src/lcd.c **** 	LCD_Writ_Bus(dat);
 700              		.loc 1 119 2 is_stmt 1
 701 0016 2285     		mv	a0,s0
 120:lib/lcd/src/lcd.c ****     //LCD_Write_Bus((int)dat);
 121:lib/lcd/src/lcd.c **** }
 702              		.loc 1 121 1 is_stmt 0
 703 0018 2244     		lw	s0,8(sp)
 704              		.cfi_restore 8
 705 001a B240     		lw	ra,12(sp)
 706              		.cfi_restore 1
 707 001c 4101     		addi	sp,sp,16
 708              	.LCFI20:
 709              		.cfi_def_cfa_offset 0
 119:lib/lcd/src/lcd.c **** 	LCD_Writ_Bus(dat);
 710              		.loc 1 119 2
GAS LISTING C:\Users\Kalle\AppData\Local\Temp\cc2hNkGN.s 			page 17


 711 001e 17030000 		tail	LCD_Writ_Bus
 711      67000300 
 712              	.LVL50:
 713              		.cfi_endproc
 714              	.LFE9:
 716              		.section	.text.LCD_Address_Set,"ax",@progbits
 717              		.align	1
 718              		.globl	LCD_Address_Set
 720              	LCD_Address_Set:
 721              	.LFB10:
 122:lib/lcd/src/lcd.c **** 
 123:lib/lcd/src/lcd.c **** 
 124:lib/lcd/src/lcd.c **** 
 125:lib/lcd/src/lcd.c **** /*
 126:lib/lcd/src/lcd.c ****   Function description: Set start and end addresses
 127:lib/lcd/src/lcd.c ****   Entry data: x1, x2 set the start and end column address
 128:lib/lcd/src/lcd.c ****               y1, y2 set the start and end row address
 129:lib/lcd/src/lcd.c ****   Return value: None
 130:lib/lcd/src/lcd.c **** */
 131:lib/lcd/src/lcd.c **** void LCD_Address_Set(u16 x1,u16 y1,u16 x2,u16 y2)
 132:lib/lcd/src/lcd.c **** {
 722              		.loc 1 132 1 is_stmt 1
 723              		.cfi_startproc
 724              	.LVL51:
 133:lib/lcd/src/lcd.c **** 	LCD_WR_REG(0x2a);  // Column address setting
 725              		.loc 1 133 2
 726              	.LBB212:
 727              	.LBB213:
 118:lib/lcd/src/lcd.c **** 	LCD_Writ_Bus(dat);
 728              		.loc 1 118 2
 729              	.LBE213:
 730              	.LBE212:
 132:lib/lcd/src/lcd.c **** 	LCD_WR_REG(0x2a);  // Column address setting
 731              		.loc 1 132 1 is_stmt 0
 732 0000 0111     		addi	sp,sp,-32
 733              	.LCFI21:
 734              		.cfi_def_cfa_offset 32
 735 0002 4AC8     		sw	s2,16(sp)
 736 0004 52C4     		sw	s4,8(sp)
 737              		.cfi_offset 18, -16
 738              		.cfi_offset 20, -24
 739 0006 2E89     		mv	s2,a1
 740 0008 2A8A     		mv	s4,a0
 741              	.LBB217:
 742              	.LBB214:
 118:lib/lcd/src/lcd.c **** 	LCD_Writ_Bus(dat);
 743              		.loc 1 118 2
 744 000a A165     		li	a1,32768
 745              	.LVL52:
 746 000c 37150140 		li	a0,1073811456
 747              	.LVL53:
 748              	.LBE214:
 749              	.LBE217:
 132:lib/lcd/src/lcd.c **** 	LCD_WR_REG(0x2a);  // Column address setting
 750              		.loc 1 132 1
 751 0010 06CE     		sw	ra,28(sp)
 752 0012 22CC     		sw	s0,24(sp)
GAS LISTING C:\Users\Kalle\AppData\Local\Temp\cc2hNkGN.s 			page 18


 753 0014 26CA     		sw	s1,20(sp)
 754 0016 4EC6     		sw	s3,12(sp)
 755              		.cfi_offset 1, -4
 756              		.cfi_offset 8, -8
 757              		.cfi_offset 9, -12
 758              		.cfi_offset 19, -20
 132:lib/lcd/src/lcd.c **** 	LCD_WR_REG(0x2a);  // Column address setting
 759              		.loc 1 132 1
 760 0018 B684     		mv	s1,a3
 761 001a B289     		mv	s3,a2
 762              	.LBB218:
 763              	.LBB215:
 118:lib/lcd/src/lcd.c **** 	LCD_Writ_Bus(dat);
 764              		.loc 1 118 2
 765 001c 97000000 		call	gpio_bit_reset
 765      E7800000 
 766              	.LVL54:
 119:lib/lcd/src/lcd.c ****     //LCD_Write_Bus((int)dat);
 767              		.loc 1 119 2 is_stmt 1
 768 0024 1305A002 		li	a0,42
 769              	.LBE215:
 770              	.LBE218:
 134:lib/lcd/src/lcd.c **** 	LCD_WR_DATA(x1+lcd_conf.offset_x);
 771              		.loc 1 134 25 is_stmt 0
 772 0028 37040000 		lui	s0,%hi(.LANCHOR3)
 773              	.LBB219:
 774              	.LBB216:
 119:lib/lcd/src/lcd.c ****     //LCD_Write_Bus((int)dat);
 775              		.loc 1 119 2
 776 002c 97000000 		call	LCD_Writ_Bus
 776      E7800000 
 777              	.LVL55:
 778              	.LBE216:
 779              	.LBE219:
 780              		.loc 1 134 2 is_stmt 1
 781              		.loc 1 134 25 is_stmt 0
 782 0034 13040400 		addi	s0,s0,%lo(.LANCHOR3)
 783 0038 03452400 		lbu	a0,2(s0)
 784              		.loc 1 134 2
 785 003c 5295     		add	a0,a0,s4
 786 003e 97000000 		call	LCD_WR_DATA
 786      E7800000 
 787              	.LVL56:
 135:lib/lcd/src/lcd.c **** 	LCD_WR_DATA(x2+lcd_conf.offset_x);
 788              		.loc 1 135 2 is_stmt 1
 789              		.loc 1 135 25 is_stmt 0
 790 0046 03452400 		lbu	a0,2(s0)
 791              		.loc 1 135 2
 792 004a 4E95     		add	a0,a0,s3
 793 004c 97000000 		call	LCD_WR_DATA
 793      E7800000 
 794              	.LVL57:
 136:lib/lcd/src/lcd.c **** 	LCD_WR_REG(0x2b);  // row address setting
 795              		.loc 1 136 2 is_stmt 1
 796              	.LBB220:
 797              	.LBB221:
 118:lib/lcd/src/lcd.c **** 	LCD_Writ_Bus(dat);
GAS LISTING C:\Users\Kalle\AppData\Local\Temp\cc2hNkGN.s 			page 19


 798              		.loc 1 118 2
 799 0054 A165     		li	a1,32768
 800 0056 37150140 		li	a0,1073811456
 801 005a 97000000 		call	gpio_bit_reset
 801      E7800000 
 802              	.LVL58:
 119:lib/lcd/src/lcd.c ****     //LCD_Write_Bus((int)dat);
 803              		.loc 1 119 2
 804 0062 1305B002 		li	a0,43
 805 0066 97000000 		call	LCD_Writ_Bus
 805      E7800000 
 806              	.LVL59:
 807              	.LBE221:
 808              	.LBE220:
 137:lib/lcd/src/lcd.c **** 	LCD_WR_DATA(y1+lcd_conf.offset_y);
 809              		.loc 1 137 2
 810              		.loc 1 137 25 is_stmt 0
 811 006e 03453400 		lbu	a0,3(s0)
 812              		.loc 1 137 2
 813 0072 4A95     		add	a0,a0,s2
 814 0074 97000000 		call	LCD_WR_DATA
 814      E7800000 
 815              	.LVL60:
 138:lib/lcd/src/lcd.c **** 	LCD_WR_DATA(y2+lcd_conf.offset_y);
 816              		.loc 1 138 2 is_stmt 1
 817              		.loc 1 138 25 is_stmt 0
 818 007c 03453400 		lbu	a0,3(s0)
 819              		.loc 1 138 2
 820 0080 2695     		add	a0,a0,s1
 821 0082 97000000 		call	LCD_WR_DATA
 821      E7800000 
 822              	.LVL61:
 139:lib/lcd/src/lcd.c **** 	LCD_WR_REG(0x2c);  // Memory write
 823              		.loc 1 139 2 is_stmt 1
 824              	.LBB222:
 825              	.LBB223:
 118:lib/lcd/src/lcd.c **** 	LCD_Writ_Bus(dat);
 826              		.loc 1 118 2
 827 008a 37150140 		li	a0,1073811456
 828 008e A165     		li	a1,32768
 829 0090 97000000 		call	gpio_bit_reset
 829      E7800000 
 830              	.LVL62:
 119:lib/lcd/src/lcd.c ****     //LCD_Write_Bus((int)dat);
 831              		.loc 1 119 2
 832              	.LBE223:
 833              	.LBE222:
 140:lib/lcd/src/lcd.c **** }
 834              		.loc 1 140 1 is_stmt 0
 835 0098 6244     		lw	s0,24(sp)
 836              		.cfi_restore 8
 837 009a F240     		lw	ra,28(sp)
 838              		.cfi_restore 1
 839 009c D244     		lw	s1,20(sp)
 840              		.cfi_restore 9
 841              	.LVL63:
 842 009e 4249     		lw	s2,16(sp)
GAS LISTING C:\Users\Kalle\AppData\Local\Temp\cc2hNkGN.s 			page 20


 843              		.cfi_restore 18
 844              	.LVL64:
 845 00a0 B249     		lw	s3,12(sp)
 846              		.cfi_restore 19
 847              	.LVL65:
 848 00a2 224A     		lw	s4,8(sp)
 849              		.cfi_restore 20
 850              	.LVL66:
 851              	.LBB226:
 852              	.LBB224:
 119:lib/lcd/src/lcd.c ****     //LCD_Write_Bus((int)dat);
 853              		.loc 1 119 2
 854 00a4 1305C002 		li	a0,44
 855              	.LBE224:
 856              	.LBE226:
 857              		.loc 1 140 1
 858 00a8 0561     		addi	sp,sp,32
 859              	.LCFI22:
 860              		.cfi_def_cfa_offset 0
 861              	.LBB227:
 862              	.LBB225:
 119:lib/lcd/src/lcd.c ****     //LCD_Write_Bus((int)dat);
 863              		.loc 1 119 2
 864 00aa 17030000 		tail	LCD_Writ_Bus
 864      67000300 
 865              	.LVL67:
 866              	.LBE225:
 867              	.LBE227:
 868              		.cfi_endproc
 869              	.LFE10:
 871              		.section	.text.LCD_ShowChar.part.2,"ax",@progbits
 872              		.align	1
 874              	LCD_ShowChar.part.2:
 875              	.LFB31:
 141:lib/lcd/src/lcd.c **** 
 142:lib/lcd/src/lcd.c **** /*!
 143:lib/lcd/src/lcd.c ****     \brief      configure the SPI peripheral
 144:lib/lcd/src/lcd.c ****     \param[in]  none
 145:lib/lcd/src/lcd.c ****     \param[out] none
 146:lib/lcd/src/lcd.c ****     \retval     none
 147:lib/lcd/src/lcd.c **** */
 148:lib/lcd/src/lcd.c **** void spi_config(void)
 149:lib/lcd/src/lcd.c **** {
 150:lib/lcd/src/lcd.c ****     spi_parameter_struct spi_init_struct;
 151:lib/lcd/src/lcd.c ****     /* deinitilize SPI and the parameters */
 152:lib/lcd/src/lcd.c ****     OLED_CS_Set();
 153:lib/lcd/src/lcd.c ****     spi_struct_para_init(&spi_init_struct);
 154:lib/lcd/src/lcd.c **** 
 155:lib/lcd/src/lcd.c ****     /* SPI1 parameter config */
 156:lib/lcd/src/lcd.c ****     spi_init_struct.trans_mode           = SPI_TRANSMODE_FULLDUPLEX;
 157:lib/lcd/src/lcd.c ****     spi_init_struct.device_mode          = SPI_MASTER;
 158:lib/lcd/src/lcd.c ****     spi_init_struct.frame_size           = SPI_FRAMESIZE_8BIT;
 159:lib/lcd/src/lcd.c ****     spi_init_struct.clock_polarity_phase = SPI_CK_PL_HIGH_PH_2EDGE;
 160:lib/lcd/src/lcd.c ****     spi_init_struct.nss                  = SPI_NSS_SOFT;
 161:lib/lcd/src/lcd.c ****     spi_init_struct.prescale             = SPI_PSC_4;
 162:lib/lcd/src/lcd.c ****     spi_init_struct.endian               = SPI_ENDIAN_MSB;
 163:lib/lcd/src/lcd.c ****     spi_init(SPI1, &spi_init_struct);
GAS LISTING C:\Users\Kalle\AppData\Local\Temp\cc2hNkGN.s 			page 21


 164:lib/lcd/src/lcd.c **** 
 165:lib/lcd/src/lcd.c **** 	spi_crc_polynomial_set(SPI1,7);
 166:lib/lcd/src/lcd.c **** 	spi_enable(SPI1);
 167:lib/lcd/src/lcd.c **** }
 168:lib/lcd/src/lcd.c **** 
 169:lib/lcd/src/lcd.c **** void Lcd_SetType(int type){
 170:lib/lcd/src/lcd.c **** 	if(type == LCD_NORMAL){
 171:lib/lcd/src/lcd.c **** 		lcd_conf.configured = 1;
 172:lib/lcd/src/lcd.c **** 		lcd_conf.offset_x = 1;
 173:lib/lcd/src/lcd.c **** 		lcd_conf.offset_y = 26;
 174:lib/lcd/src/lcd.c **** 		lcd_conf.inverted = 0;
 175:lib/lcd/src/lcd.c **** 	}
 176:lib/lcd/src/lcd.c **** 	if(type == LCD_INVERTED){
 177:lib/lcd/src/lcd.c **** 		lcd_conf.configured = 1;
 178:lib/lcd/src/lcd.c **** 		lcd_conf.offset_x = 0;
 179:lib/lcd/src/lcd.c **** 		lcd_conf.offset_y = 24;
 180:lib/lcd/src/lcd.c **** 		lcd_conf.inverted = 1;
 181:lib/lcd/src/lcd.c **** 	}
 182:lib/lcd/src/lcd.c **** }
 183:lib/lcd/src/lcd.c **** 
 184:lib/lcd/src/lcd.c **** 
 185:lib/lcd/src/lcd.c **** /*
 186:lib/lcd/src/lcd.c ****   Function description: LCD initialization function
 187:lib/lcd/src/lcd.c ****   Entry data: None
 188:lib/lcd/src/lcd.c ****   Return value: None
 189:lib/lcd/src/lcd.c **** */
 190:lib/lcd/src/lcd.c **** void Lcd_Init(void)
 191:lib/lcd/src/lcd.c **** {
 192:lib/lcd/src/lcd.c **** 	if(!lcd_conf.configured) Lcd_SetType(LCD_NORMAL);
 193:lib/lcd/src/lcd.c **** 	rcu_periph_clock_enable(RCU_GPIOB);
 194:lib/lcd/src/lcd.c **** 	rcu_periph_clock_enable(RCU_GPIOC);
 195:lib/lcd/src/lcd.c **** 
 196:lib/lcd/src/lcd.c ****  	rcu_periph_clock_enable(RCU_AF);
 197:lib/lcd/src/lcd.c **** 	rcu_periph_clock_enable(RCU_SPI1);
 198:lib/lcd/src/lcd.c **** 	
 199:lib/lcd/src/lcd.c ****     gpio_init(GPIOB, GPIO_MODE_AF_PP, GPIO_OSPEED_50MHZ, GPIO_PIN_13 |GPIO_PIN_14| GPIO_PIN_15);
 200:lib/lcd/src/lcd.c **** 	gpio_init(GPIOC, GPIO_MODE_OUT_PP, GPIO_OSPEED_50MHZ, GPIO_PIN_13 | GPIO_PIN_15); //CS
 201:lib/lcd/src/lcd.c **** 
 202:lib/lcd/src/lcd.c **** 	spi_config();
 203:lib/lcd/src/lcd.c **** 
 204:lib/lcd/src/lcd.c **** 	gpio_bit_reset(GPIOC, GPIO_PIN_13 | GPIO_PIN_15);
 205:lib/lcd/src/lcd.c **** 	//LCD_Wait_On_Queue();
 206:lib/lcd/src/lcd.c **** 	lcd_delay_1ms(100);
 207:lib/lcd/src/lcd.c **** 	
 208:lib/lcd/src/lcd.c **** 
 209:lib/lcd/src/lcd.c **** 	LCD_WR_REG(0x01); 	//SW reset
 210:lib/lcd/src/lcd.c **** 	//LCD_Wait_On_Queue();
 211:lib/lcd/src/lcd.c **** 	lcd_delay_1ms(120);
 212:lib/lcd/src/lcd.c **** 	
 213:lib/lcd/src/lcd.c **** 
 214:lib/lcd/src/lcd.c **** 	LCD_WR_REG(0x11); 	//SLPOUT
 215:lib/lcd/src/lcd.c **** 	//LCD_Wait_On_Queue();
 216:lib/lcd/src/lcd.c **** 	lcd_delay_1ms(100);
 217:lib/lcd/src/lcd.c **** 
 218:lib/lcd/src/lcd.c **** 	if(lcd_conf.inverted) LCD_WR_REG(0x22); 
 219:lib/lcd/src/lcd.c **** 	else				  LCD_WR_REG(0x21); 	//INVON
 220:lib/lcd/src/lcd.c **** 
GAS LISTING C:\Users\Kalle\AppData\Local\Temp\cc2hNkGN.s 			page 22


 221:lib/lcd/src/lcd.c **** 	LCD_WR_REG(0xB1); 	//FRMCTRL1 - Full color
 222:lib/lcd/src/lcd.c **** 	LCD_WR_DATA8(0x05); // Framerate = 333khz / (25) * (196) = 67.9fps
 223:lib/lcd/src/lcd.c **** 	LCD_WR_DATA8(0x3A);
 224:lib/lcd/src/lcd.c **** 	LCD_WR_DATA8(0x3A);
 225:lib/lcd/src/lcd.c **** 
 226:lib/lcd/src/lcd.c **** 	LCD_WR_REG(0xB2);	//FRMCTRL - 8-bit color
 227:lib/lcd/src/lcd.c **** 	LCD_WR_DATA8(0x05); //fps = 67.9
 228:lib/lcd/src/lcd.c **** 	LCD_WR_DATA8(0x3A);
 229:lib/lcd/src/lcd.c **** 	LCD_WR_DATA8(0x3A);
 230:lib/lcd/src/lcd.c **** 
 231:lib/lcd/src/lcd.c **** 	LCD_WR_REG(0xB3);   //Partial mode
 232:lib/lcd/src/lcd.c **** 	LCD_WR_DATA8(0x05);  
 233:lib/lcd/src/lcd.c **** 	LCD_WR_DATA8(0x3A);
 234:lib/lcd/src/lcd.c **** 	LCD_WR_DATA8(0x3A);
 235:lib/lcd/src/lcd.c **** 	LCD_WR_DATA8(0x05);
 236:lib/lcd/src/lcd.c **** 	LCD_WR_DATA8(0x3A);
 237:lib/lcd/src/lcd.c **** 	LCD_WR_DATA8(0x3A);
 238:lib/lcd/src/lcd.c **** 
 239:lib/lcd/src/lcd.c **** 	LCD_WR_REG(0xB4);  //INVCTR - Inversion control
 240:lib/lcd/src/lcd.c **** 	LCD_WR_DATA8(0x03);//Line inversion(full color) | Frame inversion
 241:lib/lcd/src/lcd.c **** 
 242:lib/lcd/src/lcd.c **** 	LCD_WR_REG(0xC0);  //PWRCTR1 - Set GVDD voltage
 243:lib/lcd/src/lcd.c **** 	LCD_WR_DATA8(0x62);//
 244:lib/lcd/src/lcd.c **** 	LCD_WR_DATA8(0x02);//
 245:lib/lcd/src/lcd.c **** 	LCD_WR_DATA8(0x04);//
 246:lib/lcd/src/lcd.c **** 
 247:lib/lcd/src/lcd.c **** 	LCD_WR_REG(0xC1); //More power regulation
 248:lib/lcd/src/lcd.c **** 	LCD_WR_DATA8(0xC0);
 249:lib/lcd/src/lcd.c **** 
 250:lib/lcd/src/lcd.c **** 	LCD_WR_REG(0xC2); //Same
 251:lib/lcd/src/lcd.c **** 	LCD_WR_DATA8(0x0D);
 252:lib/lcd/src/lcd.c **** 	LCD_WR_DATA8(0x00);
 253:lib/lcd/src/lcd.c **** 
 254:lib/lcd/src/lcd.c **** 	LCD_WR_REG(0xC3); //same
 255:lib/lcd/src/lcd.c **** 	LCD_WR_DATA8(0x8D);
 256:lib/lcd/src/lcd.c **** 	LCD_WR_DATA8(0x6A);   
 257:lib/lcd/src/lcd.c **** 
 258:lib/lcd/src/lcd.c **** 	LCD_WR_REG(0xC4);
 259:lib/lcd/src/lcd.c **** 	LCD_WR_DATA8(0x8D); 
 260:lib/lcd/src/lcd.c **** 	LCD_WR_DATA8(0xEE); 
 261:lib/lcd/src/lcd.c **** 
 262:lib/lcd/src/lcd.c **** 	LCD_WR_REG(0xC5);  /*VCOM*/
 263:lib/lcd/src/lcd.c **** 	LCD_WR_DATA8(0x0E);    
 264:lib/lcd/src/lcd.c **** 
 265:lib/lcd/src/lcd.c **** 	LCD_WR_REG(0xE0);  //Gamma correction
 266:lib/lcd/src/lcd.c **** 	LCD_WR_DATA8(0x10);
 267:lib/lcd/src/lcd.c **** 	LCD_WR_DATA8(0x0E);
 268:lib/lcd/src/lcd.c **** 	LCD_WR_DATA8(0x02);
 269:lib/lcd/src/lcd.c **** 	LCD_WR_DATA8(0x03);
 270:lib/lcd/src/lcd.c **** 	LCD_WR_DATA8(0x0E);
 271:lib/lcd/src/lcd.c **** 	LCD_WR_DATA8(0x07);
 272:lib/lcd/src/lcd.c **** 	LCD_WR_DATA8(0x02);
 273:lib/lcd/src/lcd.c **** 	LCD_WR_DATA8(0x07);
 274:lib/lcd/src/lcd.c **** 	LCD_WR_DATA8(0x0A);
 275:lib/lcd/src/lcd.c **** 	LCD_WR_DATA8(0x12);
 276:lib/lcd/src/lcd.c **** 	LCD_WR_DATA8(0x27);
 277:lib/lcd/src/lcd.c **** 	LCD_WR_DATA8(0x37);
GAS LISTING C:\Users\Kalle\AppData\Local\Temp\cc2hNkGN.s 			page 23


 278:lib/lcd/src/lcd.c **** 	LCD_WR_DATA8(0x00);
 279:lib/lcd/src/lcd.c **** 	LCD_WR_DATA8(0x0D);
 280:lib/lcd/src/lcd.c **** 	LCD_WR_DATA8(0x0E);
 281:lib/lcd/src/lcd.c **** 	LCD_WR_DATA8(0x10);
 282:lib/lcd/src/lcd.c **** 
 283:lib/lcd/src/lcd.c **** 	LCD_WR_REG(0xE1);
 284:lib/lcd/src/lcd.c **** 	LCD_WR_DATA8(0x10);
 285:lib/lcd/src/lcd.c **** 	LCD_WR_DATA8(0x0E);
 286:lib/lcd/src/lcd.c **** 	LCD_WR_DATA8(0x03);
 287:lib/lcd/src/lcd.c **** 	LCD_WR_DATA8(0x03);
 288:lib/lcd/src/lcd.c **** 	LCD_WR_DATA8(0x0F);
 289:lib/lcd/src/lcd.c **** 	LCD_WR_DATA8(0x06);
 290:lib/lcd/src/lcd.c **** 	LCD_WR_DATA8(0x02);
 291:lib/lcd/src/lcd.c **** 	LCD_WR_DATA8(0x08);
 292:lib/lcd/src/lcd.c **** 	LCD_WR_DATA8(0x0A);
 293:lib/lcd/src/lcd.c **** 	LCD_WR_DATA8(0x13);
 294:lib/lcd/src/lcd.c **** 	LCD_WR_DATA8(0x26);
 295:lib/lcd/src/lcd.c **** 	LCD_WR_DATA8(0x36);
 296:lib/lcd/src/lcd.c **** 	LCD_WR_DATA8(0x00);
 297:lib/lcd/src/lcd.c **** 	LCD_WR_DATA8(0x0D);
 298:lib/lcd/src/lcd.c **** 	LCD_WR_DATA8(0x0E);
 299:lib/lcd/src/lcd.c **** 	LCD_WR_DATA8(0x10);
 300:lib/lcd/src/lcd.c **** 
 301:lib/lcd/src/lcd.c **** 	LCD_WR_REG(0x3A);  //Set color resolution
 302:lib/lcd/src/lcd.c **** 	LCD_WR_DATA8(0x05);//16 bit color
 303:lib/lcd/src/lcd.c **** 
 304:lib/lcd/src/lcd.c **** 	LCD_WR_REG(0x36); //Data access mode
 305:lib/lcd/src/lcd.c **** 	LCD_WR_DATA8(0x78);
 306:lib/lcd/src/lcd.c **** 	LCD_WR_REG(0x29); 
 307:lib/lcd/src/lcd.c **** } 
 308:lib/lcd/src/lcd.c **** 
 309:lib/lcd/src/lcd.c **** 
 310:lib/lcd/src/lcd.c **** /*
 311:lib/lcd/src/lcd.c ****   Function description: LCD clear screen function
 312:lib/lcd/src/lcd.c ****   Entry data: Color: color to set as background
 313:lib/lcd/src/lcd.c ****   Return value: None
 314:lib/lcd/src/lcd.c **** */
 315:lib/lcd/src/lcd.c **** void LCD_Clear(u16 Color)
 316:lib/lcd/src/lcd.c **** {
 317:lib/lcd/src/lcd.c **** 	u16 i,j;  	
 318:lib/lcd/src/lcd.c **** 	LCD_Address_Set(0,0,LCD_W-1,LCD_H-1);
 319:lib/lcd/src/lcd.c ****     for(i=0;i<LCD_W;i++)
 320:lib/lcd/src/lcd.c **** 	  {
 321:lib/lcd/src/lcd.c **** 			for (j=0;j<LCD_H;j++)
 322:lib/lcd/src/lcd.c **** 				{
 323:lib/lcd/src/lcd.c **** 					LCD_WR_DATA(Color);
 324:lib/lcd/src/lcd.c **** 				}
 325:lib/lcd/src/lcd.c **** 	  }
 326:lib/lcd/src/lcd.c **** }
 327:lib/lcd/src/lcd.c **** 
 328:lib/lcd/src/lcd.c **** 
 329:lib/lcd/src/lcd.c **** /*
 330:lib/lcd/src/lcd.c ****   Function description: LCD display Chinese characters
 331:lib/lcd/src/lcd.c ****   Entry data:  x, y: start coordinates
 332:lib/lcd/src/lcd.c ****               index: Chinese character number
 333:lib/lcd/src/lcd.c ****                size: font size
 334:lib/lcd/src/lcd.c ****   Return value: None
GAS LISTING C:\Users\Kalle\AppData\Local\Temp\cc2hNkGN.s 			page 24


 335:lib/lcd/src/lcd.c **** */
 336:lib/lcd/src/lcd.c **** void LCD_ShowChinese(u16 x,u16 y,u8 index,u8 size,u16 color)	
 337:lib/lcd/src/lcd.c **** {  
 338:lib/lcd/src/lcd.c **** 	u8 i,j;
 339:lib/lcd/src/lcd.c **** 	u8 *temp,size1;
 340:lib/lcd/src/lcd.c **** 	if(size==16){temp=Hzk16;}               // Choose a font size
 341:lib/lcd/src/lcd.c **** 	if(size==32){temp=Hzk32;}
 342:lib/lcd/src/lcd.c ****     LCD_Address_Set(x,y,x+size-1,y+size-1); // Set a region of Chinese characters
 343:lib/lcd/src/lcd.c ****     size1=size*size/8;                      // The bytes occupied by a Chinese character
 344:lib/lcd/src/lcd.c **** 	temp+=index*size1;                      // Start of writing
 345:lib/lcd/src/lcd.c **** 	for(j=0;j<size1;j++)
 346:lib/lcd/src/lcd.c **** 	{
 347:lib/lcd/src/lcd.c **** 		for(i=0;i<8;i++)
 348:lib/lcd/src/lcd.c **** 		{
 349:lib/lcd/src/lcd.c **** 		 	if((*temp&(1<<i))!=0) {         // Read from the lower bit of the data
 350:lib/lcd/src/lcd.c **** 				LCD_WR_DATA(color);         // set dot color
 351:lib/lcd/src/lcd.c **** 			}
 352:lib/lcd/src/lcd.c **** 			else
 353:lib/lcd/src/lcd.c **** 			{
 354:lib/lcd/src/lcd.c **** 				LCD_WR_DATA(BACK_COLOR);    // set dot color to background
 355:lib/lcd/src/lcd.c **** 			}
 356:lib/lcd/src/lcd.c **** 		}
 357:lib/lcd/src/lcd.c **** 		temp++;
 358:lib/lcd/src/lcd.c **** 	 }
 359:lib/lcd/src/lcd.c **** }
 360:lib/lcd/src/lcd.c **** 
 361:lib/lcd/src/lcd.c **** 
 362:lib/lcd/src/lcd.c **** /*
 363:lib/lcd/src/lcd.c ****   Function description: LCD display Chinese characters
 364:lib/lcd/src/lcd.c ****   Entry data: x, y: start coordinates
 365:lib/lcd/src/lcd.c ****   Return value: None
 366:lib/lcd/src/lcd.c **** */
 367:lib/lcd/src/lcd.c **** void LCD_DrawPoint(u16 x,u16 y,u16 color)
 368:lib/lcd/src/lcd.c **** {
 369:lib/lcd/src/lcd.c **** 	LCD_Address_Set(x,y,x,y); // Set cursor position
 370:lib/lcd/src/lcd.c **** 	LCD_WR_DATA(color);
 371:lib/lcd/src/lcd.c **** } 
 372:lib/lcd/src/lcd.c **** 
 373:lib/lcd/src/lcd.c **** 
 374:lib/lcd/src/lcd.c **** /*
 375:lib/lcd/src/lcd.c ****   Function description: LCD draws a large dot
 376:lib/lcd/src/lcd.c ****   Entry data: x, y: start coordinates
 377:lib/lcd/src/lcd.c ****   Return value: None
 378:lib/lcd/src/lcd.c **** */
 379:lib/lcd/src/lcd.c **** void LCD_DrawPoint_big(u16 x,u16 y,u16 color)
 380:lib/lcd/src/lcd.c **** {
 381:lib/lcd/src/lcd.c **** 	LCD_Fill(x-1,y-1,x+1,y+1,color);
 382:lib/lcd/src/lcd.c **** } 
 383:lib/lcd/src/lcd.c **** 
 384:lib/lcd/src/lcd.c **** 
 385:lib/lcd/src/lcd.c **** /*
 386:lib/lcd/src/lcd.c ****   Function description: fill color in the specified area
 387:lib/lcd/src/lcd.c ****   Entry data: xsta, ysta:  start coordinates
 388:lib/lcd/src/lcd.c ****               xend, yend:  end coordinates
 389:lib/lcd/src/lcd.c ****   Return value: None
 390:lib/lcd/src/lcd.c **** */
 391:lib/lcd/src/lcd.c **** void LCD_Fill(u16 xsta,u16 ysta,u16 xend,u16 yend,u16 color)
GAS LISTING C:\Users\Kalle\AppData\Local\Temp\cc2hNkGN.s 			page 25


 392:lib/lcd/src/lcd.c **** {          
 393:lib/lcd/src/lcd.c **** 	u16 i,j; 
 394:lib/lcd/src/lcd.c **** 	LCD_Address_Set(xsta,ysta,xend,yend);          //Set cursor position
 395:lib/lcd/src/lcd.c **** 	for(i=ysta;i<=yend;i++)
 396:lib/lcd/src/lcd.c **** 	{													   	 	
 397:lib/lcd/src/lcd.c **** 		for(j=xsta;j<=xend;j++)LCD_WR_DATA(color); //Set cursor position
 398:lib/lcd/src/lcd.c **** 	} 					  	    
 399:lib/lcd/src/lcd.c **** }
 400:lib/lcd/src/lcd.c **** 
 401:lib/lcd/src/lcd.c **** 
 402:lib/lcd/src/lcd.c **** /*
 403:lib/lcd/src/lcd.c ****   Function description: draw a line
 404:lib/lcd/src/lcd.c ****   Entry data: x1, y1:  start coordinates
 405:lib/lcd/src/lcd.c ****               x2, y2:  end coordinates
 406:lib/lcd/src/lcd.c ****   Return value: None
 407:lib/lcd/src/lcd.c **** ******************************************************************************/
 408:lib/lcd/src/lcd.c **** void LCD_DrawLine(u16 x1,u16 y1,u16 x2,u16 y2,u16 color)
 409:lib/lcd/src/lcd.c **** {
 410:lib/lcd/src/lcd.c **** 	u16 t; 
 411:lib/lcd/src/lcd.c **** 	int xerr=0,yerr=0,delta_x,delta_y,distance;
 412:lib/lcd/src/lcd.c **** 	int incx,incy,uRow,uCol;
 413:lib/lcd/src/lcd.c **** 	delta_x=x2-x1;                       // Calculate coordinate increments
 414:lib/lcd/src/lcd.c **** 	delta_y=y2-y1;
 415:lib/lcd/src/lcd.c **** 	uRow=x1;                             // Coordinates of starting point of drawing
 416:lib/lcd/src/lcd.c **** 	uCol=y1;
 417:lib/lcd/src/lcd.c **** 	if(delta_x>0)incx=1;                 // Set single step direction
 418:lib/lcd/src/lcd.c **** 	else if (delta_x==0)incx=0;          // Vertical line
 419:lib/lcd/src/lcd.c **** 	else {incx=-1;delta_x=-delta_x;}
 420:lib/lcd/src/lcd.c **** 	if(delta_y>0)incy=1;
 421:lib/lcd/src/lcd.c **** 	else if (delta_y==0)incy=0;          // Horizontal line
 422:lib/lcd/src/lcd.c **** 	else {incy=-1;delta_y=-delta_y;}
 423:lib/lcd/src/lcd.c **** 	if(delta_x>delta_y)distance=delta_x; // Pick basic incremental axis
 424:lib/lcd/src/lcd.c **** 	else distance=delta_y;
 425:lib/lcd/src/lcd.c **** 	for(t=0;t<distance+1;t++)
 426:lib/lcd/src/lcd.c **** 	{
 427:lib/lcd/src/lcd.c **** 		LCD_DrawPoint(uRow,uCol,color);  // Dot
 428:lib/lcd/src/lcd.c **** 		xerr+=delta_x;
 429:lib/lcd/src/lcd.c **** 		yerr+=delta_y;
 430:lib/lcd/src/lcd.c **** 		if(xerr>distance)
 431:lib/lcd/src/lcd.c **** 		{
 432:lib/lcd/src/lcd.c **** 			xerr-=distance;
 433:lib/lcd/src/lcd.c **** 			uRow+=incx;
 434:lib/lcd/src/lcd.c **** 		}
 435:lib/lcd/src/lcd.c **** 		if(yerr>distance)
 436:lib/lcd/src/lcd.c **** 		{
 437:lib/lcd/src/lcd.c **** 			yerr-=distance;
 438:lib/lcd/src/lcd.c **** 			uCol+=incy;
 439:lib/lcd/src/lcd.c **** 		}
 440:lib/lcd/src/lcd.c **** 	}
 441:lib/lcd/src/lcd.c **** }
 442:lib/lcd/src/lcd.c **** 
 443:lib/lcd/src/lcd.c **** 
 444:lib/lcd/src/lcd.c **** /*
 445:lib/lcd/src/lcd.c ****   Function description: draw a rectangle
 446:lib/lcd/src/lcd.c ****   Entry data: x1, y1:  start coordinates
 447:lib/lcd/src/lcd.c ****               x2, y2:  end coordinates
 448:lib/lcd/src/lcd.c ****   Return value: None
GAS LISTING C:\Users\Kalle\AppData\Local\Temp\cc2hNkGN.s 			page 26


 449:lib/lcd/src/lcd.c **** */
 450:lib/lcd/src/lcd.c **** void LCD_DrawRectangle(u16 x1, u16 y1, u16 x2, u16 y2,u16 color)
 451:lib/lcd/src/lcd.c **** {
 452:lib/lcd/src/lcd.c **** 	LCD_DrawLine(x1,y1,x2,y1,color);
 453:lib/lcd/src/lcd.c **** 	LCD_DrawLine(x1,y1,x1,y2,color);
 454:lib/lcd/src/lcd.c **** 	LCD_DrawLine(x1,y2,x2,y2,color);
 455:lib/lcd/src/lcd.c **** 	LCD_DrawLine(x2,y1,x2,y2,color);
 456:lib/lcd/src/lcd.c **** }
 457:lib/lcd/src/lcd.c **** 
 458:lib/lcd/src/lcd.c **** 
 459:lib/lcd/src/lcd.c **** /*
 460:lib/lcd/src/lcd.c ****   Function description: draw circle
 461:lib/lcd/src/lcd.c ****   Entry data: x0, y0:  center coordinates
 462:lib/lcd/src/lcd.c ****                    r:  radius
 463:lib/lcd/src/lcd.c ****   Return value: None
 464:lib/lcd/src/lcd.c **** */
 465:lib/lcd/src/lcd.c **** void Draw_Circle(u16 x0,u16 y0,u8 r,u16 color)
 466:lib/lcd/src/lcd.c **** {
 467:lib/lcd/src/lcd.c **** 	int a,b;
 468:lib/lcd/src/lcd.c **** 	// int di;
 469:lib/lcd/src/lcd.c **** 	a=0;b=r;	  
 470:lib/lcd/src/lcd.c **** 	while(a<=b)
 471:lib/lcd/src/lcd.c **** 	{
 472:lib/lcd/src/lcd.c **** 		LCD_DrawPoint(x0-b,y0-a,color);  //3           
 473:lib/lcd/src/lcd.c **** 		LCD_DrawPoint(x0+b,y0-a,color);  //0           
 474:lib/lcd/src/lcd.c **** 		LCD_DrawPoint(x0-a,y0+b,color);  //1                
 475:lib/lcd/src/lcd.c **** 		LCD_DrawPoint(x0-a,y0-b,color);  //2             
 476:lib/lcd/src/lcd.c **** 		LCD_DrawPoint(x0+b,y0+a,color);  //4               
 477:lib/lcd/src/lcd.c **** 		LCD_DrawPoint(x0+a,y0-b,color);  //5
 478:lib/lcd/src/lcd.c **** 		LCD_DrawPoint(x0+a,y0+b,color);             //6 
 479:lib/lcd/src/lcd.c **** 		LCD_DrawPoint(x0-b,y0+a,color);             //7
 480:lib/lcd/src/lcd.c **** 		a++;
 481:lib/lcd/src/lcd.c **** 		if((a*a+b*b)>(r*r)) // Determine whether the points to be drawn are too far away
 482:lib/lcd/src/lcd.c **** 		{
 483:lib/lcd/src/lcd.c **** 			b--;
 484:lib/lcd/src/lcd.c **** 		}
 485:lib/lcd/src/lcd.c **** 	}
 486:lib/lcd/src/lcd.c **** }
 487:lib/lcd/src/lcd.c **** 
 488:lib/lcd/src/lcd.c **** 
 489:lib/lcd/src/lcd.c **** /*
 490:lib/lcd/src/lcd.c ****   Function description: display characters
 491:lib/lcd/src/lcd.c ****   Entry data: x, y:  start point coordinates
 492:lib/lcd/src/lcd.c ****                num:  characters to display
 493:lib/lcd/src/lcd.c ****               mode:  1: transparent mode
 494:lib/lcd/src/lcd.c ****                      0: non-transparent mode
 495:lib/lcd/src/lcd.c ****   Return value: None
 496:lib/lcd/src/lcd.c **** */
 497:lib/lcd/src/lcd.c **** void LCD_ShowChar(u16 x,u16 y,u8 num,u8 mode,u16 color)
 876              		.loc 1 497 6 is_stmt 1
 877              		.cfi_startproc
 878              	.LVL68:
 879 0000 7971     		addi	sp,sp,-48
 880              	.LCFI23:
 881              		.cfi_def_cfa_offset 48
 882 0002 56CA     		sw	s5,20(sp)
 883              		.cfi_offset 21, -28
GAS LISTING C:\Users\Kalle\AppData\Local\Temp\cc2hNkGN.s 			page 27


 884 0004 B28A     		mv	s5,a2
 498:lib/lcd/src/lcd.c **** {
 499:lib/lcd/src/lcd.c ****     u8 temp;
 500:lib/lcd/src/lcd.c ****     u8 pos,t;
 501:lib/lcd/src/lcd.c **** 	  u16 x0=x;    
 502:lib/lcd/src/lcd.c ****     if(x>LCD_W-8 || y>LCD_H-16)return;	// Outside of display area
 503:lib/lcd/src/lcd.c **** 	num=num-' ';                        // Get offset value
 885              		.loc 1 503 5 is_stmt 0
 886 0006 811A     		addi	s5,s5,-32
 497:lib/lcd/src/lcd.c **** {
 887              		.loc 1 497 6
 888 0008 26D2     		sw	s1,36(sp)
 504:lib/lcd/src/lcd.c **** 	LCD_Address_Set(x,y,x+8-1,y+16-1);  // Set cursor position
 889              		.loc 1 504 2
 890 000a 13067500 		addi	a2,a0,7
 891              	.LVL69:
 892              		.cfi_offset 9, -12
 497:lib/lcd/src/lcd.c **** {
 893              		.loc 1 497 6
 894 000e B684     		mv	s1,a3
 895 0010 93FAFA0F 		andi	s5,s5,0xff
 896              		.loc 1 504 2
 897 0014 9386F500 		addi	a3,a1,15
 898              	.LVL70:
 497:lib/lcd/src/lcd.c **** {
 899              		.loc 1 497 6
 900 0018 4AD0     		sw	s2,32(sp)
 901 001a 5AC8     		sw	s6,16(sp)
 902 001c 5EC6     		sw	s7,12(sp)
 903 001e 06D6     		sw	ra,44(sp)
 904 0020 22D4     		sw	s0,40(sp)
 905 0022 4ECE     		sw	s3,28(sp)
 906 0024 52CC     		sw	s4,24(sp)
 907 0026 62C4     		sw	s8,8(sp)
 908              		.cfi_offset 18, -16
 909              		.cfi_offset 22, -32
 910              		.cfi_offset 23, -36
 911              		.cfi_offset 1, -4
 912              		.cfi_offset 8, -8
 913              		.cfi_offset 19, -20
 914              		.cfi_offset 20, -24
 915              		.cfi_offset 24, -40
 497:lib/lcd/src/lcd.c **** {
 916              		.loc 1 497 6
 917 0028 AA8B     		mv	s7,a0
 503:lib/lcd/src/lcd.c **** 	LCD_Address_Set(x,y,x+8-1,y+16-1);  // Set cursor position
 918              		.loc 1 503 2 is_stmt 1
 919              	.LVL71:
 920              		.loc 1 504 2
 497:lib/lcd/src/lcd.c **** {
 921              		.loc 1 497 6 is_stmt 0
 922 002a 2E8B     		mv	s6,a1
 923 002c 3A89     		mv	s2,a4
 924 002e 920A     		slli	s5,s5,4
 925              		.loc 1 504 2
 926 0030 97000000 		call	LCD_Address_Set
 926      E7800000 
GAS LISTING C:\Users\Kalle\AppData\Local\Temp\cc2hNkGN.s 			page 28


 927              	.LVL72:
 505:lib/lcd/src/lcd.c **** 	if(!mode)
 928              		.loc 1 505 2 is_stmt 1
 929              		.loc 1 505 4 is_stmt 0
 930 0038 A1EC     		bne	s1,zero,.L46
 931 003a B7090000 		lui	s3,%hi(.LANCHOR4)
 932 003e 93890900 		addi	s3,s3,%lo(.LANCHOR4)
 933 0042 93870901 		addi	a5,s3,16
 506:lib/lcd/src/lcd.c **** 	{
 507:lib/lcd/src/lcd.c **** 		// non-trasparent mode
 508:lib/lcd/src/lcd.c **** 		for(pos=0;pos<16;pos++)
 509:lib/lcd/src/lcd.c **** 		{ 
 510:lib/lcd/src/lcd.c **** 			temp=asc2_1608[(u16)num*16+pos];  // load 1608 font character
 511:lib/lcd/src/lcd.c **** 			for(t=0;t<8;t++)
 512:lib/lcd/src/lcd.c **** 		    {                 
 513:lib/lcd/src/lcd.c **** 		        if(temp&0x01)LCD_WR_DATA(color);
 514:lib/lcd/src/lcd.c **** 				else LCD_WR_DATA(BACK_COLOR);
 934              		.loc 1 514 10
 935 0046 370A0000 		lui	s4,%hi(BACK_COLOR)
 936 004a D699     		add	s3,s3,s5
 937 004c BE9A     		add	s5,a5,s5
 938              	.LVL73:
 939              	.L50:
 510:lib/lcd/src/lcd.c **** 			for(t=0;t<8;t++)
 940              		.loc 1 510 4 is_stmt 1
 510:lib/lcd/src/lcd.c **** 			for(t=0;t<8;t++)
 941              		.loc 1 510 8 is_stmt 0
 942 004e 83C40900 		lbu	s1,0(s3)
 943              	.LVL74:
 511:lib/lcd/src/lcd.c **** 		    {                 
 944              		.loc 1 511 4 is_stmt 1
 510:lib/lcd/src/lcd.c **** 			for(t=0;t<8;t++)
 945              		.loc 1 510 8 is_stmt 0
 946 0052 2144     		li	s0,8
 947              	.LVL75:
 948              	.L49:
 513:lib/lcd/src/lcd.c **** 				else LCD_WR_DATA(BACK_COLOR);
 949              		.loc 1 513 11 is_stmt 1
 513:lib/lcd/src/lcd.c **** 				else LCD_WR_DATA(BACK_COLOR);
 950              		.loc 1 513 24
 951              		.loc 1 514 10
 513:lib/lcd/src/lcd.c **** 				else LCD_WR_DATA(BACK_COLOR);
 952              		.loc 1 513 13 is_stmt 0
 953 0054 93F71400 		andi	a5,s1,1
 513:lib/lcd/src/lcd.c **** 				else LCD_WR_DATA(BACK_COLOR);
 954              		.loc 1 513 24
 955 0058 4A85     		mv	a0,s2
 513:lib/lcd/src/lcd.c **** 				else LCD_WR_DATA(BACK_COLOR);
 956              		.loc 1 513 13
 957 005a 99E3     		bne	a5,zero,.L63
 958              	.LVL76:
 959              		.loc 1 514 10
 960 005c 03250A00 		lw	a0,%lo(BACK_COLOR)(s4)
 961              	.LVL77:
 962              	.L63:
 963 0060 7D14     		addi	s0,s0,-1
 964              	.LVL78:
GAS LISTING C:\Users\Kalle\AppData\Local\Temp\cc2hNkGN.s 			page 29


 965 0062 1374F40F 		andi	s0,s0,0xff
 966 0066 97000000 		call	LCD_WR_DATA
 966      E7800000 
 967              	.LVL79:
 515:lib/lcd/src/lcd.c **** 				temp>>=1;
 968              		.loc 1 515 5 is_stmt 1
 969              		.loc 1 515 9 is_stmt 0
 970 006e 8580     		srli	s1,s1,1
 971              	.LVL80:
 516:lib/lcd/src/lcd.c **** 				x++;
 972              		.loc 1 516 5 is_stmt 1
 511:lib/lcd/src/lcd.c **** 		    {                 
 973              		.loc 1 511 4 is_stmt 0
 974 0070 75F0     		bne	s0,zero,.L49
 517:lib/lcd/src/lcd.c **** 		    }
 518:lib/lcd/src/lcd.c **** 			x=x0;
 975              		.loc 1 518 4 is_stmt 1
 976              	.LVL81:
 519:lib/lcd/src/lcd.c **** 			y++;
 977              		.loc 1 519 4
 978 0072 8509     		addi	s3,s3,1
 508:lib/lcd/src/lcd.c **** 		{ 
 979              		.loc 1 508 3 is_stmt 0
 980 0074 E39D3AFD 		bne	s5,s3,.L50
 981              	.LVL82:
 982              	.L45:
 520:lib/lcd/src/lcd.c **** 		}	
 521:lib/lcd/src/lcd.c **** 	}else
 522:lib/lcd/src/lcd.c **** 	{
 523:lib/lcd/src/lcd.c **** 		// Transparent mode
 524:lib/lcd/src/lcd.c **** 		for(pos=0;pos<16;pos++)
 525:lib/lcd/src/lcd.c **** 		{
 526:lib/lcd/src/lcd.c **** 		    temp=asc2_1608[(u16)num*16+pos]; // load 1608 font character
 527:lib/lcd/src/lcd.c **** 			for(t=0;t<8;t++)
 528:lib/lcd/src/lcd.c **** 		    {                 
 529:lib/lcd/src/lcd.c **** 		        if(temp&0x01)LCD_DrawPoint(x+t,y+pos,color); //Draw a dot
 530:lib/lcd/src/lcd.c **** 		        temp>>=1; 
 531:lib/lcd/src/lcd.c **** 		    }
 532:lib/lcd/src/lcd.c **** 		}
 533:lib/lcd/src/lcd.c **** 	}   	   	 	  
 534:lib/lcd/src/lcd.c **** }
 983              		.loc 1 534 1
 984 0078 B250     		lw	ra,44(sp)
 985              		.cfi_remember_state
 986              		.cfi_restore 1
 987 007a 2254     		lw	s0,40(sp)
 988              		.cfi_restore 8
 989 007c 9254     		lw	s1,36(sp)
 990              		.cfi_restore 9
 991              	.LVL83:
 992 007e 0259     		lw	s2,32(sp)
 993              		.cfi_restore 18
 994              	.LVL84:
 995 0080 F249     		lw	s3,28(sp)
 996              		.cfi_restore 19
 997 0082 624A     		lw	s4,24(sp)
 998              		.cfi_restore 20
GAS LISTING C:\Users\Kalle\AppData\Local\Temp\cc2hNkGN.s 			page 30


 999 0084 D24A     		lw	s5,20(sp)
 1000              		.cfi_restore 21
 1001 0086 424B     		lw	s6,16(sp)
 1002              		.cfi_restore 22
 1003 0088 B24B     		lw	s7,12(sp)
 1004              		.cfi_restore 23
 1005 008a 224C     		lw	s8,8(sp)
 1006              		.cfi_restore 24
 1007 008c 4561     		addi	sp,sp,48
 1008              	.LCFI24:
 1009              		.cfi_def_cfa_offset 0
 1010 008e 8280     		jr	ra
 1011              	.LVL85:
 1012              	.L46:
 1013              	.LCFI25:
 1014              		.cfi_restore_state
 505:lib/lcd/src/lcd.c **** 	{
 1015              		.loc 1 505 4
 1016 0090 DA89     		mv	s3,s6
 1017 0092 370C0000 		lui	s8,%hi(.LANCHOR4)
 1018 0096 410B     		addi	s6,s6,16
 1019              	.LVL86:
 1020 0098 130C0C00 		addi	s8,s8,%lo(.LANCHOR4)
 1021 009c B38A3A41 		sub	s5,s5,s3
 1022 00a0 138A8B00 		addi	s4,s7,8
 1023              	.LVL87:
 1024              	.L53:
 526:lib/lcd/src/lcd.c **** 			for(t=0;t<8;t++)
 1025              		.loc 1 526 7 is_stmt 1
 526:lib/lcd/src/lcd.c **** 			for(t=0;t<8;t++)
 1026              		.loc 1 526 11 is_stmt 0
 1027 00a4 B3873A01 		add	a5,s5,s3
 1028 00a8 E297     		add	a5,s8,a5
 1029 00aa 83C40700 		lbu	s1,0(a5)
 1030              	.LVL88:
 527:lib/lcd/src/lcd.c **** 		    {                 
 1031              		.loc 1 527 4 is_stmt 1
 526:lib/lcd/src/lcd.c **** 			for(t=0;t<8;t++)
 1032              		.loc 1 526 11 is_stmt 0
 1033 00ae 5E84     		mv	s0,s7
 1034 00b0 29A0     		j	.L52
 1035              	.LVL89:
 1036              	.L51:
 530:lib/lcd/src/lcd.c **** 		    }
 1037              		.loc 1 530 11 is_stmt 1
 1038 00b2 0504     		addi	s0,s0,1
 1039              	.LVL90:
 530:lib/lcd/src/lcd.c **** 		    }
 1040              		.loc 1 530 15 is_stmt 0
 1041 00b4 8580     		srli	s1,s1,1
 1042              	.LVL91:
 527:lib/lcd/src/lcd.c **** 		    {                 
 1043              		.loc 1 527 4
 1044 00b6 63068A02 		beq	s4,s0,.L64
 1045              	.L52:
 1046              	.LVL92:
 529:lib/lcd/src/lcd.c **** 		        temp>>=1; 
GAS LISTING C:\Users\Kalle\AppData\Local\Temp\cc2hNkGN.s 			page 31


 1047              		.loc 1 529 11 is_stmt 1
 529:lib/lcd/src/lcd.c **** 		        temp>>=1; 
 1048              		.loc 1 529 13 is_stmt 0
 1049 00ba 93F71400 		andi	a5,s1,1
 1050 00be F5DB     		beq	a5,zero,.L51
 529:lib/lcd/src/lcd.c **** 		        temp>>=1; 
 1051              		.loc 1 529 24 is_stmt 1
 1052              	.LVL93:
 1053              	.LBB228:
 1054              	.LBB229:
 369:lib/lcd/src/lcd.c **** 	LCD_WR_DATA(color);
 1055              		.loc 1 369 2
 1056 00c0 2286     		mv	a2,s0
 1057 00c2 2285     		mv	a0,s0
 1058 00c4 CE86     		mv	a3,s3
 1059 00c6 CE85     		mv	a1,s3
 1060 00c8 97000000 		call	LCD_Address_Set
 1060      E7800000 
 1061              	.LVL94:
 370:lib/lcd/src/lcd.c **** } 
 1062              		.loc 1 370 2
 1063 00d0 4A85     		mv	a0,s2
 1064 00d2 0504     		addi	s0,s0,1
 1065              	.LVL95:
 1066 00d4 97000000 		call	LCD_WR_DATA
 1066      E7800000 
 1067              	.LVL96:
 1068              	.LBE229:
 1069              	.LBE228:
 530:lib/lcd/src/lcd.c **** 		    }
 1070              		.loc 1 530 11
 530:lib/lcd/src/lcd.c **** 		    }
 1071              		.loc 1 530 15 is_stmt 0
 1072 00dc 8580     		srli	s1,s1,1
 1073              	.LVL97:
 527:lib/lcd/src/lcd.c **** 		    {                 
 1074              		.loc 1 527 4
 1075 00de E31E8AFC 		bne	s4,s0,.L52
 1076              	.LVL98:
 1077              	.L64:
 1078 00e2 8509     		addi	s3,s3,1
 1079              	.LVL99:
 524:lib/lcd/src/lcd.c **** 		{
 1080              		.loc 1 524 3
 1081 00e4 E39069FD 		bne	s3,s6,.L53
 1082 00e8 41BF     		j	.L45
 1083              		.cfi_endproc
 1084              	.LFE31:
 1086              		.section	.text.spi_config,"ax",@progbits
 1087              		.align	1
 1088              		.globl	spi_config
 1090              	spi_config:
 1091              	.LFB11:
 149:lib/lcd/src/lcd.c ****     spi_parameter_struct spi_init_struct;
 1092              		.loc 1 149 1 is_stmt 1
 1093              		.cfi_startproc
 150:lib/lcd/src/lcd.c ****     /* deinitilize SPI and the parameters */
GAS LISTING C:\Users\Kalle\AppData\Local\Temp\cc2hNkGN.s 			page 32


 1094              		.loc 1 150 5
 152:lib/lcd/src/lcd.c ****     spi_struct_para_init(&spi_init_struct);
 1095              		.loc 1 152 5
 149:lib/lcd/src/lcd.c ****     spi_parameter_struct spi_init_struct;
 1096              		.loc 1 149 1 is_stmt 0
 1097 0000 7971     		addi	sp,sp,-48
 1098              	.LCFI26:
 1099              		.cfi_def_cfa_offset 48
 152:lib/lcd/src/lcd.c ****     spi_struct_para_init(&spi_init_struct);
 1100              		.loc 1 152 5
 1101 0002 8965     		li	a1,8192
 1102 0004 37150140 		li	a0,1073811456
 149:lib/lcd/src/lcd.c ****     spi_parameter_struct spi_init_struct;
 1103              		.loc 1 149 1
 1104 0008 06D6     		sw	ra,44(sp)
 1105 000a 22D4     		sw	s0,40(sp)
 1106              		.cfi_offset 1, -4
 1107              		.cfi_offset 8, -8
 152:lib/lcd/src/lcd.c ****     spi_struct_para_init(&spi_init_struct);
 1108              		.loc 1 152 5
 1109 000c 97000000 		call	gpio_bit_set
 1109      E7800000 
 1110              	.LVL100:
 153:lib/lcd/src/lcd.c **** 
 1111              		.loc 1 153 5 is_stmt 1
 1112 0014 4800     		addi	a0,sp,4
 1113 0016 97000000 		call	spi_struct_para_init
 1113      E7800000 
 1114              	.LVL101:
 156:lib/lcd/src/lcd.c ****     spi_init_struct.device_mode          = SPI_MASTER;
 1115              		.loc 1 156 5
 157:lib/lcd/src/lcd.c ****     spi_init_struct.frame_size           = SPI_FRAMESIZE_8BIT;
 1116              		.loc 1 157 42 is_stmt 0
 1117 001e 93074010 		li	a5,260
 1118 0022 3EC2     		sw	a5,4(sp)
 159:lib/lcd/src/lcd.c ****     spi_init_struct.nss                  = SPI_NSS_SOFT;
 1119              		.loc 1 159 42
 1120 0024 8D47     		li	a5,3
 163:lib/lcd/src/lcd.c **** 
 1121              		.loc 1 163 5
 1122 0026 37440040 		li	s0,1073758208
 159:lib/lcd/src/lcd.c ****     spi_init_struct.nss                  = SPI_NSS_SOFT;
 1123              		.loc 1 159 42
 1124 002a 3ECC     		sw	a5,24(sp)
 160:lib/lcd/src/lcd.c ****     spi_init_struct.prescale             = SPI_PSC_4;
 1125              		.loc 1 160 42
 1126 002c 93070020 		li	a5,512
 163:lib/lcd/src/lcd.c **** 
 1127              		.loc 1 163 5
 1128 0030 4C00     		addi	a1,sp,4
 1129 0032 13050480 		addi	a0,s0,-2048
 160:lib/lcd/src/lcd.c ****     spi_init_struct.prescale             = SPI_PSC_4;
 1130              		.loc 1 160 42
 1131 0036 3EC8     		sw	a5,16(sp)
 161:lib/lcd/src/lcd.c ****     spi_init_struct.endian               = SPI_ENDIAN_MSB;
 1132              		.loc 1 161 42
 1133 0038 A147     		li	a5,8
GAS LISTING C:\Users\Kalle\AppData\Local\Temp\cc2hNkGN.s 			page 33


 1134 003a 3ECE     		sw	a5,28(sp)
 156:lib/lcd/src/lcd.c ****     spi_init_struct.device_mode          = SPI_MASTER;
 1135              		.loc 1 156 42
 1136 003c 02C4     		sw	zero,8(sp)
 157:lib/lcd/src/lcd.c ****     spi_init_struct.frame_size           = SPI_FRAMESIZE_8BIT;
 1137              		.loc 1 157 5 is_stmt 1
 158:lib/lcd/src/lcd.c ****     spi_init_struct.clock_polarity_phase = SPI_CK_PL_HIGH_PH_2EDGE;
 1138              		.loc 1 158 5
 158:lib/lcd/src/lcd.c ****     spi_init_struct.clock_polarity_phase = SPI_CK_PL_HIGH_PH_2EDGE;
 1139              		.loc 1 158 42 is_stmt 0
 1140 003e 02C6     		sw	zero,12(sp)
 159:lib/lcd/src/lcd.c ****     spi_init_struct.nss                  = SPI_NSS_SOFT;
 1141              		.loc 1 159 5 is_stmt 1
 160:lib/lcd/src/lcd.c ****     spi_init_struct.prescale             = SPI_PSC_4;
 1142              		.loc 1 160 5
 161:lib/lcd/src/lcd.c ****     spi_init_struct.endian               = SPI_ENDIAN_MSB;
 1143              		.loc 1 161 5
 162:lib/lcd/src/lcd.c ****     spi_init(SPI1, &spi_init_struct);
 1144              		.loc 1 162 5
 162:lib/lcd/src/lcd.c ****     spi_init(SPI1, &spi_init_struct);
 1145              		.loc 1 162 42 is_stmt 0
 1146 0040 02CA     		sw	zero,20(sp)
 163:lib/lcd/src/lcd.c **** 
 1147              		.loc 1 163 5 is_stmt 1
 1148 0042 97000000 		call	spi_init
 1148      E7800000 
 1149              	.LVL102:
 165:lib/lcd/src/lcd.c **** 	spi_enable(SPI1);
 1150              		.loc 1 165 2
 1151 004a 13050480 		addi	a0,s0,-2048
 1152 004e 9D45     		li	a1,7
 1153 0050 97000000 		call	spi_crc_polynomial_set
 1153      E7800000 
 1154              	.LVL103:
 166:lib/lcd/src/lcd.c **** }
 1155              		.loc 1 166 2
 1156 0058 13050480 		addi	a0,s0,-2048
 1157 005c 97000000 		call	spi_enable
 1157      E7800000 
 1158              	.LVL104:
 167:lib/lcd/src/lcd.c **** 
 1159              		.loc 1 167 1 is_stmt 0
 1160 0064 B250     		lw	ra,44(sp)
 1161              		.cfi_restore 1
 1162 0066 2254     		lw	s0,40(sp)
 1163              		.cfi_restore 8
 1164 0068 4561     		addi	sp,sp,48
 1165              	.LCFI27:
 1166              		.cfi_def_cfa_offset 0
 1167 006a 8280     		jr	ra
 1168              		.cfi_endproc
 1169              	.LFE11:
 1171              		.section	.text.Lcd_SetType,"ax",@progbits
 1172              		.align	1
 1173              		.globl	Lcd_SetType
 1175              	Lcd_SetType:
 1176              	.LFB12:
GAS LISTING C:\Users\Kalle\AppData\Local\Temp\cc2hNkGN.s 			page 34


 169:lib/lcd/src/lcd.c **** 	if(type == LCD_NORMAL){
 1177              		.loc 1 169 27 is_stmt 1
 1178              		.cfi_startproc
 1179              	.LVL105:
 170:lib/lcd/src/lcd.c **** 		lcd_conf.configured = 1;
 1180              		.loc 1 170 2
 170:lib/lcd/src/lcd.c **** 		lcd_conf.configured = 1;
 1181              		.loc 1 170 4 is_stmt 0
 1182 0000 09E9     		bne	a0,zero,.L68
 171:lib/lcd/src/lcd.c **** 		lcd_conf.offset_x = 1;
 1183              		.loc 1 171 3 is_stmt 1
 172:lib/lcd/src/lcd.c **** 		lcd_conf.offset_y = 26;
 1184              		.loc 1 172 3
 173:lib/lcd/src/lcd.c **** 		lcd_conf.inverted = 0;
 1185              		.loc 1 173 3
 174:lib/lcd/src/lcd.c **** 	}
 1186              		.loc 1 174 3
 171:lib/lcd/src/lcd.c **** 		lcd_conf.offset_x = 1;
 1187              		.loc 1 171 23 is_stmt 0
 1188 0002 B707011A 		li	a5,436273152
 1189 0006 37070000 		lui	a4,%hi(.LANCHOR3)
 1190 000a 8507     		addi	a5,a5,1
 1191 000c 2320F700 		sw	a5,%lo(.LANCHOR3)(a4)
 176:lib/lcd/src/lcd.c **** 		lcd_conf.configured = 1;
 1192              		.loc 1 176 2 is_stmt 1
 1193 0010 8280     		ret
 1194              	.L68:
 176:lib/lcd/src/lcd.c **** 		lcd_conf.configured = 1;
 1195              		.loc 1 176 2
 176:lib/lcd/src/lcd.c **** 		lcd_conf.configured = 1;
 1196              		.loc 1 176 4 is_stmt 0
 1197 0012 8547     		li	a5,1
 1198 0014 631AF500 		bne	a0,a5,.L67
 1199              	.LVL106:
 1200              	.LBB232:
 1201              	.LBB233:
 177:lib/lcd/src/lcd.c **** 		lcd_conf.offset_x = 0;
 1202              		.loc 1 177 3 is_stmt 1
 178:lib/lcd/src/lcd.c **** 		lcd_conf.offset_y = 24;
 1203              		.loc 1 178 3
 179:lib/lcd/src/lcd.c **** 		lcd_conf.inverted = 1;
 1204              		.loc 1 179 3
 180:lib/lcd/src/lcd.c **** 	}
 1205              		.loc 1 180 3
 177:lib/lcd/src/lcd.c **** 		lcd_conf.offset_x = 0;
 1206              		.loc 1 177 23 is_stmt 0
 1207 0018 B7070018 		li	a5,402653184
 1208 001c 37070000 		lui	a4,%hi(.LANCHOR3)
 1209 0020 93871710 		addi	a5,a5,257
 1210 0024 2320F700 		sw	a5,%lo(.LANCHOR3)(a4)
 1211              	.LVL107:
 1212              	.L67:
 1213              	.LBE233:
 1214              	.LBE232:
 182:lib/lcd/src/lcd.c **** 
 1215              		.loc 1 182 1
 1216 0028 8280     		ret
GAS LISTING C:\Users\Kalle\AppData\Local\Temp\cc2hNkGN.s 			page 35


 1217              		.cfi_endproc
 1218              	.LFE12:
 1220              		.section	.text.Lcd_Init,"ax",@progbits
 1221              		.align	1
 1222              		.globl	Lcd_Init
 1224              	Lcd_Init:
 1225              	.LFB13:
 191:lib/lcd/src/lcd.c **** 	if(!lcd_conf.configured) Lcd_SetType(LCD_NORMAL);
 1226              		.loc 1 191 1 is_stmt 1
 1227              		.cfi_startproc
 192:lib/lcd/src/lcd.c **** 	rcu_periph_clock_enable(RCU_GPIOB);
 1228              		.loc 1 192 2
 191:lib/lcd/src/lcd.c **** 	if(!lcd_conf.configured) Lcd_SetType(LCD_NORMAL);
 1229              		.loc 1 191 1 is_stmt 0
 1230 0000 4111     		addi	sp,sp,-16
 1231              	.LCFI28:
 1232              		.cfi_def_cfa_offset 16
 1233 0002 22C4     		sw	s0,8(sp)
 1234              		.cfi_offset 8, -8
 192:lib/lcd/src/lcd.c **** 	rcu_periph_clock_enable(RCU_GPIOB);
 1235              		.loc 1 192 14
 1236 0004 37040000 		lui	s0,%hi(.LANCHOR3)
 1237 0008 13040400 		addi	s0,s0,%lo(.LANCHOR3)
 192:lib/lcd/src/lcd.c **** 	rcu_periph_clock_enable(RCU_GPIOB);
 1238              		.loc 1 192 4
 1239 000c 83470400 		lbu	a5,0(s0)
 191:lib/lcd/src/lcd.c **** 	if(!lcd_conf.configured) Lcd_SetType(LCD_NORMAL);
 1240              		.loc 1 191 1
 1241 0010 06C6     		sw	ra,12(sp)
 1242              		.cfi_offset 1, -4
 192:lib/lcd/src/lcd.c **** 	rcu_periph_clock_enable(RCU_GPIOB);
 1243              		.loc 1 192 4
 1244 0012 89E7     		bne	a5,zero,.L71
 192:lib/lcd/src/lcd.c **** 	rcu_periph_clock_enable(RCU_GPIOB);
 1245              		.loc 1 192 27 is_stmt 1
 1246              	.LVL108:
 1247              	.LBB234:
 1248              	.LBB235:
 170:lib/lcd/src/lcd.c **** 		lcd_conf.configured = 1;
 1249              		.loc 1 170 2
 171:lib/lcd/src/lcd.c **** 		lcd_conf.offset_x = 1;
 1250              		.loc 1 171 3
 172:lib/lcd/src/lcd.c **** 		lcd_conf.offset_y = 26;
 1251              		.loc 1 172 3
 173:lib/lcd/src/lcd.c **** 		lcd_conf.inverted = 0;
 1252              		.loc 1 173 3
 174:lib/lcd/src/lcd.c **** 	}
 1253              		.loc 1 174 3
 171:lib/lcd/src/lcd.c **** 		lcd_conf.offset_x = 1;
 1254              		.loc 1 171 23 is_stmt 0
 1255 0014 B707011A 		li	a5,436273152
 1256 0018 8507     		addi	a5,a5,1
 1257 001a 1CC0     		sw	a5,0(s0)
 176:lib/lcd/src/lcd.c **** 		lcd_conf.configured = 1;
 1258              		.loc 1 176 2 is_stmt 1
 1259              	.LVL109:
 1260              	.L71:
GAS LISTING C:\Users\Kalle\AppData\Local\Temp\cc2hNkGN.s 			page 36


 1261              	.LBE235:
 1262              	.LBE234:
 193:lib/lcd/src/lcd.c **** 	rcu_periph_clock_enable(RCU_GPIOC);
 1263              		.loc 1 193 2
 1264 001c 13053060 		li	a0,1539
 1265 0020 97000000 		call	rcu_periph_clock_enable
 1265      E7800000 
 1266              	.LVL110:
 194:lib/lcd/src/lcd.c **** 
 1267              		.loc 1 194 2
 1268 0028 13054060 		li	a0,1540
 1269 002c 97000000 		call	rcu_periph_clock_enable
 1269      E7800000 
 1270              	.LVL111:
 196:lib/lcd/src/lcd.c **** 	rcu_periph_clock_enable(RCU_SPI1);
 1271              		.loc 1 196 3
 1272 0034 13050060 		li	a0,1536
 1273 0038 97000000 		call	rcu_periph_clock_enable
 1273      E7800000 
 1274              	.LVL112:
 197:lib/lcd/src/lcd.c **** 	
 1275              		.loc 1 197 2
 1276 0040 1305E070 		li	a0,1806
 1277 0044 97000000 		call	rcu_periph_clock_enable
 1277      E7800000 
 1278              	.LVL113:
 199:lib/lcd/src/lcd.c **** 	gpio_init(GPIOC, GPIO_MODE_OUT_PP, GPIO_OSPEED_50MHZ, GPIO_PIN_13 | GPIO_PIN_15); //CS
 1279              		.loc 1 199 5
 1280 004c 37150140 		li	a0,1073811456
 1281 0050 B966     		li	a3,57344
 1282 0052 0D46     		li	a2,3
 1283 0054 E145     		li	a1,24
 1284 0056 130505C0 		addi	a0,a0,-1024
 1285 005a 97000000 		call	gpio_init
 1285      E7800000 
 1286              	.LVL114:
 200:lib/lcd/src/lcd.c **** 
 1287              		.loc 1 200 2
 1288 0062 A966     		li	a3,40960
 1289 0064 0D46     		li	a2,3
 1290 0066 C145     		li	a1,16
 1291 0068 37150140 		li	a0,1073811456
 1292 006c 97000000 		call	gpio_init
 1292      E7800000 
 1293              	.LVL115:
 202:lib/lcd/src/lcd.c **** 
 1294              		.loc 1 202 2
 1295 0074 97000000 		call	spi_config
 1295      E7800000 
 1296              	.LVL116:
 204:lib/lcd/src/lcd.c **** 	//LCD_Wait_On_Queue();
 1297              		.loc 1 204 2
 1298 007c A965     		li	a1,40960
 1299 007e 37150140 		li	a0,1073811456
 1300 0082 97000000 		call	gpio_bit_reset
 1300      E7800000 
 1301              	.LVL117:
GAS LISTING C:\Users\Kalle\AppData\Local\Temp\cc2hNkGN.s 			page 37


 206:lib/lcd/src/lcd.c **** 	
 1302              		.loc 1 206 2
 1303 008a 13054006 		li	a0,100
 1304 008e 97000000 		call	lcd_delay_1ms
 1304      E7800000 
 1305              	.LVL118:
 209:lib/lcd/src/lcd.c **** 	//LCD_Wait_On_Queue();
 1306              		.loc 1 209 2
 1307              	.LBB236:
 1308              	.LBB237:
 118:lib/lcd/src/lcd.c **** 	LCD_Writ_Bus(dat);
 1309              		.loc 1 118 2
 1310 0096 A165     		li	a1,32768
 1311 0098 37150140 		li	a0,1073811456
 1312 009c 97000000 		call	gpio_bit_reset
 1312      E7800000 
 1313              	.LVL119:
 119:lib/lcd/src/lcd.c ****     //LCD_Write_Bus((int)dat);
 1314              		.loc 1 119 2
 1315 00a4 0545     		li	a0,1
 1316 00a6 97000000 		call	LCD_Writ_Bus
 1316      E7800000 
 1317              	.LVL120:
 1318              	.LBE237:
 1319              	.LBE236:
 211:lib/lcd/src/lcd.c **** 	
 1320              		.loc 1 211 2
 1321 00ae 13058007 		li	a0,120
 1322 00b2 97000000 		call	lcd_delay_1ms
 1322      E7800000 
 1323              	.LVL121:
 214:lib/lcd/src/lcd.c **** 	//LCD_Wait_On_Queue();
 1324              		.loc 1 214 2
 1325              	.LBB238:
 1326              	.LBB239:
 118:lib/lcd/src/lcd.c **** 	LCD_Writ_Bus(dat);
 1327              		.loc 1 118 2
 1328 00ba A165     		li	a1,32768
 1329 00bc 37150140 		li	a0,1073811456
 1330 00c0 97000000 		call	gpio_bit_reset
 1330      E7800000 
 1331              	.LVL122:
 119:lib/lcd/src/lcd.c ****     //LCD_Write_Bus((int)dat);
 1332              		.loc 1 119 2
 1333 00c8 4545     		li	a0,17
 1334 00ca 97000000 		call	LCD_Writ_Bus
 1334      E7800000 
 1335              	.LVL123:
 1336              	.LBE239:
 1337              	.LBE238:
 216:lib/lcd/src/lcd.c **** 
 1338              		.loc 1 216 2
 1339 00d2 13054006 		li	a0,100
 1340 00d6 97000000 		call	lcd_delay_1ms
 1340      E7800000 
 1341              	.LVL124:
 218:lib/lcd/src/lcd.c **** 	else				  LCD_WR_REG(0x21); 	//INVON
GAS LISTING C:\Users\Kalle\AppData\Local\Temp\cc2hNkGN.s 			page 38


 1342              		.loc 1 218 2
 218:lib/lcd/src/lcd.c **** 	else				  LCD_WR_REG(0x21); 	//INVON
 1343              		.loc 1 218 4 is_stmt 0
 1344 00de 83471400 		lbu	a5,1(s0)
 1345 00e2 63800774 		beq	a5,zero,.L72
 218:lib/lcd/src/lcd.c **** 	else				  LCD_WR_REG(0x21); 	//INVON
 1346              		.loc 1 218 24 is_stmt 1
 1347              	.LVL125:
 1348              	.LBB240:
 1349              	.LBB241:
 118:lib/lcd/src/lcd.c **** 	LCD_Writ_Bus(dat);
 1350              		.loc 1 118 2
 1351 00e6 37150140 		li	a0,1073811456
 1352 00ea A165     		li	a1,32768
 1353 00ec 97000000 		call	gpio_bit_reset
 1353      E7800000 
 1354              	.LVL126:
 119:lib/lcd/src/lcd.c ****     //LCD_Write_Bus((int)dat);
 1355              		.loc 1 119 2
 1356 00f4 13052002 		li	a0,34
 1357 00f8 97000000 		call	LCD_Writ_Bus
 1357      E7800000 
 1358              	.LVL127:
 1359              	.L73:
 1360              	.LBE241:
 1361              	.LBE240:
 221:lib/lcd/src/lcd.c **** 	LCD_WR_DATA8(0x05); // Framerate = 333khz / (25) * (196) = 67.9fps
 1362              		.loc 1 221 2
 1363              	.LBB242:
 1364              	.LBB243:
 118:lib/lcd/src/lcd.c **** 	LCD_Writ_Bus(dat);
 1365              		.loc 1 118 2
 1366 0100 A165     		li	a1,32768
 1367 0102 37150140 		li	a0,1073811456
 1368 0106 97000000 		call	gpio_bit_reset
 1368      E7800000 
 1369              	.LVL128:
 119:lib/lcd/src/lcd.c ****     //LCD_Write_Bus((int)dat);
 1370              		.loc 1 119 2
 1371 010e 1305100B 		li	a0,177
 1372 0112 97000000 		call	LCD_Writ_Bus
 1372      E7800000 
 1373              	.LVL129:
 1374              	.LBE243:
 1375              	.LBE242:
 222:lib/lcd/src/lcd.c **** 	LCD_WR_DATA8(0x3A);
 1376              		.loc 1 222 2
 1377              	.LBB244:
 1378              	.LBB245:
  90:lib/lcd/src/lcd.c **** 	LCD_Writ_Bus(dat);
 1379              		.loc 1 90 2
 1380 011a A165     		li	a1,32768
 1381 011c 37150140 		li	a0,1073811456
 1382 0120 97000000 		call	gpio_bit_set
 1382      E7800000 
 1383              	.LVL130:
  91:lib/lcd/src/lcd.c ****     //LCD_Write_Bus(((int)dat)+(1<<8));
GAS LISTING C:\Users\Kalle\AppData\Local\Temp\cc2hNkGN.s 			page 39


 1384              		.loc 1 91 2
 1385 0128 1545     		li	a0,5
 1386 012a 97000000 		call	LCD_Writ_Bus
 1386      E7800000 
 1387              	.LVL131:
 1388              	.LBE245:
 1389              	.LBE244:
 223:lib/lcd/src/lcd.c **** 	LCD_WR_DATA8(0x3A);
 1390              		.loc 1 223 2
 1391              	.LBB246:
 1392              	.LBB247:
  90:lib/lcd/src/lcd.c **** 	LCD_Writ_Bus(dat);
 1393              		.loc 1 90 2
 1394 0132 A165     		li	a1,32768
 1395 0134 37150140 		li	a0,1073811456
 1396 0138 97000000 		call	gpio_bit_set
 1396      E7800000 
 1397              	.LVL132:
  91:lib/lcd/src/lcd.c ****     //LCD_Write_Bus(((int)dat)+(1<<8));
 1398              		.loc 1 91 2
 1399 0140 1305A003 		li	a0,58
 1400 0144 97000000 		call	LCD_Writ_Bus
 1400      E7800000 
 1401              	.LVL133:
 1402              	.LBE247:
 1403              	.LBE246:
 224:lib/lcd/src/lcd.c **** 
 1404              		.loc 1 224 2
 1405              	.LBB248:
 1406              	.LBB249:
  90:lib/lcd/src/lcd.c **** 	LCD_Writ_Bus(dat);
 1407              		.loc 1 90 2
 1408 014c A165     		li	a1,32768
 1409 014e 37150140 		li	a0,1073811456
 1410 0152 97000000 		call	gpio_bit_set
 1410      E7800000 
 1411              	.LVL134:
  91:lib/lcd/src/lcd.c ****     //LCD_Write_Bus(((int)dat)+(1<<8));
 1412              		.loc 1 91 2
 1413 015a 1305A003 		li	a0,58
 1414 015e 97000000 		call	LCD_Writ_Bus
 1414      E7800000 
 1415              	.LVL135:
 1416              	.LBE249:
 1417              	.LBE248:
 226:lib/lcd/src/lcd.c **** 	LCD_WR_DATA8(0x05); //fps = 67.9
 1418              		.loc 1 226 2
 1419              	.LBB250:
 1420              	.LBB251:
 118:lib/lcd/src/lcd.c **** 	LCD_Writ_Bus(dat);
 1421              		.loc 1 118 2
 1422 0166 A165     		li	a1,32768
 1423 0168 37150140 		li	a0,1073811456
 1424 016c 97000000 		call	gpio_bit_reset
 1424      E7800000 
 1425              	.LVL136:
 119:lib/lcd/src/lcd.c ****     //LCD_Write_Bus((int)dat);
GAS LISTING C:\Users\Kalle\AppData\Local\Temp\cc2hNkGN.s 			page 40


 1426              		.loc 1 119 2
 1427 0174 1305200B 		li	a0,178
 1428 0178 97000000 		call	LCD_Writ_Bus
 1428      E7800000 
 1429              	.LVL137:
 1430              	.LBE251:
 1431              	.LBE250:
 227:lib/lcd/src/lcd.c **** 	LCD_WR_DATA8(0x3A);
 1432              		.loc 1 227 2
 1433              	.LBB252:
 1434              	.LBB253:
  90:lib/lcd/src/lcd.c **** 	LCD_Writ_Bus(dat);
 1435              		.loc 1 90 2
 1436 0180 A165     		li	a1,32768
 1437 0182 37150140 		li	a0,1073811456
 1438 0186 97000000 		call	gpio_bit_set
 1438      E7800000 
 1439              	.LVL138:
  91:lib/lcd/src/lcd.c ****     //LCD_Write_Bus(((int)dat)+(1<<8));
 1440              		.loc 1 91 2
 1441 018e 1545     		li	a0,5
 1442 0190 97000000 		call	LCD_Writ_Bus
 1442      E7800000 
 1443              	.LVL139:
 1444              	.LBE253:
 1445              	.LBE252:
 228:lib/lcd/src/lcd.c **** 	LCD_WR_DATA8(0x3A);
 1446              		.loc 1 228 2
 1447              	.LBB254:
 1448              	.LBB255:
  90:lib/lcd/src/lcd.c **** 	LCD_Writ_Bus(dat);
 1449              		.loc 1 90 2
 1450 0198 A165     		li	a1,32768
 1451 019a 37150140 		li	a0,1073811456
 1452 019e 97000000 		call	gpio_bit_set
 1452      E7800000 
 1453              	.LVL140:
  91:lib/lcd/src/lcd.c ****     //LCD_Write_Bus(((int)dat)+(1<<8));
 1454              		.loc 1 91 2
 1455 01a6 1305A003 		li	a0,58
 1456 01aa 97000000 		call	LCD_Writ_Bus
 1456      E7800000 
 1457              	.LVL141:
 1458              	.LBE255:
 1459              	.LBE254:
 229:lib/lcd/src/lcd.c **** 
 1460              		.loc 1 229 2
 1461              	.LBB256:
 1462              	.LBB257:
  90:lib/lcd/src/lcd.c **** 	LCD_Writ_Bus(dat);
 1463              		.loc 1 90 2
 1464 01b2 A165     		li	a1,32768
 1465 01b4 37150140 		li	a0,1073811456
 1466 01b8 97000000 		call	gpio_bit_set
 1466      E7800000 
 1467              	.LVL142:
  91:lib/lcd/src/lcd.c ****     //LCD_Write_Bus(((int)dat)+(1<<8));
GAS LISTING C:\Users\Kalle\AppData\Local\Temp\cc2hNkGN.s 			page 41


 1468              		.loc 1 91 2
 1469 01c0 1305A003 		li	a0,58
 1470 01c4 97000000 		call	LCD_Writ_Bus
 1470      E7800000 
 1471              	.LVL143:
 1472              	.LBE257:
 1473              	.LBE256:
 231:lib/lcd/src/lcd.c **** 	LCD_WR_DATA8(0x05);  
 1474              		.loc 1 231 2
 1475              	.LBB258:
 1476              	.LBB259:
 118:lib/lcd/src/lcd.c **** 	LCD_Writ_Bus(dat);
 1477              		.loc 1 118 2
 1478 01cc A165     		li	a1,32768
 1479 01ce 37150140 		li	a0,1073811456
 1480 01d2 97000000 		call	gpio_bit_reset
 1480      E7800000 
 1481              	.LVL144:
 119:lib/lcd/src/lcd.c ****     //LCD_Write_Bus((int)dat);
 1482              		.loc 1 119 2
 1483 01da 1305300B 		li	a0,179
 1484 01de 97000000 		call	LCD_Writ_Bus
 1484      E7800000 
 1485              	.LVL145:
 1486              	.LBE259:
 1487              	.LBE258:
 232:lib/lcd/src/lcd.c **** 	LCD_WR_DATA8(0x3A);
 1488              		.loc 1 232 2
 1489              	.LBB260:
 1490              	.LBB261:
  90:lib/lcd/src/lcd.c **** 	LCD_Writ_Bus(dat);
 1491              		.loc 1 90 2
 1492 01e6 A165     		li	a1,32768
 1493 01e8 37150140 		li	a0,1073811456
 1494 01ec 97000000 		call	gpio_bit_set
 1494      E7800000 
 1495              	.LVL146:
  91:lib/lcd/src/lcd.c ****     //LCD_Write_Bus(((int)dat)+(1<<8));
 1496              		.loc 1 91 2
 1497 01f4 1545     		li	a0,5
 1498 01f6 97000000 		call	LCD_Writ_Bus
 1498      E7800000 
 1499              	.LVL147:
 1500              	.LBE261:
 1501              	.LBE260:
 233:lib/lcd/src/lcd.c **** 	LCD_WR_DATA8(0x3A);
 1502              		.loc 1 233 2
 1503              	.LBB262:
 1504              	.LBB263:
  90:lib/lcd/src/lcd.c **** 	LCD_Writ_Bus(dat);
 1505              		.loc 1 90 2
 1506 01fe A165     		li	a1,32768
 1507 0200 37150140 		li	a0,1073811456
 1508 0204 97000000 		call	gpio_bit_set
 1508      E7800000 
 1509              	.LVL148:
  91:lib/lcd/src/lcd.c ****     //LCD_Write_Bus(((int)dat)+(1<<8));
GAS LISTING C:\Users\Kalle\AppData\Local\Temp\cc2hNkGN.s 			page 42


 1510              		.loc 1 91 2
 1511 020c 1305A003 		li	a0,58
 1512 0210 97000000 		call	LCD_Writ_Bus
 1512      E7800000 
 1513              	.LVL149:
 1514              	.LBE263:
 1515              	.LBE262:
 234:lib/lcd/src/lcd.c **** 	LCD_WR_DATA8(0x05);
 1516              		.loc 1 234 2
 1517              	.LBB264:
 1518              	.LBB265:
  90:lib/lcd/src/lcd.c **** 	LCD_Writ_Bus(dat);
 1519              		.loc 1 90 2
 1520 0218 A165     		li	a1,32768
 1521 021a 37150140 		li	a0,1073811456
 1522 021e 97000000 		call	gpio_bit_set
 1522      E7800000 
 1523              	.LVL150:
  91:lib/lcd/src/lcd.c ****     //LCD_Write_Bus(((int)dat)+(1<<8));
 1524              		.loc 1 91 2
 1525 0226 1305A003 		li	a0,58
 1526 022a 97000000 		call	LCD_Writ_Bus
 1526      E7800000 
 1527              	.LVL151:
 1528              	.LBE265:
 1529              	.LBE264:
 235:lib/lcd/src/lcd.c **** 	LCD_WR_DATA8(0x3A);
 1530              		.loc 1 235 2
 1531              	.LBB266:
 1532              	.LBB267:
  90:lib/lcd/src/lcd.c **** 	LCD_Writ_Bus(dat);
 1533              		.loc 1 90 2
 1534 0232 A165     		li	a1,32768
 1535 0234 37150140 		li	a0,1073811456
 1536 0238 97000000 		call	gpio_bit_set
 1536      E7800000 
 1537              	.LVL152:
  91:lib/lcd/src/lcd.c ****     //LCD_Write_Bus(((int)dat)+(1<<8));
 1538              		.loc 1 91 2
 1539 0240 1545     		li	a0,5
 1540 0242 97000000 		call	LCD_Writ_Bus
 1540      E7800000 
 1541              	.LVL153:
 1542              	.LBE267:
 1543              	.LBE266:
 236:lib/lcd/src/lcd.c **** 	LCD_WR_DATA8(0x3A);
 1544              		.loc 1 236 2
 1545              	.LBB268:
 1546              	.LBB269:
  90:lib/lcd/src/lcd.c **** 	LCD_Writ_Bus(dat);
 1547              		.loc 1 90 2
 1548 024a A165     		li	a1,32768
 1549 024c 37150140 		li	a0,1073811456
 1550 0250 97000000 		call	gpio_bit_set
 1550      E7800000 
 1551              	.LVL154:
  91:lib/lcd/src/lcd.c ****     //LCD_Write_Bus(((int)dat)+(1<<8));
GAS LISTING C:\Users\Kalle\AppData\Local\Temp\cc2hNkGN.s 			page 43


 1552              		.loc 1 91 2
 1553 0258 1305A003 		li	a0,58
 1554 025c 97000000 		call	LCD_Writ_Bus
 1554      E7800000 
 1555              	.LVL155:
 1556              	.LBE269:
 1557              	.LBE268:
 237:lib/lcd/src/lcd.c **** 
 1558              		.loc 1 237 2
 1559              	.LBB270:
 1560              	.LBB271:
  90:lib/lcd/src/lcd.c **** 	LCD_Writ_Bus(dat);
 1561              		.loc 1 90 2
 1562 0264 A165     		li	a1,32768
 1563 0266 37150140 		li	a0,1073811456
 1564 026a 97000000 		call	gpio_bit_set
 1564      E7800000 
 1565              	.LVL156:
  91:lib/lcd/src/lcd.c ****     //LCD_Write_Bus(((int)dat)+(1<<8));
 1566              		.loc 1 91 2
 1567 0272 1305A003 		li	a0,58
 1568 0276 97000000 		call	LCD_Writ_Bus
 1568      E7800000 
 1569              	.LVL157:
 1570              	.LBE271:
 1571              	.LBE270:
 239:lib/lcd/src/lcd.c **** 	LCD_WR_DATA8(0x03);//Line inversion(full color) | Frame inversion
 1572              		.loc 1 239 2
 1573              	.LBB272:
 1574              	.LBB273:
 118:lib/lcd/src/lcd.c **** 	LCD_Writ_Bus(dat);
 1575              		.loc 1 118 2
 1576 027e A165     		li	a1,32768
 1577 0280 37150140 		li	a0,1073811456
 1578 0284 97000000 		call	gpio_bit_reset
 1578      E7800000 
 1579              	.LVL158:
 119:lib/lcd/src/lcd.c ****     //LCD_Write_Bus((int)dat);
 1580              		.loc 1 119 2
 1581 028c 1305400B 		li	a0,180
 1582 0290 97000000 		call	LCD_Writ_Bus
 1582      E7800000 
 1583              	.LVL159:
 1584              	.LBE273:
 1585              	.LBE272:
 240:lib/lcd/src/lcd.c **** 
 1586              		.loc 1 240 2
 1587              	.LBB274:
 1588              	.LBB275:
  90:lib/lcd/src/lcd.c **** 	LCD_Writ_Bus(dat);
 1589              		.loc 1 90 2
 1590 0298 A165     		li	a1,32768
 1591 029a 37150140 		li	a0,1073811456
 1592 029e 97000000 		call	gpio_bit_set
 1592      E7800000 
 1593              	.LVL160:
  91:lib/lcd/src/lcd.c ****     //LCD_Write_Bus(((int)dat)+(1<<8));
GAS LISTING C:\Users\Kalle\AppData\Local\Temp\cc2hNkGN.s 			page 44


 1594              		.loc 1 91 2
 1595 02a6 0D45     		li	a0,3
 1596 02a8 97000000 		call	LCD_Writ_Bus
 1596      E7800000 
 1597              	.LVL161:
 1598              	.LBE275:
 1599              	.LBE274:
 242:lib/lcd/src/lcd.c **** 	LCD_WR_DATA8(0x62);//
 1600              		.loc 1 242 2
 1601              	.LBB276:
 1602              	.LBB277:
 118:lib/lcd/src/lcd.c **** 	LCD_Writ_Bus(dat);
 1603              		.loc 1 118 2
 1604 02b0 A165     		li	a1,32768
 1605 02b2 37150140 		li	a0,1073811456
 1606 02b6 97000000 		call	gpio_bit_reset
 1606      E7800000 
 1607              	.LVL162:
 119:lib/lcd/src/lcd.c ****     //LCD_Write_Bus((int)dat);
 1608              		.loc 1 119 2
 1609 02be 1305000C 		li	a0,192
 1610 02c2 97000000 		call	LCD_Writ_Bus
 1610      E7800000 
 1611              	.LVL163:
 1612              	.LBE277:
 1613              	.LBE276:
 243:lib/lcd/src/lcd.c **** 	LCD_WR_DATA8(0x02);//
 1614              		.loc 1 243 2
 1615              	.LBB278:
 1616              	.LBB279:
  90:lib/lcd/src/lcd.c **** 	LCD_Writ_Bus(dat);
 1617              		.loc 1 90 2
 1618 02ca A165     		li	a1,32768
 1619 02cc 37150140 		li	a0,1073811456
 1620 02d0 97000000 		call	gpio_bit_set
 1620      E7800000 
 1621              	.LVL164:
  91:lib/lcd/src/lcd.c ****     //LCD_Write_Bus(((int)dat)+(1<<8));
 1622              		.loc 1 91 2
 1623 02d8 13052006 		li	a0,98
 1624 02dc 97000000 		call	LCD_Writ_Bus
 1624      E7800000 
 1625              	.LVL165:
 1626              	.LBE279:
 1627              	.LBE278:
 244:lib/lcd/src/lcd.c **** 	LCD_WR_DATA8(0x04);//
 1628              		.loc 1 244 2
 1629              	.LBB280:
 1630              	.LBB281:
  90:lib/lcd/src/lcd.c **** 	LCD_Writ_Bus(dat);
 1631              		.loc 1 90 2
 1632 02e4 A165     		li	a1,32768
 1633 02e6 37150140 		li	a0,1073811456
 1634 02ea 97000000 		call	gpio_bit_set
 1634      E7800000 
 1635              	.LVL166:
  91:lib/lcd/src/lcd.c ****     //LCD_Write_Bus(((int)dat)+(1<<8));
GAS LISTING C:\Users\Kalle\AppData\Local\Temp\cc2hNkGN.s 			page 45


 1636              		.loc 1 91 2
 1637 02f2 0945     		li	a0,2
 1638 02f4 97000000 		call	LCD_Writ_Bus
 1638      E7800000 
 1639              	.LVL167:
 1640              	.LBE281:
 1641              	.LBE280:
 245:lib/lcd/src/lcd.c **** 
 1642              		.loc 1 245 2
 1643              	.LBB282:
 1644              	.LBB283:
  90:lib/lcd/src/lcd.c **** 	LCD_Writ_Bus(dat);
 1645              		.loc 1 90 2
 1646 02fc A165     		li	a1,32768
 1647 02fe 37150140 		li	a0,1073811456
 1648 0302 97000000 		call	gpio_bit_set
 1648      E7800000 
 1649              	.LVL168:
  91:lib/lcd/src/lcd.c ****     //LCD_Write_Bus(((int)dat)+(1<<8));
 1650              		.loc 1 91 2
 1651 030a 1145     		li	a0,4
 1652 030c 97000000 		call	LCD_Writ_Bus
 1652      E7800000 
 1653              	.LVL169:
 1654              	.LBE283:
 1655              	.LBE282:
 247:lib/lcd/src/lcd.c **** 	LCD_WR_DATA8(0xC0);
 1656              		.loc 1 247 2
 1657              	.LBB284:
 1658              	.LBB285:
 118:lib/lcd/src/lcd.c **** 	LCD_Writ_Bus(dat);
 1659              		.loc 1 118 2
 1660 0314 A165     		li	a1,32768
 1661 0316 37150140 		li	a0,1073811456
 1662 031a 97000000 		call	gpio_bit_reset
 1662      E7800000 
 1663              	.LVL170:
 119:lib/lcd/src/lcd.c ****     //LCD_Write_Bus((int)dat);
 1664              		.loc 1 119 2
 1665 0322 1305100C 		li	a0,193
 1666 0326 97000000 		call	LCD_Writ_Bus
 1666      E7800000 
 1667              	.LVL171:
 1668              	.LBE285:
 1669              	.LBE284:
 248:lib/lcd/src/lcd.c **** 
 1670              		.loc 1 248 2
 1671              	.LBB286:
 1672              	.LBB287:
  90:lib/lcd/src/lcd.c **** 	LCD_Writ_Bus(dat);
 1673              		.loc 1 90 2
 1674 032e A165     		li	a1,32768
 1675 0330 37150140 		li	a0,1073811456
 1676 0334 97000000 		call	gpio_bit_set
 1676      E7800000 
 1677              	.LVL172:
  91:lib/lcd/src/lcd.c ****     //LCD_Write_Bus(((int)dat)+(1<<8));
GAS LISTING C:\Users\Kalle\AppData\Local\Temp\cc2hNkGN.s 			page 46


 1678              		.loc 1 91 2
 1679 033c 1305000C 		li	a0,192
 1680 0340 97000000 		call	LCD_Writ_Bus
 1680      E7800000 
 1681              	.LVL173:
 1682              	.LBE287:
 1683              	.LBE286:
 250:lib/lcd/src/lcd.c **** 	LCD_WR_DATA8(0x0D);
 1684              		.loc 1 250 2
 1685              	.LBB288:
 1686              	.LBB289:
 118:lib/lcd/src/lcd.c **** 	LCD_Writ_Bus(dat);
 1687              		.loc 1 118 2
 1688 0348 A165     		li	a1,32768
 1689 034a 37150140 		li	a0,1073811456
 1690 034e 97000000 		call	gpio_bit_reset
 1690      E7800000 
 1691              	.LVL174:
 119:lib/lcd/src/lcd.c ****     //LCD_Write_Bus((int)dat);
 1692              		.loc 1 119 2
 1693 0356 1305200C 		li	a0,194
 1694 035a 97000000 		call	LCD_Writ_Bus
 1694      E7800000 
 1695              	.LVL175:
 1696              	.LBE289:
 1697              	.LBE288:
 251:lib/lcd/src/lcd.c **** 	LCD_WR_DATA8(0x00);
 1698              		.loc 1 251 2
 1699              	.LBB290:
 1700              	.LBB291:
  90:lib/lcd/src/lcd.c **** 	LCD_Writ_Bus(dat);
 1701              		.loc 1 90 2
 1702 0362 A165     		li	a1,32768
 1703 0364 37150140 		li	a0,1073811456
 1704 0368 97000000 		call	gpio_bit_set
 1704      E7800000 
 1705              	.LVL176:
  91:lib/lcd/src/lcd.c ****     //LCD_Write_Bus(((int)dat)+(1<<8));
 1706              		.loc 1 91 2
 1707 0370 3545     		li	a0,13
 1708 0372 97000000 		call	LCD_Writ_Bus
 1708      E7800000 
 1709              	.LVL177:
 1710              	.LBE291:
 1711              	.LBE290:
 252:lib/lcd/src/lcd.c **** 
 1712              		.loc 1 252 2
 1713              	.LBB292:
 1714              	.LBB293:
  90:lib/lcd/src/lcd.c **** 	LCD_Writ_Bus(dat);
 1715              		.loc 1 90 2
 1716 037a A165     		li	a1,32768
 1717 037c 37150140 		li	a0,1073811456
 1718 0380 97000000 		call	gpio_bit_set
 1718      E7800000 
 1719              	.LVL178:
  91:lib/lcd/src/lcd.c ****     //LCD_Write_Bus(((int)dat)+(1<<8));
GAS LISTING C:\Users\Kalle\AppData\Local\Temp\cc2hNkGN.s 			page 47


 1720              		.loc 1 91 2
 1721 0388 0145     		li	a0,0
 1722 038a 97000000 		call	LCD_Writ_Bus
 1722      E7800000 
 1723              	.LVL179:
 1724              	.LBE293:
 1725              	.LBE292:
 254:lib/lcd/src/lcd.c **** 	LCD_WR_DATA8(0x8D);
 1726              		.loc 1 254 2
 1727              	.LBB294:
 1728              	.LBB295:
 118:lib/lcd/src/lcd.c **** 	LCD_Writ_Bus(dat);
 1729              		.loc 1 118 2
 1730 0392 A165     		li	a1,32768
 1731 0394 37150140 		li	a0,1073811456
 1732 0398 97000000 		call	gpio_bit_reset
 1732      E7800000 
 1733              	.LVL180:
 119:lib/lcd/src/lcd.c ****     //LCD_Write_Bus((int)dat);
 1734              		.loc 1 119 2
 1735 03a0 1305300C 		li	a0,195
 1736 03a4 97000000 		call	LCD_Writ_Bus
 1736      E7800000 
 1737              	.LVL181:
 1738              	.LBE295:
 1739              	.LBE294:
 255:lib/lcd/src/lcd.c **** 	LCD_WR_DATA8(0x6A);   
 1740              		.loc 1 255 2
 1741              	.LBB296:
 1742              	.LBB297:
  90:lib/lcd/src/lcd.c **** 	LCD_Writ_Bus(dat);
 1743              		.loc 1 90 2
 1744 03ac A165     		li	a1,32768
 1745 03ae 37150140 		li	a0,1073811456
 1746 03b2 97000000 		call	gpio_bit_set
 1746      E7800000 
 1747              	.LVL182:
  91:lib/lcd/src/lcd.c ****     //LCD_Write_Bus(((int)dat)+(1<<8));
 1748              		.loc 1 91 2
 1749 03ba 1305D008 		li	a0,141
 1750 03be 97000000 		call	LCD_Writ_Bus
 1750      E7800000 
 1751              	.LVL183:
 1752              	.LBE297:
 1753              	.LBE296:
 256:lib/lcd/src/lcd.c **** 
 1754              		.loc 1 256 2
 1755              	.LBB298:
 1756              	.LBB299:
  90:lib/lcd/src/lcd.c **** 	LCD_Writ_Bus(dat);
 1757              		.loc 1 90 2
 1758 03c6 A165     		li	a1,32768
 1759 03c8 37150140 		li	a0,1073811456
 1760 03cc 97000000 		call	gpio_bit_set
 1760      E7800000 
 1761              	.LVL184:
  91:lib/lcd/src/lcd.c ****     //LCD_Write_Bus(((int)dat)+(1<<8));
GAS LISTING C:\Users\Kalle\AppData\Local\Temp\cc2hNkGN.s 			page 48


 1762              		.loc 1 91 2
 1763 03d4 1305A006 		li	a0,106
 1764 03d8 97000000 		call	LCD_Writ_Bus
 1764      E7800000 
 1765              	.LVL185:
 1766              	.LBE299:
 1767              	.LBE298:
 258:lib/lcd/src/lcd.c **** 	LCD_WR_DATA8(0x8D); 
 1768              		.loc 1 258 2
 1769              	.LBB300:
 1770              	.LBB301:
 118:lib/lcd/src/lcd.c **** 	LCD_Writ_Bus(dat);
 1771              		.loc 1 118 2
 1772 03e0 A165     		li	a1,32768
 1773 03e2 37150140 		li	a0,1073811456
 1774 03e6 97000000 		call	gpio_bit_reset
 1774      E7800000 
 1775              	.LVL186:
 119:lib/lcd/src/lcd.c ****     //LCD_Write_Bus((int)dat);
 1776              		.loc 1 119 2
 1777 03ee 1305400C 		li	a0,196
 1778 03f2 97000000 		call	LCD_Writ_Bus
 1778      E7800000 
 1779              	.LVL187:
 1780              	.LBE301:
 1781              	.LBE300:
 259:lib/lcd/src/lcd.c **** 	LCD_WR_DATA8(0xEE); 
 1782              		.loc 1 259 2
 1783              	.LBB302:
 1784              	.LBB303:
  90:lib/lcd/src/lcd.c **** 	LCD_Writ_Bus(dat);
 1785              		.loc 1 90 2
 1786 03fa A165     		li	a1,32768
 1787 03fc 37150140 		li	a0,1073811456
 1788 0400 97000000 		call	gpio_bit_set
 1788      E7800000 
 1789              	.LVL188:
  91:lib/lcd/src/lcd.c ****     //LCD_Write_Bus(((int)dat)+(1<<8));
 1790              		.loc 1 91 2
 1791 0408 1305D008 		li	a0,141
 1792 040c 97000000 		call	LCD_Writ_Bus
 1792      E7800000 
 1793              	.LVL189:
 1794              	.LBE303:
 1795              	.LBE302:
 260:lib/lcd/src/lcd.c **** 
 1796              		.loc 1 260 2
 1797              	.LBB304:
 1798              	.LBB305:
  90:lib/lcd/src/lcd.c **** 	LCD_Writ_Bus(dat);
 1799              		.loc 1 90 2
 1800 0414 A165     		li	a1,32768
 1801 0416 37150140 		li	a0,1073811456
 1802 041a 97000000 		call	gpio_bit_set
 1802      E7800000 
 1803              	.LVL190:
  91:lib/lcd/src/lcd.c ****     //LCD_Write_Bus(((int)dat)+(1<<8));
GAS LISTING C:\Users\Kalle\AppData\Local\Temp\cc2hNkGN.s 			page 49


 1804              		.loc 1 91 2
 1805 0422 1305E00E 		li	a0,238
 1806 0426 97000000 		call	LCD_Writ_Bus
 1806      E7800000 
 1807              	.LVL191:
 1808              	.LBE305:
 1809              	.LBE304:
 262:lib/lcd/src/lcd.c **** 	LCD_WR_DATA8(0x0E);    
 1810              		.loc 1 262 2
 1811              	.LBB306:
 1812              	.LBB307:
 118:lib/lcd/src/lcd.c **** 	LCD_Writ_Bus(dat);
 1813              		.loc 1 118 2
 1814 042e A165     		li	a1,32768
 1815 0430 37150140 		li	a0,1073811456
 1816 0434 97000000 		call	gpio_bit_reset
 1816      E7800000 
 1817              	.LVL192:
 119:lib/lcd/src/lcd.c ****     //LCD_Write_Bus((int)dat);
 1818              		.loc 1 119 2
 1819 043c 1305500C 		li	a0,197
 1820 0440 97000000 		call	LCD_Writ_Bus
 1820      E7800000 
 1821              	.LVL193:
 1822              	.LBE307:
 1823              	.LBE306:
 263:lib/lcd/src/lcd.c **** 
 1824              		.loc 1 263 2
 1825              	.LBB308:
 1826              	.LBB309:
  90:lib/lcd/src/lcd.c **** 	LCD_Writ_Bus(dat);
 1827              		.loc 1 90 2
 1828 0448 A165     		li	a1,32768
 1829 044a 37150140 		li	a0,1073811456
 1830 044e 97000000 		call	gpio_bit_set
 1830      E7800000 
 1831              	.LVL194:
  91:lib/lcd/src/lcd.c ****     //LCD_Write_Bus(((int)dat)+(1<<8));
 1832              		.loc 1 91 2
 1833 0456 3945     		li	a0,14
 1834 0458 97000000 		call	LCD_Writ_Bus
 1834      E7800000 
 1835              	.LVL195:
 1836              	.LBE309:
 1837              	.LBE308:
 265:lib/lcd/src/lcd.c **** 	LCD_WR_DATA8(0x10);
 1838              		.loc 1 265 2
 1839              	.LBB310:
 1840              	.LBB311:
 118:lib/lcd/src/lcd.c **** 	LCD_Writ_Bus(dat);
 1841              		.loc 1 118 2
 1842 0460 A165     		li	a1,32768
 1843 0462 37150140 		li	a0,1073811456
 1844 0466 97000000 		call	gpio_bit_reset
 1844      E7800000 
 1845              	.LVL196:
 119:lib/lcd/src/lcd.c ****     //LCD_Write_Bus((int)dat);
GAS LISTING C:\Users\Kalle\AppData\Local\Temp\cc2hNkGN.s 			page 50


 1846              		.loc 1 119 2
 1847 046e 1305000E 		li	a0,224
 1848 0472 97000000 		call	LCD_Writ_Bus
 1848      E7800000 
 1849              	.LVL197:
 1850              	.LBE311:
 1851              	.LBE310:
 266:lib/lcd/src/lcd.c **** 	LCD_WR_DATA8(0x0E);
 1852              		.loc 1 266 2
 1853              	.LBB312:
 1854              	.LBB313:
  90:lib/lcd/src/lcd.c **** 	LCD_Writ_Bus(dat);
 1855              		.loc 1 90 2
 1856 047a A165     		li	a1,32768
 1857 047c 37150140 		li	a0,1073811456
 1858 0480 97000000 		call	gpio_bit_set
 1858      E7800000 
 1859              	.LVL198:
  91:lib/lcd/src/lcd.c ****     //LCD_Write_Bus(((int)dat)+(1<<8));
 1860              		.loc 1 91 2
 1861 0488 4145     		li	a0,16
 1862 048a 97000000 		call	LCD_Writ_Bus
 1862      E7800000 
 1863              	.LVL199:
 1864              	.LBE313:
 1865              	.LBE312:
 267:lib/lcd/src/lcd.c **** 	LCD_WR_DATA8(0x02);
 1866              		.loc 1 267 2
 1867              	.LBB314:
 1868              	.LBB315:
  90:lib/lcd/src/lcd.c **** 	LCD_Writ_Bus(dat);
 1869              		.loc 1 90 2
 1870 0492 A165     		li	a1,32768
 1871 0494 37150140 		li	a0,1073811456
 1872 0498 97000000 		call	gpio_bit_set
 1872      E7800000 
 1873              	.LVL200:
  91:lib/lcd/src/lcd.c ****     //LCD_Write_Bus(((int)dat)+(1<<8));
 1874              		.loc 1 91 2
 1875 04a0 3945     		li	a0,14
 1876 04a2 97000000 		call	LCD_Writ_Bus
 1876      E7800000 
 1877              	.LVL201:
 1878              	.LBE315:
 1879              	.LBE314:
 268:lib/lcd/src/lcd.c **** 	LCD_WR_DATA8(0x03);
 1880              		.loc 1 268 2
 1881              	.LBB316:
 1882              	.LBB317:
  90:lib/lcd/src/lcd.c **** 	LCD_Writ_Bus(dat);
 1883              		.loc 1 90 2
 1884 04aa A165     		li	a1,32768
 1885 04ac 37150140 		li	a0,1073811456
 1886 04b0 97000000 		call	gpio_bit_set
 1886      E7800000 
 1887              	.LVL202:
  91:lib/lcd/src/lcd.c ****     //LCD_Write_Bus(((int)dat)+(1<<8));
GAS LISTING C:\Users\Kalle\AppData\Local\Temp\cc2hNkGN.s 			page 51


 1888              		.loc 1 91 2
 1889 04b8 0945     		li	a0,2
 1890 04ba 97000000 		call	LCD_Writ_Bus
 1890      E7800000 
 1891              	.LVL203:
 1892              	.LBE317:
 1893              	.LBE316:
 269:lib/lcd/src/lcd.c **** 	LCD_WR_DATA8(0x0E);
 1894              		.loc 1 269 2
 1895              	.LBB318:
 1896              	.LBB319:
  90:lib/lcd/src/lcd.c **** 	LCD_Writ_Bus(dat);
 1897              		.loc 1 90 2
 1898 04c2 A165     		li	a1,32768
 1899 04c4 37150140 		li	a0,1073811456
 1900 04c8 97000000 		call	gpio_bit_set
 1900      E7800000 
 1901              	.LVL204:
  91:lib/lcd/src/lcd.c ****     //LCD_Write_Bus(((int)dat)+(1<<8));
 1902              		.loc 1 91 2
 1903 04d0 0D45     		li	a0,3
 1904 04d2 97000000 		call	LCD_Writ_Bus
 1904      E7800000 
 1905              	.LVL205:
 1906              	.LBE319:
 1907              	.LBE318:
 270:lib/lcd/src/lcd.c **** 	LCD_WR_DATA8(0x07);
 1908              		.loc 1 270 2
 1909              	.LBB320:
 1910              	.LBB321:
  90:lib/lcd/src/lcd.c **** 	LCD_Writ_Bus(dat);
 1911              		.loc 1 90 2
 1912 04da A165     		li	a1,32768
 1913 04dc 37150140 		li	a0,1073811456
 1914 04e0 97000000 		call	gpio_bit_set
 1914      E7800000 
 1915              	.LVL206:
  91:lib/lcd/src/lcd.c ****     //LCD_Write_Bus(((int)dat)+(1<<8));
 1916              		.loc 1 91 2
 1917 04e8 3945     		li	a0,14
 1918 04ea 97000000 		call	LCD_Writ_Bus
 1918      E7800000 
 1919              	.LVL207:
 1920              	.LBE321:
 1921              	.LBE320:
 271:lib/lcd/src/lcd.c **** 	LCD_WR_DATA8(0x02);
 1922              		.loc 1 271 2
 1923              	.LBB322:
 1924              	.LBB323:
  90:lib/lcd/src/lcd.c **** 	LCD_Writ_Bus(dat);
 1925              		.loc 1 90 2
 1926 04f2 A165     		li	a1,32768
 1927 04f4 37150140 		li	a0,1073811456
 1928 04f8 97000000 		call	gpio_bit_set
 1928      E7800000 
 1929              	.LVL208:
  91:lib/lcd/src/lcd.c ****     //LCD_Write_Bus(((int)dat)+(1<<8));
GAS LISTING C:\Users\Kalle\AppData\Local\Temp\cc2hNkGN.s 			page 52


 1930              		.loc 1 91 2
 1931 0500 1D45     		li	a0,7
 1932 0502 97000000 		call	LCD_Writ_Bus
 1932      E7800000 
 1933              	.LVL209:
 1934              	.LBE323:
 1935              	.LBE322:
 272:lib/lcd/src/lcd.c **** 	LCD_WR_DATA8(0x07);
 1936              		.loc 1 272 2
 1937              	.LBB324:
 1938              	.LBB325:
  90:lib/lcd/src/lcd.c **** 	LCD_Writ_Bus(dat);
 1939              		.loc 1 90 2
 1940 050a A165     		li	a1,32768
 1941 050c 37150140 		li	a0,1073811456
 1942 0510 97000000 		call	gpio_bit_set
 1942      E7800000 
 1943              	.LVL210:
  91:lib/lcd/src/lcd.c ****     //LCD_Write_Bus(((int)dat)+(1<<8));
 1944              		.loc 1 91 2
 1945 0518 0945     		li	a0,2
 1946 051a 97000000 		call	LCD_Writ_Bus
 1946      E7800000 
 1947              	.LVL211:
 1948              	.LBE325:
 1949              	.LBE324:
 273:lib/lcd/src/lcd.c **** 	LCD_WR_DATA8(0x0A);
 1950              		.loc 1 273 2
 1951              	.LBB326:
 1952              	.LBB327:
  90:lib/lcd/src/lcd.c **** 	LCD_Writ_Bus(dat);
 1953              		.loc 1 90 2
 1954 0522 A165     		li	a1,32768
 1955 0524 37150140 		li	a0,1073811456
 1956 0528 97000000 		call	gpio_bit_set
 1956      E7800000 
 1957              	.LVL212:
  91:lib/lcd/src/lcd.c ****     //LCD_Write_Bus(((int)dat)+(1<<8));
 1958              		.loc 1 91 2
 1959 0530 1D45     		li	a0,7
 1960 0532 97000000 		call	LCD_Writ_Bus
 1960      E7800000 
 1961              	.LVL213:
 1962              	.LBE327:
 1963              	.LBE326:
 274:lib/lcd/src/lcd.c **** 	LCD_WR_DATA8(0x12);
 1964              		.loc 1 274 2
 1965              	.LBB328:
 1966              	.LBB329:
  90:lib/lcd/src/lcd.c **** 	LCD_Writ_Bus(dat);
 1967              		.loc 1 90 2
 1968 053a A165     		li	a1,32768
 1969 053c 37150140 		li	a0,1073811456
 1970 0540 97000000 		call	gpio_bit_set
 1970      E7800000 
 1971              	.LVL214:
  91:lib/lcd/src/lcd.c ****     //LCD_Write_Bus(((int)dat)+(1<<8));
GAS LISTING C:\Users\Kalle\AppData\Local\Temp\cc2hNkGN.s 			page 53


 1972              		.loc 1 91 2
 1973 0548 2945     		li	a0,10
 1974 054a 97000000 		call	LCD_Writ_Bus
 1974      E7800000 
 1975              	.LVL215:
 1976              	.LBE329:
 1977              	.LBE328:
 275:lib/lcd/src/lcd.c **** 	LCD_WR_DATA8(0x27);
 1978              		.loc 1 275 2
 1979              	.LBB330:
 1980              	.LBB331:
  90:lib/lcd/src/lcd.c **** 	LCD_Writ_Bus(dat);
 1981              		.loc 1 90 2
 1982 0552 A165     		li	a1,32768
 1983 0554 37150140 		li	a0,1073811456
 1984 0558 97000000 		call	gpio_bit_set
 1984      E7800000 
 1985              	.LVL216:
  91:lib/lcd/src/lcd.c ****     //LCD_Write_Bus(((int)dat)+(1<<8));
 1986              		.loc 1 91 2
 1987 0560 4945     		li	a0,18
 1988 0562 97000000 		call	LCD_Writ_Bus
 1988      E7800000 
 1989              	.LVL217:
 1990              	.LBE331:
 1991              	.LBE330:
 276:lib/lcd/src/lcd.c **** 	LCD_WR_DATA8(0x37);
 1992              		.loc 1 276 2
 1993              	.LBB332:
 1994              	.LBB333:
  90:lib/lcd/src/lcd.c **** 	LCD_Writ_Bus(dat);
 1995              		.loc 1 90 2
 1996 056a A165     		li	a1,32768
 1997 056c 37150140 		li	a0,1073811456
 1998 0570 97000000 		call	gpio_bit_set
 1998      E7800000 
 1999              	.LVL218:
  91:lib/lcd/src/lcd.c ****     //LCD_Write_Bus(((int)dat)+(1<<8));
 2000              		.loc 1 91 2
 2001 0578 13057002 		li	a0,39
 2002 057c 97000000 		call	LCD_Writ_Bus
 2002      E7800000 
 2003              	.LVL219:
 2004              	.LBE333:
 2005              	.LBE332:
 277:lib/lcd/src/lcd.c **** 	LCD_WR_DATA8(0x00);
 2006              		.loc 1 277 2
 2007              	.LBB334:
 2008              	.LBB335:
  90:lib/lcd/src/lcd.c **** 	LCD_Writ_Bus(dat);
 2009              		.loc 1 90 2
 2010 0584 A165     		li	a1,32768
 2011 0586 37150140 		li	a0,1073811456
 2012 058a 97000000 		call	gpio_bit_set
 2012      E7800000 
 2013              	.LVL220:
  91:lib/lcd/src/lcd.c ****     //LCD_Write_Bus(((int)dat)+(1<<8));
GAS LISTING C:\Users\Kalle\AppData\Local\Temp\cc2hNkGN.s 			page 54


 2014              		.loc 1 91 2
 2015 0592 13057003 		li	a0,55
 2016 0596 97000000 		call	LCD_Writ_Bus
 2016      E7800000 
 2017              	.LVL221:
 2018              	.LBE335:
 2019              	.LBE334:
 278:lib/lcd/src/lcd.c **** 	LCD_WR_DATA8(0x0D);
 2020              		.loc 1 278 2
 2021              	.LBB336:
 2022              	.LBB337:
  90:lib/lcd/src/lcd.c **** 	LCD_Writ_Bus(dat);
 2023              		.loc 1 90 2
 2024 059e A165     		li	a1,32768
 2025 05a0 37150140 		li	a0,1073811456
 2026 05a4 97000000 		call	gpio_bit_set
 2026      E7800000 
 2027              	.LVL222:
  91:lib/lcd/src/lcd.c ****     //LCD_Write_Bus(((int)dat)+(1<<8));
 2028              		.loc 1 91 2
 2029 05ac 0145     		li	a0,0
 2030 05ae 97000000 		call	LCD_Writ_Bus
 2030      E7800000 
 2031              	.LVL223:
 2032              	.LBE337:
 2033              	.LBE336:
 279:lib/lcd/src/lcd.c **** 	LCD_WR_DATA8(0x0E);
 2034              		.loc 1 279 2
 2035              	.LBB338:
 2036              	.LBB339:
  90:lib/lcd/src/lcd.c **** 	LCD_Writ_Bus(dat);
 2037              		.loc 1 90 2
 2038 05b6 A165     		li	a1,32768
 2039 05b8 37150140 		li	a0,1073811456
 2040 05bc 97000000 		call	gpio_bit_set
 2040      E7800000 
 2041              	.LVL224:
  91:lib/lcd/src/lcd.c ****     //LCD_Write_Bus(((int)dat)+(1<<8));
 2042              		.loc 1 91 2
 2043 05c4 3545     		li	a0,13
 2044 05c6 97000000 		call	LCD_Writ_Bus
 2044      E7800000 
 2045              	.LVL225:
 2046              	.LBE339:
 2047              	.LBE338:
 280:lib/lcd/src/lcd.c **** 	LCD_WR_DATA8(0x10);
 2048              		.loc 1 280 2
 2049              	.LBB340:
 2050              	.LBB341:
  90:lib/lcd/src/lcd.c **** 	LCD_Writ_Bus(dat);
 2051              		.loc 1 90 2
 2052 05ce A165     		li	a1,32768
 2053 05d0 37150140 		li	a0,1073811456
 2054 05d4 97000000 		call	gpio_bit_set
 2054      E7800000 
 2055              	.LVL226:
  91:lib/lcd/src/lcd.c ****     //LCD_Write_Bus(((int)dat)+(1<<8));
GAS LISTING C:\Users\Kalle\AppData\Local\Temp\cc2hNkGN.s 			page 55


 2056              		.loc 1 91 2
 2057 05dc 3945     		li	a0,14
 2058 05de 97000000 		call	LCD_Writ_Bus
 2058      E7800000 
 2059              	.LVL227:
 2060              	.LBE341:
 2061              	.LBE340:
 281:lib/lcd/src/lcd.c **** 
 2062              		.loc 1 281 2
 2063              	.LBB342:
 2064              	.LBB343:
  90:lib/lcd/src/lcd.c **** 	LCD_Writ_Bus(dat);
 2065              		.loc 1 90 2
 2066 05e6 A165     		li	a1,32768
 2067 05e8 37150140 		li	a0,1073811456
 2068 05ec 97000000 		call	gpio_bit_set
 2068      E7800000 
 2069              	.LVL228:
  91:lib/lcd/src/lcd.c ****     //LCD_Write_Bus(((int)dat)+(1<<8));
 2070              		.loc 1 91 2
 2071 05f4 4145     		li	a0,16
 2072 05f6 97000000 		call	LCD_Writ_Bus
 2072      E7800000 
 2073              	.LVL229:
 2074              	.LBE343:
 2075              	.LBE342:
 283:lib/lcd/src/lcd.c **** 	LCD_WR_DATA8(0x10);
 2076              		.loc 1 283 2
 2077              	.LBB344:
 2078              	.LBB345:
 118:lib/lcd/src/lcd.c **** 	LCD_Writ_Bus(dat);
 2079              		.loc 1 118 2
 2080 05fe A165     		li	a1,32768
 2081 0600 37150140 		li	a0,1073811456
 2082 0604 97000000 		call	gpio_bit_reset
 2082      E7800000 
 2083              	.LVL230:
 119:lib/lcd/src/lcd.c ****     //LCD_Write_Bus((int)dat);
 2084              		.loc 1 119 2
 2085 060c 1305100E 		li	a0,225
 2086 0610 97000000 		call	LCD_Writ_Bus
 2086      E7800000 
 2087              	.LVL231:
 2088              	.LBE345:
 2089              	.LBE344:
 284:lib/lcd/src/lcd.c **** 	LCD_WR_DATA8(0x0E);
 2090              		.loc 1 284 2
 2091              	.LBB346:
 2092              	.LBB347:
  90:lib/lcd/src/lcd.c **** 	LCD_Writ_Bus(dat);
 2093              		.loc 1 90 2
 2094 0618 A165     		li	a1,32768
 2095 061a 37150140 		li	a0,1073811456
 2096 061e 97000000 		call	gpio_bit_set
 2096      E7800000 
 2097              	.LVL232:
  91:lib/lcd/src/lcd.c ****     //LCD_Write_Bus(((int)dat)+(1<<8));
GAS LISTING C:\Users\Kalle\AppData\Local\Temp\cc2hNkGN.s 			page 56


 2098              		.loc 1 91 2
 2099 0626 4145     		li	a0,16
 2100 0628 97000000 		call	LCD_Writ_Bus
 2100      E7800000 
 2101              	.LVL233:
 2102              	.LBE347:
 2103              	.LBE346:
 285:lib/lcd/src/lcd.c **** 	LCD_WR_DATA8(0x03);
 2104              		.loc 1 285 2
 2105              	.LBB348:
 2106              	.LBB349:
  90:lib/lcd/src/lcd.c **** 	LCD_Writ_Bus(dat);
 2107              		.loc 1 90 2
 2108 0630 A165     		li	a1,32768
 2109 0632 37150140 		li	a0,1073811456
 2110 0636 97000000 		call	gpio_bit_set
 2110      E7800000 
 2111              	.LVL234:
  91:lib/lcd/src/lcd.c ****     //LCD_Write_Bus(((int)dat)+(1<<8));
 2112              		.loc 1 91 2
 2113 063e 3945     		li	a0,14
 2114 0640 97000000 		call	LCD_Writ_Bus
 2114      E7800000 
 2115              	.LVL235:
 2116              	.LBE349:
 2117              	.LBE348:
 286:lib/lcd/src/lcd.c **** 	LCD_WR_DATA8(0x03);
 2118              		.loc 1 286 2
 2119              	.LBB350:
 2120              	.LBB351:
  90:lib/lcd/src/lcd.c **** 	LCD_Writ_Bus(dat);
 2121              		.loc 1 90 2
 2122 0648 A165     		li	a1,32768
 2123 064a 37150140 		li	a0,1073811456
 2124 064e 97000000 		call	gpio_bit_set
 2124      E7800000 
 2125              	.LVL236:
  91:lib/lcd/src/lcd.c ****     //LCD_Write_Bus(((int)dat)+(1<<8));
 2126              		.loc 1 91 2
 2127 0656 0D45     		li	a0,3
 2128 0658 97000000 		call	LCD_Writ_Bus
 2128      E7800000 
 2129              	.LVL237:
 2130              	.LBE351:
 2131              	.LBE350:
 287:lib/lcd/src/lcd.c **** 	LCD_WR_DATA8(0x0F);
 2132              		.loc 1 287 2
 2133              	.LBB352:
 2134              	.LBB353:
  90:lib/lcd/src/lcd.c **** 	LCD_Writ_Bus(dat);
 2135              		.loc 1 90 2
 2136 0660 A165     		li	a1,32768
 2137 0662 37150140 		li	a0,1073811456
 2138 0666 97000000 		call	gpio_bit_set
 2138      E7800000 
 2139              	.LVL238:
  91:lib/lcd/src/lcd.c ****     //LCD_Write_Bus(((int)dat)+(1<<8));
GAS LISTING C:\Users\Kalle\AppData\Local\Temp\cc2hNkGN.s 			page 57


 2140              		.loc 1 91 2
 2141 066e 0D45     		li	a0,3
 2142 0670 97000000 		call	LCD_Writ_Bus
 2142      E7800000 
 2143              	.LVL239:
 2144              	.LBE353:
 2145              	.LBE352:
 288:lib/lcd/src/lcd.c **** 	LCD_WR_DATA8(0x06);
 2146              		.loc 1 288 2
 2147              	.LBB354:
 2148              	.LBB355:
  90:lib/lcd/src/lcd.c **** 	LCD_Writ_Bus(dat);
 2149              		.loc 1 90 2
 2150 0678 A165     		li	a1,32768
 2151 067a 37150140 		li	a0,1073811456
 2152 067e 97000000 		call	gpio_bit_set
 2152      E7800000 
 2153              	.LVL240:
  91:lib/lcd/src/lcd.c ****     //LCD_Write_Bus(((int)dat)+(1<<8));
 2154              		.loc 1 91 2
 2155 0686 3D45     		li	a0,15
 2156 0688 97000000 		call	LCD_Writ_Bus
 2156      E7800000 
 2157              	.LVL241:
 2158              	.LBE355:
 2159              	.LBE354:
 289:lib/lcd/src/lcd.c **** 	LCD_WR_DATA8(0x02);
 2160              		.loc 1 289 2
 2161              	.LBB356:
 2162              	.LBB357:
  90:lib/lcd/src/lcd.c **** 	LCD_Writ_Bus(dat);
 2163              		.loc 1 90 2
 2164 0690 A165     		li	a1,32768
 2165 0692 37150140 		li	a0,1073811456
 2166 0696 97000000 		call	gpio_bit_set
 2166      E7800000 
 2167              	.LVL242:
  91:lib/lcd/src/lcd.c ****     //LCD_Write_Bus(((int)dat)+(1<<8));
 2168              		.loc 1 91 2
 2169 069e 1945     		li	a0,6
 2170 06a0 97000000 		call	LCD_Writ_Bus
 2170      E7800000 
 2171              	.LVL243:
 2172              	.LBE357:
 2173              	.LBE356:
 290:lib/lcd/src/lcd.c **** 	LCD_WR_DATA8(0x08);
 2174              		.loc 1 290 2
 2175              	.LBB358:
 2176              	.LBB359:
  90:lib/lcd/src/lcd.c **** 	LCD_Writ_Bus(dat);
 2177              		.loc 1 90 2
 2178 06a8 A165     		li	a1,32768
 2179 06aa 37150140 		li	a0,1073811456
 2180 06ae 97000000 		call	gpio_bit_set
 2180      E7800000 
 2181              	.LVL244:
  91:lib/lcd/src/lcd.c ****     //LCD_Write_Bus(((int)dat)+(1<<8));
GAS LISTING C:\Users\Kalle\AppData\Local\Temp\cc2hNkGN.s 			page 58


 2182              		.loc 1 91 2
 2183 06b6 0945     		li	a0,2
 2184 06b8 97000000 		call	LCD_Writ_Bus
 2184      E7800000 
 2185              	.LVL245:
 2186              	.LBE359:
 2187              	.LBE358:
 291:lib/lcd/src/lcd.c **** 	LCD_WR_DATA8(0x0A);
 2188              		.loc 1 291 2
 2189              	.LBB360:
 2190              	.LBB361:
  90:lib/lcd/src/lcd.c **** 	LCD_Writ_Bus(dat);
 2191              		.loc 1 90 2
 2192 06c0 A165     		li	a1,32768
 2193 06c2 37150140 		li	a0,1073811456
 2194 06c6 97000000 		call	gpio_bit_set
 2194      E7800000 
 2195              	.LVL246:
  91:lib/lcd/src/lcd.c ****     //LCD_Write_Bus(((int)dat)+(1<<8));
 2196              		.loc 1 91 2
 2197 06ce 2145     		li	a0,8
 2198 06d0 97000000 		call	LCD_Writ_Bus
 2198      E7800000 
 2199              	.LVL247:
 2200              	.LBE361:
 2201              	.LBE360:
 292:lib/lcd/src/lcd.c **** 	LCD_WR_DATA8(0x13);
 2202              		.loc 1 292 2
 2203              	.LBB362:
 2204              	.LBB363:
  90:lib/lcd/src/lcd.c **** 	LCD_Writ_Bus(dat);
 2205              		.loc 1 90 2
 2206 06d8 A165     		li	a1,32768
 2207 06da 37150140 		li	a0,1073811456
 2208 06de 97000000 		call	gpio_bit_set
 2208      E7800000 
 2209              	.LVL248:
  91:lib/lcd/src/lcd.c ****     //LCD_Write_Bus(((int)dat)+(1<<8));
 2210              		.loc 1 91 2
 2211 06e6 2945     		li	a0,10
 2212 06e8 97000000 		call	LCD_Writ_Bus
 2212      E7800000 
 2213              	.LVL249:
 2214              	.LBE363:
 2215              	.LBE362:
 293:lib/lcd/src/lcd.c **** 	LCD_WR_DATA8(0x26);
 2216              		.loc 1 293 2
 2217              	.LBB364:
 2218              	.LBB365:
  90:lib/lcd/src/lcd.c **** 	LCD_Writ_Bus(dat);
 2219              		.loc 1 90 2
 2220 06f0 A165     		li	a1,32768
 2221 06f2 37150140 		li	a0,1073811456
 2222 06f6 97000000 		call	gpio_bit_set
 2222      E7800000 
 2223              	.LVL250:
  91:lib/lcd/src/lcd.c ****     //LCD_Write_Bus(((int)dat)+(1<<8));
GAS LISTING C:\Users\Kalle\AppData\Local\Temp\cc2hNkGN.s 			page 59


 2224              		.loc 1 91 2
 2225 06fe 4D45     		li	a0,19
 2226 0700 97000000 		call	LCD_Writ_Bus
 2226      E7800000 
 2227              	.LVL251:
 2228              	.LBE365:
 2229              	.LBE364:
 294:lib/lcd/src/lcd.c **** 	LCD_WR_DATA8(0x36);
 2230              		.loc 1 294 2
 2231              	.LBB366:
 2232              	.LBB367:
  90:lib/lcd/src/lcd.c **** 	LCD_Writ_Bus(dat);
 2233              		.loc 1 90 2
 2234 0708 A165     		li	a1,32768
 2235 070a 37150140 		li	a0,1073811456
 2236 070e 97000000 		call	gpio_bit_set
 2236      E7800000 
 2237              	.LVL252:
  91:lib/lcd/src/lcd.c ****     //LCD_Write_Bus(((int)dat)+(1<<8));
 2238              		.loc 1 91 2
 2239 0716 13056002 		li	a0,38
 2240 071a 97000000 		call	LCD_Writ_Bus
 2240      E7800000 
 2241              	.LVL253:
 2242              	.LBE367:
 2243              	.LBE366:
 295:lib/lcd/src/lcd.c **** 	LCD_WR_DATA8(0x00);
 2244              		.loc 1 295 2
 2245              	.LBB368:
 2246              	.LBB369:
  90:lib/lcd/src/lcd.c **** 	LCD_Writ_Bus(dat);
 2247              		.loc 1 90 2
 2248 0722 A165     		li	a1,32768
 2249 0724 37150140 		li	a0,1073811456
 2250 0728 97000000 		call	gpio_bit_set
 2250      E7800000 
 2251              	.LVL254:
  91:lib/lcd/src/lcd.c ****     //LCD_Write_Bus(((int)dat)+(1<<8));
 2252              		.loc 1 91 2
 2253 0730 13056003 		li	a0,54
 2254 0734 97000000 		call	LCD_Writ_Bus
 2254      E7800000 
 2255              	.LVL255:
 2256              	.LBE369:
 2257              	.LBE368:
 296:lib/lcd/src/lcd.c **** 	LCD_WR_DATA8(0x0D);
 2258              		.loc 1 296 2
 2259              	.LBB370:
 2260              	.LBB371:
  90:lib/lcd/src/lcd.c **** 	LCD_Writ_Bus(dat);
 2261              		.loc 1 90 2
 2262 073c A165     		li	a1,32768
 2263 073e 37150140 		li	a0,1073811456
 2264 0742 97000000 		call	gpio_bit_set
 2264      E7800000 
 2265              	.LVL256:
  91:lib/lcd/src/lcd.c ****     //LCD_Write_Bus(((int)dat)+(1<<8));
GAS LISTING C:\Users\Kalle\AppData\Local\Temp\cc2hNkGN.s 			page 60


 2266              		.loc 1 91 2
 2267 074a 0145     		li	a0,0
 2268 074c 97000000 		call	LCD_Writ_Bus
 2268      E7800000 
 2269              	.LVL257:
 2270              	.LBE371:
 2271              	.LBE370:
 297:lib/lcd/src/lcd.c **** 	LCD_WR_DATA8(0x0E);
 2272              		.loc 1 297 2
 2273              	.LBB372:
 2274              	.LBB373:
  90:lib/lcd/src/lcd.c **** 	LCD_Writ_Bus(dat);
 2275              		.loc 1 90 2
 2276 0754 A165     		li	a1,32768
 2277 0756 37150140 		li	a0,1073811456
 2278 075a 97000000 		call	gpio_bit_set
 2278      E7800000 
 2279              	.LVL258:
  91:lib/lcd/src/lcd.c ****     //LCD_Write_Bus(((int)dat)+(1<<8));
 2280              		.loc 1 91 2
 2281 0762 3545     		li	a0,13
 2282 0764 97000000 		call	LCD_Writ_Bus
 2282      E7800000 
 2283              	.LVL259:
 2284              	.LBE373:
 2285              	.LBE372:
 298:lib/lcd/src/lcd.c **** 	LCD_WR_DATA8(0x10);
 2286              		.loc 1 298 2
 2287              	.LBB374:
 2288              	.LBB375:
  90:lib/lcd/src/lcd.c **** 	LCD_Writ_Bus(dat);
 2289              		.loc 1 90 2
 2290 076c A165     		li	a1,32768
 2291 076e 37150140 		li	a0,1073811456
 2292 0772 97000000 		call	gpio_bit_set
 2292      E7800000 
 2293              	.LVL260:
  91:lib/lcd/src/lcd.c ****     //LCD_Write_Bus(((int)dat)+(1<<8));
 2294              		.loc 1 91 2
 2295 077a 3945     		li	a0,14
 2296 077c 97000000 		call	LCD_Writ_Bus
 2296      E7800000 
 2297              	.LVL261:
 2298              	.LBE375:
 2299              	.LBE374:
 299:lib/lcd/src/lcd.c **** 
 2300              		.loc 1 299 2
 2301              	.LBB376:
 2302              	.LBB377:
  90:lib/lcd/src/lcd.c **** 	LCD_Writ_Bus(dat);
 2303              		.loc 1 90 2
 2304 0784 A165     		li	a1,32768
 2305 0786 37150140 		li	a0,1073811456
 2306 078a 97000000 		call	gpio_bit_set
 2306      E7800000 
 2307              	.LVL262:
  91:lib/lcd/src/lcd.c ****     //LCD_Write_Bus(((int)dat)+(1<<8));
GAS LISTING C:\Users\Kalle\AppData\Local\Temp\cc2hNkGN.s 			page 61


 2308              		.loc 1 91 2
 2309 0792 4145     		li	a0,16
 2310 0794 97000000 		call	LCD_Writ_Bus
 2310      E7800000 
 2311              	.LVL263:
 2312              	.LBE377:
 2313              	.LBE376:
 301:lib/lcd/src/lcd.c **** 	LCD_WR_DATA8(0x05);//16 bit color
 2314              		.loc 1 301 2
 2315              	.LBB378:
 2316              	.LBB379:
 118:lib/lcd/src/lcd.c **** 	LCD_Writ_Bus(dat);
 2317              		.loc 1 118 2
 2318 079c A165     		li	a1,32768
 2319 079e 37150140 		li	a0,1073811456
 2320 07a2 97000000 		call	gpio_bit_reset
 2320      E7800000 
 2321              	.LVL264:
 119:lib/lcd/src/lcd.c ****     //LCD_Write_Bus((int)dat);
 2322              		.loc 1 119 2
 2323 07aa 1305A003 		li	a0,58
 2324 07ae 97000000 		call	LCD_Writ_Bus
 2324      E7800000 
 2325              	.LVL265:
 2326              	.LBE379:
 2327              	.LBE378:
 302:lib/lcd/src/lcd.c **** 
 2328              		.loc 1 302 2
 2329              	.LBB380:
 2330              	.LBB381:
  90:lib/lcd/src/lcd.c **** 	LCD_Writ_Bus(dat);
 2331              		.loc 1 90 2
 2332 07b6 A165     		li	a1,32768
 2333 07b8 37150140 		li	a0,1073811456
 2334 07bc 97000000 		call	gpio_bit_set
 2334      E7800000 
 2335              	.LVL266:
  91:lib/lcd/src/lcd.c ****     //LCD_Write_Bus(((int)dat)+(1<<8));
 2336              		.loc 1 91 2
 2337 07c4 1545     		li	a0,5
 2338 07c6 97000000 		call	LCD_Writ_Bus
 2338      E7800000 
 2339              	.LVL267:
 2340              	.LBE381:
 2341              	.LBE380:
 304:lib/lcd/src/lcd.c **** 	LCD_WR_DATA8(0x78);
 2342              		.loc 1 304 2
 2343              	.LBB382:
 2344              	.LBB383:
 118:lib/lcd/src/lcd.c **** 	LCD_Writ_Bus(dat);
 2345              		.loc 1 118 2
 2346 07ce A165     		li	a1,32768
 2347 07d0 37150140 		li	a0,1073811456
 2348 07d4 97000000 		call	gpio_bit_reset
 2348      E7800000 
 2349              	.LVL268:
 119:lib/lcd/src/lcd.c ****     //LCD_Write_Bus((int)dat);
GAS LISTING C:\Users\Kalle\AppData\Local\Temp\cc2hNkGN.s 			page 62


 2350              		.loc 1 119 2
 2351 07dc 13056003 		li	a0,54
 2352 07e0 97000000 		call	LCD_Writ_Bus
 2352      E7800000 
 2353              	.LVL269:
 2354              	.LBE383:
 2355              	.LBE382:
 305:lib/lcd/src/lcd.c **** 	LCD_WR_REG(0x29); 
 2356              		.loc 1 305 2
 2357              	.LBB384:
 2358              	.LBB385:
  90:lib/lcd/src/lcd.c **** 	LCD_Writ_Bus(dat);
 2359              		.loc 1 90 2
 2360 07e8 A165     		li	a1,32768
 2361 07ea 37150140 		li	a0,1073811456
 2362 07ee 97000000 		call	gpio_bit_set
 2362      E7800000 
 2363              	.LVL270:
  91:lib/lcd/src/lcd.c ****     //LCD_Write_Bus(((int)dat)+(1<<8));
 2364              		.loc 1 91 2
 2365 07f6 13058007 		li	a0,120
 2366 07fa 97000000 		call	LCD_Writ_Bus
 2366      E7800000 
 2367              	.LVL271:
 2368              	.LBE385:
 2369              	.LBE384:
 306:lib/lcd/src/lcd.c **** } 
 2370              		.loc 1 306 2
 2371              	.LBB386:
 2372              	.LBB387:
 118:lib/lcd/src/lcd.c **** 	LCD_Writ_Bus(dat);
 2373              		.loc 1 118 2
 2374 0802 37150140 		li	a0,1073811456
 2375 0806 A165     		li	a1,32768
 2376 0808 97000000 		call	gpio_bit_reset
 2376      E7800000 
 2377              	.LVL272:
 119:lib/lcd/src/lcd.c ****     //LCD_Write_Bus((int)dat);
 2378              		.loc 1 119 2
 2379              	.LBE387:
 2380              	.LBE386:
 307:lib/lcd/src/lcd.c **** 
 2381              		.loc 1 307 1 is_stmt 0
 2382 0810 2244     		lw	s0,8(sp)
 2383              		.cfi_remember_state
 2384              		.cfi_restore 8
 2385 0812 B240     		lw	ra,12(sp)
 2386              		.cfi_restore 1
 2387              	.LBB390:
 2388              	.LBB388:
 119:lib/lcd/src/lcd.c ****     //LCD_Write_Bus((int)dat);
 2389              		.loc 1 119 2
 2390 0814 13059002 		li	a0,41
 2391              	.LBE388:
 2392              	.LBE390:
 307:lib/lcd/src/lcd.c **** 
 2393              		.loc 1 307 1
GAS LISTING C:\Users\Kalle\AppData\Local\Temp\cc2hNkGN.s 			page 63


 2394 0818 4101     		addi	sp,sp,16
 2395              	.LCFI29:
 2396              		.cfi_def_cfa_offset 0
 2397              	.LBB391:
 2398              	.LBB389:
 119:lib/lcd/src/lcd.c ****     //LCD_Write_Bus((int)dat);
 2399              		.loc 1 119 2
 2400 081a 17030000 		tail	LCD_Writ_Bus
 2400      67000300 
 2401              	.LVL273:
 2402              	.L72:
 2403              	.LCFI30:
 2404              		.cfi_restore_state
 2405              	.LBE389:
 2406              	.LBE391:
 219:lib/lcd/src/lcd.c **** 
 2407              		.loc 1 219 12 is_stmt 1
 2408              	.LBB392:
 2409              	.LBB393:
 118:lib/lcd/src/lcd.c **** 	LCD_Writ_Bus(dat);
 2410              		.loc 1 118 2
 2411 0822 37150140 		li	a0,1073811456
 2412 0826 A165     		li	a1,32768
 2413 0828 97000000 		call	gpio_bit_reset
 2413      E7800000 
 2414              	.LVL274:
 119:lib/lcd/src/lcd.c ****     //LCD_Write_Bus((int)dat);
 2415              		.loc 1 119 2
 2416 0830 13051002 		li	a0,33
 2417 0834 97000000 		call	LCD_Writ_Bus
 2417      E7800000 
 2418              	.LVL275:
 2419 083c D1B0     		j	.L73
 2420              	.LBE393:
 2421              	.LBE392:
 2422              		.cfi_endproc
 2423              	.LFE13:
 2425              		.section	.text.LCD_Clear,"ax",@progbits
 2426              		.align	1
 2427              		.globl	LCD_Clear
 2429              	LCD_Clear:
 2430              	.LFB14:
 316:lib/lcd/src/lcd.c **** 	u16 i,j;  	
 2431              		.loc 1 316 1
 2432              		.cfi_startproc
 2433              	.LVL276:
 317:lib/lcd/src/lcd.c **** 	LCD_Address_Set(0,0,LCD_W-1,LCD_H-1);
 2434              		.loc 1 317 2
 318:lib/lcd/src/lcd.c ****     for(i=0;i<LCD_W;i++)
 2435              		.loc 1 318 2
 316:lib/lcd/src/lcd.c **** 	u16 i,j;  	
 2436              		.loc 1 316 1 is_stmt 0
 2437 0000 4111     		addi	sp,sp,-16
 2438              	.LCFI31:
 2439              		.cfi_def_cfa_offset 16
 2440 0002 26C2     		sw	s1,4(sp)
 318:lib/lcd/src/lcd.c ****     for(i=0;i<LCD_W;i++)
GAS LISTING C:\Users\Kalle\AppData\Local\Temp\cc2hNkGN.s 			page 64


 2441              		.loc 1 318 2
 2442 0004 9306F004 		li	a3,79
 2443              		.cfi_offset 9, -12
 316:lib/lcd/src/lcd.c **** 	u16 i,j;  	
 2444              		.loc 1 316 1
 2445 0008 AA84     		mv	s1,a0
 318:lib/lcd/src/lcd.c ****     for(i=0;i<LCD_W;i++)
 2446              		.loc 1 318 2
 2447 000a 1306F009 		li	a2,159
 2448 000e 8145     		li	a1,0
 2449 0010 0145     		li	a0,0
 2450              	.LVL277:
 316:lib/lcd/src/lcd.c **** 	u16 i,j;  	
 2451              		.loc 1 316 1
 2452 0012 4AC0     		sw	s2,0(sp)
 2453 0014 06C6     		sw	ra,12(sp)
 2454 0016 22C4     		sw	s0,8(sp)
 2455              		.cfi_offset 18, -16
 2456              		.cfi_offset 1, -4
 2457              		.cfi_offset 8, -8
 318:lib/lcd/src/lcd.c ****     for(i=0;i<LCD_W;i++)
 2458              		.loc 1 318 2
 2459 0018 1309000A 		li	s2,160
 2460 001c 97000000 		call	LCD_Address_Set
 2460      E7800000 
 2461              	.LVL278:
 319:lib/lcd/src/lcd.c **** 	  {
 2462              		.loc 1 319 5 is_stmt 1
 2463              	.L76:
 316:lib/lcd/src/lcd.c **** 	u16 i,j;  	
 2464              		.loc 1 316 1 is_stmt 0
 2465 0024 13040005 		li	s0,80
 2466              	.LVL279:
 2467              	.L77:
 323:lib/lcd/src/lcd.c **** 				}
 2468              		.loc 1 323 6 is_stmt 1 discriminator 3
 2469 0028 7D14     		addi	s0,s0,-1
 2470              	.LVL280:
 2471 002a 2685     		mv	a0,s1
 2472 002c 97000000 		call	LCD_WR_DATA
 2472      E7800000 
 2473              	.LVL281:
 321:lib/lcd/src/lcd.c **** 				{
 2474              		.loc 1 321 4 is_stmt 0 discriminator 3
 2475 0034 75F8     		bne	s0,zero,.L77
 2476              	.LVL282:
 2477 0036 7D19     		addi	s2,s2,-1
 2478              	.LVL283:
 319:lib/lcd/src/lcd.c **** 	  {
 2479              		.loc 1 319 5 discriminator 2
 2480 0038 E31609FE 		bne	s2,zero,.L76
 326:lib/lcd/src/lcd.c **** 
 2481              		.loc 1 326 1
 2482 003c B240     		lw	ra,12(sp)
 2483              		.cfi_restore 1
 2484 003e 2244     		lw	s0,8(sp)
 2485              		.cfi_restore 8
GAS LISTING C:\Users\Kalle\AppData\Local\Temp\cc2hNkGN.s 			page 65


 2486 0040 9244     		lw	s1,4(sp)
 2487              		.cfi_restore 9
 2488              	.LVL284:
 2489 0042 0249     		lw	s2,0(sp)
 2490              		.cfi_restore 18
 2491              	.LVL285:
 2492 0044 4101     		addi	sp,sp,16
 2493              	.LCFI32:
 2494              		.cfi_def_cfa_offset 0
 2495 0046 8280     		jr	ra
 2496              		.cfi_endproc
 2497              	.LFE14:
 2499              		.section	.text.LCD_ShowChinese,"ax",@progbits
 2500              		.align	1
 2501              		.globl	LCD_ShowChinese
 2503              	LCD_ShowChinese:
 2504              	.LFB15:
 337:lib/lcd/src/lcd.c **** 	u8 i,j;
 2505              		.loc 1 337 1 is_stmt 1
 2506              		.cfi_startproc
 2507              	.LVL286:
 338:lib/lcd/src/lcd.c **** 	u8 *temp,size1;
 2508              		.loc 1 338 2
 339:lib/lcd/src/lcd.c **** 	if(size==16){temp=Hzk16;}               // Choose a font size
 2509              		.loc 1 339 2
 340:lib/lcd/src/lcd.c **** 	if(size==32){temp=Hzk32;}
 2510              		.loc 1 340 2
 341:lib/lcd/src/lcd.c ****     LCD_Address_Set(x,y,x+size-1,y+size-1); // Set a region of Chinese characters
 2511              		.loc 1 341 2
 337:lib/lcd/src/lcd.c **** 	u8 i,j;
 2512              		.loc 1 337 1 is_stmt 0
 2513 0000 0111     		addi	sp,sp,-32
 2514              	.LCFI33:
 2515              		.cfi_def_cfa_offset 32
 2516 0002 5AC0     		sw	s6,0(sp)
 2517              		.cfi_offset 22, -32
 2518 0004 338BD602 		mul	s6,a3,a3
 2519 0008 B687     		mv	a5,a3
 2520 000a 9306F5FF 		addi	a3,a0,-1
 2521              	.LVL287:
 2522 000e 26CA     		sw	s1,20(sp)
 2523 0010 4AC8     		sw	s2,16(sp)
 2524 0012 1388F5FF 		addi	a6,a1,-1
 2525              		.cfi_offset 9, -12
 2526              		.cfi_offset 18, -16
 2527 0016 3A89     		mv	s2,a4
 2528 0018 06CE     		sw	ra,28(sp)
 2529 001a 3387F600 		add	a4,a3,a5
 2530              	.LVL288:
 2531 001e 22CC     		sw	s0,24(sp)
 2532 0020 135B3B40 		srai	s6,s6,3
 2533 0024 9374FB0F 		andi	s1,s6,255
 2534 0028 4EC6     		sw	s3,12(sp)
 2535 002a 52C4     		sw	s4,8(sp)
 2536 002c 56C2     		sw	s5,4(sp)
 2537              		.cfi_offset 1, -4
 2538              		.cfi_offset 8, -8
GAS LISTING C:\Users\Kalle\AppData\Local\Temp\cc2hNkGN.s 			page 66


 2539              		.cfi_offset 19, -20
 2540              		.cfi_offset 20, -24
 2541              		.cfi_offset 21, -28
 341:lib/lcd/src/lcd.c ****     LCD_Address_Set(x,y,x+size-1,y+size-1); // Set a region of Chinese characters
 2542              		.loc 1 341 4
 2543 002e 93080002 		li	a7,32
 2544 0032 B384C402 		mul	s1,s1,a2
 2545 0036 B306F800 		add	a3,a6,a5
 2546 003a 137BFB0F 		andi	s6,s6,0xff
 342:lib/lcd/src/lcd.c ****     size1=size*size/8;                      // The bytes occupied by a Chinese character
 2547              		.loc 1 342 5
 2548 003e 3A86     		mv	a2,a4
 2549              	.LVL289:
 341:lib/lcd/src/lcd.c ****     LCD_Address_Set(x,y,x+size-1,y+size-1); // Set a region of Chinese characters
 2550              		.loc 1 341 4
 2551 0040 63821707 		beq	a5,a7,.L82
 342:lib/lcd/src/lcd.c ****     size1=size*size/8;                      // The bytes occupied by a Chinese character
 2552              		.loc 1 342 5 is_stmt 1
 2553 0044 97000000 		call	LCD_Address_Set
 2553      E7800000 
 2554              	.LVL290:
 343:lib/lcd/src/lcd.c **** 	temp+=index*size1;                      // Start of writing
 2555              		.loc 1 343 5
 344:lib/lcd/src/lcd.c **** 	for(j=0;j<size1;j++)
 2556              		.loc 1 344 2
 344:lib/lcd/src/lcd.c **** 	for(j=0;j<size1;j++)
 2557              		.loc 1 344 6 is_stmt 0
 2558 004c B7070000 		lui	a5,%hi(.LANCHOR5)
 2559 0050 93870700 		addi	a5,a5,%lo(.LANCHOR5)
 2560 0054 BE94     		add	s1,a5,s1
 2561              	.LVL291:
 345:lib/lcd/src/lcd.c **** 	{
 2562              		.loc 1 345 2 is_stmt 1
 2563 0056 630D0B02 		beq	s6,zero,.L81
 2564              	.L83:
 337:lib/lcd/src/lcd.c **** 	u8 i,j;
 2565              		.loc 1 337 1 is_stmt 0
 2566 005a 014A     		li	s4,0
 354:lib/lcd/src/lcd.c **** 			}
 2567              		.loc 1 354 5
 2568 005c B70A0000 		lui	s5,%hi(BACK_COLOR)
 347:lib/lcd/src/lcd.c **** 		{
 2569              		.loc 1 347 3
 2570 0060 A149     		li	s3,8
 2571              	.LVL292:
 2572              	.L87:
 337:lib/lcd/src/lcd.c **** 	u8 i,j;
 2573              		.loc 1 337 1
 2574 0062 0144     		li	s0,0
 2575              	.L86:
 2576              	.LVL293:
 349:lib/lcd/src/lcd.c **** 				LCD_WR_DATA(color);         // set dot color
 2577              		.loc 1 349 5 is_stmt 1
 350:lib/lcd/src/lcd.c **** 			}
 2578              		.loc 1 350 5
 354:lib/lcd/src/lcd.c **** 			}
 2579              		.loc 1 354 5
GAS LISTING C:\Users\Kalle\AppData\Local\Temp\cc2hNkGN.s 			page 67


 349:lib/lcd/src/lcd.c **** 				LCD_WR_DATA(color);         // set dot color
 2580              		.loc 1 349 9 is_stmt 0
 2581 0064 83C70400 		lbu	a5,0(s1)
 350:lib/lcd/src/lcd.c **** 			}
 2582              		.loc 1 350 5
 2583 0068 4A85     		mv	a0,s2
 349:lib/lcd/src/lcd.c **** 				LCD_WR_DATA(color);         // set dot color
 2584              		.loc 1 349 22
 2585 006a B3D78740 		sra	a5,a5,s0
 2586 006e 858B     		andi	a5,a5,1
 349:lib/lcd/src/lcd.c **** 				LCD_WR_DATA(color);         // set dot color
 2587              		.loc 1 349 7
 2588 0070 99E3     		bne	a5,zero,.L92
 2589              	.LVL294:
 354:lib/lcd/src/lcd.c **** 			}
 2590              		.loc 1 354 5
 2591 0072 03A50A00 		lw	a0,%lo(BACK_COLOR)(s5)
 2592              	.LVL295:
 2593              	.L92:
 2594 0076 0504     		addi	s0,s0,1
 2595              	.LVL296:
 2596 0078 97000000 		call	LCD_WR_DATA
 2596      E7800000 
 2597              	.LVL297:
 347:lib/lcd/src/lcd.c **** 		{
 2598              		.loc 1 347 3
 2599 0080 E31234FF 		bne	s0,s3,.L86
 357:lib/lcd/src/lcd.c **** 	 }
 2600              		.loc 1 357 3 is_stmt 1 discriminator 2
 345:lib/lcd/src/lcd.c **** 	{
 2601              		.loc 1 345 19 is_stmt 0 discriminator 2
 2602 0084 050A     		addi	s4,s4,1
 2603              	.LVL298:
 2604 0086 137AFA0F 		andi	s4,s4,0xff
 357:lib/lcd/src/lcd.c **** 	 }
 2605              		.loc 1 357 7 discriminator 2
 2606 008a 8504     		addi	s1,s1,1
 2607              	.LVL299:
 345:lib/lcd/src/lcd.c **** 	{
 2608              		.loc 1 345 2 discriminator 2
 2609 008c E36B6AFD 		bltu	s4,s6,.L87
 2610              	.LVL300:
 2611              	.L81:
 359:lib/lcd/src/lcd.c **** 
 2612              		.loc 1 359 1
 2613 0090 F240     		lw	ra,28(sp)
 2614              		.cfi_remember_state
 2615              		.cfi_restore 1
 2616 0092 6244     		lw	s0,24(sp)
 2617              		.cfi_restore 8
 2618 0094 D244     		lw	s1,20(sp)
 2619              		.cfi_restore 9
 2620              	.LVL301:
 2621 0096 4249     		lw	s2,16(sp)
 2622              		.cfi_restore 18
 2623              	.LVL302:
 2624 0098 B249     		lw	s3,12(sp)
GAS LISTING C:\Users\Kalle\AppData\Local\Temp\cc2hNkGN.s 			page 68


 2625              		.cfi_restore 19
 2626 009a 224A     		lw	s4,8(sp)
 2627              		.cfi_restore 20
 2628 009c 924A     		lw	s5,4(sp)
 2629              		.cfi_restore 21
 2630 009e 024B     		lw	s6,0(sp)
 2631              		.cfi_restore 22
 2632 00a0 0561     		addi	sp,sp,32
 2633              	.LCFI34:
 2634              		.cfi_def_cfa_offset 0
 2635 00a2 8280     		jr	ra
 2636              	.LVL303:
 2637              	.L82:
 2638              	.LCFI35:
 2639              		.cfi_restore_state
 342:lib/lcd/src/lcd.c ****     size1=size*size/8;                      // The bytes occupied by a Chinese character
 2640              		.loc 1 342 5 is_stmt 1
 2641 00a4 97000000 		call	LCD_Address_Set
 2641      E7800000 
 2642              	.LVL304:
 343:lib/lcd/src/lcd.c **** 	temp+=index*size1;                      // Start of writing
 2643              		.loc 1 343 5
 344:lib/lcd/src/lcd.c **** 	for(j=0;j<size1;j++)
 2644              		.loc 1 344 2
 344:lib/lcd/src/lcd.c **** 	for(j=0;j<size1;j++)
 2645              		.loc 1 344 6 is_stmt 0
 2646 00ac B7070000 		lui	a5,%hi(.LANCHOR6)
 2647 00b0 93870700 		addi	a5,a5,%lo(.LANCHOR6)
 2648 00b4 BE94     		add	s1,a5,s1
 2649              	.LVL305:
 345:lib/lcd/src/lcd.c **** 	{
 2650              		.loc 1 345 2 is_stmt 1
 2651 00b6 55B7     		j	.L83
 2652              		.cfi_endproc
 2653              	.LFE15:
 2655              		.section	.text.LCD_DrawPoint,"ax",@progbits
 2656              		.align	1
 2657              		.globl	LCD_DrawPoint
 2659              	LCD_DrawPoint:
 2660              	.LFB16:
 368:lib/lcd/src/lcd.c **** 	LCD_Address_Set(x,y,x,y); // Set cursor position
 2661              		.loc 1 368 1
 2662              		.cfi_startproc
 2663              	.LVL306:
 369:lib/lcd/src/lcd.c **** 	LCD_WR_DATA(color);
 2664              		.loc 1 369 2
 368:lib/lcd/src/lcd.c **** 	LCD_Address_Set(x,y,x,y); // Set cursor position
 2665              		.loc 1 368 1 is_stmt 0
 2666 0000 4111     		addi	sp,sp,-16
 2667              	.LCFI36:
 2668              		.cfi_def_cfa_offset 16
 2669 0002 22C4     		sw	s0,8(sp)
 369:lib/lcd/src/lcd.c **** 	LCD_WR_DATA(color);
 2670              		.loc 1 369 2
 2671 0004 AE86     		mv	a3,a1
 2672              		.cfi_offset 8, -8
 368:lib/lcd/src/lcd.c **** 	LCD_Address_Set(x,y,x,y); // Set cursor position
GAS LISTING C:\Users\Kalle\AppData\Local\Temp\cc2hNkGN.s 			page 69


 2673              		.loc 1 368 1
 2674 0006 3284     		mv	s0,a2
 369:lib/lcd/src/lcd.c **** 	LCD_WR_DATA(color);
 2675              		.loc 1 369 2
 2676 0008 2A86     		mv	a2,a0
 2677              	.LVL307:
 368:lib/lcd/src/lcd.c **** 	LCD_Address_Set(x,y,x,y); // Set cursor position
 2678              		.loc 1 368 1
 2679 000a 06C6     		sw	ra,12(sp)
 2680              		.cfi_offset 1, -4
 369:lib/lcd/src/lcd.c **** 	LCD_WR_DATA(color);
 2681              		.loc 1 369 2
 2682 000c 97000000 		call	LCD_Address_Set
 2682      E7800000 
 2683              	.LVL308:
 370:lib/lcd/src/lcd.c **** } 
 2684              		.loc 1 370 2 is_stmt 1
 2685 0014 2285     		mv	a0,s0
 371:lib/lcd/src/lcd.c **** 
 2686              		.loc 1 371 1 is_stmt 0
 2687 0016 2244     		lw	s0,8(sp)
 2688              		.cfi_restore 8
 2689              	.LVL309:
 2690 0018 B240     		lw	ra,12(sp)
 2691              		.cfi_restore 1
 2692 001a 4101     		addi	sp,sp,16
 2693              	.LCFI37:
 2694              		.cfi_def_cfa_offset 0
 370:lib/lcd/src/lcd.c **** } 
 2695              		.loc 1 370 2
 2696 001c 17030000 		tail	LCD_WR_DATA
 2696      67000300 
 2697              	.LVL310:
 2698              		.cfi_endproc
 2699              	.LFE16:
 2701              		.section	.text.LCD_Fill,"ax",@progbits
 2702              		.align	1
 2703              		.globl	LCD_Fill
 2705              	LCD_Fill:
 2706              	.LFB18:
 392:lib/lcd/src/lcd.c **** 	u16 i,j; 
 2707              		.loc 1 392 1 is_stmt 1
 2708              		.cfi_startproc
 2709              	.LVL311:
 393:lib/lcd/src/lcd.c **** 	LCD_Address_Set(xsta,ysta,xend,yend);          //Set cursor position
 2710              		.loc 1 393 2
 394:lib/lcd/src/lcd.c **** 	for(i=ysta;i<=yend;i++)
 2711              		.loc 1 394 2
 392:lib/lcd/src/lcd.c **** 	u16 i,j; 
 2712              		.loc 1 392 1 is_stmt 0
 2713 0000 0111     		addi	sp,sp,-32
 2714              	.LCFI38:
 2715              		.cfi_def_cfa_offset 32
 2716 0002 4EC6     		sw	s3,12(sp)
 2717 0004 56C2     		sw	s5,4(sp)
 2718              		.cfi_offset 19, -20
 2719              		.cfi_offset 21, -28
GAS LISTING C:\Users\Kalle\AppData\Local\Temp\cc2hNkGN.s 			page 70


 2720 0006 AE89     		mv	s3,a1
 2721 0008 B68A     		mv	s5,a3
 2722 000a 26CA     		sw	s1,20(sp)
 2723 000c 4AC8     		sw	s2,16(sp)
 2724 000e 52C4     		sw	s4,8(sp)
 2725 0010 06CE     		sw	ra,28(sp)
 2726 0012 22CC     		sw	s0,24(sp)
 2727              		.cfi_offset 9, -12
 2728              		.cfi_offset 18, -16
 2729              		.cfi_offset 20, -24
 2730              		.cfi_offset 1, -4
 2731              		.cfi_offset 8, -8
 392:lib/lcd/src/lcd.c **** 	u16 i,j; 
 2732              		.loc 1 392 1
 2733 0014 2A8A     		mv	s4,a0
 2734 0016 B284     		mv	s1,a2
 2735 0018 3A89     		mv	s2,a4
 394:lib/lcd/src/lcd.c **** 	for(i=ysta;i<=yend;i++)
 2736              		.loc 1 394 2
 2737 001a 97000000 		call	LCD_Address_Set
 2737      E7800000 
 2738              	.LVL312:
 395:lib/lcd/src/lcd.c **** 	{													   	 	
 2739              		.loc 1 395 2 is_stmt 1
 2740 0022 63E03A03 		bgtu	s3,s5,.L95
 2741              	.LVL313:
 2742              	.L96:
 397:lib/lcd/src/lcd.c **** 	} 					  	    
 2743              		.loc 1 397 3 is_stmt 0
 2744 0026 5284     		mv	s0,s4
 2745 0028 63EA4401 		bgtu	s4,s1,.L99
 2746              	.LVL314:
 2747              	.L98:
 397:lib/lcd/src/lcd.c **** 	} 					  	    
 2748              		.loc 1 397 26 is_stmt 1 discriminator 3
 397:lib/lcd/src/lcd.c **** 	} 					  	    
 2749              		.loc 1 397 23 is_stmt 0 discriminator 3
 2750 002c 0504     		addi	s0,s0,1
 2751              	.LVL315:
 397:lib/lcd/src/lcd.c **** 	} 					  	    
 2752              		.loc 1 397 26 discriminator 3
 2753 002e 4A85     		mv	a0,s2
 2754 0030 97000000 		call	LCD_WR_DATA
 2754      E7800000 
 2755              	.LVL316:
 397:lib/lcd/src/lcd.c **** 	} 					  	    
 2756              		.loc 1 397 3 discriminator 3
 2757 0038 E3FA84FE 		bgeu	s1,s0,.L98
 2758              	.L99:
 395:lib/lcd/src/lcd.c **** 	{													   	 	
 2759              		.loc 1 395 22
 2760 003c 8509     		addi	s3,s3,1
 2761              	.LVL317:
 395:lib/lcd/src/lcd.c **** 	{													   	 	
 2762              		.loc 1 395 2
 2763 003e E3F43AFF 		bgeu	s5,s3,.L96
 2764              	.LVL318:
GAS LISTING C:\Users\Kalle\AppData\Local\Temp\cc2hNkGN.s 			page 71


 2765              	.L95:
 399:lib/lcd/src/lcd.c **** 
 2766              		.loc 1 399 1
 2767 0042 F240     		lw	ra,28(sp)
 2768              		.cfi_restore 1
 2769 0044 6244     		lw	s0,24(sp)
 2770              		.cfi_restore 8
 2771 0046 D244     		lw	s1,20(sp)
 2772              		.cfi_restore 9
 2773              	.LVL319:
 2774 0048 4249     		lw	s2,16(sp)
 2775              		.cfi_restore 18
 2776              	.LVL320:
 2777 004a B249     		lw	s3,12(sp)
 2778              		.cfi_restore 19
 2779              	.LVL321:
 2780 004c 224A     		lw	s4,8(sp)
 2781              		.cfi_restore 20
 2782              	.LVL322:
 2783 004e 924A     		lw	s5,4(sp)
 2784              		.cfi_restore 21
 2785              	.LVL323:
 2786 0050 0561     		addi	sp,sp,32
 2787              	.LCFI39:
 2788              		.cfi_def_cfa_offset 0
 2789 0052 8280     		jr	ra
 2790              		.cfi_endproc
 2791              	.LFE18:
 2793              		.section	.text.LCD_DrawPoint_big,"ax",@progbits
 2794              		.align	1
 2795              		.globl	LCD_DrawPoint_big
 2797              	LCD_DrawPoint_big:
 2798              	.LFB17:
 380:lib/lcd/src/lcd.c **** 	LCD_Fill(x-1,y-1,x+1,y+1,color);
 2799              		.loc 1 380 1 is_stmt 1
 2800              		.cfi_startproc
 2801              	.LVL324:
 381:lib/lcd/src/lcd.c **** } 
 2802              		.loc 1 381 2
 2803 0000 3287     		mv	a4,a2
 2804 0002 93861500 		addi	a3,a1,1
 2805 0006 13061500 		addi	a2,a0,1
 2806              	.LVL325:
 2807 000a FD15     		addi	a1,a1,-1
 2808              	.LVL326:
 2809 000c 7D15     		addi	a0,a0,-1
 2810              	.LVL327:
 2811 000e 17030000 		tail	LCD_Fill
 2811      67000300 
 2812              	.LVL328:
 2813              		.cfi_endproc
 2814              	.LFE17:
 2816              		.section	.text.LCD_DrawLine,"ax",@progbits
 2817              		.align	1
 2818              		.globl	LCD_DrawLine
 2820              	LCD_DrawLine:
 2821              	.LFB19:
GAS LISTING C:\Users\Kalle\AppData\Local\Temp\cc2hNkGN.s 			page 72


 409:lib/lcd/src/lcd.c **** 	u16 t; 
 2822              		.loc 1 409 1
 2823              		.cfi_startproc
 2824              	.LVL329:
 410:lib/lcd/src/lcd.c **** 	int xerr=0,yerr=0,delta_x,delta_y,distance;
 2825              		.loc 1 410 2
 411:lib/lcd/src/lcd.c **** 	int incx,incy,uRow,uCol;
 2826              		.loc 1 411 2
 412:lib/lcd/src/lcd.c **** 	delta_x=x2-x1;                       // Calculate coordinate increments
 2827              		.loc 1 412 2
 413:lib/lcd/src/lcd.c **** 	delta_y=y2-y1;
 2828              		.loc 1 413 2
 409:lib/lcd/src/lcd.c **** 	u16 t; 
 2829              		.loc 1 409 1 is_stmt 0
 2830 0000 7971     		addi	sp,sp,-48
 2831              	.LCFI40:
 2832              		.cfi_def_cfa_offset 48
 2833 0002 4ECE     		sw	s3,28(sp)
 2834 0004 52CC     		sw	s4,24(sp)
 2835 0006 5AC8     		sw	s6,16(sp)
 2836 0008 5EC6     		sw	s7,12(sp)
 2837 000a 62C4     		sw	s8,8(sp)
 2838 000c 66C2     		sw	s9,4(sp)
 2839 000e 06D6     		sw	ra,44(sp)
 2840 0010 22D4     		sw	s0,40(sp)
 2841 0012 26D2     		sw	s1,36(sp)
 2842 0014 4AD0     		sw	s2,32(sp)
 2843 0016 56CA     		sw	s5,20(sp)
 2844 0018 6AC0     		sw	s10,0(sp)
 2845              		.cfi_offset 19, -20
 2846              		.cfi_offset 20, -24
 2847              		.cfi_offset 22, -32
 2848              		.cfi_offset 23, -36
 2849              		.cfi_offset 24, -40
 2850              		.cfi_offset 25, -44
 2851              		.cfi_offset 1, -4
 2852              		.cfi_offset 8, -8
 2853              		.cfi_offset 9, -12
 2854              		.cfi_offset 18, -16
 2855              		.cfi_offset 21, -28
 2856              		.cfi_offset 26, -48
 413:lib/lcd/src/lcd.c **** 	delta_y=y2-y1;
 2857              		.loc 1 413 12
 2858 001a 330BA640 		sub	s6,a2,a0
 2859              	.LVL330:
 414:lib/lcd/src/lcd.c **** 	uRow=x1;                             // Coordinates of starting point of drawing
 2860              		.loc 1 414 2 is_stmt 1
 409:lib/lcd/src/lcd.c **** 	u16 t; 
 2861              		.loc 1 409 1 is_stmt 0
 2862 001e 3A8C     		mv	s8,a4
 414:lib/lcd/src/lcd.c **** 	uRow=x1;                             // Coordinates of starting point of drawing
 2863              		.loc 1 414 12
 2864 0020 B38BB640 		sub	s7,a3,a1
 2865              	.LVL331:
 415:lib/lcd/src/lcd.c **** 	uCol=y1;
 2866              		.loc 1 415 2 is_stmt 1
 415:lib/lcd/src/lcd.c **** 	uCol=y1;
GAS LISTING C:\Users\Kalle\AppData\Local\Temp\cc2hNkGN.s 			page 73


 2867              		.loc 1 415 6 is_stmt 0
 2868 0024 AA89     		mv	s3,a0
 2869              	.LVL332:
 416:lib/lcd/src/lcd.c **** 	if(delta_x>0)incx=1;                 // Set single step direction
 2870              		.loc 1 416 2 is_stmt 1
 416:lib/lcd/src/lcd.c **** 	if(delta_x>0)incx=1;                 // Set single step direction
 2871              		.loc 1 416 6 is_stmt 0
 2872 0026 2E8A     		mv	s4,a1
 2873              	.LVL333:
 417:lib/lcd/src/lcd.c **** 	else if (delta_x==0)incx=0;          // Vertical line
 2874              		.loc 1 417 2 is_stmt 1
 417:lib/lcd/src/lcd.c **** 	else if (delta_x==0)incx=0;          // Vertical line
 2875              		.loc 1 417 19 is_stmt 0
 2876 0028 854C     		li	s9,1
 417:lib/lcd/src/lcd.c **** 	else if (delta_x==0)incx=0;          // Vertical line
 2877              		.loc 1 417 4
 2878 002a 63586007 		ble	s6,zero,.L121
 2879              	.L107:
 2880              	.LVL334:
 420:lib/lcd/src/lcd.c **** 	else if (delta_y==0)incy=0;          // Horizontal line
 2881              		.loc 1 420 2 is_stmt 1
 420:lib/lcd/src/lcd.c **** 	else if (delta_y==0)incy=0;          // Horizontal line
 2882              		.loc 1 420 19 is_stmt 0
 2883 002e 054D     		li	s10,1
 420:lib/lcd/src/lcd.c **** 	else if (delta_y==0)incy=0;          // Horizontal line
 2884              		.loc 1 420 4
 2885 0030 635E7007 		ble	s7,zero,.L122
 2886              	.L108:
 2887              	.LVL335:
 423:lib/lcd/src/lcd.c **** 	else distance=delta_y;
 2888              		.loc 1 423 2 is_stmt 1
 2889 0034 5A84     		mv	s0,s6
 2890 0036 63537B01 		bge	s6,s7,.L109
 2891              	.LVL336:
 2892 003a 5E84     		mv	s0,s7
 2893              	.LVL337:
 2894              	.L109:
 425:lib/lcd/src/lcd.c **** 	{
 2895              		.loc 1 425 2
 411:lib/lcd/src/lcd.c **** 	int incx,incy,uRow,uCol;
 2896              		.loc 1 411 13 is_stmt 0
 2897 003c 0149     		li	s2,0
 411:lib/lcd/src/lcd.c **** 	int incx,incy,uRow,uCol;
 2898              		.loc 1 411 6
 2899 003e 8144     		li	s1,0
 425:lib/lcd/src/lcd.c **** 	{
 2900              		.loc 1 425 7
 2901 0040 814A     		li	s5,0
 2902              	.LVL338:
 2903              	.L112:
 427:lib/lcd/src/lcd.c **** 		xerr+=delta_x;
 2904              		.loc 1 427 3 is_stmt 1
 2905              	.LBB394:
 2906              	.LBB395:
 369:lib/lcd/src/lcd.c **** 	LCD_WR_DATA(color);
 2907              		.loc 1 369 2
 2908 0042 D286     		mv	a3,s4
GAS LISTING C:\Users\Kalle\AppData\Local\Temp\cc2hNkGN.s 			page 74


 2909 0044 4E86     		mv	a2,s3
 2910 0046 D285     		mv	a1,s4
 2911 0048 4E85     		mv	a0,s3
 2912 004a 97000000 		call	LCD_Address_Set
 2912      E7800000 
 2913              	.LVL339:
 370:lib/lcd/src/lcd.c **** } 
 2914              		.loc 1 370 2
 2915 0052 6285     		mv	a0,s8
 2916              	.LBE395:
 2917              	.LBE394:
 428:lib/lcd/src/lcd.c **** 		yerr+=delta_y;
 2918              		.loc 1 428 7 is_stmt 0
 2919 0054 DA94     		add	s1,s1,s6
 2920              	.LVL340:
 2921              	.LBB397:
 2922              	.LBB396:
 370:lib/lcd/src/lcd.c **** } 
 2923              		.loc 1 370 2
 2924 0056 97000000 		call	LCD_WR_DATA
 2924      E7800000 
 2925              	.LVL341:
 2926              	.LBE396:
 2927              	.LBE397:
 428:lib/lcd/src/lcd.c **** 		yerr+=delta_y;
 2928              		.loc 1 428 3 is_stmt 1
 429:lib/lcd/src/lcd.c **** 		if(xerr>distance)
 2929              		.loc 1 429 3
 432:lib/lcd/src/lcd.c **** 			uRow+=incx;
 2930              		.loc 1 432 4
 437:lib/lcd/src/lcd.c **** 			uCol+=incy;
 2931              		.loc 1 437 4
 429:lib/lcd/src/lcd.c **** 		if(xerr>distance)
 2932              		.loc 1 429 7 is_stmt 0
 2933 005e 5E99     		add	s2,s2,s7
 2934              	.LVL342:
 430:lib/lcd/src/lcd.c **** 		{
 2935              		.loc 1 430 3 is_stmt 1
 430:lib/lcd/src/lcd.c **** 		{
 2936              		.loc 1 430 5 is_stmt 0
 2937 0060 63549400 		ble	s1,s0,.L110
 432:lib/lcd/src/lcd.c **** 			uRow+=incx;
 2938              		.loc 1 432 8
 2939 0064 818C     		sub	s1,s1,s0
 2940              	.LVL343:
 433:lib/lcd/src/lcd.c **** 		}
 2941              		.loc 1 433 4 is_stmt 1
 433:lib/lcd/src/lcd.c **** 		}
 2942              		.loc 1 433 8 is_stmt 0
 2943 0066 E699     		add	s3,s3,s9
 2944              	.LVL344:
 2945              	.L110:
 435:lib/lcd/src/lcd.c **** 		{
 2946              		.loc 1 435 3 is_stmt 1
 435:lib/lcd/src/lcd.c **** 		{
 2947              		.loc 1 435 5 is_stmt 0
 2948 0068 63552401 		ble	s2,s0,.L111
GAS LISTING C:\Users\Kalle\AppData\Local\Temp\cc2hNkGN.s 			page 75


 437:lib/lcd/src/lcd.c **** 			uCol+=incy;
 2949              		.loc 1 437 8
 2950 006c 33098940 		sub	s2,s2,s0
 2951              	.LVL345:
 438:lib/lcd/src/lcd.c **** 		}
 2952              		.loc 1 438 4 is_stmt 1
 438:lib/lcd/src/lcd.c **** 		}
 2953              		.loc 1 438 8 is_stmt 0
 2954 0070 6A9A     		add	s4,s4,s10
 2955              	.LVL346:
 2956              	.L111:
 425:lib/lcd/src/lcd.c **** 	{
 2957              		.loc 1 425 24 discriminator 2
 2958 0072 93871A00 		addi	a5,s5,1
 2959              	.LVL347:
 425:lib/lcd/src/lcd.c **** 	{
 2960              		.loc 1 425 2 discriminator 2
 2961 0076 63848A00 		beq	s5,s0,.L123
 2962 007a BE8A     		mv	s5,a5
 2963 007c D9B7     		j	.L112
 2964              	.L123:
 441:lib/lcd/src/lcd.c **** 
 2965              		.loc 1 441 1
 2966 007e B250     		lw	ra,44(sp)
 2967              		.cfi_remember_state
 2968              		.cfi_restore 1
 2969 0080 2254     		lw	s0,40(sp)
 2970              		.cfi_restore 8
 2971              	.LVL348:
 2972 0082 9254     		lw	s1,36(sp)
 2973              		.cfi_restore 9
 2974              	.LVL349:
 2975 0084 0259     		lw	s2,32(sp)
 2976              		.cfi_restore 18
 2977              	.LVL350:
 2978 0086 F249     		lw	s3,28(sp)
 2979              		.cfi_restore 19
 2980              	.LVL351:
 2981 0088 624A     		lw	s4,24(sp)
 2982              		.cfi_restore 20
 2983              	.LVL352:
 2984 008a D24A     		lw	s5,20(sp)
 2985              		.cfi_restore 21
 2986 008c 424B     		lw	s6,16(sp)
 2987              		.cfi_restore 22
 2988              	.LVL353:
 2989 008e B24B     		lw	s7,12(sp)
 2990              		.cfi_restore 23
 2991              	.LVL354:
 2992 0090 224C     		lw	s8,8(sp)
 2993              		.cfi_restore 24
 2994              	.LVL355:
 2995 0092 924C     		lw	s9,4(sp)
 2996              		.cfi_restore 25
 2997              	.LVL356:
 2998 0094 024D     		lw	s10,0(sp)
 2999              		.cfi_restore 26
GAS LISTING C:\Users\Kalle\AppData\Local\Temp\cc2hNkGN.s 			page 76


 3000              	.LVL357:
 3001 0096 4561     		addi	sp,sp,48
 3002              	.LCFI41:
 3003              		.cfi_def_cfa_offset 0
 3004 0098 8280     		jr	ra
 3005              	.LVL358:
 3006              	.L121:
 3007              	.LCFI42:
 3008              		.cfi_restore_state
 418:lib/lcd/src/lcd.c **** 	else {incx=-1;delta_x=-delta_x;}
 3009              		.loc 1 418 7 is_stmt 1
 418:lib/lcd/src/lcd.c **** 	else {incx=-1;delta_x=-delta_x;}
 3010              		.loc 1 418 26 is_stmt 0
 3011 009a 814C     		li	s9,0
 418:lib/lcd/src/lcd.c **** 	else {incx=-1;delta_x=-delta_x;}
 3012              		.loc 1 418 10
 3013 009c E3090BF8 		beq	s6,zero,.L107
 419:lib/lcd/src/lcd.c **** 	if(delta_y>0)incy=1;
 3014              		.loc 1 419 8 is_stmt 1
 3015              	.LVL359:
 419:lib/lcd/src/lcd.c **** 	if(delta_y>0)incy=1;
 3016              		.loc 1 419 16
 419:lib/lcd/src/lcd.c **** 	if(delta_y>0)incy=1;
 3017              		.loc 1 419 23 is_stmt 0
 3018 00a0 330B6041 		neg	s6,s6
 3019              	.LVL360:
 419:lib/lcd/src/lcd.c **** 	if(delta_y>0)incy=1;
 3020              		.loc 1 419 12
 3021 00a4 FD5C     		li	s9,-1
 3022              	.LVL361:
 420:lib/lcd/src/lcd.c **** 	else if (delta_y==0)incy=0;          // Horizontal line
 3023              		.loc 1 420 2 is_stmt 1
 420:lib/lcd/src/lcd.c **** 	else if (delta_y==0)incy=0;          // Horizontal line
 3024              		.loc 1 420 19 is_stmt 0
 3025 00a6 054D     		li	s10,1
 420:lib/lcd/src/lcd.c **** 	else if (delta_y==0)incy=0;          // Horizontal line
 3026              		.loc 1 420 4
 3027 00a8 E34670F9 		bgt	s7,zero,.L108
 3028              	.L122:
 421:lib/lcd/src/lcd.c **** 	else {incy=-1;delta_y=-delta_y;}
 3029              		.loc 1 421 7 is_stmt 1
 421:lib/lcd/src/lcd.c **** 	else {incy=-1;delta_y=-delta_y;}
 3030              		.loc 1 421 26 is_stmt 0
 3031 00ac 014D     		li	s10,0
 421:lib/lcd/src/lcd.c **** 	else {incy=-1;delta_y=-delta_y;}
 3032              		.loc 1 421 10
 3033 00ae E3830BF8 		beq	s7,zero,.L108
 422:lib/lcd/src/lcd.c **** 	if(delta_x>delta_y)distance=delta_x; // Pick basic incremental axis
 3034              		.loc 1 422 8 is_stmt 1
 3035              	.LVL362:
 422:lib/lcd/src/lcd.c **** 	if(delta_x>delta_y)distance=delta_x; // Pick basic incremental axis
 3036              		.loc 1 422 16
 422:lib/lcd/src/lcd.c **** 	if(delta_x>delta_y)distance=delta_x; // Pick basic incremental axis
 3037              		.loc 1 422 23 is_stmt 0
 3038 00b2 B30B7041 		neg	s7,s7
 3039              	.LVL363:
 422:lib/lcd/src/lcd.c **** 	if(delta_x>delta_y)distance=delta_x; // Pick basic incremental axis
GAS LISTING C:\Users\Kalle\AppData\Local\Temp\cc2hNkGN.s 			page 77


 3040              		.loc 1 422 12
 3041 00b6 7D5D     		li	s10,-1
 3042 00b8 B5BF     		j	.L108
 3043              		.cfi_endproc
 3044              	.LFE19:
 3046              		.section	.text.LCD_DrawRectangle,"ax",@progbits
 3047              		.align	1
 3048              		.globl	LCD_DrawRectangle
 3050              	LCD_DrawRectangle:
 3051              	.LFB20:
 451:lib/lcd/src/lcd.c **** 	LCD_DrawLine(x1,y1,x2,y1,color);
 3052              		.loc 1 451 1 is_stmt 1
 3053              		.cfi_startproc
 3054              	.LVL364:
 452:lib/lcd/src/lcd.c **** 	LCD_DrawLine(x1,y1,x1,y2,color);
 3055              		.loc 1 452 2
 451:lib/lcd/src/lcd.c **** 	LCD_DrawLine(x1,y1,x2,y1,color);
 3056              		.loc 1 451 1 is_stmt 0
 3057 0000 0111     		addi	sp,sp,-32
 3058              	.LCFI43:
 3059              		.cfi_def_cfa_offset 32
 3060 0002 22CC     		sw	s0,24(sp)
 3061              		.cfi_offset 8, -8
 3062 0004 3684     		mv	s0,a3
 452:lib/lcd/src/lcd.c **** 	LCD_DrawLine(x1,y1,x1,y2,color);
 3063              		.loc 1 452 2
 3064 0006 AE86     		mv	a3,a1
 3065              	.LVL365:
 451:lib/lcd/src/lcd.c **** 	LCD_DrawLine(x1,y1,x2,y1,color);
 3066              		.loc 1 451 1
 3067 0008 06CE     		sw	ra,28(sp)
 3068 000a 26CA     		sw	s1,20(sp)
 3069 000c 4AC8     		sw	s2,16(sp)
 3070 000e 4EC6     		sw	s3,12(sp)
 3071 0010 52C4     		sw	s4,8(sp)
 3072              		.cfi_offset 1, -4
 3073              		.cfi_offset 9, -12
 3074              		.cfi_offset 18, -16
 3075              		.cfi_offset 19, -20
 3076              		.cfi_offset 20, -24
 451:lib/lcd/src/lcd.c **** 	LCD_DrawLine(x1,y1,x2,y1,color);
 3077              		.loc 1 451 1
 3078 0012 3A89     		mv	s2,a4
 3079 0014 328A     		mv	s4,a2
 3080 0016 AA89     		mv	s3,a0
 3081 0018 AE84     		mv	s1,a1
 452:lib/lcd/src/lcd.c **** 	LCD_DrawLine(x1,y1,x1,y2,color);
 3082              		.loc 1 452 2
 3083 001a 97000000 		call	LCD_DrawLine
 3083      E7800000 
 3084              	.LVL366:
 453:lib/lcd/src/lcd.c **** 	LCD_DrawLine(x1,y2,x2,y2,color);
 3085              		.loc 1 453 2 is_stmt 1
 3086 0022 4A87     		mv	a4,s2
 3087 0024 A286     		mv	a3,s0
 3088 0026 4E86     		mv	a2,s3
 3089 0028 A685     		mv	a1,s1
GAS LISTING C:\Users\Kalle\AppData\Local\Temp\cc2hNkGN.s 			page 78


 3090 002a 4E85     		mv	a0,s3
 3091 002c 97000000 		call	LCD_DrawLine
 3091      E7800000 
 3092              	.LVL367:
 454:lib/lcd/src/lcd.c **** 	LCD_DrawLine(x2,y1,x2,y2,color);
 3093              		.loc 1 454 2
 3094 0034 4A87     		mv	a4,s2
 3095 0036 A286     		mv	a3,s0
 3096 0038 5286     		mv	a2,s4
 3097 003a A285     		mv	a1,s0
 3098 003c 4E85     		mv	a0,s3
 3099 003e 97000000 		call	LCD_DrawLine
 3099      E7800000 
 3100              	.LVL368:
 455:lib/lcd/src/lcd.c **** }
 3101              		.loc 1 455 2
 3102 0046 A286     		mv	a3,s0
 456:lib/lcd/src/lcd.c **** 
 3103              		.loc 1 456 1 is_stmt 0
 3104 0048 6244     		lw	s0,24(sp)
 3105              		.cfi_restore 8
 3106              	.LVL369:
 3107 004a F240     		lw	ra,28(sp)
 3108              		.cfi_restore 1
 3109 004c B249     		lw	s3,12(sp)
 3110              		.cfi_restore 19
 3111              	.LVL370:
 455:lib/lcd/src/lcd.c **** }
 3112              		.loc 1 455 2
 3113 004e 4A87     		mv	a4,s2
 3114 0050 5286     		mv	a2,s4
 456:lib/lcd/src/lcd.c **** 
 3115              		.loc 1 456 1
 3116 0052 4249     		lw	s2,16(sp)
 3117              		.cfi_restore 18
 3118              	.LVL371:
 455:lib/lcd/src/lcd.c **** }
 3119              		.loc 1 455 2
 3120 0054 A685     		mv	a1,s1
 3121 0056 5285     		mv	a0,s4
 456:lib/lcd/src/lcd.c **** 
 3122              		.loc 1 456 1
 3123 0058 D244     		lw	s1,20(sp)
 3124              		.cfi_restore 9
 3125              	.LVL372:
 3126 005a 224A     		lw	s4,8(sp)
 3127              		.cfi_restore 20
 3128              	.LVL373:
 3129 005c 0561     		addi	sp,sp,32
 3130              	.LCFI44:
 3131              		.cfi_def_cfa_offset 0
 455:lib/lcd/src/lcd.c **** }
 3132              		.loc 1 455 2
 3133 005e 17030000 		tail	LCD_DrawLine
 3133      67000300 
 3134              	.LVL374:
 3135              		.cfi_endproc
GAS LISTING C:\Users\Kalle\AppData\Local\Temp\cc2hNkGN.s 			page 79


 3136              	.LFE20:
 3138              		.section	.text.Draw_Circle,"ax",@progbits
 3139              		.align	1
 3140              		.globl	Draw_Circle
 3142              	Draw_Circle:
 3143              	.LFB21:
 466:lib/lcd/src/lcd.c **** 	int a,b;
 3144              		.loc 1 466 1 is_stmt 1
 3145              		.cfi_startproc
 3146              	.LVL375:
 467:lib/lcd/src/lcd.c **** 	// int di;
 3147              		.loc 1 467 2
 469:lib/lcd/src/lcd.c **** 	while(a<=b)
 3148              		.loc 1 469 2
 469:lib/lcd/src/lcd.c **** 	while(a<=b)
 3149              		.loc 1 469 6
 481:lib/lcd/src/lcd.c **** 		{
 3150              		.loc 1 481 18 is_stmt 0
 3151 0000 B307C602 		mul	a5,a2,a2
 466:lib/lcd/src/lcd.c **** 	int a,b;
 3152              		.loc 1 466 1
 3153 0004 5D71     		addi	sp,sp,-80
 3154              	.LCFI45:
 3155              		.cfi_def_cfa_offset 80
 3156 0006 CAC0     		sw	s2,64(sp)
 3157 0008 4EDE     		sw	s3,60(sp)
 3158 000a 52DC     		sw	s4,56(sp)
 3159 000c 56DA     		sw	s5,52(sp)
 3160 000e 5AD8     		sw	s6,48(sp)
 3161 0010 86C6     		sw	ra,76(sp)
 3162 0012 A2C4     		sw	s0,72(sp)
 3163 0014 A6C2     		sw	s1,68(sp)
 3164 0016 5ED6     		sw	s7,44(sp)
 3165 0018 62D4     		sw	s8,40(sp)
 3166 001a 66D2     		sw	s9,36(sp)
 3167 001c 6AD0     		sw	s10,32(sp)
 3168 001e 6ECE     		sw	s11,28(sp)
 3169              		.cfi_offset 18, -16
 3170              		.cfi_offset 19, -20
 3171              		.cfi_offset 20, -24
 3172              		.cfi_offset 21, -28
 3173              		.cfi_offset 22, -32
 3174              		.cfi_offset 1, -4
 3175              		.cfi_offset 8, -8
 3176              		.cfi_offset 9, -12
 3177              		.cfi_offset 23, -36
 3178              		.cfi_offset 24, -40
 3179              		.cfi_offset 25, -44
 3180              		.cfi_offset 26, -48
 3181              		.cfi_offset 27, -52
 469:lib/lcd/src/lcd.c **** 	while(a<=b)
 3182              		.loc 1 469 7
 3183 0020 3289     		mv	s2,a2
 3184              	.LVL376:
 470:lib/lcd/src/lcd.c **** 	{
 3185              		.loc 1 470 2 is_stmt 1
 481:lib/lcd/src/lcd.c **** 		{
GAS LISTING C:\Users\Kalle\AppData\Local\Temp\cc2hNkGN.s 			page 80


 3186              		.loc 1 481 18 is_stmt 0
 3187 0022 3EC6     		sw	a5,12(sp)
 466:lib/lcd/src/lcd.c **** 	int a,b;
 3188              		.loc 1 466 1
 3189 0024 2A8B     		mv	s6,a0
 3190 0026 AE8A     		mv	s5,a1
 3191 0028 368A     		mv	s4,a3
 469:lib/lcd/src/lcd.c **** 	while(a<=b)
 3192              		.loc 1 469 3
 3193 002a 8149     		li	s3,0
 3194              	.LVL377:
 3195              	.L128:
 472:lib/lcd/src/lcd.c **** 		LCD_DrawPoint(x0+b,y0-a,color);  //0           
 3196              		.loc 1 472 3 is_stmt 1
 3197 002c 33843A41 		sub	s0,s5,s3
 3198 0030 330C2B41 		sub	s8,s6,s2
 3199              	.LVL378:
 3200              	.LBB398:
 3201              	.LBB399:
 369:lib/lcd/src/lcd.c **** 	LCD_WR_DATA(color);
 3202              		.loc 1 369 2
 3203 0034 A286     		mv	a3,s0
 3204 0036 A285     		mv	a1,s0
 3205 0038 6286     		mv	a2,s8
 3206 003a 6285     		mv	a0,s8
 3207 003c 97000000 		call	LCD_Address_Set
 3207      E7800000 
 3208              	.LVL379:
 370:lib/lcd/src/lcd.c **** } 
 3209              		.loc 1 370 2
 3210 0044 5285     		mv	a0,s4
 3211 0046 97000000 		call	LCD_WR_DATA
 3211      E7800000 
 3212              	.LVL380:
 3213              	.LBE399:
 3214              	.LBE398:
 473:lib/lcd/src/lcd.c **** 		LCD_DrawPoint(x0-a,y0+b,color);  //1                
 3215              		.loc 1 473 3
 3216 004e B30B6901 		add	s7,s2,s6
 3217              	.LVL381:
 3218              	.LBB400:
 3219              	.LBB401:
 369:lib/lcd/src/lcd.c **** 	LCD_WR_DATA(color);
 3220              		.loc 1 369 2
 3221 0052 A286     		mv	a3,s0
 3222 0054 A285     		mv	a1,s0
 3223 0056 5E86     		mv	a2,s7
 3224 0058 5E85     		mv	a0,s7
 3225 005a 97000000 		call	LCD_Address_Set
 3225      E7800000 
 3226              	.LVL382:
 370:lib/lcd/src/lcd.c **** } 
 3227              		.loc 1 370 2
 3228 0062 5285     		mv	a0,s4
 3229 0064 97000000 		call	LCD_WR_DATA
 3229      E7800000 
 3230              	.LVL383:
GAS LISTING C:\Users\Kalle\AppData\Local\Temp\cc2hNkGN.s 			page 81


 3231              	.LBE401:
 3232              	.LBE400:
 474:lib/lcd/src/lcd.c **** 		LCD_DrawPoint(x0-a,y0-b,color);  //2             
 3233              		.loc 1 474 3
 3234 006c B3043B41 		sub	s1,s6,s3
 3235 0070 B30C5901 		add	s9,s2,s5
 3236              	.LVL384:
 3237              	.LBB402:
 3238              	.LBB403:
 369:lib/lcd/src/lcd.c **** 	LCD_WR_DATA(color);
 3239              		.loc 1 369 2
 3240 0074 2686     		mv	a2,s1
 3241 0076 E686     		mv	a3,s9
 3242 0078 E685     		mv	a1,s9
 3243 007a 2685     		mv	a0,s1
 3244 007c 97000000 		call	LCD_Address_Set
 3244      E7800000 
 3245              	.LVL385:
 370:lib/lcd/src/lcd.c **** } 
 3246              		.loc 1 370 2
 3247 0084 5285     		mv	a0,s4
 3248 0086 97000000 		call	LCD_WR_DATA
 3248      E7800000 
 3249              	.LVL386:
 3250              	.LBE403:
 3251              	.LBE402:
 475:lib/lcd/src/lcd.c **** 		LCD_DrawPoint(x0+b,y0+a,color);  //4               
 3252              		.loc 1 475 3
 3253 008e B38D2A41 		sub	s11,s5,s2
 3254              	.LVL387:
 3255              	.LBB404:
 3256              	.LBB405:
 369:lib/lcd/src/lcd.c **** 	LCD_WR_DATA(color);
 3257              		.loc 1 369 2
 3258 0092 2686     		mv	a2,s1
 3259 0094 EE86     		mv	a3,s11
 3260 0096 EE85     		mv	a1,s11
 3261 0098 2685     		mv	a0,s1
 3262 009a 97000000 		call	LCD_Address_Set
 3262      E7800000 
 3263              	.LVL388:
 370:lib/lcd/src/lcd.c **** } 
 3264              		.loc 1 370 2
 3265 00a2 139D1900 		slli	s10,s3,1
 3266 00a6 5285     		mv	a0,s4
 3267 00a8 97000000 		call	LCD_WR_DATA
 3267      E7800000 
 3268              	.LVL389:
 3269              	.LBE405:
 3270              	.LBE404:
 476:lib/lcd/src/lcd.c **** 		LCD_DrawPoint(x0+a,y0-b,color);  //5
 3271              		.loc 1 476 3
 3272 00b0 6A94     		add	s0,s0,s10
 3273              	.LVL390:
 3274              	.LBB406:
 3275              	.LBB407:
 369:lib/lcd/src/lcd.c **** 	LCD_WR_DATA(color);
GAS LISTING C:\Users\Kalle\AppData\Local\Temp\cc2hNkGN.s 			page 82


 3276              		.loc 1 369 2
 3277 00b2 A286     		mv	a3,s0
 3278 00b4 5E86     		mv	a2,s7
 3279 00b6 A285     		mv	a1,s0
 3280 00b8 5E85     		mv	a0,s7
 3281 00ba 97000000 		call	LCD_Address_Set
 3281      E7800000 
 3282              	.LVL391:
 370:lib/lcd/src/lcd.c **** } 
 3283              		.loc 1 370 2
 3284 00c2 5285     		mv	a0,s4
 3285 00c4 97000000 		call	LCD_WR_DATA
 3285      E7800000 
 3286              	.LVL392:
 3287              	.LBE407:
 3288              	.LBE406:
 477:lib/lcd/src/lcd.c **** 		LCD_DrawPoint(x0+a,y0+b,color);             //6 
 3289              		.loc 1 477 3
 3290 00cc EA94     		add	s1,s1,s10
 3291              	.LVL393:
 3292              	.LBB408:
 3293              	.LBB409:
 369:lib/lcd/src/lcd.c **** 	LCD_WR_DATA(color);
 3294              		.loc 1 369 2
 3295 00ce EE86     		mv	a3,s11
 3296 00d0 2686     		mv	a2,s1
 3297 00d2 EE85     		mv	a1,s11
 3298 00d4 2685     		mv	a0,s1
 3299 00d6 97000000 		call	LCD_Address_Set
 3299      E7800000 
 3300              	.LVL394:
 370:lib/lcd/src/lcd.c **** } 
 3301              		.loc 1 370 2
 3302 00de 5285     		mv	a0,s4
 3303 00e0 97000000 		call	LCD_WR_DATA
 3303      E7800000 
 3304              	.LVL395:
 3305              	.LBE409:
 3306              	.LBE408:
 478:lib/lcd/src/lcd.c **** 		LCD_DrawPoint(x0-b,y0+a,color);             //7
 3307              		.loc 1 478 3
 3308              	.LBB410:
 3309              	.LBB411:
 369:lib/lcd/src/lcd.c **** 	LCD_WR_DATA(color);
 3310              		.loc 1 369 2
 3311 00e8 E686     		mv	a3,s9
 3312 00ea 2686     		mv	a2,s1
 3313 00ec E685     		mv	a1,s9
 3314 00ee 2685     		mv	a0,s1
 3315 00f0 97000000 		call	LCD_Address_Set
 3315      E7800000 
 3316              	.LVL396:
 370:lib/lcd/src/lcd.c **** } 
 3317              		.loc 1 370 2
 3318 00f8 5285     		mv	a0,s4
 3319 00fa 97000000 		call	LCD_WR_DATA
 3319      E7800000 
GAS LISTING C:\Users\Kalle\AppData\Local\Temp\cc2hNkGN.s 			page 83


 3320              	.LVL397:
 3321              	.LBE411:
 3322              	.LBE410:
 479:lib/lcd/src/lcd.c **** 		a++;
 3323              		.loc 1 479 3
 3324              	.LBB412:
 3325              	.LBB413:
 369:lib/lcd/src/lcd.c **** 	LCD_WR_DATA(color);
 3326              		.loc 1 369 2
 3327 0102 A286     		mv	a3,s0
 3328 0104 6286     		mv	a2,s8
 3329 0106 A285     		mv	a1,s0
 3330 0108 6285     		mv	a0,s8
 3331 010a 97000000 		call	LCD_Address_Set
 3331      E7800000 
 3332              	.LVL398:
 370:lib/lcd/src/lcd.c **** } 
 3333              		.loc 1 370 2
 3334 0112 5285     		mv	a0,s4
 3335 0114 97000000 		call	LCD_WR_DATA
 3335      E7800000 
 3336              	.LVL399:
 3337              	.LBE413:
 3338              	.LBE412:
 480:lib/lcd/src/lcd.c **** 		if((a*a+b*b)>(r*r)) // Determine whether the points to be drawn are too far away
 3339              		.loc 1 480 3
 480:lib/lcd/src/lcd.c **** 		if((a*a+b*b)>(r*r)) // Determine whether the points to be drawn are too far away
 3340              		.loc 1 480 4 is_stmt 0
 3341 011c 8509     		addi	s3,s3,1
 3342              	.LVL400:
 481:lib/lcd/src/lcd.c **** 		{
 3343              		.loc 1 481 3 is_stmt 1
 481:lib/lcd/src/lcd.c **** 		{
 3344              		.loc 1 481 12 is_stmt 0
 3345 011e 33072903 		mul	a4,s2,s2
 481:lib/lcd/src/lcd.c **** 		{
 3346              		.loc 1 481 8
 3347 0122 B3873903 		mul	a5,s3,s3
 481:lib/lcd/src/lcd.c **** 		{
 3348              		.loc 1 481 10
 3349 0126 BA97     		add	a5,a5,a4
 483:lib/lcd/src/lcd.c **** 		}
 3350              		.loc 1 483 5
 3351 0128 3247     		lw	a4,12(sp)
 3352 012a B327F700 		sgt	a5,a5,a4
 3353 012e 3309F940 		sub	s2,s2,a5
 3354              	.LVL401:
 470:lib/lcd/src/lcd.c **** 	{
 3355              		.loc 1 470 7
 3356 0132 E35D39EF 		bge	s2,s3,.L128
 486:lib/lcd/src/lcd.c **** 
 3357              		.loc 1 486 1
 3358 0136 B640     		lw	ra,76(sp)
 3359              		.cfi_restore 1
 3360 0138 2644     		lw	s0,72(sp)
 3361              		.cfi_restore 8
 3362 013a 9644     		lw	s1,68(sp)
GAS LISTING C:\Users\Kalle\AppData\Local\Temp\cc2hNkGN.s 			page 84


 3363              		.cfi_restore 9
 3364 013c 0649     		lw	s2,64(sp)
 3365              		.cfi_restore 18
 3366              	.LVL402:
 3367 013e F259     		lw	s3,60(sp)
 3368              		.cfi_restore 19
 3369              	.LVL403:
 3370 0140 625A     		lw	s4,56(sp)
 3371              		.cfi_restore 20
 3372              	.LVL404:
 3373 0142 D25A     		lw	s5,52(sp)
 3374              		.cfi_restore 21
 3375              	.LVL405:
 3376 0144 425B     		lw	s6,48(sp)
 3377              		.cfi_restore 22
 3378              	.LVL406:
 3379 0146 B25B     		lw	s7,44(sp)
 3380              		.cfi_restore 23
 3381 0148 225C     		lw	s8,40(sp)
 3382              		.cfi_restore 24
 3383 014a 925C     		lw	s9,36(sp)
 3384              		.cfi_restore 25
 3385 014c 025D     		lw	s10,32(sp)
 3386              		.cfi_restore 26
 3387 014e F24D     		lw	s11,28(sp)
 3388              		.cfi_restore 27
 3389 0150 6161     		addi	sp,sp,80
 3390              	.LCFI46:
 3391              		.cfi_def_cfa_offset 0
 3392 0152 8280     		jr	ra
 3393              		.cfi_endproc
 3394              	.LFE21:
 3396              		.section	.text.LCD_ShowChar,"ax",@progbits
 3397              		.align	1
 3398              		.globl	LCD_ShowChar
 3400              	LCD_ShowChar:
 3401              	.LFB22:
 498:lib/lcd/src/lcd.c ****     u8 temp;
 3402              		.loc 1 498 1 is_stmt 1
 3403              		.cfi_startproc
 3404              	.LVL407:
 499:lib/lcd/src/lcd.c ****     u8 pos,t;
 3405              		.loc 1 499 5
 500:lib/lcd/src/lcd.c **** 	  u16 x0=x;    
 3406              		.loc 1 500 5
 501:lib/lcd/src/lcd.c ****     if(x>LCD_W-8 || y>LCD_H-16)return;	// Outside of display area
 3407              		.loc 1 501 4
 502:lib/lcd/src/lcd.c **** 	num=num-' ';                        // Get offset value
 3408              		.loc 1 502 5
 502:lib/lcd/src/lcd.c **** 	num=num-' ';                        // Get offset value
 3409              		.loc 1 502 7 is_stmt 0
 3410 0000 93078009 		li	a5,152
 3411 0004 63E6A700 		bgtu	a0,a5,.L131
 502:lib/lcd/src/lcd.c **** 	num=num-' ';                        // Get offset value
 3412              		.loc 1 502 18 discriminator 2
 3413 0008 93070004 		li	a5,64
 3414 000c 63F3B700 		bleu	a1,a5,.L133
GAS LISTING C:\Users\Kalle\AppData\Local\Temp\cc2hNkGN.s 			page 85


 3415              	.L131:
 3416              		.loc 1 534 1
 3417 0010 8280     		ret
 3418              	.L133:
 3419 0012 17030000 		tail	LCD_ShowChar.part.2
 3419      67000300 
 3420              	.LVL408:
 3421              		.cfi_endproc
 3422              	.LFE22:
 3424              		.section	.text.LCD_ShowString,"ax",@progbits
 3425              		.align	1
 3426              		.globl	LCD_ShowString
 3428              	LCD_ShowString:
 3429              	.LFB23:
 535:lib/lcd/src/lcd.c **** 
 536:lib/lcd/src/lcd.c **** 
 537:lib/lcd/src/lcd.c **** /*
 538:lib/lcd/src/lcd.c ****   Function description: display string
 539:lib/lcd/src/lcd.c ****   Entry data: x, y:  start point coordinates
 540:lib/lcd/src/lcd.c ****                 *p:  string start address
 541:lib/lcd/src/lcd.c ****   Return value: None
 542:lib/lcd/src/lcd.c ****   Note: If character position is outside the display area
 543:lib/lcd/src/lcd.c ****         display is cleared in red color and the character
 544:lib/lcd/src/lcd.c **** 		position is set to (0,0)
 545:lib/lcd/src/lcd.c **** */
 546:lib/lcd/src/lcd.c **** void LCD_ShowString(u16 x,u16 y,const u8 *p,u16 color)
 547:lib/lcd/src/lcd.c **** {         
 3430              		.loc 1 547 1 is_stmt 1
 3431              		.cfi_startproc
 3432              	.LVL409:
 548:lib/lcd/src/lcd.c ****     while(*p!='\0')
 3433              		.loc 1 548 5
 3434              		.loc 1 548 10 is_stmt 0
 3435 0000 83470600 		lbu	a5,0(a2)
 3436 0004 C9C7     		beq	a5,zero,.L144
 547:lib/lcd/src/lcd.c ****     while(*p!='\0')
 3437              		.loc 1 547 1
 3438 0006 0111     		addi	sp,sp,-32
 3439              	.LCFI47:
 3440              		.cfi_def_cfa_offset 32
 3441 0008 5AC0     		sw	s6,0(sp)
 3442              		.cfi_offset 22, -32
 549:lib/lcd/src/lcd.c ****     {       
 550:lib/lcd/src/lcd.c ****         if(x>LCD_W-8){x=0;y+=16;}
 551:lib/lcd/src/lcd.c ****         if(y>LCD_H-16){y=x=0;LCD_Clear(RED);}
 3443              		.loc 1 551 30
 3444 000a 416B     		li	s6,65536
 547:lib/lcd/src/lcd.c ****     while(*p!='\0')
 3445              		.loc 1 547 1
 3446 000c 22CC     		sw	s0,24(sp)
 3447 000e 26CA     		sw	s1,20(sp)
 3448 0010 4AC8     		sw	s2,16(sp)
 3449 0012 4EC6     		sw	s3,12(sp)
 3450 0014 52C4     		sw	s4,8(sp)
 3451 0016 56C2     		sw	s5,4(sp)
 3452 0018 06CE     		sw	ra,28(sp)
 3453              		.cfi_offset 8, -8
GAS LISTING C:\Users\Kalle\AppData\Local\Temp\cc2hNkGN.s 			page 86


 3454              		.cfi_offset 9, -12
 3455              		.cfi_offset 18, -16
 3456              		.cfi_offset 19, -20
 3457              		.cfi_offset 20, -24
 3458              		.cfi_offset 21, -28
 3459              		.cfi_offset 1, -4
 3460 001a 3284     		mv	s0,a2
 3461 001c 2A89     		mv	s2,a0
 3462 001e AE84     		mv	s1,a1
 3463 0020 B689     		mv	s3,a3
 550:lib/lcd/src/lcd.c ****         if(y>LCD_H-16){y=x=0;LCD_Clear(RED);}
 3464              		.loc 1 550 11
 3465 0022 930A8009 		li	s5,152
 3466              		.loc 1 551 30
 3467 0026 130B0B80 		addi	s6,s6,-2048
 3468              		.loc 1 551 11
 3469 002a 130A0004 		li	s4,64
 3470              	.LVL410:
 3471              	.L135:
 550:lib/lcd/src/lcd.c ****         if(y>LCD_H-16){y=x=0;LCD_Clear(RED);}
 3472              		.loc 1 550 9 is_stmt 1
 550:lib/lcd/src/lcd.c ****         if(y>LCD_H-16){y=x=0;LCD_Clear(RED);}
 3473              		.loc 1 550 23
 550:lib/lcd/src/lcd.c ****         if(y>LCD_H-16){y=x=0;LCD_Clear(RED);}
 3474              		.loc 1 550 27
 3475              		.loc 1 551 9
 550:lib/lcd/src/lcd.c ****         if(y>LCD_H-16){y=x=0;LCD_Clear(RED);}
 3476              		.loc 1 550 11 is_stmt 0
 3477 002e 63FE2A03 		bleu	s2,s5,.L136
 550:lib/lcd/src/lcd.c ****         if(y>LCD_H-16){y=x=0;LCD_Clear(RED);}
 3478              		.loc 1 550 28 discriminator 1
 3479 0032 C104     		addi	s1,s1,16
 3480              	.LVL411:
 3481              		.loc 1 551 9 is_stmt 1 discriminator 1
 552:lib/lcd/src/lcd.c ****         LCD_ShowChar(x,y,*p,0,color);
 3482              		.loc 1 552 9 discriminator 1
 551:lib/lcd/src/lcd.c ****         LCD_ShowChar(x,y,*p,0,color);
 3483              		.loc 1 551 11 is_stmt 0 discriminator 1
 3484 0034 63629A04 		bgtu	s1,s4,.L137
 3485              		.loc 1 552 9
 3486 0038 03460400 		lbu	a2,0(s0)
 3487              	.LVL412:
 3488              	.LBB414:
 3489              	.LBB415:
 499:lib/lcd/src/lcd.c ****     u8 pos,t;
 3490              		.loc 1 499 5 is_stmt 1
 500:lib/lcd/src/lcd.c **** 	  u16 x0=x;    
 3491              		.loc 1 500 5
 501:lib/lcd/src/lcd.c ****     if(x>LCD_W-8 || y>LCD_H-16)return;	// Outside of display area
 3492              		.loc 1 501 4
 502:lib/lcd/src/lcd.c **** 	num=num-' ';                        // Get offset value
 3493              		.loc 1 502 5
 3494              	.LBE415:
 3495              	.LBE414:
 3496              		.loc 1 552 9 is_stmt 0
 3497 003c 2149     		li	s2,8
 550:lib/lcd/src/lcd.c ****         if(y>LCD_H-16){y=x=0;LCD_Clear(RED);}
GAS LISTING C:\Users\Kalle\AppData\Local\Temp\cc2hNkGN.s 			page 87


 3498              		.loc 1 550 24
 3499 003e 0145     		li	a0,0
 3500              	.LVL413:
 3501              	.L138:
 3502              	.LBB420:
 3503              	.LBB416:
 3504 0040 4E87     		mv	a4,s3
 3505 0042 8146     		li	a3,0
 3506 0044 A685     		mv	a1,s1
 3507              	.LBE416:
 3508              	.LBE420:
 553:lib/lcd/src/lcd.c ****         x+=8;
 554:lib/lcd/src/lcd.c ****         p++;
 3509              		.loc 1 554 10
 3510 0046 0504     		addi	s0,s0,1
 3511              	.LVL414:
 3512              	.LBB421:
 3513              	.LBB417:
 3514 0048 97000000 		call	LCD_ShowChar.part.2
 3514      E7800000 
 3515              	.LVL415:
 3516              	.LBE417:
 3517              	.LBE421:
 553:lib/lcd/src/lcd.c ****         x+=8;
 3518              		.loc 1 553 9 is_stmt 1
 3519              		.loc 1 554 9
 548:lib/lcd/src/lcd.c ****     {       
 3520              		.loc 1 548 10 is_stmt 0
 3521 0050 83470400 		lbu	a5,0(s0)
 3522 0054 E9FF     		bne	a5,zero,.L135
 555:lib/lcd/src/lcd.c ****     }  
 556:lib/lcd/src/lcd.c **** }
 3523              		.loc 1 556 1
 3524 0056 F240     		lw	ra,28(sp)
 3525              		.cfi_remember_state
 3526              		.cfi_restore 1
 3527 0058 6244     		lw	s0,24(sp)
 3528              		.cfi_restore 8
 3529              	.LVL416:
 3530 005a D244     		lw	s1,20(sp)
 3531              		.cfi_restore 9
 3532              	.LVL417:
 3533 005c 4249     		lw	s2,16(sp)
 3534              		.cfi_restore 18
 3535 005e B249     		lw	s3,12(sp)
 3536              		.cfi_restore 19
 3537              	.LVL418:
 3538 0060 224A     		lw	s4,8(sp)
 3539              		.cfi_restore 20
 3540 0062 924A     		lw	s5,4(sp)
 3541              		.cfi_restore 21
 3542 0064 024B     		lw	s6,0(sp)
 3543              		.cfi_restore 22
 3544 0066 0561     		addi	sp,sp,32
 3545              	.LCFI48:
 3546              		.cfi_def_cfa_offset 0
 3547 0068 8280     		jr	ra
GAS LISTING C:\Users\Kalle\AppData\Local\Temp\cc2hNkGN.s 			page 88


 3548              	.LVL419:
 3549              	.L136:
 3550              	.LCFI49:
 3551              		.cfi_restore_state
 552:lib/lcd/src/lcd.c ****         x+=8;
 3552              		.loc 1 552 9 is_stmt 1
 551:lib/lcd/src/lcd.c ****         LCD_ShowChar(x,y,*p,0,color);
 3553              		.loc 1 551 11 is_stmt 0
 3554 006a 63679A00 		bgtu	s1,s4,.L137
 552:lib/lcd/src/lcd.c ****         x+=8;
 3555              		.loc 1 552 9
 3556 006e 4A85     		mv	a0,s2
 3557 0070 03460400 		lbu	a2,0(s0)
 3558              	.LVL420:
 3559              	.LBB422:
 3560              	.LBB418:
 499:lib/lcd/src/lcd.c ****     u8 pos,t;
 3561              		.loc 1 499 5 is_stmt 1
 500:lib/lcd/src/lcd.c **** 	  u16 x0=x;    
 3562              		.loc 1 500 5
 501:lib/lcd/src/lcd.c ****     if(x>LCD_W-8 || y>LCD_H-16)return;	// Outside of display area
 3563              		.loc 1 501 4
 502:lib/lcd/src/lcd.c **** 	num=num-' ';                        // Get offset value
 3564              		.loc 1 502 5
 3565              	.LBE418:
 3566              	.LBE422:
 552:lib/lcd/src/lcd.c ****         x+=8;
 3567              		.loc 1 552 9 is_stmt 0
 3568 0074 2109     		addi	s2,s2,8
 3569              	.LVL421:
 3570 0076 E9B7     		j	.L138
 3571              	.LVL422:
 3572              	.L137:
 551:lib/lcd/src/lcd.c ****         LCD_ShowChar(x,y,*p,0,color);
 3573              		.loc 1 551 24 is_stmt 1 discriminator 1
 551:lib/lcd/src/lcd.c ****         LCD_ShowChar(x,y,*p,0,color);
 3574              		.loc 1 551 30 discriminator 1
 3575 0078 5A85     		mv	a0,s6
 3576 007a 97000000 		call	LCD_Clear
 3576      E7800000 
 3577              	.LVL423:
 552:lib/lcd/src/lcd.c ****         x+=8;
 3578              		.loc 1 552 9 discriminator 1
 3579 0082 2149     		li	s2,8
 3580 0084 03460400 		lbu	a2,0(s0)
 3581              	.LVL424:
 3582              	.LBB423:
 3583              	.LBB419:
 499:lib/lcd/src/lcd.c ****     u8 pos,t;
 3584              		.loc 1 499 5 discriminator 1
 500:lib/lcd/src/lcd.c **** 	  u16 x0=x;    
 3585              		.loc 1 500 5 discriminator 1
 501:lib/lcd/src/lcd.c ****     if(x>LCD_W-8 || y>LCD_H-16)return;	// Outside of display area
 3586              		.loc 1 501 4 discriminator 1
 502:lib/lcd/src/lcd.c **** 	num=num-' ';                        // Get offset value
 3587              		.loc 1 502 5 discriminator 1
 3588              	.LBE419:
GAS LISTING C:\Users\Kalle\AppData\Local\Temp\cc2hNkGN.s 			page 89


 3589              	.LBE423:
 551:lib/lcd/src/lcd.c ****         LCD_ShowChar(x,y,*p,0,color);
 3590              		.loc 1 551 25 is_stmt 0 discriminator 1
 3591 0088 8144     		li	s1,0
 552:lib/lcd/src/lcd.c ****         x+=8;
 3592              		.loc 1 552 9 discriminator 1
 3593 008a 0145     		li	a0,0
 3594 008c 55BF     		j	.L138
 3595              	.LVL425:
 3596              	.L144:
 3597              	.LCFI50:
 3598              		.cfi_def_cfa_offset 0
 3599              		.cfi_restore 1
 3600              		.cfi_restore 8
 3601              		.cfi_restore 9
 3602              		.cfi_restore 18
 3603              		.cfi_restore 19
 3604              		.cfi_restore 20
 3605              		.cfi_restore 21
 3606              		.cfi_restore 22
 3607 008e 8280     		ret
 3608              		.cfi_endproc
 3609              	.LFE23:
 3611              		.section	.text.LCD_ShowStr,"ax",@progbits
 3612              		.align	1
 3613              		.globl	LCD_ShowStr
 3615              	LCD_ShowStr:
 3616              	.LFB24:
 557:lib/lcd/src/lcd.c **** 
 558:lib/lcd/src/lcd.c **** 
 559:lib/lcd/src/lcd.c **** /*
 560:lib/lcd/src/lcd.c ****   Function description: display string
 561:lib/lcd/src/lcd.c ****   Entry data: x, y:  start point coordinates
 562:lib/lcd/src/lcd.c ****                 *p:  string start address
 563:lib/lcd/src/lcd.c ****               mode:  1: transparent mode
 564:lib/lcd/src/lcd.c ****                      0: non-transparent mode
 565:lib/lcd/src/lcd.c ****   Return value: None
 566:lib/lcd/src/lcd.c ****   Note: If character position is outside the display area
 567:lib/lcd/src/lcd.c ****         the character is not displayed
 568:lib/lcd/src/lcd.c **** */
 569:lib/lcd/src/lcd.c **** void LCD_ShowStr(u16 x,u16 y,const u8 *p,u16 color, u8 mode)
 570:lib/lcd/src/lcd.c **** {         
 3617              		.loc 1 570 1 is_stmt 1
 3618              		.cfi_startproc
 3619              	.LVL426:
 571:lib/lcd/src/lcd.c ****     while(*p!='\0')
 3620              		.loc 1 571 5
 570:lib/lcd/src/lcd.c ****     while(*p!='\0')
 3621              		.loc 1 570 1 is_stmt 0
 3622 0000 0111     		addi	sp,sp,-32
 3623              	.LCFI51:
 3624              		.cfi_def_cfa_offset 32
 3625 0002 22CC     		sw	s0,24(sp)
 3626 0004 06CE     		sw	ra,28(sp)
 3627 0006 26CA     		sw	s1,20(sp)
 3628 0008 4AC8     		sw	s2,16(sp)
 3629 000a 4EC6     		sw	s3,12(sp)
GAS LISTING C:\Users\Kalle\AppData\Local\Temp\cc2hNkGN.s 			page 90


 3630 000c 52C4     		sw	s4,8(sp)
 3631 000e 56C2     		sw	s5,4(sp)
 3632 0010 5AC0     		sw	s6,0(sp)
 3633              		.cfi_offset 8, -8
 3634              		.cfi_offset 1, -4
 3635              		.cfi_offset 9, -12
 3636              		.cfi_offset 18, -16
 3637              		.cfi_offset 19, -20
 3638              		.cfi_offset 20, -24
 3639              		.cfi_offset 21, -28
 3640              		.cfi_offset 22, -32
 570:lib/lcd/src/lcd.c ****     while(*p!='\0')
 3641              		.loc 1 570 1
 3642 0012 3284     		mv	s0,a2
 3643              		.loc 1 571 11
 3644 0014 03460600 		lbu	a2,0(a2)
 3645              	.LVL427:
 3646              		.loc 1 571 10
 3647 0018 1DCA     		beq	a2,zero,.L147
 3648 001a 2A89     		mv	s2,a0
 3649 001c AE84     		mv	s1,a1
 3650 001e 368B     		mv	s6,a3
 3651 0020 BA8A     		mv	s5,a4
 3652 0022 93098009 		li	s3,152
 3653 0026 130A0004 		li	s4,64
 3654              	.LVL428:
 3655              	.L148:
 572:lib/lcd/src/lcd.c ****     {       
 573:lib/lcd/src/lcd.c ****         if(x>LCD_W-8){x=0;y+=16;}
 3656              		.loc 1 573 9 is_stmt 1
 3657              		.loc 1 573 23
 3658              		.loc 1 573 27
 574:lib/lcd/src/lcd.c ****         if(y>LCD_H-16) break;
 3659              		.loc 1 574 9
 573:lib/lcd/src/lcd.c ****         if(y>LCD_H-16) break;
 3660              		.loc 1 573 11 is_stmt 0
 3661 002a 63FC2903 		bleu	s2,s3,.L149
 573:lib/lcd/src/lcd.c ****         if(y>LCD_H-16) break;
 3662              		.loc 1 573 28 discriminator 1
 3663 002e C104     		addi	s1,s1,16
 3664              	.LVL429:
 3665              		.loc 1 574 9 is_stmt 1 discriminator 1
 3666              		.loc 1 574 11 is_stmt 0 discriminator 1
 3667 0030 636F9A00 		bgtu	s1,s4,.L147
 3668              		.loc 1 574 11
 3669 0034 2149     		li	s2,8
 573:lib/lcd/src/lcd.c ****         if(y>LCD_H-16) break;
 3670              		.loc 1 573 24
 3671 0036 0145     		li	a0,0
 3672              	.LVL430:
 3673              	.L151:
 3674              	.LBB424:
 3675              	.LBB425:
 3676 0038 5A87     		mv	a4,s6
 3677 003a D686     		mv	a3,s5
 3678 003c A685     		mv	a1,s1
 3679              	.LBE425:
GAS LISTING C:\Users\Kalle\AppData\Local\Temp\cc2hNkGN.s 			page 91


 3680              	.LBE424:
 575:lib/lcd/src/lcd.c ****         LCD_ShowChar(x,y,*p,mode,color);
 576:lib/lcd/src/lcd.c ****         x+=8;
 577:lib/lcd/src/lcd.c ****         p++;
 3681              		.loc 1 577 10
 3682 003e 0504     		addi	s0,s0,1
 3683              	.LVL431:
 3684              	.LBB427:
 3685              	.LBB426:
 3686 0040 97000000 		call	LCD_ShowChar.part.2
 3686      E7800000 
 3687              	.LVL432:
 3688              	.LBE426:
 3689              	.LBE427:
 576:lib/lcd/src/lcd.c ****         p++;
 3690              		.loc 1 576 9 is_stmt 1
 3691              		.loc 1 577 9
 571:lib/lcd/src/lcd.c ****     {       
 3692              		.loc 1 571 11 is_stmt 0
 3693 0048 03460400 		lbu	a2,0(s0)
 571:lib/lcd/src/lcd.c ****     {       
 3694              		.loc 1 571 10
 3695 004c 79FE     		bne	a2,zero,.L148
 3696              	.LVL433:
 3697              	.L147:
 578:lib/lcd/src/lcd.c ****     }  
 579:lib/lcd/src/lcd.c **** }
 3698              		.loc 1 579 1
 3699 004e F240     		lw	ra,28(sp)
 3700              		.cfi_remember_state
 3701              		.cfi_restore 1
 3702 0050 6244     		lw	s0,24(sp)
 3703              		.cfi_restore 8
 3704              	.LVL434:
 3705 0052 D244     		lw	s1,20(sp)
 3706              		.cfi_restore 9
 3707 0054 4249     		lw	s2,16(sp)
 3708              		.cfi_restore 18
 3709 0056 B249     		lw	s3,12(sp)
 3710              		.cfi_restore 19
 3711 0058 224A     		lw	s4,8(sp)
 3712              		.cfi_restore 20
 3713 005a 924A     		lw	s5,4(sp)
 3714              		.cfi_restore 21
 3715 005c 024B     		lw	s6,0(sp)
 3716              		.cfi_restore 22
 3717 005e 0561     		addi	sp,sp,32
 3718              	.LCFI52:
 3719              		.cfi_def_cfa_offset 0
 3720 0060 8280     		jr	ra
 3721              	.LVL435:
 3722              	.L149:
 3723              	.LCFI53:
 3724              		.cfi_restore_state
 574:lib/lcd/src/lcd.c ****         LCD_ShowChar(x,y,*p,mode,color);
 3725              		.loc 1 574 11
 3726 0062 E3669AFE 		bgtu	s1,s4,.L147
GAS LISTING C:\Users\Kalle\AppData\Local\Temp\cc2hNkGN.s 			page 92


 3727 0066 4A85     		mv	a0,s2
 3728 0068 2109     		addi	s2,s2,8
 3729              	.LVL436:
 3730 006a F9B7     		j	.L151
 3731              		.cfi_endproc
 3732              	.LFE24:
 3734              		.section	.text.mypow,"ax",@progbits
 3735              		.align	1
 3736              		.globl	mypow
 3738              	mypow:
 3739              	.LFB25:
 580:lib/lcd/src/lcd.c **** 
 581:lib/lcd/src/lcd.c **** 
 582:lib/lcd/src/lcd.c **** /*
 583:lib/lcd/src/lcd.c ****   Function description: Calculate m^n
 584:lib/lcd/src/lcd.c ****   Entry data: m: base
 585:lib/lcd/src/lcd.c ****               n: exponent
 586:lib/lcd/src/lcd.c ****   Return value: m^n
 587:lib/lcd/src/lcd.c **** */
 588:lib/lcd/src/lcd.c **** u32 mypow(u8 m,u8 n)
 589:lib/lcd/src/lcd.c **** {
 3740              		.loc 1 589 1 is_stmt 1
 3741              		.cfi_startproc
 3742              	.LVL437:
 590:lib/lcd/src/lcd.c **** 	u32 result=1;	 
 3743              		.loc 1 590 2
 591:lib/lcd/src/lcd.c **** 	while(n--)result*=m;    
 3744              		.loc 1 591 2
 3745              		.loc 1 591 9 is_stmt 0
 3746 0000 9387F5FF 		addi	a5,a1,-1
 3747 0004 93F7F70F 		andi	a5,a5,0xff
 3748              	.LVL438:
 590:lib/lcd/src/lcd.c **** 	u32 result=1;	 
 3749              		.loc 1 590 6
 3750 0008 0547     		li	a4,1
 3751              		.loc 1 591 7
 3752 000a 91C9     		beq	a1,zero,.L155
 3753 000c 9306F00F 		li	a3,255
 3754              	.LVL439:
 3755              	.L157:
 3756              		.loc 1 591 12 is_stmt 1 discriminator 2
 3757              		.loc 1 591 9 is_stmt 0 discriminator 2
 3758 0010 FD17     		addi	a5,a5,-1
 3759              	.LVL440:
 3760 0012 93F7F70F 		andi	a5,a5,0xff
 3761              		.loc 1 591 18 discriminator 2
 3762 0016 3307A702 		mul	a4,a4,a0
 3763              	.LVL441:
 3764              		.loc 1 591 7 discriminator 2
 3765 001a E39BD7FE 		bne	a5,a3,.L157
 3766              	.LVL442:
 3767              	.L155:
 592:lib/lcd/src/lcd.c **** 	return result;
 593:lib/lcd/src/lcd.c **** }
 3768              		.loc 1 593 1
 3769 001e 3A85     		mv	a0,a4
 3770              	.LVL443:
GAS LISTING C:\Users\Kalle\AppData\Local\Temp\cc2hNkGN.s 			page 93


 3771 0020 8280     		ret
 3772              		.cfi_endproc
 3773              	.LFE25:
 3775              		.section	.text.LCD_ShowNum,"ax",@progbits
 3776              		.align	1
 3777              		.globl	LCD_ShowNum
 3779              	LCD_ShowNum:
 3780              	.LFB26:
 594:lib/lcd/src/lcd.c **** 
 595:lib/lcd/src/lcd.c **** 
 596:lib/lcd/src/lcd.c **** /*
 597:lib/lcd/src/lcd.c ****   Function description: display 16-bit integer numbers
 598:lib/lcd/src/lcd.c ****   Entry data: x, y:  start point coordinates
 599:lib/lcd/src/lcd.c ****                num:  number to display
 600:lib/lcd/src/lcd.c ****                len:  number of digits to display
 601:lib/lcd/src/lcd.c ****   Return value: None
 602:lib/lcd/src/lcd.c **** */
 603:lib/lcd/src/lcd.c **** void LCD_ShowNum(u16 x,u16 y,u16 num,u8 len,u16 color)
 604:lib/lcd/src/lcd.c **** {         	
 3781              		.loc 1 604 1 is_stmt 1
 3782              		.cfi_startproc
 3783              	.LVL444:
 605:lib/lcd/src/lcd.c **** 	u8 t,temp;
 3784              		.loc 1 605 2
 606:lib/lcd/src/lcd.c **** 	u8 enshow=0;
 3785              		.loc 1 606 2
 607:lib/lcd/src/lcd.c **** 	for(t=0;t<len;t++)
 3786              		.loc 1 607 2
 604:lib/lcd/src/lcd.c **** 	u8 t,temp;
 3787              		.loc 1 604 1 is_stmt 0
 3788 0000 5D71     		addi	sp,sp,-80
 3789              	.LCFI54:
 3790              		.cfi_def_cfa_offset 80
 3791 0002 86C6     		sw	ra,76(sp)
 3792 0004 A2C4     		sw	s0,72(sp)
 3793 0006 A6C2     		sw	s1,68(sp)
 3794 0008 CAC0     		sw	s2,64(sp)
 3795 000a 4EDE     		sw	s3,60(sp)
 3796 000c 52DC     		sw	s4,56(sp)
 3797 000e 56DA     		sw	s5,52(sp)
 3798 0010 5AD8     		sw	s6,48(sp)
 3799 0012 5ED6     		sw	s7,44(sp)
 3800 0014 62D4     		sw	s8,40(sp)
 3801 0016 66D2     		sw	s9,36(sp)
 3802 0018 6AD0     		sw	s10,32(sp)
 3803 001a 6ECE     		sw	s11,28(sp)
 3804              		.cfi_offset 1, -4
 3805              		.cfi_offset 8, -8
 3806              		.cfi_offset 9, -12
 3807              		.cfi_offset 18, -16
 3808              		.cfi_offset 19, -20
 3809              		.cfi_offset 20, -24
 3810              		.cfi_offset 21, -28
 3811              		.cfi_offset 22, -32
 3812              		.cfi_offset 23, -36
 3813              		.cfi_offset 24, -40
 3814              		.cfi_offset 25, -44
GAS LISTING C:\Users\Kalle\AppData\Local\Temp\cc2hNkGN.s 			page 94


 3815              		.cfi_offset 26, -48
 3816              		.cfi_offset 27, -52
 604:lib/lcd/src/lcd.c **** 	u8 t,temp;
 3817              		.loc 1 604 1
 3818 001c 3AC6     		sw	a4,12(sp)
 3819              		.loc 1 607 2
 3820 001e C9C2     		beq	a3,zero,.L160
 3821 0020 9384E6FF 		addi	s1,a3,-2
 3822 0024 2A8A     		mv	s4,a0
 3823 0026 AE8D     		mv	s11,a1
 3824 0028 B28C     		mv	s9,a2
 3825 002a 93F4F40F 		andi	s1,s1,0xff
 3826 002e 814A     		li	s5,0
 606:lib/lcd/src/lcd.c **** 	u8 enshow=0;
 3827              		.loc 1 606 5
 3828 0030 014B     		li	s6,0
 3829              	.LBB428:
 3830              	.LBB429:
 591:lib/lcd/src/lcd.c **** 	return result;
 3831              		.loc 1 591 7
 3832 0032 1304F00F 		li	s0,255
 3833              	.LBE429:
 3834              	.LBE428:
 608:lib/lcd/src/lcd.c **** 	{
 609:lib/lcd/src/lcd.c **** 		temp=(num/mypow(10,len-t-1))%10;
 3835              		.loc 1 609 31
 3836 0036 294C     		li	s8,10
 3837              	.LBB432:
 3838              	.LBB433:
 502:lib/lcd/src/lcd.c **** 	num=num-' ';                        // Get offset value
 3839              		.loc 1 502 7
 3840 0038 130D8009 		li	s10,152
 502:lib/lcd/src/lcd.c **** 	num=num-' ';                        // Get offset value
 3841              		.loc 1 502 18
 3842 003c 13090004 		li	s2,64
 3843              	.LBE433:
 3844              	.LBE432:
 610:lib/lcd/src/lcd.c **** 		if(enshow==0&&t<(len-1))
 3845              		.loc 1 610 23
 3846 0040 9389F6FF 		addi	s3,a3,-1
 607:lib/lcd/src/lcd.c **** 	{
 3847              		.loc 1 607 2
 3848 0044 930BE00F 		li	s7,254
 3849              	.LVL445:
 3850              	.L166:
 609:lib/lcd/src/lcd.c **** 		if(enshow==0&&t<(len-1))
 3851              		.loc 1 609 3 is_stmt 1
 3852              	.LBB435:
 3853              	.LBB430:
 590:lib/lcd/src/lcd.c **** 	while(n--)result*=m;    
 3854              		.loc 1 590 2
 591:lib/lcd/src/lcd.c **** 	return result;
 3855              		.loc 1 591 2
 591:lib/lcd/src/lcd.c **** 	return result;
 3856              		.loc 1 591 7 is_stmt 0
 3857 0048 638B8406 		beq	s1,s0,.L168
 3858 004c A687     		mv	a5,s1
GAS LISTING C:\Users\Kalle\AppData\Local\Temp\cc2hNkGN.s 			page 95


 590:lib/lcd/src/lcd.c **** 	while(n--)result*=m;    
 3859              		.loc 1 590 6
 3860 004e 0546     		li	a2,1
 3861              	.LVL446:
 3862              	.L163:
 591:lib/lcd/src/lcd.c **** 	return result;
 3863              		.loc 1 591 12 is_stmt 1
 591:lib/lcd/src/lcd.c **** 	return result;
 3864              		.loc 1 591 18 is_stmt 0
 3865 0050 13172600 		slli	a4,a2,2
 591:lib/lcd/src/lcd.c **** 	return result;
 3866              		.loc 1 591 9
 3867 0054 FD17     		addi	a5,a5,-1
 3868              	.LVL447:
 591:lib/lcd/src/lcd.c **** 	return result;
 3869              		.loc 1 591 18
 3870 0056 3A96     		add	a2,a4,a2
 3871              	.LVL448:
 591:lib/lcd/src/lcd.c **** 	return result;
 3872              		.loc 1 591 9
 3873 0058 93F7F70F 		andi	a5,a5,0xff
 591:lib/lcd/src/lcd.c **** 	return result;
 3874              		.loc 1 591 18
 3875 005c 0606     		slli	a2,a2,1
 3876              	.LVL449:
 591:lib/lcd/src/lcd.c **** 	return result;
 3877              		.loc 1 591 7
 3878 005e E39987FE 		bne	a5,s0,.L163
 3879 0062 33D6CC02 		divu	a2,s9,a2
 3880              	.LVL450:
 3881              	.L162:
 592:lib/lcd/src/lcd.c **** }
 3882              		.loc 1 592 2 is_stmt 1
 3883              	.LBE430:
 3884              	.LBE435:
 609:lib/lcd/src/lcd.c **** 		if(enshow==0&&t<(len-1))
 3885              		.loc 1 609 31 is_stmt 0
 3886 0066 33768603 		remu	a2,a2,s8
 3887              	.LVL451:
 3888              		.loc 1 610 3 is_stmt 1
 3889              		.loc 1 610 5 is_stmt 0
 3890 006a 63160B00 		bne	s6,zero,.L164
 3891              		.loc 1 610 15 discriminator 1
 3892 006e 63D43A01 		ble	s3,s5,.L164
 611:lib/lcd/src/lcd.c **** 		{
 612:lib/lcd/src/lcd.c **** 			if(temp==0)
 3893              		.loc 1 612 4 is_stmt 1
 3894              		.loc 1 612 6 is_stmt 0
 3895 0072 21CA     		beq	a2,zero,.L173
 3896 0074 054B     		li	s6,1
 3897              	.LVL452:
 3898              	.L164:
 613:lib/lcd/src/lcd.c **** 			{
 614:lib/lcd/src/lcd.c **** 				LCD_ShowChar(x+8*t,y,' ',0,color);
 615:lib/lcd/src/lcd.c **** 				continue;
 616:lib/lcd/src/lcd.c **** 			}else enshow=1; 
 617:lib/lcd/src/lcd.c **** 		 	 
GAS LISTING C:\Users\Kalle\AppData\Local\Temp\cc2hNkGN.s 			page 96


 618:lib/lcd/src/lcd.c **** 		}
 619:lib/lcd/src/lcd.c **** 	 	LCD_ShowChar(x+8*t,y,temp+48,0,color); 
 3899              		.loc 1 619 4 is_stmt 1
 3900              	.LBB436:
 3901              	.LBB434:
 499:lib/lcd/src/lcd.c ****     u8 pos,t;
 3902              		.loc 1 499 5
 500:lib/lcd/src/lcd.c **** 	  u16 x0=x;    
 3903              		.loc 1 500 5
 501:lib/lcd/src/lcd.c ****     if(x>LCD_W-8 || y>LCD_H-16)return;	// Outside of display area
 3904              		.loc 1 501 4
 502:lib/lcd/src/lcd.c **** 	num=num-' ';                        // Get offset value
 3905              		.loc 1 502 5
 502:lib/lcd/src/lcd.c **** 	num=num-' ';                        // Get offset value
 3906              		.loc 1 502 7 is_stmt 0
 3907 0076 636E4D01 		bgtu	s4,s10,.L165
 502:lib/lcd/src/lcd.c **** 	num=num-' ';                        // Get offset value
 3908              		.loc 1 502 18
 3909 007a 636CB901 		bgtu	s11,s2,.L165
 3910 007e 3247     		lw	a4,12(sp)
 3911 0080 8146     		li	a3,0
 3912 0082 13060603 		addi	a2,a2,48
 3913              	.LVL453:
 3914 0086 EE85     		mv	a1,s11
 3915 0088 5285     		mv	a0,s4
 3916 008a 97000000 		call	LCD_ShowChar.part.2
 3916      E7800000 
 3917              	.LVL454:
 3918              	.L165:
 3919 0092 FD14     		addi	s1,s1,-1
 3920 0094 93F4F40F 		andi	s1,s1,0xff
 3921 0098 850A     		addi	s5,s5,1
 3922              	.LVL455:
 3923 009a 210A     		addi	s4,s4,8
 3924              	.LBE434:
 3925              	.LBE436:
 607:lib/lcd/src/lcd.c **** 	{
 3926              		.loc 1 607 2 discriminator 2
 3927 009c E39674FB 		bne	s1,s7,.L166
 3928              	.LVL456:
 3929              	.L160:
 620:lib/lcd/src/lcd.c **** 	}
 621:lib/lcd/src/lcd.c **** } 
 3930              		.loc 1 621 1
 3931 00a0 B640     		lw	ra,76(sp)
 3932              		.cfi_remember_state
 3933              		.cfi_restore 1
 3934 00a2 2644     		lw	s0,72(sp)
 3935              		.cfi_restore 8
 3936 00a4 9644     		lw	s1,68(sp)
 3937              		.cfi_restore 9
 3938 00a6 0649     		lw	s2,64(sp)
 3939              		.cfi_restore 18
 3940 00a8 F259     		lw	s3,60(sp)
 3941              		.cfi_restore 19
 3942 00aa 625A     		lw	s4,56(sp)
 3943              		.cfi_restore 20
GAS LISTING C:\Users\Kalle\AppData\Local\Temp\cc2hNkGN.s 			page 97


 3944 00ac D25A     		lw	s5,52(sp)
 3945              		.cfi_restore 21
 3946 00ae 425B     		lw	s6,48(sp)
 3947              		.cfi_restore 22
 3948 00b0 B25B     		lw	s7,44(sp)
 3949              		.cfi_restore 23
 3950 00b2 225C     		lw	s8,40(sp)
 3951              		.cfi_restore 24
 3952 00b4 925C     		lw	s9,36(sp)
 3953              		.cfi_restore 25
 3954 00b6 025D     		lw	s10,32(sp)
 3955              		.cfi_restore 26
 3956 00b8 F24D     		lw	s11,28(sp)
 3957              		.cfi_restore 27
 3958 00ba 6161     		addi	sp,sp,80
 3959              	.LCFI55:
 3960              		.cfi_def_cfa_offset 0
 3961              	.LVL457:
 3962 00bc 8280     		jr	ra
 3963              	.LVL458:
 3964              	.L168:
 3965              	.LCFI56:
 3966              		.cfi_restore_state
 3967              	.LBB437:
 3968              	.LBB431:
 591:lib/lcd/src/lcd.c **** 	return result;
 3969              		.loc 1 591 7
 3970 00be 6686     		mv	a2,s9
 3971 00c0 5DB7     		j	.L162
 3972              	.LVL459:
 3973              	.L173:
 3974              	.LBE431:
 3975              	.LBE437:
 614:lib/lcd/src/lcd.c **** 				continue;
 3976              		.loc 1 614 5 is_stmt 1
 3977              	.LBB438:
 3978              	.LBB439:
 499:lib/lcd/src/lcd.c ****     u8 pos,t;
 3979              		.loc 1 499 5
 500:lib/lcd/src/lcd.c **** 	  u16 x0=x;    
 3980              		.loc 1 500 5
 501:lib/lcd/src/lcd.c ****     if(x>LCD_W-8 || y>LCD_H-16)return;	// Outside of display area
 3981              		.loc 1 501 4
 502:lib/lcd/src/lcd.c **** 	num=num-' ';                        // Get offset value
 3982              		.loc 1 502 5
 502:lib/lcd/src/lcd.c **** 	num=num-' ';                        // Get offset value
 3983              		.loc 1 502 7 is_stmt 0
 3984 00c2 E3684DFD 		bgtu	s4,s10,.L165
 502:lib/lcd/src/lcd.c **** 	num=num-' ';                        // Get offset value
 3985              		.loc 1 502 18
 3986 00c6 E366B9FD 		bgtu	s11,s2,.L165
 3987 00ca 3247     		lw	a4,12(sp)
 3988 00cc 8146     		li	a3,0
 3989 00ce 13060002 		li	a2,32
 3990              	.LVL460:
 3991 00d2 EE85     		mv	a1,s11
 3992 00d4 5285     		mv	a0,s4
GAS LISTING C:\Users\Kalle\AppData\Local\Temp\cc2hNkGN.s 			page 98


 3993 00d6 97000000 		call	LCD_ShowChar.part.2
 3993      E7800000 
 3994              	.LVL461:
 3995 00de 55BF     		j	.L165
 3996              	.LBE439:
 3997              	.LBE438:
 3998              		.cfi_endproc
 3999              	.LFE26:
 4001              		.globl	__mulsf3
 4002              		.globl	__fixunssfsi
 4003              		.section	.text.LCD_ShowNum1,"ax",@progbits
 4004              		.align	1
 4005              		.globl	LCD_ShowNum1
 4007              	LCD_ShowNum1:
 4008              	.LFB27:
 622:lib/lcd/src/lcd.c **** 
 623:lib/lcd/src/lcd.c **** 
 624:lib/lcd/src/lcd.c **** /*
 625:lib/lcd/src/lcd.c ****   Function description: display float number with 2 decimal places
 626:lib/lcd/src/lcd.c ****   Entry data: x, y:  start point coordinates
 627:lib/lcd/src/lcd.c ****                num:  float number to display
 628:lib/lcd/src/lcd.c ****                len:  number of digits to display
 629:lib/lcd/src/lcd.c ****   Return value: None
 630:lib/lcd/src/lcd.c **** */
 631:lib/lcd/src/lcd.c **** void LCD_ShowNum1(u16 x,u16 y,float num,u8 len,u16 color)
 632:lib/lcd/src/lcd.c **** {         	
 4009              		.loc 1 632 1 is_stmt 1
 4010              		.cfi_startproc
 4011              	.LVL462:
 633:lib/lcd/src/lcd.c **** 	u8 t,temp;
 4012              		.loc 1 633 2
 634:lib/lcd/src/lcd.c **** 	// u8 enshow=0;
 635:lib/lcd/src/lcd.c **** 	u16 num1;
 4013              		.loc 1 635 2
 636:lib/lcd/src/lcd.c **** 	num1=num*100;
 4014              		.loc 1 636 2
 632:lib/lcd/src/lcd.c **** 	u8 t,temp;
 4015              		.loc 1 632 1 is_stmt 0
 4016 0000 7971     		addi	sp,sp,-48
 4017              	.LCFI57:
 4018              		.cfi_def_cfa_offset 48
 4019              		.loc 1 636 10
 4020 0002 B7070000 		lui	a5,%hi(.LC1)
 632:lib/lcd/src/lcd.c **** 	u8 t,temp;
 4021              		.loc 1 632 1
 4022 0006 62C4     		sw	s8,8(sp)
 4023              		.cfi_offset 24, -40
 4024 0008 2E8C     		mv	s8,a1
 4025              		.loc 1 636 10
 4026 000a 83A50700 		lw	a1,%lo(.LC1)(a5)
 4027              	.LVL463:
 632:lib/lcd/src/lcd.c **** 	u8 t,temp;
 4028              		.loc 1 632 1
 4029 000e 5AC8     		sw	s6,16(sp)
 4030              		.cfi_offset 22, -32
 4031 0010 2A8B     		mv	s6,a0
 4032              		.loc 1 636 10
GAS LISTING C:\Users\Kalle\AppData\Local\Temp\cc2hNkGN.s 			page 99


 4033 0012 3285     		mv	a0,a2
 4034              	.LVL464:
 632:lib/lcd/src/lcd.c **** 	u8 t,temp;
 4035              		.loc 1 632 1
 4036 0014 06D6     		sw	ra,44(sp)
 4037 0016 4ECE     		sw	s3,28(sp)
 4038 0018 56CA     		sw	s5,20(sp)
 4039 001a 22D4     		sw	s0,40(sp)
 4040              		.cfi_offset 1, -4
 4041              		.cfi_offset 19, -20
 4042              		.cfi_offset 21, -28
 4043              		.cfi_offset 8, -8
 4044 001c B68A     		mv	s5,a3
 4045 001e 26D2     		sw	s1,36(sp)
 4046 0020 4AD0     		sw	s2,32(sp)
 4047 0022 52CC     		sw	s4,24(sp)
 4048 0024 5EC6     		sw	s7,12(sp)
 4049 0026 66C2     		sw	s9,4(sp)
 4050 0028 6AC0     		sw	s10,0(sp)
 4051              		.cfi_offset 9, -12
 4052              		.cfi_offset 18, -16
 4053              		.cfi_offset 20, -24
 4054              		.cfi_offset 23, -36
 4055              		.cfi_offset 25, -44
 4056              		.cfi_offset 26, -48
 632:lib/lcd/src/lcd.c **** 	u8 t,temp;
 4057              		.loc 1 632 1
 4058 002a BA89     		mv	s3,a4
 4059              		.loc 1 636 10
 4060 002c 97000000 		call	__mulsf3
 4060      E7800000 
 4061              	.LVL465:
 4062              		.loc 1 636 6
 4063 0034 97000000 		call	__fixunssfsi
 4063      E7800000 
 4064              	.LVL466:
 637:lib/lcd/src/lcd.c **** 	for(t=0;t<len;t++)
 4065              		.loc 1 637 2 is_stmt 1
 4066 003c 638C0A06 		beq	s5,zero,.L174
 4067 0040 AA8C     		mv	s9,a0
 4068 0042 8144     		li	s1,0
 4069              	.LBB440:
 4070              	.LBB441:
 591:lib/lcd/src/lcd.c **** 	return result;
 4071              		.loc 1 591 7 is_stmt 0
 4072 0044 1309F00F 		li	s2,255
 4073              	.LBE441:
 4074              	.LBE440:
 4075              	.LBB444:
 4076              	.LBB445:
 502:lib/lcd/src/lcd.c **** 	num=num-' ';                        // Get offset value
 4077              		.loc 1 502 7
 4078 0048 930B8009 		li	s7,152
 502:lib/lcd/src/lcd.c **** 	num=num-' ';                        // Get offset value
 4079              		.loc 1 502 18
 4080 004c 130D0004 		li	s10,64
 4081              	.LBE445:
GAS LISTING C:\Users\Kalle\AppData\Local\Temp\cc2hNkGN.s 			page 100


 4082              	.LBE444:
 638:lib/lcd/src/lcd.c **** 	{
 639:lib/lcd/src/lcd.c **** 		temp=(num1/mypow(10,len-t-1))%10;
 4083              		.loc 1 639 32
 4084 0050 294A     		li	s4,10
 4085              	.LVL467:
 4086              	.L175:
 4087              		.loc 1 639 3 is_stmt 1
 4088              		.loc 1 639 14 is_stmt 0
 4089 0052 1387FAFF 		addi	a4,s5,-1
 4090 0056 058F     		sub	a4,a4,s1
 4091 0058 1377F70F 		andi	a4,a4,0xff
 4092              	.LVL468:
 4093              	.LBB447:
 4094              	.LBB442:
 590:lib/lcd/src/lcd.c **** 	while(n--)result*=m;    
 4095              		.loc 1 590 2 is_stmt 1
 591:lib/lcd/src/lcd.c **** 	return result;
 4096              		.loc 1 591 2
 591:lib/lcd/src/lcd.c **** 	return result;
 4097              		.loc 1 591 9 is_stmt 0
 4098 005c 9307F7FF 		addi	a5,a4,-1
 4099 0060 93F7F70F 		andi	a5,a5,0xff
 4100              	.LVL469:
 591:lib/lcd/src/lcd.c **** 	return result;
 4101              		.loc 1 591 7
 4102 0064 49CF     		beq	a4,zero,.L183
 590:lib/lcd/src/lcd.c **** 	while(n--)result*=m;    
 4103              		.loc 1 590 6
 4104 0066 0546     		li	a2,1
 4105              	.LVL470:
 4106              	.L177:
 591:lib/lcd/src/lcd.c **** 	return result;
 4107              		.loc 1 591 12 is_stmt 1
 591:lib/lcd/src/lcd.c **** 	return result;
 4108              		.loc 1 591 18 is_stmt 0
 4109 0068 13172600 		slli	a4,a2,2
 591:lib/lcd/src/lcd.c **** 	return result;
 4110              		.loc 1 591 9
 4111 006c FD17     		addi	a5,a5,-1
 4112              	.LVL471:
 591:lib/lcd/src/lcd.c **** 	return result;
 4113              		.loc 1 591 18
 4114 006e 3A96     		add	a2,a4,a2
 4115              	.LVL472:
 591:lib/lcd/src/lcd.c **** 	return result;
 4116              		.loc 1 591 9
 4117 0070 93F7F70F 		andi	a5,a5,0xff
 591:lib/lcd/src/lcd.c **** 	return result;
 4118              		.loc 1 591 18
 4119 0074 0606     		slli	a2,a2,1
 4120              	.LVL473:
 591:lib/lcd/src/lcd.c **** 	return result;
 4121              		.loc 1 591 7
 4122 0076 E39927FF 		bne	a5,s2,.L177
 4123 007a 33D4CC02 		divu	s0,s9,a2
 4124              	.LVL474:
GAS LISTING C:\Users\Kalle\AppData\Local\Temp\cc2hNkGN.s 			page 101


 4125              	.L176:
 592:lib/lcd/src/lcd.c **** }
 4126              		.loc 1 592 2 is_stmt 1
 4127              	.LBE442:
 4128              	.LBE447:
 640:lib/lcd/src/lcd.c **** 		if(t==(len-2))
 4129              		.loc 1 640 3
 4130              		.loc 1 640 13 is_stmt 0
 4131 007e 9387EAFF 		addi	a5,s5,-2
 4132              		.loc 1 640 5
 4133 0082 6387F404 		beq	s1,a5,.L188
 4134              	.L178:
 641:lib/lcd/src/lcd.c **** 		{
 642:lib/lcd/src/lcd.c **** 			LCD_ShowChar(x+8*(len-2),y,'.',0,color);
 643:lib/lcd/src/lcd.c **** 			t++;
 644:lib/lcd/src/lcd.c **** 			len+=1;
 645:lib/lcd/src/lcd.c **** 		}
 646:lib/lcd/src/lcd.c **** 	 	LCD_ShowChar(x+8*t,y,temp+48,0,color);
 4135              		.loc 1 646 4 is_stmt 1 discriminator 2
 4136              		.loc 1 646 20 is_stmt 0 discriminator 2
 4137 0086 13953400 		slli	a0,s1,3
 4138              		.loc 1 646 4 discriminator 2
 4139 008a 5A95     		add	a0,a0,s6
 4140              	.LVL475:
 4141              	.LBB448:
 4142              	.LBB449:
 499:lib/lcd/src/lcd.c ****     u8 pos,t;
 4143              		.loc 1 499 5 is_stmt 1 discriminator 2
 500:lib/lcd/src/lcd.c **** 	  u16 x0=x;    
 4144              		.loc 1 500 5 discriminator 2
 501:lib/lcd/src/lcd.c ****     if(x>LCD_W-8 || y>LCD_H-16)return;	// Outside of display area
 4145              		.loc 1 501 4 discriminator 2
 502:lib/lcd/src/lcd.c **** 	num=num-' ';                        // Get offset value
 4146              		.loc 1 502 5 discriminator 2
 502:lib/lcd/src/lcd.c **** 	num=num-' ';                        // Get offset value
 4147              		.loc 1 502 7 is_stmt 0 discriminator 2
 4148 008c 63EFAB00 		bgtu	a0,s7,.L180
 502:lib/lcd/src/lcd.c **** 	num=num-' ';                        // Get offset value
 4149              		.loc 1 502 18
 4150 0090 636D8D01 		bgtu	s8,s10,.L180
 4151 0094 4E87     		mv	a4,s3
 4152 0096 8146     		li	a3,0
 4153 0098 E285     		mv	a1,s8
 4154              	.LBE449:
 4155              	.LBE448:
 639:lib/lcd/src/lcd.c **** 		if(t==(len-2))
 4156              		.loc 1 639 32
 4157 009a 33764403 		remu	a2,s0,s4
 4158              	.LBB451:
 4159              	.LBB450:
 4160 009e 13060603 		addi	a2,a2,48
 4161 00a2 97000000 		call	LCD_ShowChar.part.2
 4161      E7800000 
 4162              	.LVL476:
 4163              	.L180:
 4164              	.LBE450:
 4165              	.LBE451:
GAS LISTING C:\Users\Kalle\AppData\Local\Temp\cc2hNkGN.s 			page 102


 637:lib/lcd/src/lcd.c **** 	{
 4166              		.loc 1 637 17 discriminator 2
 4167 00aa 8504     		addi	s1,s1,1
 4168              	.LVL477:
 4169 00ac 93F4F40F 		andi	s1,s1,0xff
 4170              	.LVL478:
 637:lib/lcd/src/lcd.c **** 	{
 4171              		.loc 1 637 2 discriminator 2
 4172 00b0 E3E154FB 		bgtu	s5,s1,.L175
 4173              	.LVL479:
 4174              	.L174:
 647:lib/lcd/src/lcd.c **** 	}
 648:lib/lcd/src/lcd.c **** }
 4175              		.loc 1 648 1
 4176 00b4 B250     		lw	ra,44(sp)
 4177              		.cfi_remember_state
 4178              		.cfi_restore 1
 4179 00b6 2254     		lw	s0,40(sp)
 4180              		.cfi_restore 8
 4181 00b8 9254     		lw	s1,36(sp)
 4182              		.cfi_restore 9
 4183 00ba 0259     		lw	s2,32(sp)
 4184              		.cfi_restore 18
 4185 00bc F249     		lw	s3,28(sp)
 4186              		.cfi_restore 19
 4187              	.LVL480:
 4188 00be 624A     		lw	s4,24(sp)
 4189              		.cfi_restore 20
 4190 00c0 D24A     		lw	s5,20(sp)
 4191              		.cfi_restore 21
 4192              	.LVL481:
 4193 00c2 424B     		lw	s6,16(sp)
 4194              		.cfi_restore 22
 4195              	.LVL482:
 4196 00c4 B24B     		lw	s7,12(sp)
 4197              		.cfi_restore 23
 4198 00c6 224C     		lw	s8,8(sp)
 4199              		.cfi_restore 24
 4200              	.LVL483:
 4201 00c8 924C     		lw	s9,4(sp)
 4202              		.cfi_restore 25
 4203 00ca 024D     		lw	s10,0(sp)
 4204              		.cfi_restore 26
 4205 00cc 4561     		addi	sp,sp,48
 4206              	.LCFI58:
 4207              		.cfi_def_cfa_offset 0
 4208 00ce 8280     		jr	ra
 4209              	.LVL484:
 4210              	.L188:
 4211              	.LCFI59:
 4212              		.cfi_restore_state
 642:lib/lcd/src/lcd.c **** 			t++;
 4213              		.loc 1 642 4 is_stmt 1
 642:lib/lcd/src/lcd.c **** 			t++;
 4214              		.loc 1 642 20 is_stmt 0
 4215 00d0 13953400 		slli	a0,s1,3
 642:lib/lcd/src/lcd.c **** 			t++;
GAS LISTING C:\Users\Kalle\AppData\Local\Temp\cc2hNkGN.s 			page 103


 4216              		.loc 1 642 4
 4217 00d4 5A95     		add	a0,a0,s6
 4218              	.LVL485:
 4219              	.LBB452:
 4220              	.LBB446:
 499:lib/lcd/src/lcd.c ****     u8 pos,t;
 4221              		.loc 1 499 5 is_stmt 1
 500:lib/lcd/src/lcd.c **** 	  u16 x0=x;    
 4222              		.loc 1 500 5
 501:lib/lcd/src/lcd.c ****     if(x>LCD_W-8 || y>LCD_H-16)return;	// Outside of display area
 4223              		.loc 1 501 4
 502:lib/lcd/src/lcd.c **** 	num=num-' ';                        // Get offset value
 4224              		.loc 1 502 5
 502:lib/lcd/src/lcd.c **** 	num=num-' ';                        // Get offset value
 4225              		.loc 1 502 7 is_stmt 0
 4226 00d6 63EDAB00 		bgtu	a0,s7,.L179
 502:lib/lcd/src/lcd.c **** 	num=num-' ';                        // Get offset value
 4227              		.loc 1 502 18
 4228 00da 636B8D01 		bgtu	s8,s10,.L179
 4229 00de 4E87     		mv	a4,s3
 4230 00e0 8146     		li	a3,0
 4231 00e2 1306E002 		li	a2,46
 4232 00e6 E285     		mv	a1,s8
 4233 00e8 97000000 		call	LCD_ShowChar.part.2
 4233      E7800000 
 4234              	.LVL486:
 4235              	.L179:
 4236              	.LBE446:
 4237              	.LBE452:
 643:lib/lcd/src/lcd.c **** 			len+=1;
 4238              		.loc 1 643 4 is_stmt 1
 643:lib/lcd/src/lcd.c **** 			len+=1;
 4239              		.loc 1 643 5 is_stmt 0
 4240 00f0 8504     		addi	s1,s1,1
 4241              	.LVL487:
 644:lib/lcd/src/lcd.c **** 		}
 4242              		.loc 1 644 7
 4243 00f2 850A     		addi	s5,s5,1
 4244              	.LVL488:
 643:lib/lcd/src/lcd.c **** 			len+=1;
 4245              		.loc 1 643 5
 4246 00f4 93F4F40F 		andi	s1,s1,0xff
 4247              	.LVL489:
 644:lib/lcd/src/lcd.c **** 		}
 4248              		.loc 1 644 4 is_stmt 1
 644:lib/lcd/src/lcd.c **** 		}
 4249              		.loc 1 644 7 is_stmt 0
 4250 00f8 93FAFA0F 		andi	s5,s5,0xff
 4251              	.LVL490:
 4252 00fc 69B7     		j	.L178
 4253              	.LVL491:
 4254              	.L183:
 4255              	.LBB453:
 4256              	.LBB443:
 591:lib/lcd/src/lcd.c **** 	return result;
 4257              		.loc 1 591 7
 4258 00fe 6684     		mv	s0,s9
GAS LISTING C:\Users\Kalle\AppData\Local\Temp\cc2hNkGN.s 			page 104


 4259 0100 BDBF     		j	.L176
 4260              	.LBE443:
 4261              	.LBE453:
 4262              		.cfi_endproc
 4263              	.LFE27:
 4265              		.section	.text.LCD_ShowPicture,"ax",@progbits
 4266              		.align	1
 4267              		.globl	LCD_ShowPicture
 4269              	LCD_ShowPicture:
 4270              	.LFB28:
 649:lib/lcd/src/lcd.c **** 
 650:lib/lcd/src/lcd.c **** 
 651:lib/lcd/src/lcd.c **** /*
 652:lib/lcd/src/lcd.c ****   Function description: display the image 
 653:lib/lcd/src/lcd.c ****   Entry data: x1, y1:  start coordinates
 654:lib/lcd/src/lcd.c ****               x2, y2:  end coordinates
 655:lib/lcd/src/lcd.c ****               *image:  pointer to image buffer
 656:lib/lcd/src/lcd.c ****   Return value: None
 657:lib/lcd/src/lcd.c ****   Note: image buffere contains 16-bit pixel colors
 658:lib/lcd/src/lcd.c ****         and its size must be (x2-x1+1) * (y2-y1+1) * 2
 659:lib/lcd/src/lcd.c ****   */
 660:lib/lcd/src/lcd.c **** void LCD_ShowPicture(u16 x1, u16 y1, u16 x2, u16 y2, u8 *image)
 661:lib/lcd/src/lcd.c **** {
 4271              		.loc 1 661 1 is_stmt 1
 4272              		.cfi_startproc
 4273              	.LVL492:
 662:lib/lcd/src/lcd.c **** 	int i;
 4274              		.loc 1 662 2
 663:lib/lcd/src/lcd.c **** 	int size = (x2-x1+1) * (y2-y1+1) * 2;
 4275              		.loc 1 663 2
 661:lib/lcd/src/lcd.c **** 	int i;
 4276              		.loc 1 661 1 is_stmt 0
 4277 0000 4111     		addi	sp,sp,-16
 4278              	.LCFI60:
 4279              		.cfi_def_cfa_offset 16
 4280 0002 26C2     		sw	s1,4(sp)
 4281              		.loc 1 663 28
 4282 0004 B387B640 		sub	a5,a3,a1
 4283              		.cfi_offset 9, -12
 4284              		.loc 1 663 16
 4285 0008 B304A640 		sub	s1,a2,a0
 4286              		.loc 1 663 35
 4287 000c 8504     		addi	s1,s1,1
 4288              		.loc 1 663 31
 4289 000e 8507     		addi	a5,a5,1
 4290              		.loc 1 663 35
 4291 0010 B384F402 		mul	s1,s1,a5
 661:lib/lcd/src/lcd.c **** 	int i;
 4292              		.loc 1 661 1
 4293 0014 22C4     		sw	s0,8(sp)
 4294 0016 06C6     		sw	ra,12(sp)
 4295 0018 4AC0     		sw	s2,0(sp)
 4296              		.cfi_offset 8, -8
 4297              		.cfi_offset 1, -4
 4298              		.cfi_offset 18, -16
 661:lib/lcd/src/lcd.c **** 	int i;
 4299              		.loc 1 661 1
GAS LISTING C:\Users\Kalle\AppData\Local\Temp\cc2hNkGN.s 			page 105


 4300 001a 3A84     		mv	s0,a4
 4301              		.loc 1 663 35
 4302 001c 8604     		slli	s1,s1,1
 4303              	.LVL493:
 664:lib/lcd/src/lcd.c **** 	LCD_Address_Set(x1,y1,x2,y2);
 4304              		.loc 1 664 2 is_stmt 1
 4305 001e 97000000 		call	LCD_Address_Set
 4305      E7800000 
 4306              	.LVL494:
 665:lib/lcd/src/lcd.c **** 	for(i=0;i<size;i++)
 4307              		.loc 1 665 2
 4308 0026 63549002 		ble	s1,zero,.L189
 4309 002a A294     		add	s1,s0,s1
 4310              	.LVL495:
 4311              	.L191:
 666:lib/lcd/src/lcd.c **** 	{ 	
 667:lib/lcd/src/lcd.c **** 		LCD_WR_DATA8(image[i]);
 4312              		.loc 1 667 3 discriminator 3
 4313 002c 03490400 		lbu	s2,0(s0)
 4314              	.LVL496:
 4315              	.LBB454:
 4316              	.LBB455:
  90:lib/lcd/src/lcd.c **** 	LCD_Writ_Bus(dat);
 4317              		.loc 1 90 2 discriminator 3
 4318 0030 37150140 		li	a0,1073811456
 4319 0034 A165     		li	a1,32768
 4320 0036 97000000 		call	gpio_bit_set
 4320      E7800000 
 4321              	.LVL497:
  91:lib/lcd/src/lcd.c ****     //LCD_Write_Bus(((int)dat)+(1<<8));
 4322              		.loc 1 91 2 discriminator 3
 4323 003e 0504     		addi	s0,s0,1
 4324              	.LVL498:
 4325 0040 4A85     		mv	a0,s2
 4326 0042 97000000 		call	LCD_Writ_Bus
 4326      E7800000 
 4327              	.LVL499:
 4328              	.LBE455:
 4329              	.LBE454:
 665:lib/lcd/src/lcd.c **** 	{ 	
 4330              		.loc 1 665 2 is_stmt 0 discriminator 3
 4331 004a E39184FE 		bne	s1,s0,.L191
 4332              	.L189:
 668:lib/lcd/src/lcd.c **** 	}			
 669:lib/lcd/src/lcd.c **** }
 4333              		.loc 1 669 1
 4334 004e B240     		lw	ra,12(sp)
 4335              		.cfi_restore 1
 4336 0050 2244     		lw	s0,8(sp)
 4337              		.cfi_restore 8
 4338 0052 9244     		lw	s1,4(sp)
 4339              		.cfi_restore 9
 4340 0054 0249     		lw	s2,0(sp)
 4341              		.cfi_restore 18
 4342 0056 4101     		addi	sp,sp,16
 4343              	.LCFI61:
 4344              		.cfi_def_cfa_offset 0
GAS LISTING C:\Users\Kalle\AppData\Local\Temp\cc2hNkGN.s 			page 106


 4345 0058 8280     		jr	ra
 4346              		.cfi_endproc
 4347              	.LFE28:
 4349              		.globl	queue
 4350              		.globl	w
 4351              		.globl	r
 4352              		.globl	lcd_conf
 4353              		.comm	BACK_COLOR,4,4
 4354              		.globl	Hzk16
 4355              		.globl	asc2_1608
 4356              		.globl	Hzk32
 4357              		.section	.bss.queue,"aw",@nobits
 4358              		.align	2
 4359              		.set	.LANCHOR2,. + 0
 4362              	queue:
 4363 0000 00000000 		.zero	1024
 4363      00000000 
 4363      00000000 
 4363      00000000 
 4363      00000000 
 4364              		.section	.data.Hzk16,"aw"
 4365              		.align	2
 4366              		.set	.LANCHOR5,. + 0
 4369              	Hzk16:
 4370 0000 80       		.byte	-128
 4371 0001 00       		.byte	0
 4372 0002 80       		.byte	-128
 4373 0003 00       		.byte	0
 4374 0004 80       		.byte	-128
 4375 0005 00       		.byte	0
 4376 0006 80       		.byte	-128
 4377 0007 00       		.byte	0
 4378 0008 FC       		.byte	-4
 4379 0009 1F       		.byte	31
 4380 000a 84       		.byte	-124
 4381 000b 10       		.byte	16
 4382 000c 84       		.byte	-124
 4383 000d 10       		.byte	16
 4384 000e 84       		.byte	-124
 4385 000f 10       		.byte	16
 4386 0010 84       		.byte	-124
 4387 0011 10       		.byte	16
 4388 0012 84       		.byte	-124
 4389 0013 10       		.byte	16
 4390 0014 FC       		.byte	-4
 4391 0015 1F       		.byte	31
 4392 0016 84       		.byte	-124
 4393 0017 10       		.byte	16
 4394 0018 80       		.byte	-128
 4395 0019 00       		.byte	0
 4396 001a 80       		.byte	-128
 4397 001b 00       		.byte	0
 4398 001c 80       		.byte	-128
 4399 001d 00       		.byte	0
 4400 001e 80       		.byte	-128
 4401 001f 00       		.byte	0
 4402 0020 F8       		.byte	-8
GAS LISTING C:\Users\Kalle\AppData\Local\Temp\cc2hNkGN.s 			page 107


 4403 0021 0F       		.byte	15
 4404 0022 08       		.byte	8
 4405 0023 08       		.byte	8
 4406 0024 F8       		.byte	-8
 4407 0025 0F       		.byte	15
 4408 0026 08       		.byte	8
 4409 0027 08       		.byte	8
 4410 0028 F8       		.byte	-8
 4411 0029 0F       		.byte	15
 4412 002a 80       		.byte	-128
 4413 002b 00       		.byte	0
 4414 002c FF       		.byte	-1
 4415 002d 7F       		.byte	127
 4416 002e 00       		.byte	0
 4417 002f 00       		.byte	0
 4418 0030 F8       		.byte	-8
 4419 0031 0F       		.byte	15
 4420 0032 08       		.byte	8
 4421 0033 08       		.byte	8
 4422 0034 08       		.byte	8
 4423 0035 08       		.byte	8
 4424 0036 F8       		.byte	-8
 4425 0037 0F       		.byte	15
 4426 0038 80       		.byte	-128
 4427 0039 00       		.byte	0
 4428 003a 84       		.byte	-124
 4429 003b 10       		.byte	16
 4430 003c A2       		.byte	-94
 4431 003d 20       		.byte	32
 4432 003e 40       		.byte	64
 4433 003f 00       		.byte	0
 4434 0040 00       		.byte	0
 4435 0041 00       		.byte	0
 4436 0042 FE       		.byte	-2
 4437 0043 3F       		.byte	63
 4438 0044 02       		.byte	2
 4439 0045 20       		.byte	32
 4440 0046 F2       		.byte	-14
 4441 0047 27       		.byte	39
 4442 0048 02       		.byte	2
 4443 0049 20       		.byte	32
 4444 004a 02       		.byte	2
 4445 004b 20       		.byte	32
 4446 004c FA       		.byte	-6
 4447 004d 2F       		.byte	47
 4448 004e 22       		.byte	34
 4449 004f 21       		.byte	33
 4450 0050 22       		.byte	34
 4451 0051 21       		.byte	33
 4452 0052 22       		.byte	34
 4453 0053 21       		.byte	33
 4454 0054 12       		.byte	18
 4455 0055 29       		.byte	41
 4456 0056 12       		.byte	18
 4457 0057 29       		.byte	41
 4458 0058 0A       		.byte	10
 4459 0059 2E       		.byte	46
GAS LISTING C:\Users\Kalle\AppData\Local\Temp\cc2hNkGN.s 			page 108


 4460 005a 02       		.byte	2
 4461 005b 20       		.byte	32
 4462 005c FE       		.byte	-2
 4463 005d 3F       		.byte	63
 4464 005e 02       		.byte	2
 4465 005f 20       		.byte	32
 4466 0060 80       		.byte	-128
 4467 0061 00       		.byte	0
 4468 0062 80       		.byte	-128
 4469 0063 00       		.byte	0
 4470 0064 80       		.byte	-128
 4471 0065 00       		.byte	0
 4472 0066 FC       		.byte	-4
 4473 0067 1F       		.byte	31
 4474 0068 84       		.byte	-124
 4475 0069 10       		.byte	16
 4476 006a 84       		.byte	-124
 4477 006b 10       		.byte	16
 4478 006c 84       		.byte	-124
 4479 006d 10       		.byte	16
 4480 006e FC       		.byte	-4
 4481 006f 1F       		.byte	31
 4482 0070 84       		.byte	-124
 4483 0071 10       		.byte	16
 4484 0072 84       		.byte	-124
 4485 0073 10       		.byte	16
 4486 0074 84       		.byte	-124
 4487 0075 10       		.byte	16
 4488 0076 FC       		.byte	-4
 4489 0077 1F       		.byte	31
 4490 0078 84       		.byte	-124
 4491 0079 50       		.byte	80
 4492 007a 80       		.byte	-128
 4493 007b 40       		.byte	64
 4494 007c 80       		.byte	-128
 4495 007d 40       		.byte	64
 4496 007e 00       		.byte	0
 4497 007f 7F       		.byte	127
 4498 0080 00       		.byte	0
 4499 0081 00       		.byte	0
 4500 0082 FE       		.byte	-2
 4501 0083 1F       		.byte	31
 4502 0084 00       		.byte	0
 4503 0085 08       		.byte	8
 4504 0086 00       		.byte	0
 4505 0087 04       		.byte	4
 4506 0088 00       		.byte	0
 4507 0089 02       		.byte	2
 4508 008a 80       		.byte	-128
 4509 008b 01       		.byte	1
 4510 008c 80       		.byte	-128
 4511 008d 00       		.byte	0
 4512 008e FF       		.byte	-1
 4513 008f 7F       		.byte	127
 4514 0090 80       		.byte	-128
 4515 0091 00       		.byte	0
 4516 0092 80       		.byte	-128
GAS LISTING C:\Users\Kalle\AppData\Local\Temp\cc2hNkGN.s 			page 109


 4517 0093 00       		.byte	0
 4518 0094 80       		.byte	-128
 4519 0095 00       		.byte	0
 4520 0096 80       		.byte	-128
 4521 0097 00       		.byte	0
 4522 0098 80       		.byte	-128
 4523 0099 00       		.byte	0
 4524 009a 80       		.byte	-128
 4525 009b 00       		.byte	0
 4526 009c A0       		.byte	-96
 4527 009d 00       		.byte	0
 4528 009e 40       		.byte	64
 4529 009f 00       		.byte	0
 4530 00a0 10       		.byte	16
 4531 00a1 08       		.byte	8
 4532 00a2 B8       		.byte	-72
 4533 00a3 08       		.byte	8
 4534 00a4 0F       		.byte	15
 4535 00a5 09       		.byte	9
 4536 00a6 08       		.byte	8
 4537 00a7 09       		.byte	9
 4538 00a8 08       		.byte	8
 4539 00a9 08       		.byte	8
 4540 00aa BF       		.byte	-65
 4541 00ab 08       		.byte	8
 4542 00ac 08       		.byte	8
 4543 00ad 09       		.byte	9
 4544 00ae 1C       		.byte	28
 4545 00af 09       		.byte	9
 4546 00b0 2C       		.byte	44
 4547 00b1 08       		.byte	8
 4548 00b2 0A       		.byte	10
 4549 00b3 78       		.byte	120
 4550 00b4 CA       		.byte	-54
 4551 00b5 0F       		.byte	15
 4552 00b6 09       		.byte	9
 4553 00b7 08       		.byte	8
 4554 00b8 08       		.byte	8
 4555 00b9 08       		.byte	8
 4556 00ba 08       		.byte	8
 4557 00bb 08       		.byte	8
 4558 00bc 08       		.byte	8
 4559 00bd 08       		.byte	8
 4560 00be 08       		.byte	8
 4561 00bf 08       		.byte	8
 4562 00c0 08       		.byte	8
 4563 00c1 04       		.byte	4
 4564 00c2 08       		.byte	8
 4565 00c3 04       		.byte	4
 4566 00c4 08       		.byte	8
 4567 00c5 04       		.byte	4
 4568 00c6 C8       		.byte	-56
 4569 00c7 7F       		.byte	127
 4570 00c8 3F       		.byte	63
 4571 00c9 04       		.byte	4
 4572 00ca 08       		.byte	8
 4573 00cb 04       		.byte	4
GAS LISTING C:\Users\Kalle\AppData\Local\Temp\cc2hNkGN.s 			page 110


 4574 00cc 08       		.byte	8
 4575 00cd 04       		.byte	4
 4576 00ce A8       		.byte	-88
 4577 00cf 3F       		.byte	63
 4578 00d0 18       		.byte	24
 4579 00d1 21       		.byte	33
 4580 00d2 0C       		.byte	12
 4581 00d3 11       		.byte	17
 4582 00d4 0B       		.byte	11
 4583 00d5 12       		.byte	18
 4584 00d6 08       		.byte	8
 4585 00d7 0A       		.byte	10
 4586 00d8 08       		.byte	8
 4587 00d9 04       		.byte	4
 4588 00da 08       		.byte	8
 4589 00db 0A       		.byte	10
 4590 00dc 8A       		.byte	-118
 4591 00dd 11       		.byte	17
 4592 00de 64       		.byte	100
 4593 00df 60       		.byte	96
 4594              		.section	.data.Hzk32,"aw"
 4595              		.align	2
 4596              		.set	.LANCHOR6,. + 0
 4599              	Hzk32:
 4600 0000 00       		.byte	0
 4601 0001 00       		.byte	0
 4602 0002 00       		.byte	0
 4603 0003 00       		.byte	0
 4604 0004 00       		.byte	0
 4605 0005 00       		.byte	0
 4606 0006 00       		.byte	0
 4607 0007 00       		.byte	0
 4608 0008 00       		.byte	0
 4609 0009 80       		.byte	-128
 4610 000a 00       		.byte	0
 4611 000b 00       		.byte	0
 4612 000c 00       		.byte	0
 4613 000d 80       		.byte	-128
 4614 000e 01       		.byte	1
 4615 000f 00       		.byte	0
 4616 0010 00       		.byte	0
 4617 0011 80       		.byte	-128
 4618 0012 01       		.byte	1
 4619 0013 00       		.byte	0
 4620 0014 00       		.byte	0
 4621 0015 80       		.byte	-128
 4622 0016 01       		.byte	1
 4623 0017 00       		.byte	0
 4624 0018 00       		.byte	0
 4625 0019 80       		.byte	-128
 4626 001a 01       		.byte	1
 4627 001b 00       		.byte	0
 4628 001c 00       		.byte	0
 4629 001d 80       		.byte	-128
 4630 001e 01       		.byte	1
 4631 001f 00       		.byte	0
 4632 0020 10       		.byte	16
GAS LISTING C:\Users\Kalle\AppData\Local\Temp\cc2hNkGN.s 			page 111


 4633 0021 80       		.byte	-128
 4634 0022 01       		.byte	1
 4635 0023 0C       		.byte	12
 4636 0024 F0       		.byte	-16
 4637 0025 FF       		.byte	-1
 4638 0026 FF       		.byte	-1
 4639 0027 0F       		.byte	15
 4640 0028 30       		.byte	48
 4641 0029 80       		.byte	-128
 4642 002a 01       		.byte	1
 4643 002b 04       		.byte	4
 4644 002c 30       		.byte	48
 4645 002d 80       		.byte	-128
 4646 002e 01       		.byte	1
 4647 002f 04       		.byte	4
 4648 0030 30       		.byte	48
 4649 0031 80       		.byte	-128
 4650 0032 01       		.byte	1
 4651 0033 04       		.byte	4
 4652 0034 30       		.byte	48
 4653 0035 80       		.byte	-128
 4654 0036 01       		.byte	1
 4655 0037 04       		.byte	4
 4656 0038 30       		.byte	48
 4657 0039 80       		.byte	-128
 4658 003a 01       		.byte	1
 4659 003b 04       		.byte	4
 4660 003c 30       		.byte	48
 4661 003d 80       		.byte	-128
 4662 003e 01       		.byte	1
 4663 003f 04       		.byte	4
 4664 0040 30       		.byte	48
 4665 0041 80       		.byte	-128
 4666 0042 01       		.byte	1
 4667 0043 04       		.byte	4
 4668 0044 30       		.byte	48
 4669 0045 80       		.byte	-128
 4670 0046 01       		.byte	1
 4671 0047 04       		.byte	4
 4672 0048 F0       		.byte	-16
 4673 0049 FF       		.byte	-1
 4674 004a FF       		.byte	-1
 4675 004b 07       		.byte	7
 4676 004c 30       		.byte	48
 4677 004d 80       		.byte	-128
 4678 004e 01       		.byte	1
 4679 004f 04       		.byte	4
 4680 0050 30       		.byte	48
 4681 0051 80       		.byte	-128
 4682 0052 01       		.byte	1
 4683 0053 04       		.byte	4
 4684 0054 00       		.byte	0
 4685 0055 80       		.byte	-128
 4686 0056 01       		.byte	1
 4687 0057 00       		.byte	0
 4688 0058 00       		.byte	0
 4689 0059 80       		.byte	-128
GAS LISTING C:\Users\Kalle\AppData\Local\Temp\cc2hNkGN.s 			page 112


 4690 005a 01       		.byte	1
 4691 005b 00       		.byte	0
 4692 005c 00       		.byte	0
 4693 005d 80       		.byte	-128
 4694 005e 01       		.byte	1
 4695 005f 00       		.byte	0
 4696 0060 00       		.byte	0
 4697 0061 80       		.byte	-128
 4698 0062 01       		.byte	1
 4699 0063 00       		.byte	0
 4700 0064 00       		.byte	0
 4701 0065 80       		.byte	-128
 4702 0066 01       		.byte	1
 4703 0067 00       		.byte	0
 4704 0068 00       		.byte	0
 4705 0069 80       		.byte	-128
 4706 006a 01       		.byte	1
 4707 006b 00       		.byte	0
 4708 006c 00       		.byte	0
 4709 006d 80       		.byte	-128
 4710 006e 01       		.byte	1
 4711 006f 00       		.byte	0
 4712 0070 00       		.byte	0
 4713 0071 80       		.byte	-128
 4714 0072 01       		.byte	1
 4715 0073 00       		.byte	0
 4716 0074 00       		.byte	0
 4717 0075 80       		.byte	-128
 4718 0076 01       		.byte	1
 4719 0077 00       		.byte	0
 4720 0078 00       		.byte	0
 4721 0079 80       		.byte	-128
 4722 007a 00       		.byte	0
 4723 007b 00       		.byte	0
 4724 007c 00       		.byte	0
 4725 007d 00       		.byte	0
 4726 007e 00       		.byte	0
 4727 007f 00       		.byte	0
 4728 0080 00       		.byte	0
 4729 0081 00       		.byte	0
 4730 0082 00       		.byte	0
 4731 0083 00       		.byte	0
 4732 0084 00       		.byte	0
 4733 0085 00       		.byte	0
 4734 0086 00       		.byte	0
 4735 0087 00       		.byte	0
 4736 0088 00       		.byte	0
 4737 0089 00       		.byte	0
 4738 008a 00       		.byte	0
 4739 008b 00       		.byte	0
 4740 008c 00       		.byte	0
 4741 008d 01       		.byte	1
 4742 008e 80       		.byte	-128
 4743 008f 01       		.byte	1
 4744 0090 00       		.byte	0
 4745 0091 FF       		.byte	-1
 4746 0092 FF       		.byte	-1
GAS LISTING C:\Users\Kalle\AppData\Local\Temp\cc2hNkGN.s 			page 113


 4747 0093 01       		.byte	1
 4748 0094 00       		.byte	0
 4749 0095 03       		.byte	3
 4750 0096 80       		.byte	-128
 4751 0097 01       		.byte	1
 4752 0098 00       		.byte	0
 4753 0099 03       		.byte	3
 4754 009a 80       		.byte	-128
 4755 009b 01       		.byte	1
 4756 009c 00       		.byte	0
 4757 009d FF       		.byte	-1
 4758 009e FF       		.byte	-1
 4759 009f 01       		.byte	1
 4760 00a0 00       		.byte	0
 4761 00a1 03       		.byte	3
 4762 00a2 80       		.byte	-128
 4763 00a3 01       		.byte	1
 4764 00a4 00       		.byte	0
 4765 00a5 03       		.byte	3
 4766 00a6 80       		.byte	-128
 4767 00a7 01       		.byte	1
 4768 00a8 00       		.byte	0
 4769 00a9 FF       		.byte	-1
 4770 00aa FF       		.byte	-1
 4771 00ab 01       		.byte	1
 4772 00ac 00       		.byte	0
 4773 00ad 81       		.byte	-127
 4774 00ae 81       		.byte	-127
 4775 00af 00       		.byte	0
 4776 00b0 00       		.byte	0
 4777 00b1 00       		.byte	0
 4778 00b2 03       		.byte	3
 4779 00b3 00       		.byte	0
 4780 00b4 00       		.byte	0
 4781 00b5 00       		.byte	0
 4782 00b6 03       		.byte	3
 4783 00b7 1C       		.byte	28
 4784 00b8 FC       		.byte	-4
 4785 00b9 FF       		.byte	-1
 4786 00ba FF       		.byte	-1
 4787 00bb 3F       		.byte	63
 4788 00bc 00       		.byte	0
 4789 00bd 00       		.byte	0
 4790 00be 40       		.byte	64
 4791 00bf 00       		.byte	0
 4792 00c0 00       		.byte	0
 4793 00c1 03       		.byte	3
 4794 00c2 C0       		.byte	-64
 4795 00c3 01       		.byte	1
 4796 00c4 00       		.byte	0
 4797 00c5 FF       		.byte	-1
 4798 00c6 FF       		.byte	-1
 4799 00c7 01       		.byte	1
 4800 00c8 00       		.byte	0
 4801 00c9 03       		.byte	3
 4802 00ca C0       		.byte	-64
 4803 00cb 00       		.byte	0
GAS LISTING C:\Users\Kalle\AppData\Local\Temp\cc2hNkGN.s 			page 114


 4804 00cc 00       		.byte	0
 4805 00cd 03       		.byte	3
 4806 00ce C0       		.byte	-64
 4807 00cf 00       		.byte	0
 4808 00d0 00       		.byte	0
 4809 00d1 03       		.byte	3
 4810 00d2 C0       		.byte	-64
 4811 00d3 00       		.byte	0
 4812 00d4 00       		.byte	0
 4813 00d5 FF       		.byte	-1
 4814 00d6 FF       		.byte	-1
 4815 00d7 00       		.byte	0
 4816 00d8 00       		.byte	0
 4817 00d9 01       		.byte	1
 4818 00da 41       		.byte	65
 4819 00db 00       		.byte	0
 4820 00dc 00       		.byte	0
 4821 00dd 04       		.byte	4
 4822 00de 01       		.byte	1
 4823 00df 00       		.byte	0
 4824 00e0 00       		.byte	0
 4825 00e1 0E       		.byte	14
 4826 00e2 71       		.byte	113
 4827 00e3 00       		.byte	0
 4828 00e4 00       		.byte	0
 4829 00e5 07       		.byte	7
 4830 00e6 81       		.byte	-127
 4831 00e7 01       		.byte	1
 4832 00e8 80       		.byte	-128
 4833 00e9 01       		.byte	1
 4834 00ea 01       		.byte	1
 4835 00eb 07       		.byte	7
 4836 00ec 60       		.byte	96
 4837 00ed 00       		.byte	0
 4838 00ee 01       		.byte	1
 4839 00ef 0E       		.byte	14
 4840 00f0 18       		.byte	24
 4841 00f1 98       		.byte	-104
 4842 00f2 01       		.byte	1
 4843 00f3 1C       		.byte	28
 4844 00f4 04       		.byte	4
 4845 00f5 E0       		.byte	-32
 4846 00f6 01       		.byte	1
 4847 00f7 18       		.byte	24
 4848 00f8 00       		.byte	0
 4849 00f9 C0       		.byte	-64
 4850 00fa 00       		.byte	0
 4851 00fb 00       		.byte	0
 4852 00fc 00       		.byte	0
 4853 00fd 00       		.byte	0
 4854 00fe 00       		.byte	0
 4855 00ff 00       		.byte	0
 4856 0100 00       		.byte	0
 4857 0101 00       		.byte	0
 4858 0102 00       		.byte	0
 4859 0103 00       		.byte	0
 4860 0104 00       		.byte	0
GAS LISTING C:\Users\Kalle\AppData\Local\Temp\cc2hNkGN.s 			page 115


 4861 0105 00       		.byte	0
 4862 0106 00       		.byte	0
 4863 0107 00       		.byte	0
 4864 0108 00       		.byte	0
 4865 0109 00       		.byte	0
 4866 010a 00       		.byte	0
 4867 010b 08       		.byte	8
 4868 010c F0       		.byte	-16
 4869 010d FF       		.byte	-1
 4870 010e FF       		.byte	-1
 4871 010f 1F       		.byte	31
 4872 0110 30       		.byte	48
 4873 0111 00       		.byte	0
 4874 0112 00       		.byte	0
 4875 0113 0C       		.byte	12
 4876 0114 30       		.byte	48
 4877 0115 00       		.byte	0
 4878 0116 00       		.byte	0
 4879 0117 0C       		.byte	12
 4880 0118 30       		.byte	48
 4881 0119 00       		.byte	0
 4882 011a 10       		.byte	16
 4883 011b 0C       		.byte	12
 4884 011c 30       		.byte	48
 4885 011d FE       		.byte	-2
 4886 011e 3F       		.byte	63
 4887 011f 0C       		.byte	12
 4888 0120 30       		.byte	48
 4889 0121 04       		.byte	4
 4890 0122 00       		.byte	0
 4891 0123 0C       		.byte	12
 4892 0124 30       		.byte	48
 4893 0125 00       		.byte	0
 4894 0126 00       		.byte	0
 4895 0127 0C       		.byte	12
 4896 0128 30       		.byte	48
 4897 0129 00       		.byte	0
 4898 012a 00       		.byte	0
 4899 012b 0C       		.byte	12
 4900 012c 30       		.byte	48
 4901 012d 00       		.byte	0
 4902 012e 00       		.byte	0
 4903 012f 0C       		.byte	12
 4904 0130 30       		.byte	48
 4905 0131 00       		.byte	0
 4906 0132 C0       		.byte	-64
 4907 0133 0C       		.byte	12
 4908 0134 F0       		.byte	-16
 4909 0135 FF       		.byte	-1
 4910 0136 FF       		.byte	-1
 4911 0137 0D       		.byte	13
 4912 0138 30       		.byte	48
 4913 0139 30       		.byte	48
 4914 013a 06       		.byte	6
 4915 013b 0E       		.byte	14
 4916 013c 30       		.byte	48
 4917 013d 30       		.byte	48
GAS LISTING C:\Users\Kalle\AppData\Local\Temp\cc2hNkGN.s 			page 116


 4918 013e 06       		.byte	6
 4919 013f 0C       		.byte	12
 4920 0140 30       		.byte	48
 4921 0141 10       		.byte	16
 4922 0142 06       		.byte	6
 4923 0143 0C       		.byte	12
 4924 0144 30       		.byte	48
 4925 0145 10       		.byte	16
 4926 0146 06       		.byte	6
 4927 0147 0C       		.byte	12
 4928 0148 30       		.byte	48
 4929 0149 10       		.byte	16
 4930 014a 06       		.byte	6
 4931 014b 0C       		.byte	12
 4932 014c 30       		.byte	48
 4933 014d 18       		.byte	24
 4934 014e 86       		.byte	-122
 4935 014f 0C       		.byte	12
 4936 0150 30       		.byte	48
 4937 0151 18       		.byte	24
 4938 0152 86       		.byte	-122
 4939 0153 0C       		.byte	12
 4940 0154 30       		.byte	48
 4941 0155 08       		.byte	8
 4942 0156 06       		.byte	6
 4943 0157 0D       		.byte	13
 4944 0158 30       		.byte	48
 4945 0159 0C       		.byte	12
 4946 015a 86       		.byte	-122
 4947 015b 0D       		.byte	13
 4948 015c 30       		.byte	48
 4949 015d 06       		.byte	6
 4950 015e EE       		.byte	-18
 4951 015f 0F       		.byte	15
 4952 0160 30       		.byte	48
 4953 0161 02       		.byte	2
 4954 0162 FC       		.byte	-4
 4955 0163 0D       		.byte	13
 4956 0164 30       		.byte	48
 4957 0165 01       		.byte	1
 4958 0166 00       		.byte	0
 4959 0167 0C       		.byte	12
 4960 0168 F0       		.byte	-16
 4961 0169 00       		.byte	0
 4962 016a 00       		.byte	0
 4963 016b 0C       		.byte	12
 4964 016c 30       		.byte	48
 4965 016d 00       		.byte	0
 4966 016e 00       		.byte	0
 4967 016f 0C       		.byte	12
 4968 0170 F0       		.byte	-16
 4969 0171 FF       		.byte	-1
 4970 0172 FF       		.byte	-1
 4971 0173 0F       		.byte	15
 4972 0174 30       		.byte	48
 4973 0175 00       		.byte	0
 4974 0176 00       		.byte	0
GAS LISTING C:\Users\Kalle\AppData\Local\Temp\cc2hNkGN.s 			page 117


 4975 0177 0C       		.byte	12
 4976 0178 10       		.byte	16
 4977 0179 00       		.byte	0
 4978 017a 00       		.byte	0
 4979 017b 04       		.byte	4
 4980 017c 00       		.byte	0
 4981 017d 00       		.byte	0
 4982 017e 00       		.byte	0
 4983 017f 00       		.byte	0
 4984 0180 00       		.byte	0
 4985 0181 00       		.byte	0
 4986 0182 00       		.byte	0
 4987 0183 00       		.byte	0
 4988 0184 00       		.byte	0
 4989 0185 00       		.byte	0
 4990 0186 00       		.byte	0
 4991 0187 00       		.byte	0
 4992 0188 00       		.byte	0
 4993 0189 C0       		.byte	-64
 4994 018a 00       		.byte	0
 4995 018b 00       		.byte	0
 4996 018c 00       		.byte	0
 4997 018d C0       		.byte	-64
 4998 018e 01       		.byte	1
 4999 018f 00       		.byte	0
 5000 0190 00       		.byte	0
 5001 0191 C0       		.byte	-64
 5002 0192 00       		.byte	0
 5003 0193 00       		.byte	0
 5004 0194 00       		.byte	0
 5005 0195 C0       		.byte	-64
 5006 0196 00       		.byte	0
 5007 0197 00       		.byte	0
 5008 0198 00       		.byte	0
 5009 0199 C0       		.byte	-64
 5010 019a 00       		.byte	0
 5011 019b 00       		.byte	0
 5012 019c 00       		.byte	0
 5013 019d C0       		.byte	-64
 5014 019e 00       		.byte	0
 5015 019f 00       		.byte	0
 5016 01a0 E0       		.byte	-32
 5017 01a1 FF       		.byte	-1
 5018 01a2 FF       		.byte	-1
 5019 01a3 03       		.byte	3
 5020 01a4 60       		.byte	96
 5021 01a5 C0       		.byte	-64
 5022 01a6 00       		.byte	0
 5023 01a7 03       		.byte	3
 5024 01a8 60       		.byte	96
 5025 01a9 C0       		.byte	-64
 5026 01aa 00       		.byte	0
 5027 01ab 03       		.byte	3
 5028 01ac 60       		.byte	96
 5029 01ad C0       		.byte	-64
 5030 01ae 00       		.byte	0
 5031 01af 03       		.byte	3
GAS LISTING C:\Users\Kalle\AppData\Local\Temp\cc2hNkGN.s 			page 118


 5032 01b0 60       		.byte	96
 5033 01b1 C0       		.byte	-64
 5034 01b2 00       		.byte	0
 5035 01b3 03       		.byte	3
 5036 01b4 60       		.byte	96
 5037 01b5 C0       		.byte	-64
 5038 01b6 00       		.byte	0
 5039 01b7 03       		.byte	3
 5040 01b8 60       		.byte	96
 5041 01b9 C0       		.byte	-64
 5042 01ba 00       		.byte	0
 5043 01bb 03       		.byte	3
 5044 01bc E0       		.byte	-32
 5045 01bd FF       		.byte	-1
 5046 01be FF       		.byte	-1
 5047 01bf 03       		.byte	3
 5048 01c0 60       		.byte	96
 5049 01c1 C0       		.byte	-64
 5050 01c2 00       		.byte	0
 5051 01c3 03       		.byte	3
 5052 01c4 60       		.byte	96
 5053 01c5 C0       		.byte	-64
 5054 01c6 00       		.byte	0
 5055 01c7 03       		.byte	3
 5056 01c8 60       		.byte	96
 5057 01c9 C0       		.byte	-64
 5058 01ca 00       		.byte	0
 5059 01cb 03       		.byte	3
 5060 01cc 60       		.byte	96
 5061 01cd C0       		.byte	-64
 5062 01ce 00       		.byte	0
 5063 01cf 03       		.byte	3
 5064 01d0 60       		.byte	96
 5065 01d1 C0       		.byte	-64
 5066 01d2 00       		.byte	0
 5067 01d3 03       		.byte	3
 5068 01d4 E0       		.byte	-32
 5069 01d5 FF       		.byte	-1
 5070 01d6 FF       		.byte	-1
 5071 01d7 03       		.byte	3
 5072 01d8 60       		.byte	96
 5073 01d9 C0       		.byte	-64
 5074 01da 00       		.byte	0
 5075 01db 01       		.byte	1
 5076 01dc 60       		.byte	96
 5077 01dd C0       		.byte	-64
 5078 01de 00       		.byte	0
 5079 01df 00       		.byte	0
 5080 01e0 00       		.byte	0
 5081 01e1 C0       		.byte	-64
 5082 01e2 00       		.byte	0
 5083 01e3 08       		.byte	8
 5084 01e4 00       		.byte	0
 5085 01e5 C0       		.byte	-64
 5086 01e6 00       		.byte	0
 5087 01e7 10       		.byte	16
 5088 01e8 00       		.byte	0
GAS LISTING C:\Users\Kalle\AppData\Local\Temp\cc2hNkGN.s 			page 119


 5089 01e9 C0       		.byte	-64
 5090 01ea 00       		.byte	0
 5091 01eb 10       		.byte	16
 5092 01ec 00       		.byte	0
 5093 01ed C0       		.byte	-64
 5094 01ee 00       		.byte	0
 5095 01ef 18       		.byte	24
 5096 01f0 00       		.byte	0
 5097 01f1 C0       		.byte	-64
 5098 01f2 01       		.byte	1
 5099 01f3 38       		.byte	56
 5100 01f4 00       		.byte	0
 5101 01f5 80       		.byte	-128
 5102 01f6 FF       		.byte	-1
 5103 01f7 1F       		.byte	31
 5104 01f8 00       		.byte	0
 5105 01f9 00       		.byte	0
 5106 01fa 00       		.byte	0
 5107 01fb 00       		.byte	0
 5108 01fc 00       		.byte	0
 5109 01fd 00       		.byte	0
 5110 01fe 00       		.byte	0
 5111 01ff 00       		.byte	0
 5112 0200 00       		.byte	0
 5113 0201 00       		.byte	0
 5114 0202 00       		.byte	0
 5115 0203 00       		.byte	0
 5116 0204 00       		.byte	0
 5117 0205 00       		.byte	0
 5118 0206 00       		.byte	0
 5119 0207 00       		.byte	0
 5120 0208 00       		.byte	0
 5121 0209 00       		.byte	0
 5122 020a 00       		.byte	0
 5123 020b 00       		.byte	0
 5124 020c 00       		.byte	0
 5125 020d 00       		.byte	0
 5126 020e 00       		.byte	0
 5127 020f 03       		.byte	3
 5128 0210 C0       		.byte	-64
 5129 0211 FF       		.byte	-1
 5130 0212 FF       		.byte	-1
 5131 0213 07       		.byte	7
 5132 0214 00       		.byte	0
 5133 0215 00       		.byte	0
 5134 0216 80       		.byte	-128
 5135 0217 07       		.byte	7
 5136 0218 00       		.byte	0
 5137 0219 00       		.byte	0
 5138 021a C0       		.byte	-64
 5139 021b 00       		.byte	0
 5140 021c 00       		.byte	0
 5141 021d 00       		.byte	0
 5142 021e 60       		.byte	96
 5143 021f 00       		.byte	0
 5144 0220 00       		.byte	0
 5145 0221 00       		.byte	0
GAS LISTING C:\Users\Kalle\AppData\Local\Temp\cc2hNkGN.s 			page 120


 5146 0222 18       		.byte	24
 5147 0223 00       		.byte	0
 5148 0224 00       		.byte	0
 5149 0225 00       		.byte	0
 5150 0226 0C       		.byte	12
 5151 0227 00       		.byte	0
 5152 0228 00       		.byte	0
 5153 0229 80       		.byte	-128
 5154 022a 03       		.byte	3
 5155 022b 00       		.byte	0
 5156 022c 00       		.byte	0
 5157 022d 80       		.byte	-128
 5158 022e 03       		.byte	3
 5159 022f 00       		.byte	0
 5160 0230 00       		.byte	0
 5161 0231 80       		.byte	-128
 5162 0232 01       		.byte	1
 5163 0233 00       		.byte	0
 5164 0234 00       		.byte	0
 5165 0235 80       		.byte	-128
 5166 0236 01       		.byte	1
 5167 0237 08       		.byte	8
 5168 0238 00       		.byte	0
 5169 0239 80       		.byte	-128
 5170 023a 01       		.byte	1
 5171 023b 1C       		.byte	28
 5172 023c FC       		.byte	-4
 5173 023d FF       		.byte	-1
 5174 023e FF       		.byte	-1
 5175 023f 3F       		.byte	63
 5176 0240 00       		.byte	0
 5177 0241 80       		.byte	-128
 5178 0242 01       		.byte	1
 5179 0243 00       		.byte	0
 5180 0244 00       		.byte	0
 5181 0245 80       		.byte	-128
 5182 0246 01       		.byte	1
 5183 0247 00       		.byte	0
 5184 0248 00       		.byte	0
 5185 0249 80       		.byte	-128
 5186 024a 01       		.byte	1
 5187 024b 00       		.byte	0
 5188 024c 00       		.byte	0
 5189 024d 80       		.byte	-128
 5190 024e 01       		.byte	1
 5191 024f 00       		.byte	0
 5192 0250 00       		.byte	0
 5193 0251 80       		.byte	-128
 5194 0252 01       		.byte	1
 5195 0253 00       		.byte	0
 5196 0254 00       		.byte	0
 5197 0255 80       		.byte	-128
 5198 0256 01       		.byte	1
 5199 0257 00       		.byte	0
 5200 0258 00       		.byte	0
 5201 0259 80       		.byte	-128
 5202 025a 01       		.byte	1
GAS LISTING C:\Users\Kalle\AppData\Local\Temp\cc2hNkGN.s 			page 121


 5203 025b 00       		.byte	0
 5204 025c 00       		.byte	0
 5205 025d 80       		.byte	-128
 5206 025e 01       		.byte	1
 5207 025f 00       		.byte	0
 5208 0260 00       		.byte	0
 5209 0261 80       		.byte	-128
 5210 0262 01       		.byte	1
 5211 0263 00       		.byte	0
 5212 0264 00       		.byte	0
 5213 0265 80       		.byte	-128
 5214 0266 01       		.byte	1
 5215 0267 00       		.byte	0
 5216 0268 00       		.byte	0
 5217 0269 80       		.byte	-128
 5218 026a 01       		.byte	1
 5219 026b 00       		.byte	0
 5220 026c 00       		.byte	0
 5221 026d 80       		.byte	-128
 5222 026e 01       		.byte	1
 5223 026f 00       		.byte	0
 5224 0270 00       		.byte	0
 5225 0271 FC       		.byte	-4
 5226 0272 01       		.byte	1
 5227 0273 00       		.byte	0
 5228 0274 00       		.byte	0
 5229 0275 E0       		.byte	-32
 5230 0276 00       		.byte	0
 5231 0277 00       		.byte	0
 5232 0278 00       		.byte	0
 5233 0279 40       		.byte	64
 5234 027a 00       		.byte	0
 5235 027b 00       		.byte	0
 5236 027c 00       		.byte	0
 5237 027d 00       		.byte	0
 5238 027e 00       		.byte	0
 5239 027f 00       		.byte	0
 5240              		.section	.rodata.LCD_ShowNum1.cst4,"aM",@progbits,4
 5241              		.align	2
 5242              	.LC1:
 5243 0000 0000C842 		.word	1120403456
 5244              		.section	.rodata.asc2_1608,"a"
 5245              		.align	2
 5246              		.set	.LANCHOR4,. + 0
 5249              	asc2_1608:
 5250 0000 00       		.byte	0
 5251 0001 00       		.byte	0
 5252 0002 00       		.byte	0
 5253 0003 00       		.byte	0
 5254 0004 00       		.byte	0
 5255 0005 00       		.byte	0
 5256 0006 00       		.byte	0
 5257 0007 00       		.byte	0
 5258 0008 00       		.byte	0
 5259 0009 00       		.byte	0
 5260 000a 00       		.byte	0
 5261 000b 00       		.byte	0
GAS LISTING C:\Users\Kalle\AppData\Local\Temp\cc2hNkGN.s 			page 122


 5262 000c 00       		.byte	0
 5263 000d 00       		.byte	0
 5264 000e 00       		.byte	0
 5265 000f 00       		.byte	0
 5266 0010 00       		.byte	0
 5267 0011 00       		.byte	0
 5268 0012 00       		.byte	0
 5269 0013 08       		.byte	8
 5270 0014 08       		.byte	8
 5271 0015 08       		.byte	8
 5272 0016 08       		.byte	8
 5273 0017 08       		.byte	8
 5274 0018 08       		.byte	8
 5275 0019 08       		.byte	8
 5276 001a 00       		.byte	0
 5277 001b 00       		.byte	0
 5278 001c 18       		.byte	24
 5279 001d 18       		.byte	24
 5280 001e 00       		.byte	0
 5281 001f 00       		.byte	0
 5282 0020 00       		.byte	0
 5283 0021 48       		.byte	72
 5284 0022 6C       		.byte	108
 5285 0023 24       		.byte	36
 5286 0024 12       		.byte	18
 5287 0025 00       		.byte	0
 5288 0026 00       		.byte	0
 5289 0027 00       		.byte	0
 5290 0028 00       		.byte	0
 5291 0029 00       		.byte	0
 5292 002a 00       		.byte	0
 5293 002b 00       		.byte	0
 5294 002c 00       		.byte	0
 5295 002d 00       		.byte	0
 5296 002e 00       		.byte	0
 5297 002f 00       		.byte	0
 5298 0030 00       		.byte	0
 5299 0031 00       		.byte	0
 5300 0032 00       		.byte	0
 5301 0033 24       		.byte	36
 5302 0034 24       		.byte	36
 5303 0035 24       		.byte	36
 5304 0036 7F       		.byte	127
 5305 0037 12       		.byte	18
 5306 0038 12       		.byte	18
 5307 0039 12       		.byte	18
 5308 003a 7F       		.byte	127
 5309 003b 12       		.byte	18
 5310 003c 12       		.byte	18
 5311 003d 12       		.byte	18
 5312 003e 00       		.byte	0
 5313 003f 00       		.byte	0
 5314 0040 00       		.byte	0
 5315 0041 00       		.byte	0
 5316 0042 08       		.byte	8
 5317 0043 1C       		.byte	28
 5318 0044 2A       		.byte	42
GAS LISTING C:\Users\Kalle\AppData\Local\Temp\cc2hNkGN.s 			page 123


 5319 0045 2A       		.byte	42
 5320 0046 0A       		.byte	10
 5321 0047 0C       		.byte	12
 5322 0048 18       		.byte	24
 5323 0049 28       		.byte	40
 5324 004a 28       		.byte	40
 5325 004b 2A       		.byte	42
 5326 004c 2A       		.byte	42
 5327 004d 1C       		.byte	28
 5328 004e 08       		.byte	8
 5329 004f 08       		.byte	8
 5330 0050 00       		.byte	0
 5331 0051 00       		.byte	0
 5332 0052 00       		.byte	0
 5333 0053 22       		.byte	34
 5334 0054 25       		.byte	37
 5335 0055 15       		.byte	21
 5336 0056 15       		.byte	21
 5337 0057 15       		.byte	21
 5338 0058 2A       		.byte	42
 5339 0059 58       		.byte	88
 5340 005a 54       		.byte	84
 5341 005b 54       		.byte	84
 5342 005c 54       		.byte	84
 5343 005d 22       		.byte	34
 5344 005e 00       		.byte	0
 5345 005f 00       		.byte	0
 5346 0060 00       		.byte	0
 5347 0061 00       		.byte	0
 5348 0062 00       		.byte	0
 5349 0063 0C       		.byte	12
 5350 0064 12       		.byte	18
 5351 0065 12       		.byte	18
 5352 0066 12       		.byte	18
 5353 0067 0A       		.byte	10
 5354 0068 76       		.byte	118
 5355 0069 25       		.byte	37
 5356 006a 29       		.byte	41
 5357 006b 11       		.byte	17
 5358 006c 91       		.byte	-111
 5359 006d 6E       		.byte	110
 5360 006e 00       		.byte	0
 5361 006f 00       		.byte	0
 5362 0070 00       		.byte	0
 5363 0071 06       		.byte	6
 5364 0072 06       		.byte	6
 5365 0073 04       		.byte	4
 5366 0074 03       		.byte	3
 5367 0075 00       		.byte	0
 5368 0076 00       		.byte	0
 5369 0077 00       		.byte	0
 5370 0078 00       		.byte	0
 5371 0079 00       		.byte	0
 5372 007a 00       		.byte	0
 5373 007b 00       		.byte	0
 5374 007c 00       		.byte	0
 5375 007d 00       		.byte	0
GAS LISTING C:\Users\Kalle\AppData\Local\Temp\cc2hNkGN.s 			page 124


 5376 007e 00       		.byte	0
 5377 007f 00       		.byte	0
 5378 0080 00       		.byte	0
 5379 0081 40       		.byte	64
 5380 0082 20       		.byte	32
 5381 0083 10       		.byte	16
 5382 0084 10       		.byte	16
 5383 0085 08       		.byte	8
 5384 0086 08       		.byte	8
 5385 0087 08       		.byte	8
 5386 0088 08       		.byte	8
 5387 0089 08       		.byte	8
 5388 008a 08       		.byte	8
 5389 008b 10       		.byte	16
 5390 008c 10       		.byte	16
 5391 008d 20       		.byte	32
 5392 008e 40       		.byte	64
 5393 008f 00       		.byte	0
 5394 0090 00       		.byte	0
 5395 0091 02       		.byte	2
 5396 0092 04       		.byte	4
 5397 0093 08       		.byte	8
 5398 0094 08       		.byte	8
 5399 0095 10       		.byte	16
 5400 0096 10       		.byte	16
 5401 0097 10       		.byte	16
 5402 0098 10       		.byte	16
 5403 0099 10       		.byte	16
 5404 009a 10       		.byte	16
 5405 009b 08       		.byte	8
 5406 009c 08       		.byte	8
 5407 009d 04       		.byte	4
 5408 009e 02       		.byte	2
 5409 009f 00       		.byte	0
 5410 00a0 00       		.byte	0
 5411 00a1 00       		.byte	0
 5412 00a2 00       		.byte	0
 5413 00a3 00       		.byte	0
 5414 00a4 08       		.byte	8
 5415 00a5 08       		.byte	8
 5416 00a6 6B       		.byte	107
 5417 00a7 1C       		.byte	28
 5418 00a8 1C       		.byte	28
 5419 00a9 6B       		.byte	107
 5420 00aa 08       		.byte	8
 5421 00ab 08       		.byte	8
 5422 00ac 00       		.byte	0
 5423 00ad 00       		.byte	0
 5424 00ae 00       		.byte	0
 5425 00af 00       		.byte	0
 5426 00b0 00       		.byte	0
 5427 00b1 00       		.byte	0
 5428 00b2 00       		.byte	0
 5429 00b3 00       		.byte	0
 5430 00b4 08       		.byte	8
 5431 00b5 08       		.byte	8
 5432 00b6 08       		.byte	8
GAS LISTING C:\Users\Kalle\AppData\Local\Temp\cc2hNkGN.s 			page 125


 5433 00b7 08       		.byte	8
 5434 00b8 7F       		.byte	127
 5435 00b9 08       		.byte	8
 5436 00ba 08       		.byte	8
 5437 00bb 08       		.byte	8
 5438 00bc 08       		.byte	8
 5439 00bd 00       		.byte	0
 5440 00be 00       		.byte	0
 5441 00bf 00       		.byte	0
 5442 00c0 00       		.byte	0
 5443 00c1 00       		.byte	0
 5444 00c2 00       		.byte	0
 5445 00c3 00       		.byte	0
 5446 00c4 00       		.byte	0
 5447 00c5 00       		.byte	0
 5448 00c6 00       		.byte	0
 5449 00c7 00       		.byte	0
 5450 00c8 00       		.byte	0
 5451 00c9 00       		.byte	0
 5452 00ca 00       		.byte	0
 5453 00cb 00       		.byte	0
 5454 00cc 06       		.byte	6
 5455 00cd 06       		.byte	6
 5456 00ce 04       		.byte	4
 5457 00cf 03       		.byte	3
 5458 00d0 00       		.byte	0
 5459 00d1 00       		.byte	0
 5460 00d2 00       		.byte	0
 5461 00d3 00       		.byte	0
 5462 00d4 00       		.byte	0
 5463 00d5 00       		.byte	0
 5464 00d6 00       		.byte	0
 5465 00d7 00       		.byte	0
 5466 00d8 FE       		.byte	-2
 5467 00d9 00       		.byte	0
 5468 00da 00       		.byte	0
 5469 00db 00       		.byte	0
 5470 00dc 00       		.byte	0
 5471 00dd 00       		.byte	0
 5472 00de 00       		.byte	0
 5473 00df 00       		.byte	0
 5474 00e0 00       		.byte	0
 5475 00e1 00       		.byte	0
 5476 00e2 00       		.byte	0
 5477 00e3 00       		.byte	0
 5478 00e4 00       		.byte	0
 5479 00e5 00       		.byte	0
 5480 00e6 00       		.byte	0
 5481 00e7 00       		.byte	0
 5482 00e8 00       		.byte	0
 5483 00e9 00       		.byte	0
 5484 00ea 00       		.byte	0
 5485 00eb 00       		.byte	0
 5486 00ec 06       		.byte	6
 5487 00ed 06       		.byte	6
 5488 00ee 00       		.byte	0
 5489 00ef 00       		.byte	0
GAS LISTING C:\Users\Kalle\AppData\Local\Temp\cc2hNkGN.s 			page 126


 5490 00f0 00       		.byte	0
 5491 00f1 00       		.byte	0
 5492 00f2 80       		.byte	-128
 5493 00f3 40       		.byte	64
 5494 00f4 40       		.byte	64
 5495 00f5 20       		.byte	32
 5496 00f6 20       		.byte	32
 5497 00f7 10       		.byte	16
 5498 00f8 10       		.byte	16
 5499 00f9 08       		.byte	8
 5500 00fa 08       		.byte	8
 5501 00fb 04       		.byte	4
 5502 00fc 04       		.byte	4
 5503 00fd 02       		.byte	2
 5504 00fe 02       		.byte	2
 5505 00ff 00       		.byte	0
 5506 0100 00       		.byte	0
 5507 0101 00       		.byte	0
 5508 0102 00       		.byte	0
 5509 0103 18       		.byte	24
 5510 0104 24       		.byte	36
 5511 0105 42       		.byte	66
 5512 0106 42       		.byte	66
 5513 0107 42       		.byte	66
 5514 0108 42       		.byte	66
 5515 0109 42       		.byte	66
 5516 010a 42       		.byte	66
 5517 010b 42       		.byte	66
 5518 010c 24       		.byte	36
 5519 010d 18       		.byte	24
 5520 010e 00       		.byte	0
 5521 010f 00       		.byte	0
 5522 0110 00       		.byte	0
 5523 0111 00       		.byte	0
 5524 0112 00       		.byte	0
 5525 0113 08       		.byte	8
 5526 0114 0E       		.byte	14
 5527 0115 08       		.byte	8
 5528 0116 08       		.byte	8
 5529 0117 08       		.byte	8
 5530 0118 08       		.byte	8
 5531 0119 08       		.byte	8
 5532 011a 08       		.byte	8
 5533 011b 08       		.byte	8
 5534 011c 08       		.byte	8
 5535 011d 3E       		.byte	62
 5536 011e 00       		.byte	0
 5537 011f 00       		.byte	0
 5538 0120 00       		.byte	0
 5539 0121 00       		.byte	0
 5540 0122 00       		.byte	0
 5541 0123 3C       		.byte	60
 5542 0124 42       		.byte	66
 5543 0125 42       		.byte	66
 5544 0126 42       		.byte	66
 5545 0127 20       		.byte	32
 5546 0128 20       		.byte	32
GAS LISTING C:\Users\Kalle\AppData\Local\Temp\cc2hNkGN.s 			page 127


 5547 0129 10       		.byte	16
 5548 012a 08       		.byte	8
 5549 012b 04       		.byte	4
 5550 012c 42       		.byte	66
 5551 012d 7E       		.byte	126
 5552 012e 00       		.byte	0
 5553 012f 00       		.byte	0
 5554 0130 00       		.byte	0
 5555 0131 00       		.byte	0
 5556 0132 00       		.byte	0
 5557 0133 3C       		.byte	60
 5558 0134 42       		.byte	66
 5559 0135 42       		.byte	66
 5560 0136 20       		.byte	32
 5561 0137 18       		.byte	24
 5562 0138 20       		.byte	32
 5563 0139 40       		.byte	64
 5564 013a 40       		.byte	64
 5565 013b 42       		.byte	66
 5566 013c 22       		.byte	34
 5567 013d 1C       		.byte	28
 5568 013e 00       		.byte	0
 5569 013f 00       		.byte	0
 5570 0140 00       		.byte	0
 5571 0141 00       		.byte	0
 5572 0142 00       		.byte	0
 5573 0143 20       		.byte	32
 5574 0144 30       		.byte	48
 5575 0145 28       		.byte	40
 5576 0146 24       		.byte	36
 5577 0147 24       		.byte	36
 5578 0148 22       		.byte	34
 5579 0149 22       		.byte	34
 5580 014a 7E       		.byte	126
 5581 014b 20       		.byte	32
 5582 014c 20       		.byte	32
 5583 014d 78       		.byte	120
 5584 014e 00       		.byte	0
 5585 014f 00       		.byte	0
 5586 0150 00       		.byte	0
 5587 0151 00       		.byte	0
 5588 0152 00       		.byte	0
 5589 0153 7E       		.byte	126
 5590 0154 02       		.byte	2
 5591 0155 02       		.byte	2
 5592 0156 02       		.byte	2
 5593 0157 1A       		.byte	26
 5594 0158 26       		.byte	38
 5595 0159 40       		.byte	64
 5596 015a 40       		.byte	64
 5597 015b 42       		.byte	66
 5598 015c 22       		.byte	34
 5599 015d 1C       		.byte	28
 5600 015e 00       		.byte	0
 5601 015f 00       		.byte	0
 5602 0160 00       		.byte	0
 5603 0161 00       		.byte	0
GAS LISTING C:\Users\Kalle\AppData\Local\Temp\cc2hNkGN.s 			page 128


 5604 0162 00       		.byte	0
 5605 0163 38       		.byte	56
 5606 0164 24       		.byte	36
 5607 0165 02       		.byte	2
 5608 0166 02       		.byte	2
 5609 0167 1A       		.byte	26
 5610 0168 26       		.byte	38
 5611 0169 42       		.byte	66
 5612 016a 42       		.byte	66
 5613 016b 42       		.byte	66
 5614 016c 24       		.byte	36
 5615 016d 18       		.byte	24
 5616 016e 00       		.byte	0
 5617 016f 00       		.byte	0
 5618 0170 00       		.byte	0
 5619 0171 00       		.byte	0
 5620 0172 00       		.byte	0
 5621 0173 7E       		.byte	126
 5622 0174 22       		.byte	34
 5623 0175 22       		.byte	34
 5624 0176 10       		.byte	16
 5625 0177 10       		.byte	16
 5626 0178 08       		.byte	8
 5627 0179 08       		.byte	8
 5628 017a 08       		.byte	8
 5629 017b 08       		.byte	8
 5630 017c 08       		.byte	8
 5631 017d 08       		.byte	8
 5632 017e 00       		.byte	0
 5633 017f 00       		.byte	0
 5634 0180 00       		.byte	0
 5635 0181 00       		.byte	0
 5636 0182 00       		.byte	0
 5637 0183 3C       		.byte	60
 5638 0184 42       		.byte	66
 5639 0185 42       		.byte	66
 5640 0186 42       		.byte	66
 5641 0187 24       		.byte	36
 5642 0188 18       		.byte	24
 5643 0189 24       		.byte	36
 5644 018a 42       		.byte	66
 5645 018b 42       		.byte	66
 5646 018c 42       		.byte	66
 5647 018d 3C       		.byte	60
 5648 018e 00       		.byte	0
 5649 018f 00       		.byte	0
 5650 0190 00       		.byte	0
 5651 0191 00       		.byte	0
 5652 0192 00       		.byte	0
 5653 0193 18       		.byte	24
 5654 0194 24       		.byte	36
 5655 0195 42       		.byte	66
 5656 0196 42       		.byte	66
 5657 0197 42       		.byte	66
 5658 0198 64       		.byte	100
 5659 0199 58       		.byte	88
 5660 019a 40       		.byte	64
GAS LISTING C:\Users\Kalle\AppData\Local\Temp\cc2hNkGN.s 			page 129


 5661 019b 40       		.byte	64
 5662 019c 24       		.byte	36
 5663 019d 1C       		.byte	28
 5664 019e 00       		.byte	0
 5665 019f 00       		.byte	0
 5666 01a0 00       		.byte	0
 5667 01a1 00       		.byte	0
 5668 01a2 00       		.byte	0
 5669 01a3 00       		.byte	0
 5670 01a4 00       		.byte	0
 5671 01a5 00       		.byte	0
 5672 01a6 18       		.byte	24
 5673 01a7 18       		.byte	24
 5674 01a8 00       		.byte	0
 5675 01a9 00       		.byte	0
 5676 01aa 00       		.byte	0
 5677 01ab 00       		.byte	0
 5678 01ac 18       		.byte	24
 5679 01ad 18       		.byte	24
 5680 01ae 00       		.byte	0
 5681 01af 00       		.byte	0
 5682 01b0 00       		.byte	0
 5683 01b1 00       		.byte	0
 5684 01b2 00       		.byte	0
 5685 01b3 00       		.byte	0
 5686 01b4 00       		.byte	0
 5687 01b5 00       		.byte	0
 5688 01b6 00       		.byte	0
 5689 01b7 08       		.byte	8
 5690 01b8 00       		.byte	0
 5691 01b9 00       		.byte	0
 5692 01ba 00       		.byte	0
 5693 01bb 00       		.byte	0
 5694 01bc 00       		.byte	0
 5695 01bd 08       		.byte	8
 5696 01be 08       		.byte	8
 5697 01bf 04       		.byte	4
 5698 01c0 00       		.byte	0
 5699 01c1 00       		.byte	0
 5700 01c2 00       		.byte	0
 5701 01c3 40       		.byte	64
 5702 01c4 20       		.byte	32
 5703 01c5 10       		.byte	16
 5704 01c6 08       		.byte	8
 5705 01c7 04       		.byte	4
 5706 01c8 02       		.byte	2
 5707 01c9 04       		.byte	4
 5708 01ca 08       		.byte	8
 5709 01cb 10       		.byte	16
 5710 01cc 20       		.byte	32
 5711 01cd 40       		.byte	64
 5712 01ce 00       		.byte	0
 5713 01cf 00       		.byte	0
 5714 01d0 00       		.byte	0
 5715 01d1 00       		.byte	0
 5716 01d2 00       		.byte	0
 5717 01d3 00       		.byte	0
GAS LISTING C:\Users\Kalle\AppData\Local\Temp\cc2hNkGN.s 			page 130


 5718 01d4 00       		.byte	0
 5719 01d5 00       		.byte	0
 5720 01d6 7F       		.byte	127
 5721 01d7 00       		.byte	0
 5722 01d8 00       		.byte	0
 5723 01d9 00       		.byte	0
 5724 01da 7F       		.byte	127
 5725 01db 00       		.byte	0
 5726 01dc 00       		.byte	0
 5727 01dd 00       		.byte	0
 5728 01de 00       		.byte	0
 5729 01df 00       		.byte	0
 5730 01e0 00       		.byte	0
 5731 01e1 00       		.byte	0
 5732 01e2 00       		.byte	0
 5733 01e3 02       		.byte	2
 5734 01e4 04       		.byte	4
 5735 01e5 08       		.byte	8
 5736 01e6 10       		.byte	16
 5737 01e7 20       		.byte	32
 5738 01e8 40       		.byte	64
 5739 01e9 20       		.byte	32
 5740 01ea 10       		.byte	16
 5741 01eb 08       		.byte	8
 5742 01ec 04       		.byte	4
 5743 01ed 02       		.byte	2
 5744 01ee 00       		.byte	0
 5745 01ef 00       		.byte	0
 5746 01f0 00       		.byte	0
 5747 01f1 00       		.byte	0
 5748 01f2 00       		.byte	0
 5749 01f3 3C       		.byte	60
 5750 01f4 42       		.byte	66
 5751 01f5 42       		.byte	66
 5752 01f6 46       		.byte	70
 5753 01f7 40       		.byte	64
 5754 01f8 20       		.byte	32
 5755 01f9 10       		.byte	16
 5756 01fa 10       		.byte	16
 5757 01fb 00       		.byte	0
 5758 01fc 18       		.byte	24
 5759 01fd 18       		.byte	24
 5760 01fe 00       		.byte	0
 5761 01ff 00       		.byte	0
 5762 0200 00       		.byte	0
 5763 0201 00       		.byte	0
 5764 0202 00       		.byte	0
 5765 0203 1C       		.byte	28
 5766 0204 22       		.byte	34
 5767 0205 5A       		.byte	90
 5768 0206 55       		.byte	85
 5769 0207 55       		.byte	85
 5770 0208 55       		.byte	85
 5771 0209 55       		.byte	85
 5772 020a 2D       		.byte	45
 5773 020b 42       		.byte	66
 5774 020c 22       		.byte	34
GAS LISTING C:\Users\Kalle\AppData\Local\Temp\cc2hNkGN.s 			page 131


 5775 020d 1C       		.byte	28
 5776 020e 00       		.byte	0
 5777 020f 00       		.byte	0
 5778 0210 00       		.byte	0
 5779 0211 00       		.byte	0
 5780 0212 00       		.byte	0
 5781 0213 08       		.byte	8
 5782 0214 08       		.byte	8
 5783 0215 18       		.byte	24
 5784 0216 14       		.byte	20
 5785 0217 14       		.byte	20
 5786 0218 24       		.byte	36
 5787 0219 3C       		.byte	60
 5788 021a 22       		.byte	34
 5789 021b 42       		.byte	66
 5790 021c 42       		.byte	66
 5791 021d E7       		.byte	-25
 5792 021e 00       		.byte	0
 5793 021f 00       		.byte	0
 5794 0220 00       		.byte	0
 5795 0221 00       		.byte	0
 5796 0222 00       		.byte	0
 5797 0223 1F       		.byte	31
 5798 0224 22       		.byte	34
 5799 0225 22       		.byte	34
 5800 0226 22       		.byte	34
 5801 0227 1E       		.byte	30
 5802 0228 22       		.byte	34
 5803 0229 42       		.byte	66
 5804 022a 42       		.byte	66
 5805 022b 42       		.byte	66
 5806 022c 22       		.byte	34
 5807 022d 1F       		.byte	31
 5808 022e 00       		.byte	0
 5809 022f 00       		.byte	0
 5810 0230 00       		.byte	0
 5811 0231 00       		.byte	0
 5812 0232 00       		.byte	0
 5813 0233 7C       		.byte	124
 5814 0234 42       		.byte	66
 5815 0235 42       		.byte	66
 5816 0236 01       		.byte	1
 5817 0237 01       		.byte	1
 5818 0238 01       		.byte	1
 5819 0239 01       		.byte	1
 5820 023a 01       		.byte	1
 5821 023b 42       		.byte	66
 5822 023c 22       		.byte	34
 5823 023d 1C       		.byte	28
 5824 023e 00       		.byte	0
 5825 023f 00       		.byte	0
 5826 0240 00       		.byte	0
 5827 0241 00       		.byte	0
 5828 0242 00       		.byte	0
 5829 0243 1F       		.byte	31
 5830 0244 22       		.byte	34
 5831 0245 42       		.byte	66
GAS LISTING C:\Users\Kalle\AppData\Local\Temp\cc2hNkGN.s 			page 132


 5832 0246 42       		.byte	66
 5833 0247 42       		.byte	66
 5834 0248 42       		.byte	66
 5835 0249 42       		.byte	66
 5836 024a 42       		.byte	66
 5837 024b 42       		.byte	66
 5838 024c 22       		.byte	34
 5839 024d 1F       		.byte	31
 5840 024e 00       		.byte	0
 5841 024f 00       		.byte	0
 5842 0250 00       		.byte	0
 5843 0251 00       		.byte	0
 5844 0252 00       		.byte	0
 5845 0253 3F       		.byte	63
 5846 0254 42       		.byte	66
 5847 0255 12       		.byte	18
 5848 0256 12       		.byte	18
 5849 0257 1E       		.byte	30
 5850 0258 12       		.byte	18
 5851 0259 12       		.byte	18
 5852 025a 02       		.byte	2
 5853 025b 42       		.byte	66
 5854 025c 42       		.byte	66
 5855 025d 3F       		.byte	63
 5856 025e 00       		.byte	0
 5857 025f 00       		.byte	0
 5858 0260 00       		.byte	0
 5859 0261 00       		.byte	0
 5860 0262 00       		.byte	0
 5861 0263 3F       		.byte	63
 5862 0264 42       		.byte	66
 5863 0265 12       		.byte	18
 5864 0266 12       		.byte	18
 5865 0267 1E       		.byte	30
 5866 0268 12       		.byte	18
 5867 0269 12       		.byte	18
 5868 026a 02       		.byte	2
 5869 026b 02       		.byte	2
 5870 026c 02       		.byte	2
 5871 026d 07       		.byte	7
 5872 026e 00       		.byte	0
 5873 026f 00       		.byte	0
 5874 0270 00       		.byte	0
 5875 0271 00       		.byte	0
 5876 0272 00       		.byte	0
 5877 0273 3C       		.byte	60
 5878 0274 22       		.byte	34
 5879 0275 22       		.byte	34
 5880 0276 01       		.byte	1
 5881 0277 01       		.byte	1
 5882 0278 01       		.byte	1
 5883 0279 71       		.byte	113
 5884 027a 21       		.byte	33
 5885 027b 22       		.byte	34
 5886 027c 22       		.byte	34
 5887 027d 1C       		.byte	28
 5888 027e 00       		.byte	0
GAS LISTING C:\Users\Kalle\AppData\Local\Temp\cc2hNkGN.s 			page 133


 5889 027f 00       		.byte	0
 5890 0280 00       		.byte	0
 5891 0281 00       		.byte	0
 5892 0282 00       		.byte	0
 5893 0283 E7       		.byte	-25
 5894 0284 42       		.byte	66
 5895 0285 42       		.byte	66
 5896 0286 42       		.byte	66
 5897 0287 42       		.byte	66
 5898 0288 7E       		.byte	126
 5899 0289 42       		.byte	66
 5900 028a 42       		.byte	66
 5901 028b 42       		.byte	66
 5902 028c 42       		.byte	66
 5903 028d E7       		.byte	-25
 5904 028e 00       		.byte	0
 5905 028f 00       		.byte	0
 5906 0290 00       		.byte	0
 5907 0291 00       		.byte	0
 5908 0292 00       		.byte	0
 5909 0293 3E       		.byte	62
 5910 0294 08       		.byte	8
 5911 0295 08       		.byte	8
 5912 0296 08       		.byte	8
 5913 0297 08       		.byte	8
 5914 0298 08       		.byte	8
 5915 0299 08       		.byte	8
 5916 029a 08       		.byte	8
 5917 029b 08       		.byte	8
 5918 029c 08       		.byte	8
 5919 029d 3E       		.byte	62
 5920 029e 00       		.byte	0
 5921 029f 00       		.byte	0
 5922 02a0 00       		.byte	0
 5923 02a1 00       		.byte	0
 5924 02a2 00       		.byte	0
 5925 02a3 7C       		.byte	124
 5926 02a4 10       		.byte	16
 5927 02a5 10       		.byte	16
 5928 02a6 10       		.byte	16
 5929 02a7 10       		.byte	16
 5930 02a8 10       		.byte	16
 5931 02a9 10       		.byte	16
 5932 02aa 10       		.byte	16
 5933 02ab 10       		.byte	16
 5934 02ac 10       		.byte	16
 5935 02ad 10       		.byte	16
 5936 02ae 11       		.byte	17
 5937 02af 0F       		.byte	15
 5938 02b0 00       		.byte	0
 5939 02b1 00       		.byte	0
 5940 02b2 00       		.byte	0
 5941 02b3 77       		.byte	119
 5942 02b4 22       		.byte	34
 5943 02b5 12       		.byte	18
 5944 02b6 0A       		.byte	10
 5945 02b7 0E       		.byte	14
GAS LISTING C:\Users\Kalle\AppData\Local\Temp\cc2hNkGN.s 			page 134


 5946 02b8 0A       		.byte	10
 5947 02b9 12       		.byte	18
 5948 02ba 12       		.byte	18
 5949 02bb 22       		.byte	34
 5950 02bc 22       		.byte	34
 5951 02bd 77       		.byte	119
 5952 02be 00       		.byte	0
 5953 02bf 00       		.byte	0
 5954 02c0 00       		.byte	0
 5955 02c1 00       		.byte	0
 5956 02c2 00       		.byte	0
 5957 02c3 07       		.byte	7
 5958 02c4 02       		.byte	2
 5959 02c5 02       		.byte	2
 5960 02c6 02       		.byte	2
 5961 02c7 02       		.byte	2
 5962 02c8 02       		.byte	2
 5963 02c9 02       		.byte	2
 5964 02ca 02       		.byte	2
 5965 02cb 02       		.byte	2
 5966 02cc 42       		.byte	66
 5967 02cd 7F       		.byte	127
 5968 02ce 00       		.byte	0
 5969 02cf 00       		.byte	0
 5970 02d0 00       		.byte	0
 5971 02d1 00       		.byte	0
 5972 02d2 00       		.byte	0
 5973 02d3 77       		.byte	119
 5974 02d4 36       		.byte	54
 5975 02d5 36       		.byte	54
 5976 02d6 36       		.byte	54
 5977 02d7 36       		.byte	54
 5978 02d8 2A       		.byte	42
 5979 02d9 2A       		.byte	42
 5980 02da 2A       		.byte	42
 5981 02db 2A       		.byte	42
 5982 02dc 2A       		.byte	42
 5983 02dd 6B       		.byte	107
 5984 02de 00       		.byte	0
 5985 02df 00       		.byte	0
 5986 02e0 00       		.byte	0
 5987 02e1 00       		.byte	0
 5988 02e2 00       		.byte	0
 5989 02e3 E3       		.byte	-29
 5990 02e4 46       		.byte	70
 5991 02e5 46       		.byte	70
 5992 02e6 4A       		.byte	74
 5993 02e7 4A       		.byte	74
 5994 02e8 52       		.byte	82
 5995 02e9 52       		.byte	82
 5996 02ea 52       		.byte	82
 5997 02eb 62       		.byte	98
 5998 02ec 62       		.byte	98
 5999 02ed 47       		.byte	71
 6000 02ee 00       		.byte	0
 6001 02ef 00       		.byte	0
 6002 02f0 00       		.byte	0
GAS LISTING C:\Users\Kalle\AppData\Local\Temp\cc2hNkGN.s 			page 135


 6003 02f1 00       		.byte	0
 6004 02f2 00       		.byte	0
 6005 02f3 1C       		.byte	28
 6006 02f4 22       		.byte	34
 6007 02f5 41       		.byte	65
 6008 02f6 41       		.byte	65
 6009 02f7 41       		.byte	65
 6010 02f8 41       		.byte	65
 6011 02f9 41       		.byte	65
 6012 02fa 41       		.byte	65
 6013 02fb 41       		.byte	65
 6014 02fc 22       		.byte	34
 6015 02fd 1C       		.byte	28
 6016 02fe 00       		.byte	0
 6017 02ff 00       		.byte	0
 6018 0300 00       		.byte	0
 6019 0301 00       		.byte	0
 6020 0302 00       		.byte	0
 6021 0303 3F       		.byte	63
 6022 0304 42       		.byte	66
 6023 0305 42       		.byte	66
 6024 0306 42       		.byte	66
 6025 0307 42       		.byte	66
 6026 0308 3E       		.byte	62
 6027 0309 02       		.byte	2
 6028 030a 02       		.byte	2
 6029 030b 02       		.byte	2
 6030 030c 02       		.byte	2
 6031 030d 07       		.byte	7
 6032 030e 00       		.byte	0
 6033 030f 00       		.byte	0
 6034 0310 00       		.byte	0
 6035 0311 00       		.byte	0
 6036 0312 00       		.byte	0
 6037 0313 1C       		.byte	28
 6038 0314 22       		.byte	34
 6039 0315 41       		.byte	65
 6040 0316 41       		.byte	65
 6041 0317 41       		.byte	65
 6042 0318 41       		.byte	65
 6043 0319 41       		.byte	65
 6044 031a 4D       		.byte	77
 6045 031b 53       		.byte	83
 6046 031c 32       		.byte	50
 6047 031d 1C       		.byte	28
 6048 031e 60       		.byte	96
 6049 031f 00       		.byte	0
 6050 0320 00       		.byte	0
 6051 0321 00       		.byte	0
 6052 0322 00       		.byte	0
 6053 0323 3F       		.byte	63
 6054 0324 42       		.byte	66
 6055 0325 42       		.byte	66
 6056 0326 42       		.byte	66
 6057 0327 3E       		.byte	62
 6058 0328 12       		.byte	18
 6059 0329 12       		.byte	18
GAS LISTING C:\Users\Kalle\AppData\Local\Temp\cc2hNkGN.s 			page 136


 6060 032a 22       		.byte	34
 6061 032b 22       		.byte	34
 6062 032c 42       		.byte	66
 6063 032d C7       		.byte	-57
 6064 032e 00       		.byte	0
 6065 032f 00       		.byte	0
 6066 0330 00       		.byte	0
 6067 0331 00       		.byte	0
 6068 0332 00       		.byte	0
 6069 0333 7C       		.byte	124
 6070 0334 42       		.byte	66
 6071 0335 42       		.byte	66
 6072 0336 02       		.byte	2
 6073 0337 04       		.byte	4
 6074 0338 18       		.byte	24
 6075 0339 20       		.byte	32
 6076 033a 40       		.byte	64
 6077 033b 42       		.byte	66
 6078 033c 42       		.byte	66
 6079 033d 3E       		.byte	62
 6080 033e 00       		.byte	0
 6081 033f 00       		.byte	0
 6082 0340 00       		.byte	0
 6083 0341 00       		.byte	0
 6084 0342 00       		.byte	0
 6085 0343 7F       		.byte	127
 6086 0344 49       		.byte	73
 6087 0345 08       		.byte	8
 6088 0346 08       		.byte	8
 6089 0347 08       		.byte	8
 6090 0348 08       		.byte	8
 6091 0349 08       		.byte	8
 6092 034a 08       		.byte	8
 6093 034b 08       		.byte	8
 6094 034c 08       		.byte	8
 6095 034d 1C       		.byte	28
 6096 034e 00       		.byte	0
 6097 034f 00       		.byte	0
 6098 0350 00       		.byte	0
 6099 0351 00       		.byte	0
 6100 0352 00       		.byte	0
 6101 0353 E7       		.byte	-25
 6102 0354 42       		.byte	66
 6103 0355 42       		.byte	66
 6104 0356 42       		.byte	66
 6105 0357 42       		.byte	66
 6106 0358 42       		.byte	66
 6107 0359 42       		.byte	66
 6108 035a 42       		.byte	66
 6109 035b 42       		.byte	66
 6110 035c 42       		.byte	66
 6111 035d 3C       		.byte	60
 6112 035e 00       		.byte	0
 6113 035f 00       		.byte	0
 6114 0360 00       		.byte	0
 6115 0361 00       		.byte	0
 6116 0362 00       		.byte	0
GAS LISTING C:\Users\Kalle\AppData\Local\Temp\cc2hNkGN.s 			page 137


 6117 0363 E7       		.byte	-25
 6118 0364 42       		.byte	66
 6119 0365 42       		.byte	66
 6120 0366 22       		.byte	34
 6121 0367 24       		.byte	36
 6122 0368 24       		.byte	36
 6123 0369 14       		.byte	20
 6124 036a 14       		.byte	20
 6125 036b 18       		.byte	24
 6126 036c 08       		.byte	8
 6127 036d 08       		.byte	8
 6128 036e 00       		.byte	0
 6129 036f 00       		.byte	0
 6130 0370 00       		.byte	0
 6131 0371 00       		.byte	0
 6132 0372 00       		.byte	0
 6133 0373 6B       		.byte	107
 6134 0374 49       		.byte	73
 6135 0375 49       		.byte	73
 6136 0376 49       		.byte	73
 6137 0377 49       		.byte	73
 6138 0378 55       		.byte	85
 6139 0379 55       		.byte	85
 6140 037a 36       		.byte	54
 6141 037b 22       		.byte	34
 6142 037c 22       		.byte	34
 6143 037d 22       		.byte	34
 6144 037e 00       		.byte	0
 6145 037f 00       		.byte	0
 6146 0380 00       		.byte	0
 6147 0381 00       		.byte	0
 6148 0382 00       		.byte	0
 6149 0383 E7       		.byte	-25
 6150 0384 42       		.byte	66
 6151 0385 24       		.byte	36
 6152 0386 24       		.byte	36
 6153 0387 18       		.byte	24
 6154 0388 18       		.byte	24
 6155 0389 18       		.byte	24
 6156 038a 24       		.byte	36
 6157 038b 24       		.byte	36
 6158 038c 42       		.byte	66
 6159 038d E7       		.byte	-25
 6160 038e 00       		.byte	0
 6161 038f 00       		.byte	0
 6162 0390 00       		.byte	0
 6163 0391 00       		.byte	0
 6164 0392 00       		.byte	0
 6165 0393 77       		.byte	119
 6166 0394 22       		.byte	34
 6167 0395 22       		.byte	34
 6168 0396 14       		.byte	20
 6169 0397 14       		.byte	20
 6170 0398 08       		.byte	8
 6171 0399 08       		.byte	8
 6172 039a 08       		.byte	8
 6173 039b 08       		.byte	8
GAS LISTING C:\Users\Kalle\AppData\Local\Temp\cc2hNkGN.s 			page 138


 6174 039c 08       		.byte	8
 6175 039d 1C       		.byte	28
 6176 039e 00       		.byte	0
 6177 039f 00       		.byte	0
 6178 03a0 00       		.byte	0
 6179 03a1 00       		.byte	0
 6180 03a2 00       		.byte	0
 6181 03a3 7E       		.byte	126
 6182 03a4 21       		.byte	33
 6183 03a5 20       		.byte	32
 6184 03a6 10       		.byte	16
 6185 03a7 10       		.byte	16
 6186 03a8 08       		.byte	8
 6187 03a9 04       		.byte	4
 6188 03aa 04       		.byte	4
 6189 03ab 42       		.byte	66
 6190 03ac 42       		.byte	66
 6191 03ad 3F       		.byte	63
 6192 03ae 00       		.byte	0
 6193 03af 00       		.byte	0
 6194 03b0 00       		.byte	0
 6195 03b1 78       		.byte	120
 6196 03b2 08       		.byte	8
 6197 03b3 08       		.byte	8
 6198 03b4 08       		.byte	8
 6199 03b5 08       		.byte	8
 6200 03b6 08       		.byte	8
 6201 03b7 08       		.byte	8
 6202 03b8 08       		.byte	8
 6203 03b9 08       		.byte	8
 6204 03ba 08       		.byte	8
 6205 03bb 08       		.byte	8
 6206 03bc 08       		.byte	8
 6207 03bd 08       		.byte	8
 6208 03be 78       		.byte	120
 6209 03bf 00       		.byte	0
 6210 03c0 00       		.byte	0
 6211 03c1 00       		.byte	0
 6212 03c2 02       		.byte	2
 6213 03c3 02       		.byte	2
 6214 03c4 04       		.byte	4
 6215 03c5 04       		.byte	4
 6216 03c6 08       		.byte	8
 6217 03c7 08       		.byte	8
 6218 03c8 08       		.byte	8
 6219 03c9 10       		.byte	16
 6220 03ca 10       		.byte	16
 6221 03cb 20       		.byte	32
 6222 03cc 20       		.byte	32
 6223 03cd 20       		.byte	32
 6224 03ce 40       		.byte	64
 6225 03cf 40       		.byte	64
 6226 03d0 00       		.byte	0
 6227 03d1 1E       		.byte	30
 6228 03d2 10       		.byte	16
 6229 03d3 10       		.byte	16
 6230 03d4 10       		.byte	16
GAS LISTING C:\Users\Kalle\AppData\Local\Temp\cc2hNkGN.s 			page 139


 6231 03d5 10       		.byte	16
 6232 03d6 10       		.byte	16
 6233 03d7 10       		.byte	16
 6234 03d8 10       		.byte	16
 6235 03d9 10       		.byte	16
 6236 03da 10       		.byte	16
 6237 03db 10       		.byte	16
 6238 03dc 10       		.byte	16
 6239 03dd 10       		.byte	16
 6240 03de 1E       		.byte	30
 6241 03df 00       		.byte	0
 6242 03e0 00       		.byte	0
 6243 03e1 38       		.byte	56
 6244 03e2 44       		.byte	68
 6245 03e3 00       		.byte	0
 6246 03e4 00       		.byte	0
 6247 03e5 00       		.byte	0
 6248 03e6 00       		.byte	0
 6249 03e7 00       		.byte	0
 6250 03e8 00       		.byte	0
 6251 03e9 00       		.byte	0
 6252 03ea 00       		.byte	0
 6253 03eb 00       		.byte	0
 6254 03ec 00       		.byte	0
 6255 03ed 00       		.byte	0
 6256 03ee 00       		.byte	0
 6257 03ef 00       		.byte	0
 6258 03f0 00       		.byte	0
 6259 03f1 00       		.byte	0
 6260 03f2 00       		.byte	0
 6261 03f3 00       		.byte	0
 6262 03f4 00       		.byte	0
 6263 03f5 00       		.byte	0
 6264 03f6 00       		.byte	0
 6265 03f7 00       		.byte	0
 6266 03f8 00       		.byte	0
 6267 03f9 00       		.byte	0
 6268 03fa 00       		.byte	0
 6269 03fb 00       		.byte	0
 6270 03fc 00       		.byte	0
 6271 03fd 00       		.byte	0
 6272 03fe 00       		.byte	0
 6273 03ff FF       		.byte	-1
 6274 0400 00       		.byte	0
 6275 0401 06       		.byte	6
 6276 0402 08       		.byte	8
 6277 0403 00       		.byte	0
 6278 0404 00       		.byte	0
 6279 0405 00       		.byte	0
 6280 0406 00       		.byte	0
 6281 0407 00       		.byte	0
 6282 0408 00       		.byte	0
 6283 0409 00       		.byte	0
 6284 040a 00       		.byte	0
 6285 040b 00       		.byte	0
 6286 040c 00       		.byte	0
 6287 040d 00       		.byte	0
GAS LISTING C:\Users\Kalle\AppData\Local\Temp\cc2hNkGN.s 			page 140


 6288 040e 00       		.byte	0
 6289 040f 00       		.byte	0
 6290 0410 00       		.byte	0
 6291 0411 00       		.byte	0
 6292 0412 00       		.byte	0
 6293 0413 00       		.byte	0
 6294 0414 00       		.byte	0
 6295 0415 00       		.byte	0
 6296 0416 00       		.byte	0
 6297 0417 3C       		.byte	60
 6298 0418 42       		.byte	66
 6299 0419 78       		.byte	120
 6300 041a 44       		.byte	68
 6301 041b 42       		.byte	66
 6302 041c 42       		.byte	66
 6303 041d FC       		.byte	-4
 6304 041e 00       		.byte	0
 6305 041f 00       		.byte	0
 6306 0420 00       		.byte	0
 6307 0421 00       		.byte	0
 6308 0422 00       		.byte	0
 6309 0423 03       		.byte	3
 6310 0424 02       		.byte	2
 6311 0425 02       		.byte	2
 6312 0426 02       		.byte	2
 6313 0427 1A       		.byte	26
 6314 0428 26       		.byte	38
 6315 0429 42       		.byte	66
 6316 042a 42       		.byte	66
 6317 042b 42       		.byte	66
 6318 042c 26       		.byte	38
 6319 042d 1A       		.byte	26
 6320 042e 00       		.byte	0
 6321 042f 00       		.byte	0
 6322 0430 00       		.byte	0
 6323 0431 00       		.byte	0
 6324 0432 00       		.byte	0
 6325 0433 00       		.byte	0
 6326 0434 00       		.byte	0
 6327 0435 00       		.byte	0
 6328 0436 00       		.byte	0
 6329 0437 38       		.byte	56
 6330 0438 44       		.byte	68
 6331 0439 02       		.byte	2
 6332 043a 02       		.byte	2
 6333 043b 02       		.byte	2
 6334 043c 44       		.byte	68
 6335 043d 38       		.byte	56
 6336 043e 00       		.byte	0
 6337 043f 00       		.byte	0
 6338 0440 00       		.byte	0
 6339 0441 00       		.byte	0
 6340 0442 00       		.byte	0
 6341 0443 60       		.byte	96
 6342 0444 40       		.byte	64
 6343 0445 40       		.byte	64
 6344 0446 40       		.byte	64
GAS LISTING C:\Users\Kalle\AppData\Local\Temp\cc2hNkGN.s 			page 141


 6345 0447 78       		.byte	120
 6346 0448 44       		.byte	68
 6347 0449 42       		.byte	66
 6348 044a 42       		.byte	66
 6349 044b 42       		.byte	66
 6350 044c 64       		.byte	100
 6351 044d D8       		.byte	-40
 6352 044e 00       		.byte	0
 6353 044f 00       		.byte	0
 6354 0450 00       		.byte	0
 6355 0451 00       		.byte	0
 6356 0452 00       		.byte	0
 6357 0453 00       		.byte	0
 6358 0454 00       		.byte	0
 6359 0455 00       		.byte	0
 6360 0456 00       		.byte	0
 6361 0457 3C       		.byte	60
 6362 0458 42       		.byte	66
 6363 0459 7E       		.byte	126
 6364 045a 02       		.byte	2
 6365 045b 02       		.byte	2
 6366 045c 42       		.byte	66
 6367 045d 3C       		.byte	60
 6368 045e 00       		.byte	0
 6369 045f 00       		.byte	0
 6370 0460 00       		.byte	0
 6371 0461 00       		.byte	0
 6372 0462 00       		.byte	0
 6373 0463 F0       		.byte	-16
 6374 0464 88       		.byte	-120
 6375 0465 08       		.byte	8
 6376 0466 08       		.byte	8
 6377 0467 7E       		.byte	126
 6378 0468 08       		.byte	8
 6379 0469 08       		.byte	8
 6380 046a 08       		.byte	8
 6381 046b 08       		.byte	8
 6382 046c 08       		.byte	8
 6383 046d 3E       		.byte	62
 6384 046e 00       		.byte	0
 6385 046f 00       		.byte	0
 6386 0470 00       		.byte	0
 6387 0471 00       		.byte	0
 6388 0472 00       		.byte	0
 6389 0473 00       		.byte	0
 6390 0474 00       		.byte	0
 6391 0475 00       		.byte	0
 6392 0476 00       		.byte	0
 6393 0477 7C       		.byte	124
 6394 0478 22       		.byte	34
 6395 0479 22       		.byte	34
 6396 047a 1C       		.byte	28
 6397 047b 02       		.byte	2
 6398 047c 3C       		.byte	60
 6399 047d 42       		.byte	66
 6400 047e 42       		.byte	66
 6401 047f 3C       		.byte	60
GAS LISTING C:\Users\Kalle\AppData\Local\Temp\cc2hNkGN.s 			page 142


 6402 0480 00       		.byte	0
 6403 0481 00       		.byte	0
 6404 0482 00       		.byte	0
 6405 0483 03       		.byte	3
 6406 0484 02       		.byte	2
 6407 0485 02       		.byte	2
 6408 0486 02       		.byte	2
 6409 0487 3A       		.byte	58
 6410 0488 46       		.byte	70
 6411 0489 42       		.byte	66
 6412 048a 42       		.byte	66
 6413 048b 42       		.byte	66
 6414 048c 42       		.byte	66
 6415 048d E7       		.byte	-25
 6416 048e 00       		.byte	0
 6417 048f 00       		.byte	0
 6418 0490 00       		.byte	0
 6419 0491 00       		.byte	0
 6420 0492 00       		.byte	0
 6421 0493 0C       		.byte	12
 6422 0494 0C       		.byte	12
 6423 0495 00       		.byte	0
 6424 0496 00       		.byte	0
 6425 0497 0E       		.byte	14
 6426 0498 08       		.byte	8
 6427 0499 08       		.byte	8
 6428 049a 08       		.byte	8
 6429 049b 08       		.byte	8
 6430 049c 08       		.byte	8
 6431 049d 3E       		.byte	62
 6432 049e 00       		.byte	0
 6433 049f 00       		.byte	0
 6434 04a0 00       		.byte	0
 6435 04a1 00       		.byte	0
 6436 04a2 00       		.byte	0
 6437 04a3 30       		.byte	48
 6438 04a4 30       		.byte	48
 6439 04a5 00       		.byte	0
 6440 04a6 00       		.byte	0
 6441 04a7 38       		.byte	56
 6442 04a8 20       		.byte	32
 6443 04a9 20       		.byte	32
 6444 04aa 20       		.byte	32
 6445 04ab 20       		.byte	32
 6446 04ac 20       		.byte	32
 6447 04ad 20       		.byte	32
 6448 04ae 22       		.byte	34
 6449 04af 1E       		.byte	30
 6450 04b0 00       		.byte	0
 6451 04b1 00       		.byte	0
 6452 04b2 00       		.byte	0
 6453 04b3 03       		.byte	3
 6454 04b4 02       		.byte	2
 6455 04b5 02       		.byte	2
 6456 04b6 02       		.byte	2
 6457 04b7 72       		.byte	114
 6458 04b8 12       		.byte	18
GAS LISTING C:\Users\Kalle\AppData\Local\Temp\cc2hNkGN.s 			page 143


 6459 04b9 0A       		.byte	10
 6460 04ba 16       		.byte	22
 6461 04bb 12       		.byte	18
 6462 04bc 22       		.byte	34
 6463 04bd 77       		.byte	119
 6464 04be 00       		.byte	0
 6465 04bf 00       		.byte	0
 6466 04c0 00       		.byte	0
 6467 04c1 00       		.byte	0
 6468 04c2 00       		.byte	0
 6469 04c3 0E       		.byte	14
 6470 04c4 08       		.byte	8
 6471 04c5 08       		.byte	8
 6472 04c6 08       		.byte	8
 6473 04c7 08       		.byte	8
 6474 04c8 08       		.byte	8
 6475 04c9 08       		.byte	8
 6476 04ca 08       		.byte	8
 6477 04cb 08       		.byte	8
 6478 04cc 08       		.byte	8
 6479 04cd 3E       		.byte	62
 6480 04ce 00       		.byte	0
 6481 04cf 00       		.byte	0
 6482 04d0 00       		.byte	0
 6483 04d1 00       		.byte	0
 6484 04d2 00       		.byte	0
 6485 04d3 00       		.byte	0
 6486 04d4 00       		.byte	0
 6487 04d5 00       		.byte	0
 6488 04d6 00       		.byte	0
 6489 04d7 7F       		.byte	127
 6490 04d8 92       		.byte	-110
 6491 04d9 92       		.byte	-110
 6492 04da 92       		.byte	-110
 6493 04db 92       		.byte	-110
 6494 04dc 92       		.byte	-110
 6495 04dd B7       		.byte	-73
 6496 04de 00       		.byte	0
 6497 04df 00       		.byte	0
 6498 04e0 00       		.byte	0
 6499 04e1 00       		.byte	0
 6500 04e2 00       		.byte	0
 6501 04e3 00       		.byte	0
 6502 04e4 00       		.byte	0
 6503 04e5 00       		.byte	0
 6504 04e6 00       		.byte	0
 6505 04e7 3B       		.byte	59
 6506 04e8 46       		.byte	70
 6507 04e9 42       		.byte	66
 6508 04ea 42       		.byte	66
 6509 04eb 42       		.byte	66
 6510 04ec 42       		.byte	66
 6511 04ed E7       		.byte	-25
 6512 04ee 00       		.byte	0
 6513 04ef 00       		.byte	0
 6514 04f0 00       		.byte	0
 6515 04f1 00       		.byte	0
GAS LISTING C:\Users\Kalle\AppData\Local\Temp\cc2hNkGN.s 			page 144


 6516 04f2 00       		.byte	0
 6517 04f3 00       		.byte	0
 6518 04f4 00       		.byte	0
 6519 04f5 00       		.byte	0
 6520 04f6 00       		.byte	0
 6521 04f7 3C       		.byte	60
 6522 04f8 42       		.byte	66
 6523 04f9 42       		.byte	66
 6524 04fa 42       		.byte	66
 6525 04fb 42       		.byte	66
 6526 04fc 42       		.byte	66
 6527 04fd 3C       		.byte	60
 6528 04fe 00       		.byte	0
 6529 04ff 00       		.byte	0
 6530 0500 00       		.byte	0
 6531 0501 00       		.byte	0
 6532 0502 00       		.byte	0
 6533 0503 00       		.byte	0
 6534 0504 00       		.byte	0
 6535 0505 00       		.byte	0
 6536 0506 00       		.byte	0
 6537 0507 1B       		.byte	27
 6538 0508 26       		.byte	38
 6539 0509 42       		.byte	66
 6540 050a 42       		.byte	66
 6541 050b 42       		.byte	66
 6542 050c 22       		.byte	34
 6543 050d 1E       		.byte	30
 6544 050e 02       		.byte	2
 6545 050f 07       		.byte	7
 6546 0510 00       		.byte	0
 6547 0511 00       		.byte	0
 6548 0512 00       		.byte	0
 6549 0513 00       		.byte	0
 6550 0514 00       		.byte	0
 6551 0515 00       		.byte	0
 6552 0516 00       		.byte	0
 6553 0517 78       		.byte	120
 6554 0518 44       		.byte	68
 6555 0519 42       		.byte	66
 6556 051a 42       		.byte	66
 6557 051b 42       		.byte	66
 6558 051c 44       		.byte	68
 6559 051d 78       		.byte	120
 6560 051e 40       		.byte	64
 6561 051f E0       		.byte	-32
 6562 0520 00       		.byte	0
 6563 0521 00       		.byte	0
 6564 0522 00       		.byte	0
 6565 0523 00       		.byte	0
 6566 0524 00       		.byte	0
 6567 0525 00       		.byte	0
 6568 0526 00       		.byte	0
 6569 0527 77       		.byte	119
 6570 0528 4C       		.byte	76
 6571 0529 04       		.byte	4
 6572 052a 04       		.byte	4
GAS LISTING C:\Users\Kalle\AppData\Local\Temp\cc2hNkGN.s 			page 145


 6573 052b 04       		.byte	4
 6574 052c 04       		.byte	4
 6575 052d 1F       		.byte	31
 6576 052e 00       		.byte	0
 6577 052f 00       		.byte	0
 6578 0530 00       		.byte	0
 6579 0531 00       		.byte	0
 6580 0532 00       		.byte	0
 6581 0533 00       		.byte	0
 6582 0534 00       		.byte	0
 6583 0535 00       		.byte	0
 6584 0536 00       		.byte	0
 6585 0537 7C       		.byte	124
 6586 0538 42       		.byte	66
 6587 0539 02       		.byte	2
 6588 053a 3C       		.byte	60
 6589 053b 40       		.byte	64
 6590 053c 42       		.byte	66
 6591 053d 3E       		.byte	62
 6592 053e 00       		.byte	0
 6593 053f 00       		.byte	0
 6594 0540 00       		.byte	0
 6595 0541 00       		.byte	0
 6596 0542 00       		.byte	0
 6597 0543 00       		.byte	0
 6598 0544 00       		.byte	0
 6599 0545 08       		.byte	8
 6600 0546 08       		.byte	8
 6601 0547 3E       		.byte	62
 6602 0548 08       		.byte	8
 6603 0549 08       		.byte	8
 6604 054a 08       		.byte	8
 6605 054b 08       		.byte	8
 6606 054c 08       		.byte	8
 6607 054d 30       		.byte	48
 6608 054e 00       		.byte	0
 6609 054f 00       		.byte	0
 6610 0550 00       		.byte	0
 6611 0551 00       		.byte	0
 6612 0552 00       		.byte	0
 6613 0553 00       		.byte	0
 6614 0554 00       		.byte	0
 6615 0555 00       		.byte	0
 6616 0556 00       		.byte	0
 6617 0557 63       		.byte	99
 6618 0558 42       		.byte	66
 6619 0559 42       		.byte	66
 6620 055a 42       		.byte	66
 6621 055b 42       		.byte	66
 6622 055c 62       		.byte	98
 6623 055d DC       		.byte	-36
 6624 055e 00       		.byte	0
 6625 055f 00       		.byte	0
 6626 0560 00       		.byte	0
 6627 0561 00       		.byte	0
 6628 0562 00       		.byte	0
 6629 0563 00       		.byte	0
GAS LISTING C:\Users\Kalle\AppData\Local\Temp\cc2hNkGN.s 			page 146


 6630 0564 00       		.byte	0
 6631 0565 00       		.byte	0
 6632 0566 00       		.byte	0
 6633 0567 E7       		.byte	-25
 6634 0568 42       		.byte	66
 6635 0569 24       		.byte	36
 6636 056a 24       		.byte	36
 6637 056b 14       		.byte	20
 6638 056c 08       		.byte	8
 6639 056d 08       		.byte	8
 6640 056e 00       		.byte	0
 6641 056f 00       		.byte	0
 6642 0570 00       		.byte	0
 6643 0571 00       		.byte	0
 6644 0572 00       		.byte	0
 6645 0573 00       		.byte	0
 6646 0574 00       		.byte	0
 6647 0575 00       		.byte	0
 6648 0576 00       		.byte	0
 6649 0577 EB       		.byte	-21
 6650 0578 49       		.byte	73
 6651 0579 49       		.byte	73
 6652 057a 55       		.byte	85
 6653 057b 55       		.byte	85
 6654 057c 22       		.byte	34
 6655 057d 22       		.byte	34
 6656 057e 00       		.byte	0
 6657 057f 00       		.byte	0
 6658 0580 00       		.byte	0
 6659 0581 00       		.byte	0
 6660 0582 00       		.byte	0
 6661 0583 00       		.byte	0
 6662 0584 00       		.byte	0
 6663 0585 00       		.byte	0
 6664 0586 00       		.byte	0
 6665 0587 76       		.byte	118
 6666 0588 24       		.byte	36
 6667 0589 18       		.byte	24
 6668 058a 18       		.byte	24
 6669 058b 18       		.byte	24
 6670 058c 24       		.byte	36
 6671 058d 6E       		.byte	110
 6672 058e 00       		.byte	0
 6673 058f 00       		.byte	0
 6674 0590 00       		.byte	0
 6675 0591 00       		.byte	0
 6676 0592 00       		.byte	0
 6677 0593 00       		.byte	0
 6678 0594 00       		.byte	0
 6679 0595 00       		.byte	0
 6680 0596 00       		.byte	0
 6681 0597 E7       		.byte	-25
 6682 0598 42       		.byte	66
 6683 0599 24       		.byte	36
 6684 059a 24       		.byte	36
 6685 059b 14       		.byte	20
 6686 059c 18       		.byte	24
GAS LISTING C:\Users\Kalle\AppData\Local\Temp\cc2hNkGN.s 			page 147


 6687 059d 08       		.byte	8
 6688 059e 08       		.byte	8
 6689 059f 07       		.byte	7
 6690 05a0 00       		.byte	0
 6691 05a1 00       		.byte	0
 6692 05a2 00       		.byte	0
 6693 05a3 00       		.byte	0
 6694 05a4 00       		.byte	0
 6695 05a5 00       		.byte	0
 6696 05a6 00       		.byte	0
 6697 05a7 7E       		.byte	126
 6698 05a8 22       		.byte	34
 6699 05a9 10       		.byte	16
 6700 05aa 08       		.byte	8
 6701 05ab 08       		.byte	8
 6702 05ac 44       		.byte	68
 6703 05ad 7E       		.byte	126
 6704 05ae 00       		.byte	0
 6705 05af 00       		.byte	0
 6706 05b0 00       		.byte	0
 6707 05b1 C0       		.byte	-64
 6708 05b2 20       		.byte	32
 6709 05b3 20       		.byte	32
 6710 05b4 20       		.byte	32
 6711 05b5 20       		.byte	32
 6712 05b6 20       		.byte	32
 6713 05b7 10       		.byte	16
 6714 05b8 20       		.byte	32
 6715 05b9 20       		.byte	32
 6716 05ba 20       		.byte	32
 6717 05bb 20       		.byte	32
 6718 05bc 20       		.byte	32
 6719 05bd 20       		.byte	32
 6720 05be C0       		.byte	-64
 6721 05bf 00       		.byte	0
 6722 05c0 10       		.byte	16
 6723 05c1 10       		.byte	16
 6724 05c2 10       		.byte	16
 6725 05c3 10       		.byte	16
 6726 05c4 10       		.byte	16
 6727 05c5 10       		.byte	16
 6728 05c6 10       		.byte	16
 6729 05c7 10       		.byte	16
 6730 05c8 10       		.byte	16
 6731 05c9 10       		.byte	16
 6732 05ca 10       		.byte	16
 6733 05cb 10       		.byte	16
 6734 05cc 10       		.byte	16
 6735 05cd 10       		.byte	16
 6736 05ce 10       		.byte	16
 6737 05cf 10       		.byte	16
 6738 05d0 00       		.byte	0
 6739 05d1 06       		.byte	6
 6740 05d2 08       		.byte	8
 6741 05d3 08       		.byte	8
 6742 05d4 08       		.byte	8
 6743 05d5 08       		.byte	8
GAS LISTING C:\Users\Kalle\AppData\Local\Temp\cc2hNkGN.s 			page 148


 6744 05d6 08       		.byte	8
 6745 05d7 10       		.byte	16
 6746 05d8 08       		.byte	8
 6747 05d9 08       		.byte	8
 6748 05da 08       		.byte	8
 6749 05db 08       		.byte	8
 6750 05dc 08       		.byte	8
 6751 05dd 08       		.byte	8
 6752 05de 06       		.byte	6
 6753 05df 00       		.byte	0
 6754 05e0 0C       		.byte	12
 6755 05e1 32       		.byte	50
 6756 05e2 C2       		.byte	-62
 6757 05e3 00       		.byte	0
 6758 05e4 00       		.byte	0
 6759 05e5 00       		.byte	0
 6760 05e6 00       		.byte	0
 6761 05e7 00       		.byte	0
 6762 05e8 00       		.byte	0
 6763 05e9 00       		.byte	0
 6764 05ea 00       		.byte	0
 6765 05eb 00       		.byte	0
 6766 05ec 00       		.byte	0
 6767 05ed 00       		.byte	0
 6768 05ee 00       		.byte	0
 6769 05ef 00       		.byte	0
 6770              		.section	.rodata.lcd_delay_1ms.cst8,"aM",@progbits,8
 6771              		.align	3
 6772              	.LC0:
 6773 0000 00000000 		.word	0
 6774 0004 0040AF40 		.word	1085227008
 6775              		.section	.sbss.lcd_conf,"aw",@nobits
 6776              		.align	2
 6777              		.set	.LANCHOR3,. + 0
 6780              	lcd_conf:
 6781 0000 00000000 		.zero	4
 6782              		.section	.sbss.r,"aw",@nobits
 6783              		.align	2
 6784              		.set	.LANCHOR0,. + 0
 6787              	r:
 6788 0000 00000000 		.zero	4
 6789              		.section	.sbss.w,"aw",@nobits
 6790              		.align	2
 6791              		.set	.LANCHOR1,. + 0
 6794              	w:
 6795 0000 00000000 		.zero	4
 6796              		.text
 6797              	.Letext0:
 6798              		.file 2 "c:\\idrotttek-kurs\\toolchain-gd32v-win\\compiler\\lib\\gcc\\riscv64-unknown-elf\\8.3.0\\
 6799              		.file 3 "c:\\idrotttek-kurs\\toolchain-gd32v-win\\compiler\\riscv64-unknown-elf\\include\\machine\
 6800              		.file 4 "c:\\idrotttek-kurs\\toolchain-gd32v-win\\compiler\\riscv64-unknown-elf\\include\\sys\\_ty
 6801              		.file 5 "c:\\idrotttek-kurs\\toolchain-gd32v-win\\compiler\\riscv64-unknown-elf\\include\\sys\\ree
 6802              		.file 6 "c:\\idrotttek-kurs\\toolchain-gd32v-win\\compiler\\riscv64-unknown-elf\\include\\sys\\loc
 6803              		.file 7 "c:\\idrotttek-kurs\\toolchain-gd32v-win\\compiler\\riscv64-unknown-elf\\include\\stdlib.h
 6804              		.file 8 "c:\\idrotttek-kurs\\toolchain-gd32v-win\\compiler\\riscv64-unknown-elf\\include\\sys\\_st
 6805              		.file 9 "../../firmware/GD32VF103_standard_peripheral/system_gd32vf103.h"
 6806              		.file 10 "../../firmware/GD32VF103_standard_peripheral/gd32vf103.h"
GAS LISTING C:\Users\Kalle\AppData\Local\Temp\cc2hNkGN.s 			page 149


 6807              		.file 11 "../../firmware/GD32VF103_standard_peripheral/Include/gd32vf103_rcu.h"
 6808              		.file 12 "../../firmware/GD32VF103_standard_peripheral/Include/gd32vf103_spi.h"
 6809              		.file 13 "lib/lcd/include/lcd.h"
 6810              		.file 14 "lib/lcd/include/oledfont.h"
 6811              		.file 15 "../../firmware/GD32VF103_standard_peripheral/Include/gd32vf103_gpio.h"
 6812              		.file 16 "../../firmware/RISCV/drivers/n200_func.h"
GAS LISTING C:\Users\Kalle\AppData\Local\Temp\cc2hNkGN.s 			page 150


DEFINED SYMBOLS
                            *ABS*:0000000000000000 lcd.c
C:\Users\Kalle\AppData\Local\Temp\cc2hNkGN.s:18     .text.lcd_delay_1ms:0000000000000000 lcd_delay_1ms
C:\Users\Kalle\AppData\Local\Temp\cc2hNkGN.s:22     .text.lcd_delay_1ms:0000000000000000 .L0 
C:\Users\Kalle\AppData\Local\Temp\cc2hNkGN.s:24     .text.lcd_delay_1ms:0000000000000000 .L0 
C:\Users\Kalle\AppData\Local\Temp\cc2hNkGN.s:25     .text.lcd_delay_1ms:0000000000000000 .L0 
C:\Users\Kalle\AppData\Local\Temp\cc2hNkGN.s:26     .text.lcd_delay_1ms:0000000000000000 .L0 
C:\Users\Kalle\AppData\Local\Temp\cc2hNkGN.s:27     .text.lcd_delay_1ms:0000000000000000 .L0 
C:\Users\Kalle\AppData\Local\Temp\cc2hNkGN.s:29     .text.lcd_delay_1ms:0000000000000002 .L0 
C:\Users\Kalle\AppData\Local\Temp\cc2hNkGN.s:41     .text.lcd_delay_1ms:0000000000000018 .L0 
C:\Users\Kalle\AppData\Local\Temp\cc2hNkGN.s:42     .text.lcd_delay_1ms:0000000000000018 .L0 
C:\Users\Kalle\AppData\Local\Temp\cc2hNkGN.s:43     .text.lcd_delay_1ms:0000000000000018 .L0 
C:\Users\Kalle\AppData\Local\Temp\cc2hNkGN.s:44     .text.lcd_delay_1ms:0000000000000018 .L0 
C:\Users\Kalle\AppData\Local\Temp\cc2hNkGN.s:45     .text.lcd_delay_1ms:0000000000000018 .L0 
C:\Users\Kalle\AppData\Local\Temp\cc2hNkGN.s:46     .text.lcd_delay_1ms:0000000000000018 .L0 
C:\Users\Kalle\AppData\Local\Temp\cc2hNkGN.s:47     .text.lcd_delay_1ms:0000000000000018 .L0 
C:\Users\Kalle\AppData\Local\Temp\cc2hNkGN.s:48     .text.lcd_delay_1ms:0000000000000018 .L0 
C:\Users\Kalle\AppData\Local\Temp\cc2hNkGN.s:49     .text.lcd_delay_1ms:0000000000000018 .L0 
C:\Users\Kalle\AppData\Local\Temp\cc2hNkGN.s:50     .text.lcd_delay_1ms:0000000000000018 .L0 
C:\Users\Kalle\AppData\Local\Temp\cc2hNkGN.s:51     .text.lcd_delay_1ms:0000000000000018 .L0 
C:\Users\Kalle\AppData\Local\Temp\cc2hNkGN.s:53     .text.lcd_delay_1ms:0000000000000018 .L0 
C:\Users\Kalle\AppData\Local\Temp\cc2hNkGN.s:55     .text.lcd_delay_1ms:000000000000001a .L0 
C:\Users\Kalle\AppData\Local\Temp\cc2hNkGN.s:62     .text.lcd_delay_1ms:0000000000000026 .L0 
C:\Users\Kalle\AppData\Local\Temp\cc2hNkGN.s:63     .text.lcd_delay_1ms:0000000000000026 .L0 
C:\Users\Kalle\AppData\Local\Temp\cc2hNkGN.s:64     .text.lcd_delay_1ms:0000000000000026 .L0 
C:\Users\Kalle\AppData\Local\Temp\cc2hNkGN.s:70     .text.lcd_delay_1ms:0000000000000032 .L0 
C:\Users\Kalle\AppData\Local\Temp\cc2hNkGN.s:75     .text.lcd_delay_1ms:000000000000003e .L0 
C:\Users\Kalle\AppData\Local\Temp\cc2hNkGN.s:81     .text.lcd_delay_1ms:000000000000004a .L0 
C:\Users\Kalle\AppData\Local\Temp\cc2hNkGN.s:82     .text.lcd_delay_1ms:000000000000004a .L0 
C:\Users\Kalle\AppData\Local\Temp\cc2hNkGN.s:83     .text.lcd_delay_1ms:000000000000004a .L0 
C:\Users\Kalle\AppData\Local\Temp\cc2hNkGN.s:88     .text.lcd_delay_1ms:0000000000000054 .L0 
C:\Users\Kalle\AppData\Local\Temp\cc2hNkGN.s:94     .text.lcd_delay_1ms:000000000000005c .L0 
C:\Users\Kalle\AppData\Local\Temp\cc2hNkGN.s:99     .text.lcd_delay_1ms:0000000000000068 .L0 
C:\Users\Kalle\AppData\Local\Temp\cc2hNkGN.s:101    .text.lcd_delay_1ms:000000000000006c .L0 
C:\Users\Kalle\AppData\Local\Temp\cc2hNkGN.s:103    .text.lcd_delay_1ms:000000000000006e .L0 
C:\Users\Kalle\AppData\Local\Temp\cc2hNkGN.s:111    .text.lcd_delay_1ms:0000000000000084 .L0 
C:\Users\Kalle\AppData\Local\Temp\cc2hNkGN.s:113    .text.lcd_delay_1ms:0000000000000086 .L0 
C:\Users\Kalle\AppData\Local\Temp\cc2hNkGN.s:115    .text.lcd_delay_1ms:0000000000000088 .L0 
C:\Users\Kalle\AppData\Local\Temp\cc2hNkGN.s:124    .text.lcd_delay_1ms:00000000000000a0 .L0 
C:\Users\Kalle\AppData\Local\Temp\cc2hNkGN.s:132    .text.lcd_delay_1ms:00000000000000b4 .L0 
C:\Users\Kalle\AppData\Local\Temp\cc2hNkGN.s:133    .text.lcd_delay_1ms:00000000000000b6 .L0 
C:\Users\Kalle\AppData\Local\Temp\cc2hNkGN.s:135    .text.lcd_delay_1ms:00000000000000b8 .L0 
C:\Users\Kalle\AppData\Local\Temp\cc2hNkGN.s:138    .text.lcd_delay_1ms:00000000000000ba .L0 
C:\Users\Kalle\AppData\Local\Temp\cc2hNkGN.s:140    .text.lcd_delay_1ms:00000000000000bc .L0 
C:\Users\Kalle\AppData\Local\Temp\cc2hNkGN.s:142    .text.lcd_delay_1ms:00000000000000be .L0 
C:\Users\Kalle\AppData\Local\Temp\cc2hNkGN.s:144    .text.lcd_delay_1ms:00000000000000c0 .L0 
C:\Users\Kalle\AppData\Local\Temp\cc2hNkGN.s:146    .text.lcd_delay_1ms:00000000000000c2 .L0 
C:\Users\Kalle\AppData\Local\Temp\cc2hNkGN.s:148    .text.lcd_delay_1ms:00000000000000c4 .L0 
C:\Users\Kalle\AppData\Local\Temp\cc2hNkGN.s:150    .text.lcd_delay_1ms:00000000000000c6 .L0 
C:\Users\Kalle\AppData\Local\Temp\cc2hNkGN.s:153    .text.lcd_delay_1ms:00000000000000c8 .L0 
C:\Users\Kalle\AppData\Local\Temp\cc2hNkGN.s:155    .text.lcd_delay_1ms:00000000000000ca .L0 
C:\Users\Kalle\AppData\Local\Temp\cc2hNkGN.s:158    .text.lcd_delay_1ms:00000000000000cc .L0 
C:\Users\Kalle\AppData\Local\Temp\cc2hNkGN.s:160    .text.lcd_delay_1ms:00000000000000ce .L0 
C:\Users\Kalle\AppData\Local\Temp\cc2hNkGN.s:167    .text.LCD_WR_Queue:0000000000000000 LCD_WR_Queue
C:\Users\Kalle\AppData\Local\Temp\cc2hNkGN.s:170    .text.LCD_WR_Queue:0000000000000000 .L0 
C:\Users\Kalle\AppData\Local\Temp\cc2hNkGN.s:171    .text.LCD_WR_Queue:0000000000000000 .L0 
C:\Users\Kalle\AppData\Local\Temp\cc2hNkGN.s:172    .text.LCD_WR_Queue:0000000000000000 .L0 
GAS LISTING C:\Users\Kalle\AppData\Local\Temp\cc2hNkGN.s 			page 151


C:\Users\Kalle\AppData\Local\Temp\cc2hNkGN.s:173    .text.LCD_WR_Queue:0000000000000000 .L0 
C:\Users\Kalle\AppData\Local\Temp\cc2hNkGN.s:175    .text.LCD_WR_Queue:0000000000000002 .L0 
C:\Users\Kalle\AppData\Local\Temp\cc2hNkGN.s:177    .text.LCD_WR_Queue:0000000000000004 .L0 
C:\Users\Kalle\AppData\Local\Temp\cc2hNkGN.s:179    .text.LCD_WR_Queue:0000000000000004 .L0 
C:\Users\Kalle\AppData\Local\Temp\cc2hNkGN.s:182    .text.LCD_WR_Queue:000000000000000c .L0 
C:\Users\Kalle\AppData\Local\Temp\cc2hNkGN.s:186    .text.LCD_WR_Queue:0000000000000016 .L0 
C:\Users\Kalle\AppData\Local\Temp\cc2hNkGN.s:188    .text.LCD_WR_Queue:000000000000001a .L0 
C:\Users\Kalle\AppData\Local\Temp\cc2hNkGN.s:189    .text.LCD_WR_Queue:000000000000001a .L0 
C:\Users\Kalle\AppData\Local\Temp\cc2hNkGN.s:191    .text.LCD_WR_Queue:000000000000001a .L0 
C:\Users\Kalle\AppData\Local\Temp\cc2hNkGN.s:193    .text.LCD_WR_Queue:000000000000001e .L0 
C:\Users\Kalle\AppData\Local\Temp\cc2hNkGN.s:194    .text.LCD_WR_Queue:000000000000001e .L0 
C:\Users\Kalle\AppData\Local\Temp\cc2hNkGN.s:200    .text.LCD_WR_Queue:0000000000000030 .L0 
C:\Users\Kalle\AppData\Local\Temp\cc2hNkGN.s:202    .text.LCD_WR_Queue:0000000000000032 .L0 
C:\Users\Kalle\AppData\Local\Temp\cc2hNkGN.s:203    .text.LCD_WR_Queue:0000000000000034 .L0 
C:\Users\Kalle\AppData\Local\Temp\cc2hNkGN.s:204    .text.LCD_WR_Queue:0000000000000034 .L0 
C:\Users\Kalle\AppData\Local\Temp\cc2hNkGN.s:206    .text.LCD_WR_Queue:0000000000000036 .L0 
C:\Users\Kalle\AppData\Local\Temp\cc2hNkGN.s:208    .text.LCD_WR_Queue:0000000000000038 .L0 
C:\Users\Kalle\AppData\Local\Temp\cc2hNkGN.s:211    .text.LCD_WR_Queue:000000000000003a .L0 
C:\Users\Kalle\AppData\Local\Temp\cc2hNkGN.s:215    .text.LCD_WR_Queue:000000000000003c .L0 
C:\Users\Kalle\AppData\Local\Temp\cc2hNkGN.s:219    .text.LCD_WR_Queue:000000000000003c .L0 
C:\Users\Kalle\AppData\Local\Temp\cc2hNkGN.s:224    .text.LCD_WR_Queue:000000000000004a .L0 
C:\Users\Kalle\AppData\Local\Temp\cc2hNkGN.s:225    .text.LCD_WR_Queue:000000000000004a .L0 
C:\Users\Kalle\AppData\Local\Temp\cc2hNkGN.s:231    .text.LCD_WR_Queue:0000000000000058 .L0 
C:\Users\Kalle\AppData\Local\Temp\cc2hNkGN.s:234    .text.LCD_WR_Queue:000000000000005e .L0 
C:\Users\Kalle\AppData\Local\Temp\cc2hNkGN.s:237    .text.LCD_WR_Queue:0000000000000064 .L0 
C:\Users\Kalle\AppData\Local\Temp\cc2hNkGN.s:239    .text.LCD_WR_Queue:0000000000000068 .L0 
C:\Users\Kalle\AppData\Local\Temp\cc2hNkGN.s:243    .text.LCD_WR_Queue:0000000000000070 .L0 
C:\Users\Kalle\AppData\Local\Temp\cc2hNkGN.s:244    .text.LCD_WR_Queue:0000000000000070 .L0 
C:\Users\Kalle\AppData\Local\Temp\cc2hNkGN.s:246    .text.LCD_WR_Queue:0000000000000072 .L0 
C:\Users\Kalle\AppData\Local\Temp\cc2hNkGN.s:249    .text.LCD_WR_Queue:000000000000007a .L0 
C:\Users\Kalle\AppData\Local\Temp\cc2hNkGN.s:252    .text.LCD_WR_Queue:0000000000000080 .L0 
C:\Users\Kalle\AppData\Local\Temp\cc2hNkGN.s:254    .text.LCD_WR_Queue:0000000000000084 .L0 
C:\Users\Kalle\AppData\Local\Temp\cc2hNkGN.s:257    .text.LCD_WR_Queue:0000000000000088 .L0 
C:\Users\Kalle\AppData\Local\Temp\cc2hNkGN.s:260    .text.LCD_WR_Queue:0000000000000090 .L0 
C:\Users\Kalle\AppData\Local\Temp\cc2hNkGN.s:261    .text.LCD_WR_Queue:0000000000000090 .L0 
C:\Users\Kalle\AppData\Local\Temp\cc2hNkGN.s:265    .text.LCD_WR_Queue:0000000000000092 .L0 
C:\Users\Kalle\AppData\Local\Temp\cc2hNkGN.s:266    .text.LCD_WR_Queue:0000000000000094 .L0 
C:\Users\Kalle\AppData\Local\Temp\cc2hNkGN.s:267    .text.LCD_WR_Queue:0000000000000094 .L0 
C:\Users\Kalle\AppData\Local\Temp\cc2hNkGN.s:269    .text.LCD_WR_Queue:0000000000000096 .L0 
C:\Users\Kalle\AppData\Local\Temp\cc2hNkGN.s:273    .text.LCD_WR_Queue:0000000000000096 .L0 
C:\Users\Kalle\AppData\Local\Temp\cc2hNkGN.s:282    .text.LCD_WR_Queue:00000000000000a6 .L0 
C:\Users\Kalle\AppData\Local\Temp\cc2hNkGN.s:283    .text.LCD_WR_Queue:00000000000000a8 .L0 
C:\Users\Kalle\AppData\Local\Temp\cc2hNkGN.s:286    .text.LCD_WR_Queue:00000000000000aa .L0 
C:\Users\Kalle\AppData\Local\Temp\cc2hNkGN.s:290    .text.LCD_WR_Queue:00000000000000ac .L0 
C:\Users\Kalle\AppData\Local\Temp\cc2hNkGN.s:292    .text.LCD_WR_Queue:00000000000000ac .L0 
C:\Users\Kalle\AppData\Local\Temp\cc2hNkGN.s:293    .text.LCD_WR_Queue:00000000000000ac .L0 
C:\Users\Kalle\AppData\Local\Temp\cc2hNkGN.s:294    .text.LCD_WR_Queue:00000000000000ae .L0 
C:\Users\Kalle\AppData\Local\Temp\cc2hNkGN.s:295    .text.LCD_WR_Queue:00000000000000ae .L0 
C:\Users\Kalle\AppData\Local\Temp\cc2hNkGN.s:297    .text.LCD_WR_Queue:00000000000000b0 .L0 
C:\Users\Kalle\AppData\Local\Temp\cc2hNkGN.s:299    .text.LCD_WR_Queue:00000000000000b2 .L0 
C:\Users\Kalle\AppData\Local\Temp\cc2hNkGN.s:301    .text.LCD_WR_Queue:00000000000000b2 .L0 
C:\Users\Kalle\AppData\Local\Temp\cc2hNkGN.s:303    .text.LCD_WR_Queue:00000000000000b4 .L0 
C:\Users\Kalle\AppData\Local\Temp\cc2hNkGN.s:304    .text.LCD_WR_Queue:00000000000000b4 .L0 
C:\Users\Kalle\AppData\Local\Temp\cc2hNkGN.s:306    .text.LCD_WR_Queue:00000000000000b8 .L0 
C:\Users\Kalle\AppData\Local\Temp\cc2hNkGN.s:308    .text.LCD_WR_Queue:00000000000000ba .L0 
C:\Users\Kalle\AppData\Local\Temp\cc2hNkGN.s:310    .text.LCD_WR_Queue:00000000000000ba .L0 
C:\Users\Kalle\AppData\Local\Temp\cc2hNkGN.s:314    .text.LCD_WR_Queue:00000000000000c2 .L0 
GAS LISTING C:\Users\Kalle\AppData\Local\Temp\cc2hNkGN.s 			page 152


C:\Users\Kalle\AppData\Local\Temp\cc2hNkGN.s:318    .text.LCD_WR_Queue:00000000000000c2 .L0 
C:\Users\Kalle\AppData\Local\Temp\cc2hNkGN.s:323    .text.LCD_WR_Queue:00000000000000cc .L0 
C:\Users\Kalle\AppData\Local\Temp\cc2hNkGN.s:330    .text.LCD_Wait_On_Queue:0000000000000000 LCD_Wait_On_Queue
C:\Users\Kalle\AppData\Local\Temp\cc2hNkGN.s:333    .text.LCD_Wait_On_Queue:0000000000000000 .L0 
C:\Users\Kalle\AppData\Local\Temp\cc2hNkGN.s:334    .text.LCD_Wait_On_Queue:0000000000000000 .L0 
C:\Users\Kalle\AppData\Local\Temp\cc2hNkGN.s:335    .text.LCD_Wait_On_Queue:0000000000000000 .L0 
C:\Users\Kalle\AppData\Local\Temp\cc2hNkGN.s:336    .text.LCD_Wait_On_Queue:0000000000000000 .L0 
C:\Users\Kalle\AppData\Local\Temp\cc2hNkGN.s:338    .text.LCD_Wait_On_Queue:0000000000000002 .L0 
C:\Users\Kalle\AppData\Local\Temp\cc2hNkGN.s:341    .text.LCD_Wait_On_Queue:0000000000000006 .L0 
C:\Users\Kalle\AppData\Local\Temp\cc2hNkGN.s:342    .text.LCD_Wait_On_Queue:0000000000000006 .L0 
C:\Users\Kalle\AppData\Local\Temp\cc2hNkGN.s:344    .text.LCD_Wait_On_Queue:0000000000000006 .L0 
C:\Users\Kalle\AppData\Local\Temp\cc2hNkGN.s:349    .text.LCD_Wait_On_Queue:0000000000000016 .L0 
C:\Users\Kalle\AppData\Local\Temp\cc2hNkGN.s:352    .text.LCD_Wait_On_Queue:000000000000001a .L0 
C:\Users\Kalle\AppData\Local\Temp\cc2hNkGN.s:353    .text.LCD_Wait_On_Queue:000000000000001c .L0 
C:\Users\Kalle\AppData\Local\Temp\cc2hNkGN.s:355    .text.LCD_Wait_On_Queue:000000000000001c .L0 
C:\Users\Kalle\AppData\Local\Temp\cc2hNkGN.s:358    .text.LCD_Wait_On_Queue:0000000000000020 .L0 
C:\Users\Kalle\AppData\Local\Temp\cc2hNkGN.s:361    .text.LCD_Wait_On_Queue:0000000000000028 .L0 
C:\Users\Kalle\AppData\Local\Temp\cc2hNkGN.s:366    .text.LCD_Wait_On_Queue:0000000000000030 .L0 
C:\Users\Kalle\AppData\Local\Temp\cc2hNkGN.s:367    .text.LCD_Wait_On_Queue:0000000000000032 .L0 
C:\Users\Kalle\AppData\Local\Temp\cc2hNkGN.s:369    .text.LCD_Wait_On_Queue:0000000000000034 .L0 
C:\Users\Kalle\AppData\Local\Temp\cc2hNkGN.s:371    .text.LCD_Wait_On_Queue:0000000000000036 .L0 
C:\Users\Kalle\AppData\Local\Temp\cc2hNkGN.s:374    .text.LCD_Wait_On_Queue:0000000000000038 .L0 
C:\Users\Kalle\AppData\Local\Temp\cc2hNkGN.s:376    .text.LCD_Wait_On_Queue:000000000000003a .L0 
C:\Users\Kalle\AppData\Local\Temp\cc2hNkGN.s:383    .text.LCD_Write_Bus:0000000000000000 LCD_Write_Bus
C:\Users\Kalle\AppData\Local\Temp\cc2hNkGN.s:386    .text.LCD_Write_Bus:0000000000000000 .L0 
C:\Users\Kalle\AppData\Local\Temp\cc2hNkGN.s:388    .text.LCD_Write_Bus:0000000000000000 .L0 
C:\Users\Kalle\AppData\Local\Temp\cc2hNkGN.s:389    .text.LCD_Write_Bus:0000000000000000 .L0 
C:\Users\Kalle\AppData\Local\Temp\cc2hNkGN.s:390    .text.LCD_Write_Bus:0000000000000000 .L0 
C:\Users\Kalle\AppData\Local\Temp\cc2hNkGN.s:392    .text.LCD_Write_Bus:0000000000000002 .L0 
C:\Users\Kalle\AppData\Local\Temp\cc2hNkGN.s:394    .text.LCD_Write_Bus:0000000000000004 .L0 
C:\Users\Kalle\AppData\Local\Temp\cc2hNkGN.s:396    .text.LCD_Write_Bus:0000000000000004 .L0 
C:\Users\Kalle\AppData\Local\Temp\cc2hNkGN.s:400    .text.LCD_Write_Bus:000000000000000e .L0 
C:\Users\Kalle\AppData\Local\Temp\cc2hNkGN.s:401    .text.LCD_Write_Bus:0000000000000010 .L0 
C:\Users\Kalle\AppData\Local\Temp\cc2hNkGN.s:403    .text.LCD_Write_Bus:0000000000000010 .L0 
C:\Users\Kalle\AppData\Local\Temp\cc2hNkGN.s:405    .text.LCD_Write_Bus:0000000000000014 .L0 
C:\Users\Kalle\AppData\Local\Temp\cc2hNkGN.s:407    .text.LCD_Write_Bus:0000000000000018 .L0 
C:\Users\Kalle\AppData\Local\Temp\cc2hNkGN.s:410    .text.LCD_Write_Bus:0000000000000020 .L0 
C:\Users\Kalle\AppData\Local\Temp\cc2hNkGN.s:412    .text.LCD_Write_Bus:0000000000000024 .L0 
C:\Users\Kalle\AppData\Local\Temp\cc2hNkGN.s:414    .text.LCD_Write_Bus:0000000000000028 .L0 
C:\Users\Kalle\AppData\Local\Temp\cc2hNkGN.s:416    .text.LCD_Write_Bus:000000000000002a .L0 
C:\Users\Kalle\AppData\Local\Temp\cc2hNkGN.s:418    .text.LCD_Write_Bus:000000000000002e .L0 
C:\Users\Kalle\AppData\Local\Temp\cc2hNkGN.s:420    .text.LCD_Write_Bus:0000000000000032 .L0 
C:\Users\Kalle\AppData\Local\Temp\cc2hNkGN.s:421    .text.LCD_Write_Bus:0000000000000032 .L0 
C:\Users\Kalle\AppData\Local\Temp\cc2hNkGN.s:423    .text.LCD_Write_Bus:0000000000000032 .L0 
C:\Users\Kalle\AppData\Local\Temp\cc2hNkGN.s:425    .text.LCD_Write_Bus:0000000000000034 .L0 
C:\Users\Kalle\AppData\Local\Temp\cc2hNkGN.s:427    .text.LCD_Write_Bus:0000000000000036 .L0 
C:\Users\Kalle\AppData\Local\Temp\cc2hNkGN.s:431    .text.LCD_Write_Bus:000000000000003a .L0 
C:\Users\Kalle\AppData\Local\Temp\cc2hNkGN.s:434    .text.LCD_Write_Bus:0000000000000042 .L0 
C:\Users\Kalle\AppData\Local\Temp\cc2hNkGN.s:436    .text.LCD_Write_Bus:0000000000000044 .L0 
C:\Users\Kalle\AppData\Local\Temp\cc2hNkGN.s:438    .text.LCD_Write_Bus:0000000000000046 .L0 
C:\Users\Kalle\AppData\Local\Temp\cc2hNkGN.s:440    .text.LCD_Write_Bus:000000000000004a .L0 
C:\Users\Kalle\AppData\Local\Temp\cc2hNkGN.s:446    .text.LCD_Write_Bus:0000000000000058 .L0 
C:\Users\Kalle\AppData\Local\Temp\cc2hNkGN.s:449    .text.LCD_Write_Bus:000000000000005c .L0 
C:\Users\Kalle\AppData\Local\Temp\cc2hNkGN.s:450    .text.LCD_Write_Bus:000000000000005c .L0 
C:\Users\Kalle\AppData\Local\Temp\cc2hNkGN.s:452    .text.LCD_Write_Bus:0000000000000060 .L0 
C:\Users\Kalle\AppData\Local\Temp\cc2hNkGN.s:454    .text.LCD_Write_Bus:0000000000000062 .L0 
C:\Users\Kalle\AppData\Local\Temp\cc2hNkGN.s:455    .text.LCD_Write_Bus:0000000000000064 .L0 
GAS LISTING C:\Users\Kalle\AppData\Local\Temp\cc2hNkGN.s 			page 153


C:\Users\Kalle\AppData\Local\Temp\cc2hNkGN.s:457    .text.LCD_Write_Bus:0000000000000066 .L0 
C:\Users\Kalle\AppData\Local\Temp\cc2hNkGN.s:459    .text.LCD_Write_Bus:0000000000000066 .L0 
C:\Users\Kalle\AppData\Local\Temp\cc2hNkGN.s:464    .text.LCD_Write_Bus:0000000000000072 .L0 
C:\Users\Kalle\AppData\Local\Temp\cc2hNkGN.s:465    .text.LCD_Write_Bus:0000000000000072 .L0 
C:\Users\Kalle\AppData\Local\Temp\cc2hNkGN.s:466    .text.LCD_Write_Bus:0000000000000074 .L0 
C:\Users\Kalle\AppData\Local\Temp\cc2hNkGN.s:468    .text.LCD_Write_Bus:0000000000000076 .L0 
C:\Users\Kalle\AppData\Local\Temp\cc2hNkGN.s:472    .text.LCD_Write_Bus:0000000000000078 .L0 
C:\Users\Kalle\AppData\Local\Temp\cc2hNkGN.s:474    .text.LCD_Write_Bus:000000000000007a .L0 
C:\Users\Kalle\AppData\Local\Temp\cc2hNkGN.s:481    .text.LCD_Writ_Bus:0000000000000000 LCD_Writ_Bus
C:\Users\Kalle\AppData\Local\Temp\cc2hNkGN.s:484    .text.LCD_Writ_Bus:0000000000000000 .L0 
C:\Users\Kalle\AppData\Local\Temp\cc2hNkGN.s:486    .text.LCD_Writ_Bus:0000000000000000 .L0 
C:\Users\Kalle\AppData\Local\Temp\cc2hNkGN.s:487    .text.LCD_Writ_Bus:0000000000000000 .L0 
C:\Users\Kalle\AppData\Local\Temp\cc2hNkGN.s:488    .text.LCD_Writ_Bus:0000000000000000 .L0 
C:\Users\Kalle\AppData\Local\Temp\cc2hNkGN.s:490    .text.LCD_Writ_Bus:0000000000000002 .L0 
C:\Users\Kalle\AppData\Local\Temp\cc2hNkGN.s:494    .text.LCD_Writ_Bus:0000000000000006 .L0 
C:\Users\Kalle\AppData\Local\Temp\cc2hNkGN.s:495    .text.LCD_Writ_Bus:0000000000000008 .L0 
C:\Users\Kalle\AppData\Local\Temp\cc2hNkGN.s:496    .text.LCD_Writ_Bus:0000000000000008 .L0 
C:\Users\Kalle\AppData\Local\Temp\cc2hNkGN.s:498    .text.LCD_Writ_Bus:0000000000000008 .L0 
C:\Users\Kalle\AppData\Local\Temp\cc2hNkGN.s:500    .text.LCD_Writ_Bus:000000000000000a .L0 
C:\Users\Kalle\AppData\Local\Temp\cc2hNkGN.s:502    .text.LCD_Writ_Bus:000000000000000e .L0 
C:\Users\Kalle\AppData\Local\Temp\cc2hNkGN.s:505    .text.LCD_Writ_Bus:0000000000000012 .L0 
C:\Users\Kalle\AppData\Local\Temp\cc2hNkGN.s:507    .text.LCD_Writ_Bus:0000000000000016 .L0 
C:\Users\Kalle\AppData\Local\Temp\cc2hNkGN.s:508    .text.LCD_Writ_Bus:0000000000000016 .L0 
C:\Users\Kalle\AppData\Local\Temp\cc2hNkGN.s:510    .text.LCD_Writ_Bus:0000000000000016 .L0 
C:\Users\Kalle\AppData\Local\Temp\cc2hNkGN.s:512    .text.LCD_Writ_Bus:000000000000001a .L0 
C:\Users\Kalle\AppData\Local\Temp\cc2hNkGN.s:516    .text.LCD_Writ_Bus:0000000000000022 .L0 
C:\Users\Kalle\AppData\Local\Temp\cc2hNkGN.s:517    .text.LCD_Writ_Bus:0000000000000022 .L0 
C:\Users\Kalle\AppData\Local\Temp\cc2hNkGN.s:518    .text.LCD_Writ_Bus:0000000000000022 .L0 
C:\Users\Kalle\AppData\Local\Temp\cc2hNkGN.s:523    .text.LCD_Writ_Bus:000000000000002e .L0 
C:\Users\Kalle\AppData\Local\Temp\cc2hNkGN.s:525    .text.LCD_Writ_Bus:0000000000000030 .L0 
C:\Users\Kalle\AppData\Local\Temp\cc2hNkGN.s:528    .text.LCD_Writ_Bus:0000000000000036 .L0 
C:\Users\Kalle\AppData\Local\Temp\cc2hNkGN.s:530    .text.LCD_Writ_Bus:000000000000003a .L0 
C:\Users\Kalle\AppData\Local\Temp\cc2hNkGN.s:533    .text.LCD_Writ_Bus:0000000000000042 .L0 
C:\Users\Kalle\AppData\Local\Temp\cc2hNkGN.s:534    .text.LCD_Writ_Bus:0000000000000042 .L0 
C:\Users\Kalle\AppData\Local\Temp\cc2hNkGN.s:537    .text.LCD_Writ_Bus:0000000000000046 .L0 
C:\Users\Kalle\AppData\Local\Temp\cc2hNkGN.s:538    .text.LCD_Writ_Bus:0000000000000046 .L0 
C:\Users\Kalle\AppData\Local\Temp\cc2hNkGN.s:543    .text.LCD_Writ_Bus:0000000000000052 .L0 
C:\Users\Kalle\AppData\Local\Temp\cc2hNkGN.s:545    .text.LCD_Writ_Bus:0000000000000054 .L0 
C:\Users\Kalle\AppData\Local\Temp\cc2hNkGN.s:549    .text.LCD_Writ_Bus:0000000000000060 .L0 
C:\Users\Kalle\AppData\Local\Temp\cc2hNkGN.s:550    .text.LCD_Writ_Bus:0000000000000060 .L0 
C:\Users\Kalle\AppData\Local\Temp\cc2hNkGN.s:551    .text.LCD_Writ_Bus:0000000000000062 .L0 
C:\Users\Kalle\AppData\Local\Temp\cc2hNkGN.s:553    .text.LCD_Writ_Bus:0000000000000064 .L0 
C:\Users\Kalle\AppData\Local\Temp\cc2hNkGN.s:555    .text.LCD_Writ_Bus:0000000000000066 .L0 
C:\Users\Kalle\AppData\Local\Temp\cc2hNkGN.s:557    .text.LCD_Writ_Bus:0000000000000068 .L0 
C:\Users\Kalle\AppData\Local\Temp\cc2hNkGN.s:559    .text.LCD_Writ_Bus:0000000000000068 .L0 
C:\Users\Kalle\AppData\Local\Temp\cc2hNkGN.s:561    .text.LCD_Writ_Bus:000000000000006a .L0 
C:\Users\Kalle\AppData\Local\Temp\cc2hNkGN.s:562    .text.LCD_Writ_Bus:000000000000006a .L0 
C:\Users\Kalle\AppData\Local\Temp\cc2hNkGN.s:564    .text.LCD_Writ_Bus:000000000000006e .L0 
C:\Users\Kalle\AppData\Local\Temp\cc2hNkGN.s:566    .text.LCD_Writ_Bus:0000000000000070 .L0 
C:\Users\Kalle\AppData\Local\Temp\cc2hNkGN.s:568    .text.LCD_Writ_Bus:0000000000000070 .L0 
C:\Users\Kalle\AppData\Local\Temp\cc2hNkGN.s:570    .text.LCD_Writ_Bus:0000000000000078 .L0 
C:\Users\Kalle\AppData\Local\Temp\cc2hNkGN.s:577    .text.LCD_WR_DATA8:0000000000000000 LCD_WR_DATA8
C:\Users\Kalle\AppData\Local\Temp\cc2hNkGN.s:580    .text.LCD_WR_DATA8:0000000000000000 .L0 
C:\Users\Kalle\AppData\Local\Temp\cc2hNkGN.s:582    .text.LCD_WR_DATA8:0000000000000000 .L0 
C:\Users\Kalle\AppData\Local\Temp\cc2hNkGN.s:583    .text.LCD_WR_DATA8:0000000000000000 .L0 
C:\Users\Kalle\AppData\Local\Temp\cc2hNkGN.s:584    .text.LCD_WR_DATA8:0000000000000000 .L0 
C:\Users\Kalle\AppData\Local\Temp\cc2hNkGN.s:586    .text.LCD_WR_DATA8:0000000000000002 .L0 
GAS LISTING C:\Users\Kalle\AppData\Local\Temp\cc2hNkGN.s 			page 154


C:\Users\Kalle\AppData\Local\Temp\cc2hNkGN.s:589    .text.LCD_WR_DATA8:0000000000000004 .L0 
C:\Users\Kalle\AppData\Local\Temp\cc2hNkGN.s:590    .text.LCD_WR_DATA8:0000000000000006 .L0 
C:\Users\Kalle\AppData\Local\Temp\cc2hNkGN.s:592    .text.LCD_WR_DATA8:0000000000000006 .L0 
C:\Users\Kalle\AppData\Local\Temp\cc2hNkGN.s:594    .text.LCD_WR_DATA8:0000000000000008 .L0 
C:\Users\Kalle\AppData\Local\Temp\cc2hNkGN.s:597    .text.LCD_WR_DATA8:000000000000000c .L0 
C:\Users\Kalle\AppData\Local\Temp\cc2hNkGN.s:598    .text.LCD_WR_DATA8:000000000000000e .L0 
C:\Users\Kalle\AppData\Local\Temp\cc2hNkGN.s:600    .text.LCD_WR_DATA8:000000000000000e .L0 
C:\Users\Kalle\AppData\Local\Temp\cc2hNkGN.s:603    .text.LCD_WR_DATA8:0000000000000016 .L0 
C:\Users\Kalle\AppData\Local\Temp\cc2hNkGN.s:605    .text.LCD_WR_DATA8:0000000000000018 .L0 
C:\Users\Kalle\AppData\Local\Temp\cc2hNkGN.s:606    .text.LCD_WR_DATA8:000000000000001a .L0 
C:\Users\Kalle\AppData\Local\Temp\cc2hNkGN.s:608    .text.LCD_WR_DATA8:000000000000001c .L0 
C:\Users\Kalle\AppData\Local\Temp\cc2hNkGN.s:611    .text.LCD_WR_DATA8:000000000000001e .L0 
C:\Users\Kalle\AppData\Local\Temp\cc2hNkGN.s:613    .text.LCD_WR_DATA8:000000000000001e .L0 
C:\Users\Kalle\AppData\Local\Temp\cc2hNkGN.s:615    .text.LCD_WR_DATA8:0000000000000026 .L0 
C:\Users\Kalle\AppData\Local\Temp\cc2hNkGN.s:622    .text.LCD_WR_DATA:0000000000000000 LCD_WR_DATA
C:\Users\Kalle\AppData\Local\Temp\cc2hNkGN.s:625    .text.LCD_WR_DATA:0000000000000000 .L0 
C:\Users\Kalle\AppData\Local\Temp\cc2hNkGN.s:627    .text.LCD_WR_DATA:0000000000000000 .L0 
C:\Users\Kalle\AppData\Local\Temp\cc2hNkGN.s:628    .text.LCD_WR_DATA:0000000000000000 .L0 
C:\Users\Kalle\AppData\Local\Temp\cc2hNkGN.s:629    .text.LCD_WR_DATA:0000000000000000 .L0 
C:\Users\Kalle\AppData\Local\Temp\cc2hNkGN.s:631    .text.LCD_WR_DATA:0000000000000002 .L0 
C:\Users\Kalle\AppData\Local\Temp\cc2hNkGN.s:634    .text.LCD_WR_DATA:0000000000000004 .L0 
C:\Users\Kalle\AppData\Local\Temp\cc2hNkGN.s:635    .text.LCD_WR_DATA:0000000000000006 .L0 
C:\Users\Kalle\AppData\Local\Temp\cc2hNkGN.s:637    .text.LCD_WR_DATA:0000000000000006 .L0 
C:\Users\Kalle\AppData\Local\Temp\cc2hNkGN.s:639    .text.LCD_WR_DATA:0000000000000008 .L0 
C:\Users\Kalle\AppData\Local\Temp\cc2hNkGN.s:642    .text.LCD_WR_DATA:000000000000000c .L0 
C:\Users\Kalle\AppData\Local\Temp\cc2hNkGN.s:643    .text.LCD_WR_DATA:000000000000000e .L0 
C:\Users\Kalle\AppData\Local\Temp\cc2hNkGN.s:645    .text.LCD_WR_DATA:000000000000000e .L0 
C:\Users\Kalle\AppData\Local\Temp\cc2hNkGN.s:648    .text.LCD_WR_DATA:0000000000000016 .L0 
C:\Users\Kalle\AppData\Local\Temp\cc2hNkGN.s:649    .text.LCD_WR_DATA:0000000000000016 .L0 
C:\Users\Kalle\AppData\Local\Temp\cc2hNkGN.s:651    .text.LCD_WR_DATA:000000000000001a .L0 
C:\Users\Kalle\AppData\Local\Temp\cc2hNkGN.s:655    .text.LCD_WR_DATA:0000000000000026 .L0 
C:\Users\Kalle\AppData\Local\Temp\cc2hNkGN.s:657    .text.LCD_WR_DATA:000000000000002a .L0 
C:\Users\Kalle\AppData\Local\Temp\cc2hNkGN.s:658    .text.LCD_WR_DATA:000000000000002c .L0 
C:\Users\Kalle\AppData\Local\Temp\cc2hNkGN.s:661    .text.LCD_WR_DATA:000000000000002e .L0 
C:\Users\Kalle\AppData\Local\Temp\cc2hNkGN.s:664    .text.LCD_WR_DATA:0000000000000030 .L0 
C:\Users\Kalle\AppData\Local\Temp\cc2hNkGN.s:666    .text.LCD_WR_DATA:0000000000000030 .L0 
C:\Users\Kalle\AppData\Local\Temp\cc2hNkGN.s:668    .text.LCD_WR_DATA:0000000000000038 .L0 
C:\Users\Kalle\AppData\Local\Temp\cc2hNkGN.s:675    .text.LCD_WR_REG:0000000000000000 LCD_WR_REG
C:\Users\Kalle\AppData\Local\Temp\cc2hNkGN.s:678    .text.LCD_WR_REG:0000000000000000 .L0 
C:\Users\Kalle\AppData\Local\Temp\cc2hNkGN.s:680    .text.LCD_WR_REG:0000000000000000 .L0 
C:\Users\Kalle\AppData\Local\Temp\cc2hNkGN.s:681    .text.LCD_WR_REG:0000000000000000 .L0 
C:\Users\Kalle\AppData\Local\Temp\cc2hNkGN.s:682    .text.LCD_WR_REG:0000000000000000 .L0 
C:\Users\Kalle\AppData\Local\Temp\cc2hNkGN.s:684    .text.LCD_WR_REG:0000000000000002 .L0 
C:\Users\Kalle\AppData\Local\Temp\cc2hNkGN.s:687    .text.LCD_WR_REG:0000000000000004 .L0 
C:\Users\Kalle\AppData\Local\Temp\cc2hNkGN.s:688    .text.LCD_WR_REG:0000000000000006 .L0 
C:\Users\Kalle\AppData\Local\Temp\cc2hNkGN.s:690    .text.LCD_WR_REG:0000000000000006 .L0 
C:\Users\Kalle\AppData\Local\Temp\cc2hNkGN.s:692    .text.LCD_WR_REG:0000000000000008 .L0 
C:\Users\Kalle\AppData\Local\Temp\cc2hNkGN.s:695    .text.LCD_WR_REG:000000000000000c .L0 
C:\Users\Kalle\AppData\Local\Temp\cc2hNkGN.s:696    .text.LCD_WR_REG:000000000000000e .L0 
C:\Users\Kalle\AppData\Local\Temp\cc2hNkGN.s:698    .text.LCD_WR_REG:000000000000000e .L0 
C:\Users\Kalle\AppData\Local\Temp\cc2hNkGN.s:701    .text.LCD_WR_REG:0000000000000016 .L0 
C:\Users\Kalle\AppData\Local\Temp\cc2hNkGN.s:703    .text.LCD_WR_REG:0000000000000018 .L0 
C:\Users\Kalle\AppData\Local\Temp\cc2hNkGN.s:704    .text.LCD_WR_REG:000000000000001a .L0 
C:\Users\Kalle\AppData\Local\Temp\cc2hNkGN.s:706    .text.LCD_WR_REG:000000000000001c .L0 
C:\Users\Kalle\AppData\Local\Temp\cc2hNkGN.s:709    .text.LCD_WR_REG:000000000000001e .L0 
C:\Users\Kalle\AppData\Local\Temp\cc2hNkGN.s:711    .text.LCD_WR_REG:000000000000001e .L0 
C:\Users\Kalle\AppData\Local\Temp\cc2hNkGN.s:713    .text.LCD_WR_REG:0000000000000026 .L0 
GAS LISTING C:\Users\Kalle\AppData\Local\Temp\cc2hNkGN.s 			page 155


C:\Users\Kalle\AppData\Local\Temp\cc2hNkGN.s:720    .text.LCD_Address_Set:0000000000000000 LCD_Address_Set
C:\Users\Kalle\AppData\Local\Temp\cc2hNkGN.s:723    .text.LCD_Address_Set:0000000000000000 .L0 
C:\Users\Kalle\AppData\Local\Temp\cc2hNkGN.s:725    .text.LCD_Address_Set:0000000000000000 .L0 
C:\Users\Kalle\AppData\Local\Temp\cc2hNkGN.s:728    .text.LCD_Address_Set:0000000000000000 .L0 
C:\Users\Kalle\AppData\Local\Temp\cc2hNkGN.s:731    .text.LCD_Address_Set:0000000000000000 .L0 
C:\Users\Kalle\AppData\Local\Temp\cc2hNkGN.s:732    .text.LCD_Address_Set:0000000000000000 .L0 
C:\Users\Kalle\AppData\Local\Temp\cc2hNkGN.s:734    .text.LCD_Address_Set:0000000000000002 .L0 
C:\Users\Kalle\AppData\Local\Temp\cc2hNkGN.s:737    .text.LCD_Address_Set:0000000000000006 .L0 
C:\Users\Kalle\AppData\Local\Temp\cc2hNkGN.s:738    .text.LCD_Address_Set:0000000000000006 .L0 
C:\Users\Kalle\AppData\Local\Temp\cc2hNkGN.s:744    .text.LCD_Address_Set:000000000000000a .L0 
C:\Users\Kalle\AppData\Local\Temp\cc2hNkGN.s:751    .text.LCD_Address_Set:0000000000000010 .L0 
C:\Users\Kalle\AppData\Local\Temp\cc2hNkGN.s:755    .text.LCD_Address_Set:0000000000000018 .L0 
C:\Users\Kalle\AppData\Local\Temp\cc2hNkGN.s:756    .text.LCD_Address_Set:0000000000000018 .L0 
C:\Users\Kalle\AppData\Local\Temp\cc2hNkGN.s:757    .text.LCD_Address_Set:0000000000000018 .L0 
C:\Users\Kalle\AppData\Local\Temp\cc2hNkGN.s:758    .text.LCD_Address_Set:0000000000000018 .L0 
C:\Users\Kalle\AppData\Local\Temp\cc2hNkGN.s:760    .text.LCD_Address_Set:0000000000000018 .L0 
C:\Users\Kalle\AppData\Local\Temp\cc2hNkGN.s:765    .text.LCD_Address_Set:000000000000001c .L0 
C:\Users\Kalle\AppData\Local\Temp\cc2hNkGN.s:768    .text.LCD_Address_Set:0000000000000024 .L0 
C:\Users\Kalle\AppData\Local\Temp\cc2hNkGN.s:772    .text.LCD_Address_Set:0000000000000028 .L0 
C:\Users\Kalle\AppData\Local\Temp\cc2hNkGN.s:776    .text.LCD_Address_Set:000000000000002c .L0 
C:\Users\Kalle\AppData\Local\Temp\cc2hNkGN.s:781    .text.LCD_Address_Set:0000000000000034 .L0 
C:\Users\Kalle\AppData\Local\Temp\cc2hNkGN.s:782    .text.LCD_Address_Set:0000000000000034 .L0 
C:\Users\Kalle\AppData\Local\Temp\cc2hNkGN.s:785    .text.LCD_Address_Set:000000000000003c .L0 
C:\Users\Kalle\AppData\Local\Temp\cc2hNkGN.s:789    .text.LCD_Address_Set:0000000000000046 .L0 
C:\Users\Kalle\AppData\Local\Temp\cc2hNkGN.s:790    .text.LCD_Address_Set:0000000000000046 .L0 
C:\Users\Kalle\AppData\Local\Temp\cc2hNkGN.s:792    .text.LCD_Address_Set:000000000000004a .L0 
C:\Users\Kalle\AppData\Local\Temp\cc2hNkGN.s:798    .text.LCD_Address_Set:0000000000000054 .L0 
C:\Users\Kalle\AppData\Local\Temp\cc2hNkGN.s:799    .text.LCD_Address_Set:0000000000000054 .L0 
C:\Users\Kalle\AppData\Local\Temp\cc2hNkGN.s:804    .text.LCD_Address_Set:0000000000000062 .L0 
C:\Users\Kalle\AppData\Local\Temp\cc2hNkGN.s:810    .text.LCD_Address_Set:000000000000006e .L0 
C:\Users\Kalle\AppData\Local\Temp\cc2hNkGN.s:811    .text.LCD_Address_Set:000000000000006e .L0 
C:\Users\Kalle\AppData\Local\Temp\cc2hNkGN.s:813    .text.LCD_Address_Set:0000000000000072 .L0 
C:\Users\Kalle\AppData\Local\Temp\cc2hNkGN.s:817    .text.LCD_Address_Set:000000000000007c .L0 
C:\Users\Kalle\AppData\Local\Temp\cc2hNkGN.s:818    .text.LCD_Address_Set:000000000000007c .L0 
C:\Users\Kalle\AppData\Local\Temp\cc2hNkGN.s:820    .text.LCD_Address_Set:0000000000000080 .L0 
C:\Users\Kalle\AppData\Local\Temp\cc2hNkGN.s:826    .text.LCD_Address_Set:000000000000008a .L0 
C:\Users\Kalle\AppData\Local\Temp\cc2hNkGN.s:827    .text.LCD_Address_Set:000000000000008a .L0 
C:\Users\Kalle\AppData\Local\Temp\cc2hNkGN.s:834    .text.LCD_Address_Set:0000000000000098 .L0 
C:\Users\Kalle\AppData\Local\Temp\cc2hNkGN.s:835    .text.LCD_Address_Set:0000000000000098 .L0 
C:\Users\Kalle\AppData\Local\Temp\cc2hNkGN.s:836    .text.LCD_Address_Set:000000000000009a .L0 
C:\Users\Kalle\AppData\Local\Temp\cc2hNkGN.s:838    .text.LCD_Address_Set:000000000000009c .L0 
C:\Users\Kalle\AppData\Local\Temp\cc2hNkGN.s:840    .text.LCD_Address_Set:000000000000009e .L0 
C:\Users\Kalle\AppData\Local\Temp\cc2hNkGN.s:843    .text.LCD_Address_Set:00000000000000a0 .L0 
C:\Users\Kalle\AppData\Local\Temp\cc2hNkGN.s:846    .text.LCD_Address_Set:00000000000000a2 .L0 
C:\Users\Kalle\AppData\Local\Temp\cc2hNkGN.s:849    .text.LCD_Address_Set:00000000000000a4 .L0 
C:\Users\Kalle\AppData\Local\Temp\cc2hNkGN.s:854    .text.LCD_Address_Set:00000000000000a4 .L0 
C:\Users\Kalle\AppData\Local\Temp\cc2hNkGN.s:858    .text.LCD_Address_Set:00000000000000a8 .L0 
C:\Users\Kalle\AppData\Local\Temp\cc2hNkGN.s:860    .text.LCD_Address_Set:00000000000000aa .L0 
C:\Users\Kalle\AppData\Local\Temp\cc2hNkGN.s:864    .text.LCD_Address_Set:00000000000000aa .L0 
C:\Users\Kalle\AppData\Local\Temp\cc2hNkGN.s:868    .text.LCD_Address_Set:00000000000000b2 .L0 
C:\Users\Kalle\AppData\Local\Temp\cc2hNkGN.s:874    .text.LCD_ShowChar.part.2:0000000000000000 LCD_ShowChar.part.2
C:\Users\Kalle\AppData\Local\Temp\cc2hNkGN.s:877    .text.LCD_ShowChar.part.2:0000000000000000 .L0 
C:\Users\Kalle\AppData\Local\Temp\cc2hNkGN.s:879    .text.LCD_ShowChar.part.2:0000000000000000 .L0 
C:\Users\Kalle\AppData\Local\Temp\cc2hNkGN.s:881    .text.LCD_ShowChar.part.2:0000000000000002 .L0 
C:\Users\Kalle\AppData\Local\Temp\cc2hNkGN.s:883    .text.LCD_ShowChar.part.2:0000000000000004 .L0 
C:\Users\Kalle\AppData\Local\Temp\cc2hNkGN.s:886    .text.LCD_ShowChar.part.2:0000000000000006 .L0 
C:\Users\Kalle\AppData\Local\Temp\cc2hNkGN.s:888    .text.LCD_ShowChar.part.2:0000000000000008 .L0 
GAS LISTING C:\Users\Kalle\AppData\Local\Temp\cc2hNkGN.s 			page 156


C:\Users\Kalle\AppData\Local\Temp\cc2hNkGN.s:890    .text.LCD_ShowChar.part.2:000000000000000a .L0 
C:\Users\Kalle\AppData\Local\Temp\cc2hNkGN.s:892    .text.LCD_ShowChar.part.2:000000000000000e .L0 
C:\Users\Kalle\AppData\Local\Temp\cc2hNkGN.s:894    .text.LCD_ShowChar.part.2:000000000000000e .L0 
C:\Users\Kalle\AppData\Local\Temp\cc2hNkGN.s:897    .text.LCD_ShowChar.part.2:0000000000000014 .L0 
C:\Users\Kalle\AppData\Local\Temp\cc2hNkGN.s:900    .text.LCD_ShowChar.part.2:0000000000000018 .L0 
C:\Users\Kalle\AppData\Local\Temp\cc2hNkGN.s:908    .text.LCD_ShowChar.part.2:0000000000000028 .L0 
C:\Users\Kalle\AppData\Local\Temp\cc2hNkGN.s:909    .text.LCD_ShowChar.part.2:0000000000000028 .L0 
C:\Users\Kalle\AppData\Local\Temp\cc2hNkGN.s:910    .text.LCD_ShowChar.part.2:0000000000000028 .L0 
C:\Users\Kalle\AppData\Local\Temp\cc2hNkGN.s:911    .text.LCD_ShowChar.part.2:0000000000000028 .L0 
C:\Users\Kalle\AppData\Local\Temp\cc2hNkGN.s:912    .text.LCD_ShowChar.part.2:0000000000000028 .L0 
C:\Users\Kalle\AppData\Local\Temp\cc2hNkGN.s:913    .text.LCD_ShowChar.part.2:0000000000000028 .L0 
C:\Users\Kalle\AppData\Local\Temp\cc2hNkGN.s:914    .text.LCD_ShowChar.part.2:0000000000000028 .L0 
C:\Users\Kalle\AppData\Local\Temp\cc2hNkGN.s:915    .text.LCD_ShowChar.part.2:0000000000000028 .L0 
C:\Users\Kalle\AppData\Local\Temp\cc2hNkGN.s:917    .text.LCD_ShowChar.part.2:0000000000000028 .L0 
C:\Users\Kalle\AppData\Local\Temp\cc2hNkGN.s:920    .text.LCD_ShowChar.part.2:000000000000002a .L0 
C:\Users\Kalle\AppData\Local\Temp\cc2hNkGN.s:921    .text.LCD_ShowChar.part.2:000000000000002a .L0 
C:\Users\Kalle\AppData\Local\Temp\cc2hNkGN.s:922    .text.LCD_ShowChar.part.2:000000000000002a .L0 
C:\Users\Kalle\AppData\Local\Temp\cc2hNkGN.s:926    .text.LCD_ShowChar.part.2:0000000000000030 .L0 
C:\Users\Kalle\AppData\Local\Temp\cc2hNkGN.s:929    .text.LCD_ShowChar.part.2:0000000000000038 .L0 
C:\Users\Kalle\AppData\Local\Temp\cc2hNkGN.s:930    .text.LCD_ShowChar.part.2:0000000000000038 .L0 
                            *COM*:0000000000000004 BACK_COLOR
C:\Users\Kalle\AppData\Local\Temp\cc2hNkGN.s:935    .text.LCD_ShowChar.part.2:0000000000000046 .L0 
C:\Users\Kalle\AppData\Local\Temp\cc2hNkGN.s:941    .text.LCD_ShowChar.part.2:000000000000004e .L0 
C:\Users\Kalle\AppData\Local\Temp\cc2hNkGN.s:942    .text.LCD_ShowChar.part.2:000000000000004e .L0 
C:\Users\Kalle\AppData\Local\Temp\cc2hNkGN.s:945    .text.LCD_ShowChar.part.2:0000000000000052 .L0 
C:\Users\Kalle\AppData\Local\Temp\cc2hNkGN.s:946    .text.LCD_ShowChar.part.2:0000000000000052 .L0 
C:\Users\Kalle\AppData\Local\Temp\cc2hNkGN.s:950    .text.LCD_ShowChar.part.2:0000000000000054 .L0 
C:\Users\Kalle\AppData\Local\Temp\cc2hNkGN.s:951    .text.LCD_ShowChar.part.2:0000000000000054 .L0 
C:\Users\Kalle\AppData\Local\Temp\cc2hNkGN.s:952    .text.LCD_ShowChar.part.2:0000000000000054 .L0 
C:\Users\Kalle\AppData\Local\Temp\cc2hNkGN.s:953    .text.LCD_ShowChar.part.2:0000000000000054 .L0 
C:\Users\Kalle\AppData\Local\Temp\cc2hNkGN.s:955    .text.LCD_ShowChar.part.2:0000000000000058 .L0 
C:\Users\Kalle\AppData\Local\Temp\cc2hNkGN.s:957    .text.LCD_ShowChar.part.2:000000000000005a .L0 
C:\Users\Kalle\AppData\Local\Temp\cc2hNkGN.s:960    .text.LCD_ShowChar.part.2:000000000000005c .L0 
C:\Users\Kalle\AppData\Local\Temp\cc2hNkGN.s:969    .text.LCD_ShowChar.part.2:000000000000006e .L0 
C:\Users\Kalle\AppData\Local\Temp\cc2hNkGN.s:970    .text.LCD_ShowChar.part.2:000000000000006e .L0 
C:\Users\Kalle\AppData\Local\Temp\cc2hNkGN.s:973    .text.LCD_ShowChar.part.2:0000000000000070 .L0 
C:\Users\Kalle\AppData\Local\Temp\cc2hNkGN.s:974    .text.LCD_ShowChar.part.2:0000000000000070 .L0 
C:\Users\Kalle\AppData\Local\Temp\cc2hNkGN.s:977    .text.LCD_ShowChar.part.2:0000000000000072 .L0 
C:\Users\Kalle\AppData\Local\Temp\cc2hNkGN.s:978    .text.LCD_ShowChar.part.2:0000000000000072 .L0 
C:\Users\Kalle\AppData\Local\Temp\cc2hNkGN.s:980    .text.LCD_ShowChar.part.2:0000000000000074 .L0 
C:\Users\Kalle\AppData\Local\Temp\cc2hNkGN.s:984    .text.LCD_ShowChar.part.2:0000000000000078 .L0 
C:\Users\Kalle\AppData\Local\Temp\cc2hNkGN.s:985    .text.LCD_ShowChar.part.2:000000000000007a .L0 
C:\Users\Kalle\AppData\Local\Temp\cc2hNkGN.s:986    .text.LCD_ShowChar.part.2:000000000000007a .L0 
C:\Users\Kalle\AppData\Local\Temp\cc2hNkGN.s:988    .text.LCD_ShowChar.part.2:000000000000007c .L0 
C:\Users\Kalle\AppData\Local\Temp\cc2hNkGN.s:990    .text.LCD_ShowChar.part.2:000000000000007e .L0 
C:\Users\Kalle\AppData\Local\Temp\cc2hNkGN.s:993    .text.LCD_ShowChar.part.2:0000000000000080 .L0 
C:\Users\Kalle\AppData\Local\Temp\cc2hNkGN.s:996    .text.LCD_ShowChar.part.2:0000000000000082 .L0 
C:\Users\Kalle\AppData\Local\Temp\cc2hNkGN.s:998    .text.LCD_ShowChar.part.2:0000000000000084 .L0 
C:\Users\Kalle\AppData\Local\Temp\cc2hNkGN.s:1000   .text.LCD_ShowChar.part.2:0000000000000086 .L0 
C:\Users\Kalle\AppData\Local\Temp\cc2hNkGN.s:1002   .text.LCD_ShowChar.part.2:0000000000000088 .L0 
C:\Users\Kalle\AppData\Local\Temp\cc2hNkGN.s:1004   .text.LCD_ShowChar.part.2:000000000000008a .L0 
C:\Users\Kalle\AppData\Local\Temp\cc2hNkGN.s:1006   .text.LCD_ShowChar.part.2:000000000000008c .L0 
C:\Users\Kalle\AppData\Local\Temp\cc2hNkGN.s:1009   .text.LCD_ShowChar.part.2:000000000000008e .L0 
C:\Users\Kalle\AppData\Local\Temp\cc2hNkGN.s:1014   .text.LCD_ShowChar.part.2:0000000000000090 .L0 
C:\Users\Kalle\AppData\Local\Temp\cc2hNkGN.s:1016   .text.LCD_ShowChar.part.2:0000000000000090 .L0 
C:\Users\Kalle\AppData\Local\Temp\cc2hNkGN.s:1026   .text.LCD_ShowChar.part.2:00000000000000a4 .L0 
C:\Users\Kalle\AppData\Local\Temp\cc2hNkGN.s:1027   .text.LCD_ShowChar.part.2:00000000000000a4 .L0 
GAS LISTING C:\Users\Kalle\AppData\Local\Temp\cc2hNkGN.s 			page 157


C:\Users\Kalle\AppData\Local\Temp\cc2hNkGN.s:1032   .text.LCD_ShowChar.part.2:00000000000000ae .L0 
C:\Users\Kalle\AppData\Local\Temp\cc2hNkGN.s:1033   .text.LCD_ShowChar.part.2:00000000000000ae .L0 
C:\Users\Kalle\AppData\Local\Temp\cc2hNkGN.s:1038   .text.LCD_ShowChar.part.2:00000000000000b2 .L0 
C:\Users\Kalle\AppData\Local\Temp\cc2hNkGN.s:1041   .text.LCD_ShowChar.part.2:00000000000000b4 .L0 
C:\Users\Kalle\AppData\Local\Temp\cc2hNkGN.s:1044   .text.LCD_ShowChar.part.2:00000000000000b6 .L0 
C:\Users\Kalle\AppData\Local\Temp\cc2hNkGN.s:1048   .text.LCD_ShowChar.part.2:00000000000000ba .L0 
C:\Users\Kalle\AppData\Local\Temp\cc2hNkGN.s:1049   .text.LCD_ShowChar.part.2:00000000000000ba .L0 
C:\Users\Kalle\AppData\Local\Temp\cc2hNkGN.s:1055   .text.LCD_ShowChar.part.2:00000000000000c0 .L0 
C:\Users\Kalle\AppData\Local\Temp\cc2hNkGN.s:1056   .text.LCD_ShowChar.part.2:00000000000000c0 .L0 
C:\Users\Kalle\AppData\Local\Temp\cc2hNkGN.s:1063   .text.LCD_ShowChar.part.2:00000000000000d0 .L0 
C:\Users\Kalle\AppData\Local\Temp\cc2hNkGN.s:1071   .text.LCD_ShowChar.part.2:00000000000000dc .L0 
C:\Users\Kalle\AppData\Local\Temp\cc2hNkGN.s:1072   .text.LCD_ShowChar.part.2:00000000000000dc .L0 
C:\Users\Kalle\AppData\Local\Temp\cc2hNkGN.s:1075   .text.LCD_ShowChar.part.2:00000000000000de .L0 
C:\Users\Kalle\AppData\Local\Temp\cc2hNkGN.s:1081   .text.LCD_ShowChar.part.2:00000000000000e4 .L0 
C:\Users\Kalle\AppData\Local\Temp\cc2hNkGN.s:1083   .text.LCD_ShowChar.part.2:00000000000000ea .L0 
C:\Users\Kalle\AppData\Local\Temp\cc2hNkGN.s:1090   .text.spi_config:0000000000000000 spi_config
C:\Users\Kalle\AppData\Local\Temp\cc2hNkGN.s:1093   .text.spi_config:0000000000000000 .L0 
C:\Users\Kalle\AppData\Local\Temp\cc2hNkGN.s:1094   .text.spi_config:0000000000000000 .L0 
C:\Users\Kalle\AppData\Local\Temp\cc2hNkGN.s:1095   .text.spi_config:0000000000000000 .L0 
C:\Users\Kalle\AppData\Local\Temp\cc2hNkGN.s:1096   .text.spi_config:0000000000000000 .L0 
C:\Users\Kalle\AppData\Local\Temp\cc2hNkGN.s:1097   .text.spi_config:0000000000000000 .L0 
C:\Users\Kalle\AppData\Local\Temp\cc2hNkGN.s:1099   .text.spi_config:0000000000000002 .L0 
C:\Users\Kalle\AppData\Local\Temp\cc2hNkGN.s:1101   .text.spi_config:0000000000000002 .L0 
C:\Users\Kalle\AppData\Local\Temp\cc2hNkGN.s:1104   .text.spi_config:0000000000000008 .L0 
C:\Users\Kalle\AppData\Local\Temp\cc2hNkGN.s:1106   .text.spi_config:000000000000000c .L0 
C:\Users\Kalle\AppData\Local\Temp\cc2hNkGN.s:1107   .text.spi_config:000000000000000c .L0 
C:\Users\Kalle\AppData\Local\Temp\cc2hNkGN.s:1109   .text.spi_config:000000000000000c .L0 
C:\Users\Kalle\AppData\Local\Temp\cc2hNkGN.s:1112   .text.spi_config:0000000000000014 .L0 
C:\Users\Kalle\AppData\Local\Temp\cc2hNkGN.s:1116   .text.spi_config:000000000000001e .L0 
C:\Users\Kalle\AppData\Local\Temp\cc2hNkGN.s:1117   .text.spi_config:000000000000001e .L0 
C:\Users\Kalle\AppData\Local\Temp\cc2hNkGN.s:1120   .text.spi_config:0000000000000024 .L0 
C:\Users\Kalle\AppData\Local\Temp\cc2hNkGN.s:1122   .text.spi_config:0000000000000026 .L0 
C:\Users\Kalle\AppData\Local\Temp\cc2hNkGN.s:1124   .text.spi_config:000000000000002a .L0 
C:\Users\Kalle\AppData\Local\Temp\cc2hNkGN.s:1126   .text.spi_config:000000000000002c .L0 
C:\Users\Kalle\AppData\Local\Temp\cc2hNkGN.s:1128   .text.spi_config:0000000000000030 .L0 
C:\Users\Kalle\AppData\Local\Temp\cc2hNkGN.s:1131   .text.spi_config:0000000000000036 .L0 
C:\Users\Kalle\AppData\Local\Temp\cc2hNkGN.s:1133   .text.spi_config:0000000000000038 .L0 
C:\Users\Kalle\AppData\Local\Temp\cc2hNkGN.s:1136   .text.spi_config:000000000000003c .L0 
C:\Users\Kalle\AppData\Local\Temp\cc2hNkGN.s:1138   .text.spi_config:000000000000003e .L0 
C:\Users\Kalle\AppData\Local\Temp\cc2hNkGN.s:1139   .text.spi_config:000000000000003e .L0 
C:\Users\Kalle\AppData\Local\Temp\cc2hNkGN.s:1140   .text.spi_config:000000000000003e .L0 
C:\Users\Kalle\AppData\Local\Temp\cc2hNkGN.s:1142   .text.spi_config:0000000000000040 .L0 
C:\Users\Kalle\AppData\Local\Temp\cc2hNkGN.s:1143   .text.spi_config:0000000000000040 .L0 
C:\Users\Kalle\AppData\Local\Temp\cc2hNkGN.s:1144   .text.spi_config:0000000000000040 .L0 
C:\Users\Kalle\AppData\Local\Temp\cc2hNkGN.s:1145   .text.spi_config:0000000000000040 .L0 
C:\Users\Kalle\AppData\Local\Temp\cc2hNkGN.s:1146   .text.spi_config:0000000000000040 .L0 
C:\Users\Kalle\AppData\Local\Temp\cc2hNkGN.s:1148   .text.spi_config:0000000000000042 .L0 
C:\Users\Kalle\AppData\Local\Temp\cc2hNkGN.s:1151   .text.spi_config:000000000000004a .L0 
C:\Users\Kalle\AppData\Local\Temp\cc2hNkGN.s:1156   .text.spi_config:0000000000000058 .L0 
C:\Users\Kalle\AppData\Local\Temp\cc2hNkGN.s:1160   .text.spi_config:0000000000000064 .L0 
C:\Users\Kalle\AppData\Local\Temp\cc2hNkGN.s:1161   .text.spi_config:0000000000000066 .L0 
C:\Users\Kalle\AppData\Local\Temp\cc2hNkGN.s:1163   .text.spi_config:0000000000000068 .L0 
C:\Users\Kalle\AppData\Local\Temp\cc2hNkGN.s:1166   .text.spi_config:000000000000006a .L0 
C:\Users\Kalle\AppData\Local\Temp\cc2hNkGN.s:1168   .text.spi_config:000000000000006c .L0 
C:\Users\Kalle\AppData\Local\Temp\cc2hNkGN.s:1175   .text.Lcd_SetType:0000000000000000 Lcd_SetType
C:\Users\Kalle\AppData\Local\Temp\cc2hNkGN.s:1178   .text.Lcd_SetType:0000000000000000 .L0 
C:\Users\Kalle\AppData\Local\Temp\cc2hNkGN.s:1180   .text.Lcd_SetType:0000000000000000 .L0 
GAS LISTING C:\Users\Kalle\AppData\Local\Temp\cc2hNkGN.s 			page 158


C:\Users\Kalle\AppData\Local\Temp\cc2hNkGN.s:1181   .text.Lcd_SetType:0000000000000000 .L0 
C:\Users\Kalle\AppData\Local\Temp\cc2hNkGN.s:1182   .text.Lcd_SetType:0000000000000000 .L0 
C:\Users\Kalle\AppData\Local\Temp\cc2hNkGN.s:1184   .text.Lcd_SetType:0000000000000002 .L0 
C:\Users\Kalle\AppData\Local\Temp\cc2hNkGN.s:1185   .text.Lcd_SetType:0000000000000002 .L0 
C:\Users\Kalle\AppData\Local\Temp\cc2hNkGN.s:1186   .text.Lcd_SetType:0000000000000002 .L0 
C:\Users\Kalle\AppData\Local\Temp\cc2hNkGN.s:1187   .text.Lcd_SetType:0000000000000002 .L0 
C:\Users\Kalle\AppData\Local\Temp\cc2hNkGN.s:1188   .text.Lcd_SetType:0000000000000002 .L0 
C:\Users\Kalle\AppData\Local\Temp\cc2hNkGN.s:1193   .text.Lcd_SetType:0000000000000010 .L0 
C:\Users\Kalle\AppData\Local\Temp\cc2hNkGN.s:1196   .text.Lcd_SetType:0000000000000012 .L0 
C:\Users\Kalle\AppData\Local\Temp\cc2hNkGN.s:1197   .text.Lcd_SetType:0000000000000012 .L0 
C:\Users\Kalle\AppData\Local\Temp\cc2hNkGN.s:1203   .text.Lcd_SetType:0000000000000018 .L0 
C:\Users\Kalle\AppData\Local\Temp\cc2hNkGN.s:1204   .text.Lcd_SetType:0000000000000018 .L0 
C:\Users\Kalle\AppData\Local\Temp\cc2hNkGN.s:1205   .text.Lcd_SetType:0000000000000018 .L0 
C:\Users\Kalle\AppData\Local\Temp\cc2hNkGN.s:1206   .text.Lcd_SetType:0000000000000018 .L0 
C:\Users\Kalle\AppData\Local\Temp\cc2hNkGN.s:1207   .text.Lcd_SetType:0000000000000018 .L0 
C:\Users\Kalle\AppData\Local\Temp\cc2hNkGN.s:1216   .text.Lcd_SetType:0000000000000028 .L0 
C:\Users\Kalle\AppData\Local\Temp\cc2hNkGN.s:1217   .text.Lcd_SetType:000000000000002a .L0 
C:\Users\Kalle\AppData\Local\Temp\cc2hNkGN.s:1224   .text.Lcd_Init:0000000000000000 Lcd_Init
C:\Users\Kalle\AppData\Local\Temp\cc2hNkGN.s:1227   .text.Lcd_Init:0000000000000000 .L0 
C:\Users\Kalle\AppData\Local\Temp\cc2hNkGN.s:1228   .text.Lcd_Init:0000000000000000 .L0 
C:\Users\Kalle\AppData\Local\Temp\cc2hNkGN.s:1229   .text.Lcd_Init:0000000000000000 .L0 
C:\Users\Kalle\AppData\Local\Temp\cc2hNkGN.s:1230   .text.Lcd_Init:0000000000000000 .L0 
C:\Users\Kalle\AppData\Local\Temp\cc2hNkGN.s:1232   .text.Lcd_Init:0000000000000002 .L0 
C:\Users\Kalle\AppData\Local\Temp\cc2hNkGN.s:1234   .text.Lcd_Init:0000000000000004 .L0 
C:\Users\Kalle\AppData\Local\Temp\cc2hNkGN.s:1236   .text.Lcd_Init:0000000000000004 .L0 
C:\Users\Kalle\AppData\Local\Temp\cc2hNkGN.s:1239   .text.Lcd_Init:000000000000000c .L0 
C:\Users\Kalle\AppData\Local\Temp\cc2hNkGN.s:1241   .text.Lcd_Init:0000000000000010 .L0 
C:\Users\Kalle\AppData\Local\Temp\cc2hNkGN.s:1242   .text.Lcd_Init:0000000000000012 .L0 
C:\Users\Kalle\AppData\Local\Temp\cc2hNkGN.s:1244   .text.Lcd_Init:0000000000000012 .L0 
C:\Users\Kalle\AppData\Local\Temp\cc2hNkGN.s:1249   .text.Lcd_Init:0000000000000014 .L0 
C:\Users\Kalle\AppData\Local\Temp\cc2hNkGN.s:1250   .text.Lcd_Init:0000000000000014 .L0 
C:\Users\Kalle\AppData\Local\Temp\cc2hNkGN.s:1251   .text.Lcd_Init:0000000000000014 .L0 
C:\Users\Kalle\AppData\Local\Temp\cc2hNkGN.s:1252   .text.Lcd_Init:0000000000000014 .L0 
C:\Users\Kalle\AppData\Local\Temp\cc2hNkGN.s:1253   .text.Lcd_Init:0000000000000014 .L0 
C:\Users\Kalle\AppData\Local\Temp\cc2hNkGN.s:1254   .text.Lcd_Init:0000000000000014 .L0 
C:\Users\Kalle\AppData\Local\Temp\cc2hNkGN.s:1255   .text.Lcd_Init:0000000000000014 .L0 
C:\Users\Kalle\AppData\Local\Temp\cc2hNkGN.s:1263   .text.Lcd_Init:000000000000001c .L0 
C:\Users\Kalle\AppData\Local\Temp\cc2hNkGN.s:1264   .text.Lcd_Init:000000000000001c .L0 
C:\Users\Kalle\AppData\Local\Temp\cc2hNkGN.s:1268   .text.Lcd_Init:0000000000000028 .L0 
C:\Users\Kalle\AppData\Local\Temp\cc2hNkGN.s:1272   .text.Lcd_Init:0000000000000034 .L0 
C:\Users\Kalle\AppData\Local\Temp\cc2hNkGN.s:1276   .text.Lcd_Init:0000000000000040 .L0 
C:\Users\Kalle\AppData\Local\Temp\cc2hNkGN.s:1280   .text.Lcd_Init:000000000000004c .L0 
C:\Users\Kalle\AppData\Local\Temp\cc2hNkGN.s:1288   .text.Lcd_Init:0000000000000062 .L0 
C:\Users\Kalle\AppData\Local\Temp\cc2hNkGN.s:1295   .text.Lcd_Init:0000000000000074 .L0 
C:\Users\Kalle\AppData\Local\Temp\cc2hNkGN.s:1298   .text.Lcd_Init:000000000000007c .L0 
C:\Users\Kalle\AppData\Local\Temp\cc2hNkGN.s:1303   .text.Lcd_Init:000000000000008a .L0 
C:\Users\Kalle\AppData\Local\Temp\cc2hNkGN.s:1309   .text.Lcd_Init:0000000000000096 .L0 
C:\Users\Kalle\AppData\Local\Temp\cc2hNkGN.s:1310   .text.Lcd_Init:0000000000000096 .L0 
C:\Users\Kalle\AppData\Local\Temp\cc2hNkGN.s:1315   .text.Lcd_Init:00000000000000a4 .L0 
C:\Users\Kalle\AppData\Local\Temp\cc2hNkGN.s:1321   .text.Lcd_Init:00000000000000ae .L0 
C:\Users\Kalle\AppData\Local\Temp\cc2hNkGN.s:1327   .text.Lcd_Init:00000000000000ba .L0 
C:\Users\Kalle\AppData\Local\Temp\cc2hNkGN.s:1328   .text.Lcd_Init:00000000000000ba .L0 
C:\Users\Kalle\AppData\Local\Temp\cc2hNkGN.s:1333   .text.Lcd_Init:00000000000000c8 .L0 
C:\Users\Kalle\AppData\Local\Temp\cc2hNkGN.s:1339   .text.Lcd_Init:00000000000000d2 .L0 
C:\Users\Kalle\AppData\Local\Temp\cc2hNkGN.s:1343   .text.Lcd_Init:00000000000000de .L0 
C:\Users\Kalle\AppData\Local\Temp\cc2hNkGN.s:1344   .text.Lcd_Init:00000000000000de .L0 
C:\Users\Kalle\AppData\Local\Temp\cc2hNkGN.s:1350   .text.Lcd_Init:00000000000000e6 .L0 
GAS LISTING C:\Users\Kalle\AppData\Local\Temp\cc2hNkGN.s 			page 159


C:\Users\Kalle\AppData\Local\Temp\cc2hNkGN.s:1351   .text.Lcd_Init:00000000000000e6 .L0 
C:\Users\Kalle\AppData\Local\Temp\cc2hNkGN.s:1356   .text.Lcd_Init:00000000000000f4 .L0 
C:\Users\Kalle\AppData\Local\Temp\cc2hNkGN.s:1365   .text.Lcd_Init:0000000000000100 .L0 
C:\Users\Kalle\AppData\Local\Temp\cc2hNkGN.s:1366   .text.Lcd_Init:0000000000000100 .L0 
C:\Users\Kalle\AppData\Local\Temp\cc2hNkGN.s:1371   .text.Lcd_Init:000000000000010e .L0 
C:\Users\Kalle\AppData\Local\Temp\cc2hNkGN.s:1379   .text.Lcd_Init:000000000000011a .L0 
C:\Users\Kalle\AppData\Local\Temp\cc2hNkGN.s:1380   .text.Lcd_Init:000000000000011a .L0 
C:\Users\Kalle\AppData\Local\Temp\cc2hNkGN.s:1385   .text.Lcd_Init:0000000000000128 .L0 
C:\Users\Kalle\AppData\Local\Temp\cc2hNkGN.s:1393   .text.Lcd_Init:0000000000000132 .L0 
C:\Users\Kalle\AppData\Local\Temp\cc2hNkGN.s:1394   .text.Lcd_Init:0000000000000132 .L0 
C:\Users\Kalle\AppData\Local\Temp\cc2hNkGN.s:1399   .text.Lcd_Init:0000000000000140 .L0 
C:\Users\Kalle\AppData\Local\Temp\cc2hNkGN.s:1407   .text.Lcd_Init:000000000000014c .L0 
C:\Users\Kalle\AppData\Local\Temp\cc2hNkGN.s:1408   .text.Lcd_Init:000000000000014c .L0 
C:\Users\Kalle\AppData\Local\Temp\cc2hNkGN.s:1413   .text.Lcd_Init:000000000000015a .L0 
C:\Users\Kalle\AppData\Local\Temp\cc2hNkGN.s:1421   .text.Lcd_Init:0000000000000166 .L0 
C:\Users\Kalle\AppData\Local\Temp\cc2hNkGN.s:1422   .text.Lcd_Init:0000000000000166 .L0 
C:\Users\Kalle\AppData\Local\Temp\cc2hNkGN.s:1427   .text.Lcd_Init:0000000000000174 .L0 
C:\Users\Kalle\AppData\Local\Temp\cc2hNkGN.s:1435   .text.Lcd_Init:0000000000000180 .L0 
C:\Users\Kalle\AppData\Local\Temp\cc2hNkGN.s:1436   .text.Lcd_Init:0000000000000180 .L0 
C:\Users\Kalle\AppData\Local\Temp\cc2hNkGN.s:1441   .text.Lcd_Init:000000000000018e .L0 
C:\Users\Kalle\AppData\Local\Temp\cc2hNkGN.s:1449   .text.Lcd_Init:0000000000000198 .L0 
C:\Users\Kalle\AppData\Local\Temp\cc2hNkGN.s:1450   .text.Lcd_Init:0000000000000198 .L0 
C:\Users\Kalle\AppData\Local\Temp\cc2hNkGN.s:1455   .text.Lcd_Init:00000000000001a6 .L0 
C:\Users\Kalle\AppData\Local\Temp\cc2hNkGN.s:1463   .text.Lcd_Init:00000000000001b2 .L0 
C:\Users\Kalle\AppData\Local\Temp\cc2hNkGN.s:1464   .text.Lcd_Init:00000000000001b2 .L0 
C:\Users\Kalle\AppData\Local\Temp\cc2hNkGN.s:1469   .text.Lcd_Init:00000000000001c0 .L0 
C:\Users\Kalle\AppData\Local\Temp\cc2hNkGN.s:1477   .text.Lcd_Init:00000000000001cc .L0 
C:\Users\Kalle\AppData\Local\Temp\cc2hNkGN.s:1478   .text.Lcd_Init:00000000000001cc .L0 
C:\Users\Kalle\AppData\Local\Temp\cc2hNkGN.s:1483   .text.Lcd_Init:00000000000001da .L0 
C:\Users\Kalle\AppData\Local\Temp\cc2hNkGN.s:1491   .text.Lcd_Init:00000000000001e6 .L0 
C:\Users\Kalle\AppData\Local\Temp\cc2hNkGN.s:1492   .text.Lcd_Init:00000000000001e6 .L0 
C:\Users\Kalle\AppData\Local\Temp\cc2hNkGN.s:1497   .text.Lcd_Init:00000000000001f4 .L0 
C:\Users\Kalle\AppData\Local\Temp\cc2hNkGN.s:1505   .text.Lcd_Init:00000000000001fe .L0 
C:\Users\Kalle\AppData\Local\Temp\cc2hNkGN.s:1506   .text.Lcd_Init:00000000000001fe .L0 
C:\Users\Kalle\AppData\Local\Temp\cc2hNkGN.s:1511   .text.Lcd_Init:000000000000020c .L0 
C:\Users\Kalle\AppData\Local\Temp\cc2hNkGN.s:1519   .text.Lcd_Init:0000000000000218 .L0 
C:\Users\Kalle\AppData\Local\Temp\cc2hNkGN.s:1520   .text.Lcd_Init:0000000000000218 .L0 
C:\Users\Kalle\AppData\Local\Temp\cc2hNkGN.s:1525   .text.Lcd_Init:0000000000000226 .L0 
C:\Users\Kalle\AppData\Local\Temp\cc2hNkGN.s:1533   .text.Lcd_Init:0000000000000232 .L0 
C:\Users\Kalle\AppData\Local\Temp\cc2hNkGN.s:1534   .text.Lcd_Init:0000000000000232 .L0 
C:\Users\Kalle\AppData\Local\Temp\cc2hNkGN.s:1539   .text.Lcd_Init:0000000000000240 .L0 
C:\Users\Kalle\AppData\Local\Temp\cc2hNkGN.s:1547   .text.Lcd_Init:000000000000024a .L0 
C:\Users\Kalle\AppData\Local\Temp\cc2hNkGN.s:1548   .text.Lcd_Init:000000000000024a .L0 
C:\Users\Kalle\AppData\Local\Temp\cc2hNkGN.s:1553   .text.Lcd_Init:0000000000000258 .L0 
C:\Users\Kalle\AppData\Local\Temp\cc2hNkGN.s:1561   .text.Lcd_Init:0000000000000264 .L0 
C:\Users\Kalle\AppData\Local\Temp\cc2hNkGN.s:1562   .text.Lcd_Init:0000000000000264 .L0 
C:\Users\Kalle\AppData\Local\Temp\cc2hNkGN.s:1567   .text.Lcd_Init:0000000000000272 .L0 
C:\Users\Kalle\AppData\Local\Temp\cc2hNkGN.s:1575   .text.Lcd_Init:000000000000027e .L0 
C:\Users\Kalle\AppData\Local\Temp\cc2hNkGN.s:1576   .text.Lcd_Init:000000000000027e .L0 
C:\Users\Kalle\AppData\Local\Temp\cc2hNkGN.s:1581   .text.Lcd_Init:000000000000028c .L0 
C:\Users\Kalle\AppData\Local\Temp\cc2hNkGN.s:1589   .text.Lcd_Init:0000000000000298 .L0 
C:\Users\Kalle\AppData\Local\Temp\cc2hNkGN.s:1590   .text.Lcd_Init:0000000000000298 .L0 
C:\Users\Kalle\AppData\Local\Temp\cc2hNkGN.s:1595   .text.Lcd_Init:00000000000002a6 .L0 
C:\Users\Kalle\AppData\Local\Temp\cc2hNkGN.s:1603   .text.Lcd_Init:00000000000002b0 .L0 
C:\Users\Kalle\AppData\Local\Temp\cc2hNkGN.s:1604   .text.Lcd_Init:00000000000002b0 .L0 
C:\Users\Kalle\AppData\Local\Temp\cc2hNkGN.s:1609   .text.Lcd_Init:00000000000002be .L0 
C:\Users\Kalle\AppData\Local\Temp\cc2hNkGN.s:1617   .text.Lcd_Init:00000000000002ca .L0 
GAS LISTING C:\Users\Kalle\AppData\Local\Temp\cc2hNkGN.s 			page 160


C:\Users\Kalle\AppData\Local\Temp\cc2hNkGN.s:1618   .text.Lcd_Init:00000000000002ca .L0 
C:\Users\Kalle\AppData\Local\Temp\cc2hNkGN.s:1623   .text.Lcd_Init:00000000000002d8 .L0 
C:\Users\Kalle\AppData\Local\Temp\cc2hNkGN.s:1631   .text.Lcd_Init:00000000000002e4 .L0 
C:\Users\Kalle\AppData\Local\Temp\cc2hNkGN.s:1632   .text.Lcd_Init:00000000000002e4 .L0 
C:\Users\Kalle\AppData\Local\Temp\cc2hNkGN.s:1637   .text.Lcd_Init:00000000000002f2 .L0 
C:\Users\Kalle\AppData\Local\Temp\cc2hNkGN.s:1645   .text.Lcd_Init:00000000000002fc .L0 
C:\Users\Kalle\AppData\Local\Temp\cc2hNkGN.s:1646   .text.Lcd_Init:00000000000002fc .L0 
C:\Users\Kalle\AppData\Local\Temp\cc2hNkGN.s:1651   .text.Lcd_Init:000000000000030a .L0 
C:\Users\Kalle\AppData\Local\Temp\cc2hNkGN.s:1659   .text.Lcd_Init:0000000000000314 .L0 
C:\Users\Kalle\AppData\Local\Temp\cc2hNkGN.s:1660   .text.Lcd_Init:0000000000000314 .L0 
C:\Users\Kalle\AppData\Local\Temp\cc2hNkGN.s:1665   .text.Lcd_Init:0000000000000322 .L0 
C:\Users\Kalle\AppData\Local\Temp\cc2hNkGN.s:1673   .text.Lcd_Init:000000000000032e .L0 
C:\Users\Kalle\AppData\Local\Temp\cc2hNkGN.s:1674   .text.Lcd_Init:000000000000032e .L0 
C:\Users\Kalle\AppData\Local\Temp\cc2hNkGN.s:1679   .text.Lcd_Init:000000000000033c .L0 
C:\Users\Kalle\AppData\Local\Temp\cc2hNkGN.s:1687   .text.Lcd_Init:0000000000000348 .L0 
C:\Users\Kalle\AppData\Local\Temp\cc2hNkGN.s:1688   .text.Lcd_Init:0000000000000348 .L0 
C:\Users\Kalle\AppData\Local\Temp\cc2hNkGN.s:1693   .text.Lcd_Init:0000000000000356 .L0 
C:\Users\Kalle\AppData\Local\Temp\cc2hNkGN.s:1701   .text.Lcd_Init:0000000000000362 .L0 
C:\Users\Kalle\AppData\Local\Temp\cc2hNkGN.s:1702   .text.Lcd_Init:0000000000000362 .L0 
C:\Users\Kalle\AppData\Local\Temp\cc2hNkGN.s:1707   .text.Lcd_Init:0000000000000370 .L0 
C:\Users\Kalle\AppData\Local\Temp\cc2hNkGN.s:1715   .text.Lcd_Init:000000000000037a .L0 
C:\Users\Kalle\AppData\Local\Temp\cc2hNkGN.s:1716   .text.Lcd_Init:000000000000037a .L0 
C:\Users\Kalle\AppData\Local\Temp\cc2hNkGN.s:1721   .text.Lcd_Init:0000000000000388 .L0 
C:\Users\Kalle\AppData\Local\Temp\cc2hNkGN.s:1729   .text.Lcd_Init:0000000000000392 .L0 
C:\Users\Kalle\AppData\Local\Temp\cc2hNkGN.s:1730   .text.Lcd_Init:0000000000000392 .L0 
C:\Users\Kalle\AppData\Local\Temp\cc2hNkGN.s:1735   .text.Lcd_Init:00000000000003a0 .L0 
C:\Users\Kalle\AppData\Local\Temp\cc2hNkGN.s:1743   .text.Lcd_Init:00000000000003ac .L0 
C:\Users\Kalle\AppData\Local\Temp\cc2hNkGN.s:1744   .text.Lcd_Init:00000000000003ac .L0 
C:\Users\Kalle\AppData\Local\Temp\cc2hNkGN.s:1749   .text.Lcd_Init:00000000000003ba .L0 
C:\Users\Kalle\AppData\Local\Temp\cc2hNkGN.s:1757   .text.Lcd_Init:00000000000003c6 .L0 
C:\Users\Kalle\AppData\Local\Temp\cc2hNkGN.s:1758   .text.Lcd_Init:00000000000003c6 .L0 
C:\Users\Kalle\AppData\Local\Temp\cc2hNkGN.s:1763   .text.Lcd_Init:00000000000003d4 .L0 
C:\Users\Kalle\AppData\Local\Temp\cc2hNkGN.s:1771   .text.Lcd_Init:00000000000003e0 .L0 
C:\Users\Kalle\AppData\Local\Temp\cc2hNkGN.s:1772   .text.Lcd_Init:00000000000003e0 .L0 
C:\Users\Kalle\AppData\Local\Temp\cc2hNkGN.s:1777   .text.Lcd_Init:00000000000003ee .L0 
C:\Users\Kalle\AppData\Local\Temp\cc2hNkGN.s:1785   .text.Lcd_Init:00000000000003fa .L0 
C:\Users\Kalle\AppData\Local\Temp\cc2hNkGN.s:1786   .text.Lcd_Init:00000000000003fa .L0 
C:\Users\Kalle\AppData\Local\Temp\cc2hNkGN.s:1791   .text.Lcd_Init:0000000000000408 .L0 
C:\Users\Kalle\AppData\Local\Temp\cc2hNkGN.s:1799   .text.Lcd_Init:0000000000000414 .L0 
C:\Users\Kalle\AppData\Local\Temp\cc2hNkGN.s:1800   .text.Lcd_Init:0000000000000414 .L0 
C:\Users\Kalle\AppData\Local\Temp\cc2hNkGN.s:1805   .text.Lcd_Init:0000000000000422 .L0 
C:\Users\Kalle\AppData\Local\Temp\cc2hNkGN.s:1813   .text.Lcd_Init:000000000000042e .L0 
C:\Users\Kalle\AppData\Local\Temp\cc2hNkGN.s:1814   .text.Lcd_Init:000000000000042e .L0 
C:\Users\Kalle\AppData\Local\Temp\cc2hNkGN.s:1819   .text.Lcd_Init:000000000000043c .L0 
C:\Users\Kalle\AppData\Local\Temp\cc2hNkGN.s:1827   .text.Lcd_Init:0000000000000448 .L0 
C:\Users\Kalle\AppData\Local\Temp\cc2hNkGN.s:1828   .text.Lcd_Init:0000000000000448 .L0 
C:\Users\Kalle\AppData\Local\Temp\cc2hNkGN.s:1833   .text.Lcd_Init:0000000000000456 .L0 
C:\Users\Kalle\AppData\Local\Temp\cc2hNkGN.s:1841   .text.Lcd_Init:0000000000000460 .L0 
C:\Users\Kalle\AppData\Local\Temp\cc2hNkGN.s:1842   .text.Lcd_Init:0000000000000460 .L0 
C:\Users\Kalle\AppData\Local\Temp\cc2hNkGN.s:1847   .text.Lcd_Init:000000000000046e .L0 
C:\Users\Kalle\AppData\Local\Temp\cc2hNkGN.s:1855   .text.Lcd_Init:000000000000047a .L0 
C:\Users\Kalle\AppData\Local\Temp\cc2hNkGN.s:1856   .text.Lcd_Init:000000000000047a .L0 
C:\Users\Kalle\AppData\Local\Temp\cc2hNkGN.s:1861   .text.Lcd_Init:0000000000000488 .L0 
C:\Users\Kalle\AppData\Local\Temp\cc2hNkGN.s:1869   .text.Lcd_Init:0000000000000492 .L0 
C:\Users\Kalle\AppData\Local\Temp\cc2hNkGN.s:1870   .text.Lcd_Init:0000000000000492 .L0 
C:\Users\Kalle\AppData\Local\Temp\cc2hNkGN.s:1875   .text.Lcd_Init:00000000000004a0 .L0 
C:\Users\Kalle\AppData\Local\Temp\cc2hNkGN.s:1883   .text.Lcd_Init:00000000000004aa .L0 
GAS LISTING C:\Users\Kalle\AppData\Local\Temp\cc2hNkGN.s 			page 161


C:\Users\Kalle\AppData\Local\Temp\cc2hNkGN.s:1884   .text.Lcd_Init:00000000000004aa .L0 
C:\Users\Kalle\AppData\Local\Temp\cc2hNkGN.s:1889   .text.Lcd_Init:00000000000004b8 .L0 
C:\Users\Kalle\AppData\Local\Temp\cc2hNkGN.s:1897   .text.Lcd_Init:00000000000004c2 .L0 
C:\Users\Kalle\AppData\Local\Temp\cc2hNkGN.s:1898   .text.Lcd_Init:00000000000004c2 .L0 
C:\Users\Kalle\AppData\Local\Temp\cc2hNkGN.s:1903   .text.Lcd_Init:00000000000004d0 .L0 
C:\Users\Kalle\AppData\Local\Temp\cc2hNkGN.s:1911   .text.Lcd_Init:00000000000004da .L0 
C:\Users\Kalle\AppData\Local\Temp\cc2hNkGN.s:1912   .text.Lcd_Init:00000000000004da .L0 
C:\Users\Kalle\AppData\Local\Temp\cc2hNkGN.s:1917   .text.Lcd_Init:00000000000004e8 .L0 
C:\Users\Kalle\AppData\Local\Temp\cc2hNkGN.s:1925   .text.Lcd_Init:00000000000004f2 .L0 
C:\Users\Kalle\AppData\Local\Temp\cc2hNkGN.s:1926   .text.Lcd_Init:00000000000004f2 .L0 
C:\Users\Kalle\AppData\Local\Temp\cc2hNkGN.s:1931   .text.Lcd_Init:0000000000000500 .L0 
C:\Users\Kalle\AppData\Local\Temp\cc2hNkGN.s:1939   .text.Lcd_Init:000000000000050a .L0 
C:\Users\Kalle\AppData\Local\Temp\cc2hNkGN.s:1940   .text.Lcd_Init:000000000000050a .L0 
C:\Users\Kalle\AppData\Local\Temp\cc2hNkGN.s:1945   .text.Lcd_Init:0000000000000518 .L0 
C:\Users\Kalle\AppData\Local\Temp\cc2hNkGN.s:1953   .text.Lcd_Init:0000000000000522 .L0 
C:\Users\Kalle\AppData\Local\Temp\cc2hNkGN.s:1954   .text.Lcd_Init:0000000000000522 .L0 
C:\Users\Kalle\AppData\Local\Temp\cc2hNkGN.s:1959   .text.Lcd_Init:0000000000000530 .L0 
C:\Users\Kalle\AppData\Local\Temp\cc2hNkGN.s:1967   .text.Lcd_Init:000000000000053a .L0 
C:\Users\Kalle\AppData\Local\Temp\cc2hNkGN.s:1968   .text.Lcd_Init:000000000000053a .L0 
C:\Users\Kalle\AppData\Local\Temp\cc2hNkGN.s:1973   .text.Lcd_Init:0000000000000548 .L0 
C:\Users\Kalle\AppData\Local\Temp\cc2hNkGN.s:1981   .text.Lcd_Init:0000000000000552 .L0 
C:\Users\Kalle\AppData\Local\Temp\cc2hNkGN.s:1982   .text.Lcd_Init:0000000000000552 .L0 
C:\Users\Kalle\AppData\Local\Temp\cc2hNkGN.s:1987   .text.Lcd_Init:0000000000000560 .L0 
C:\Users\Kalle\AppData\Local\Temp\cc2hNkGN.s:1995   .text.Lcd_Init:000000000000056a .L0 
C:\Users\Kalle\AppData\Local\Temp\cc2hNkGN.s:1996   .text.Lcd_Init:000000000000056a .L0 
C:\Users\Kalle\AppData\Local\Temp\cc2hNkGN.s:2001   .text.Lcd_Init:0000000000000578 .L0 
C:\Users\Kalle\AppData\Local\Temp\cc2hNkGN.s:2009   .text.Lcd_Init:0000000000000584 .L0 
C:\Users\Kalle\AppData\Local\Temp\cc2hNkGN.s:2010   .text.Lcd_Init:0000000000000584 .L0 
C:\Users\Kalle\AppData\Local\Temp\cc2hNkGN.s:2015   .text.Lcd_Init:0000000000000592 .L0 
C:\Users\Kalle\AppData\Local\Temp\cc2hNkGN.s:2023   .text.Lcd_Init:000000000000059e .L0 
C:\Users\Kalle\AppData\Local\Temp\cc2hNkGN.s:2024   .text.Lcd_Init:000000000000059e .L0 
C:\Users\Kalle\AppData\Local\Temp\cc2hNkGN.s:2029   .text.Lcd_Init:00000000000005ac .L0 
C:\Users\Kalle\AppData\Local\Temp\cc2hNkGN.s:2037   .text.Lcd_Init:00000000000005b6 .L0 
C:\Users\Kalle\AppData\Local\Temp\cc2hNkGN.s:2038   .text.Lcd_Init:00000000000005b6 .L0 
C:\Users\Kalle\AppData\Local\Temp\cc2hNkGN.s:2043   .text.Lcd_Init:00000000000005c4 .L0 
C:\Users\Kalle\AppData\Local\Temp\cc2hNkGN.s:2051   .text.Lcd_Init:00000000000005ce .L0 
C:\Users\Kalle\AppData\Local\Temp\cc2hNkGN.s:2052   .text.Lcd_Init:00000000000005ce .L0 
C:\Users\Kalle\AppData\Local\Temp\cc2hNkGN.s:2057   .text.Lcd_Init:00000000000005dc .L0 
C:\Users\Kalle\AppData\Local\Temp\cc2hNkGN.s:2065   .text.Lcd_Init:00000000000005e6 .L0 
C:\Users\Kalle\AppData\Local\Temp\cc2hNkGN.s:2066   .text.Lcd_Init:00000000000005e6 .L0 
C:\Users\Kalle\AppData\Local\Temp\cc2hNkGN.s:2071   .text.Lcd_Init:00000000000005f4 .L0 
C:\Users\Kalle\AppData\Local\Temp\cc2hNkGN.s:2079   .text.Lcd_Init:00000000000005fe .L0 
C:\Users\Kalle\AppData\Local\Temp\cc2hNkGN.s:2080   .text.Lcd_Init:00000000000005fe .L0 
C:\Users\Kalle\AppData\Local\Temp\cc2hNkGN.s:2085   .text.Lcd_Init:000000000000060c .L0 
C:\Users\Kalle\AppData\Local\Temp\cc2hNkGN.s:2093   .text.Lcd_Init:0000000000000618 .L0 
C:\Users\Kalle\AppData\Local\Temp\cc2hNkGN.s:2094   .text.Lcd_Init:0000000000000618 .L0 
C:\Users\Kalle\AppData\Local\Temp\cc2hNkGN.s:2099   .text.Lcd_Init:0000000000000626 .L0 
C:\Users\Kalle\AppData\Local\Temp\cc2hNkGN.s:2107   .text.Lcd_Init:0000000000000630 .L0 
C:\Users\Kalle\AppData\Local\Temp\cc2hNkGN.s:2108   .text.Lcd_Init:0000000000000630 .L0 
C:\Users\Kalle\AppData\Local\Temp\cc2hNkGN.s:2113   .text.Lcd_Init:000000000000063e .L0 
C:\Users\Kalle\AppData\Local\Temp\cc2hNkGN.s:2121   .text.Lcd_Init:0000000000000648 .L0 
C:\Users\Kalle\AppData\Local\Temp\cc2hNkGN.s:2122   .text.Lcd_Init:0000000000000648 .L0 
C:\Users\Kalle\AppData\Local\Temp\cc2hNkGN.s:2127   .text.Lcd_Init:0000000000000656 .L0 
C:\Users\Kalle\AppData\Local\Temp\cc2hNkGN.s:2135   .text.Lcd_Init:0000000000000660 .L0 
C:\Users\Kalle\AppData\Local\Temp\cc2hNkGN.s:2136   .text.Lcd_Init:0000000000000660 .L0 
C:\Users\Kalle\AppData\Local\Temp\cc2hNkGN.s:2141   .text.Lcd_Init:000000000000066e .L0 
C:\Users\Kalle\AppData\Local\Temp\cc2hNkGN.s:2149   .text.Lcd_Init:0000000000000678 .L0 
GAS LISTING C:\Users\Kalle\AppData\Local\Temp\cc2hNkGN.s 			page 162


C:\Users\Kalle\AppData\Local\Temp\cc2hNkGN.s:2150   .text.Lcd_Init:0000000000000678 .L0 
C:\Users\Kalle\AppData\Local\Temp\cc2hNkGN.s:2155   .text.Lcd_Init:0000000000000686 .L0 
C:\Users\Kalle\AppData\Local\Temp\cc2hNkGN.s:2163   .text.Lcd_Init:0000000000000690 .L0 
C:\Users\Kalle\AppData\Local\Temp\cc2hNkGN.s:2164   .text.Lcd_Init:0000000000000690 .L0 
C:\Users\Kalle\AppData\Local\Temp\cc2hNkGN.s:2169   .text.Lcd_Init:000000000000069e .L0 
C:\Users\Kalle\AppData\Local\Temp\cc2hNkGN.s:2177   .text.Lcd_Init:00000000000006a8 .L0 
C:\Users\Kalle\AppData\Local\Temp\cc2hNkGN.s:2178   .text.Lcd_Init:00000000000006a8 .L0 
C:\Users\Kalle\AppData\Local\Temp\cc2hNkGN.s:2183   .text.Lcd_Init:00000000000006b6 .L0 
C:\Users\Kalle\AppData\Local\Temp\cc2hNkGN.s:2191   .text.Lcd_Init:00000000000006c0 .L0 
C:\Users\Kalle\AppData\Local\Temp\cc2hNkGN.s:2192   .text.Lcd_Init:00000000000006c0 .L0 
C:\Users\Kalle\AppData\Local\Temp\cc2hNkGN.s:2197   .text.Lcd_Init:00000000000006ce .L0 
C:\Users\Kalle\AppData\Local\Temp\cc2hNkGN.s:2205   .text.Lcd_Init:00000000000006d8 .L0 
C:\Users\Kalle\AppData\Local\Temp\cc2hNkGN.s:2206   .text.Lcd_Init:00000000000006d8 .L0 
C:\Users\Kalle\AppData\Local\Temp\cc2hNkGN.s:2211   .text.Lcd_Init:00000000000006e6 .L0 
C:\Users\Kalle\AppData\Local\Temp\cc2hNkGN.s:2219   .text.Lcd_Init:00000000000006f0 .L0 
C:\Users\Kalle\AppData\Local\Temp\cc2hNkGN.s:2220   .text.Lcd_Init:00000000000006f0 .L0 
C:\Users\Kalle\AppData\Local\Temp\cc2hNkGN.s:2225   .text.Lcd_Init:00000000000006fe .L0 
C:\Users\Kalle\AppData\Local\Temp\cc2hNkGN.s:2233   .text.Lcd_Init:0000000000000708 .L0 
C:\Users\Kalle\AppData\Local\Temp\cc2hNkGN.s:2234   .text.Lcd_Init:0000000000000708 .L0 
C:\Users\Kalle\AppData\Local\Temp\cc2hNkGN.s:2239   .text.Lcd_Init:0000000000000716 .L0 
C:\Users\Kalle\AppData\Local\Temp\cc2hNkGN.s:2247   .text.Lcd_Init:0000000000000722 .L0 
C:\Users\Kalle\AppData\Local\Temp\cc2hNkGN.s:2248   .text.Lcd_Init:0000000000000722 .L0 
C:\Users\Kalle\AppData\Local\Temp\cc2hNkGN.s:2253   .text.Lcd_Init:0000000000000730 .L0 
C:\Users\Kalle\AppData\Local\Temp\cc2hNkGN.s:2261   .text.Lcd_Init:000000000000073c .L0 
C:\Users\Kalle\AppData\Local\Temp\cc2hNkGN.s:2262   .text.Lcd_Init:000000000000073c .L0 
C:\Users\Kalle\AppData\Local\Temp\cc2hNkGN.s:2267   .text.Lcd_Init:000000000000074a .L0 
C:\Users\Kalle\AppData\Local\Temp\cc2hNkGN.s:2275   .text.Lcd_Init:0000000000000754 .L0 
C:\Users\Kalle\AppData\Local\Temp\cc2hNkGN.s:2276   .text.Lcd_Init:0000000000000754 .L0 
C:\Users\Kalle\AppData\Local\Temp\cc2hNkGN.s:2281   .text.Lcd_Init:0000000000000762 .L0 
C:\Users\Kalle\AppData\Local\Temp\cc2hNkGN.s:2289   .text.Lcd_Init:000000000000076c .L0 
C:\Users\Kalle\AppData\Local\Temp\cc2hNkGN.s:2290   .text.Lcd_Init:000000000000076c .L0 
C:\Users\Kalle\AppData\Local\Temp\cc2hNkGN.s:2295   .text.Lcd_Init:000000000000077a .L0 
C:\Users\Kalle\AppData\Local\Temp\cc2hNkGN.s:2303   .text.Lcd_Init:0000000000000784 .L0 
C:\Users\Kalle\AppData\Local\Temp\cc2hNkGN.s:2304   .text.Lcd_Init:0000000000000784 .L0 
C:\Users\Kalle\AppData\Local\Temp\cc2hNkGN.s:2309   .text.Lcd_Init:0000000000000792 .L0 
C:\Users\Kalle\AppData\Local\Temp\cc2hNkGN.s:2317   .text.Lcd_Init:000000000000079c .L0 
C:\Users\Kalle\AppData\Local\Temp\cc2hNkGN.s:2318   .text.Lcd_Init:000000000000079c .L0 
C:\Users\Kalle\AppData\Local\Temp\cc2hNkGN.s:2323   .text.Lcd_Init:00000000000007aa .L0 
C:\Users\Kalle\AppData\Local\Temp\cc2hNkGN.s:2331   .text.Lcd_Init:00000000000007b6 .L0 
C:\Users\Kalle\AppData\Local\Temp\cc2hNkGN.s:2332   .text.Lcd_Init:00000000000007b6 .L0 
C:\Users\Kalle\AppData\Local\Temp\cc2hNkGN.s:2337   .text.Lcd_Init:00000000000007c4 .L0 
C:\Users\Kalle\AppData\Local\Temp\cc2hNkGN.s:2345   .text.Lcd_Init:00000000000007ce .L0 
C:\Users\Kalle\AppData\Local\Temp\cc2hNkGN.s:2346   .text.Lcd_Init:00000000000007ce .L0 
C:\Users\Kalle\AppData\Local\Temp\cc2hNkGN.s:2351   .text.Lcd_Init:00000000000007dc .L0 
C:\Users\Kalle\AppData\Local\Temp\cc2hNkGN.s:2359   .text.Lcd_Init:00000000000007e8 .L0 
C:\Users\Kalle\AppData\Local\Temp\cc2hNkGN.s:2360   .text.Lcd_Init:00000000000007e8 .L0 
C:\Users\Kalle\AppData\Local\Temp\cc2hNkGN.s:2365   .text.Lcd_Init:00000000000007f6 .L0 
C:\Users\Kalle\AppData\Local\Temp\cc2hNkGN.s:2373   .text.Lcd_Init:0000000000000802 .L0 
C:\Users\Kalle\AppData\Local\Temp\cc2hNkGN.s:2374   .text.Lcd_Init:0000000000000802 .L0 
C:\Users\Kalle\AppData\Local\Temp\cc2hNkGN.s:2381   .text.Lcd_Init:0000000000000810 .L0 
C:\Users\Kalle\AppData\Local\Temp\cc2hNkGN.s:2382   .text.Lcd_Init:0000000000000810 .L0 
C:\Users\Kalle\AppData\Local\Temp\cc2hNkGN.s:2383   .text.Lcd_Init:0000000000000812 .L0 
C:\Users\Kalle\AppData\Local\Temp\cc2hNkGN.s:2384   .text.Lcd_Init:0000000000000812 .L0 
C:\Users\Kalle\AppData\Local\Temp\cc2hNkGN.s:2386   .text.Lcd_Init:0000000000000814 .L0 
C:\Users\Kalle\AppData\Local\Temp\cc2hNkGN.s:2390   .text.Lcd_Init:0000000000000814 .L0 
C:\Users\Kalle\AppData\Local\Temp\cc2hNkGN.s:2394   .text.Lcd_Init:0000000000000818 .L0 
C:\Users\Kalle\AppData\Local\Temp\cc2hNkGN.s:2396   .text.Lcd_Init:000000000000081a .L0 
GAS LISTING C:\Users\Kalle\AppData\Local\Temp\cc2hNkGN.s 			page 163


C:\Users\Kalle\AppData\Local\Temp\cc2hNkGN.s:2400   .text.Lcd_Init:000000000000081a .L0 
C:\Users\Kalle\AppData\Local\Temp\cc2hNkGN.s:2404   .text.Lcd_Init:0000000000000822 .L0 
C:\Users\Kalle\AppData\Local\Temp\cc2hNkGN.s:2410   .text.Lcd_Init:0000000000000822 .L0 
C:\Users\Kalle\AppData\Local\Temp\cc2hNkGN.s:2411   .text.Lcd_Init:0000000000000822 .L0 
C:\Users\Kalle\AppData\Local\Temp\cc2hNkGN.s:2416   .text.Lcd_Init:0000000000000830 .L0 
C:\Users\Kalle\AppData\Local\Temp\cc2hNkGN.s:2422   .text.Lcd_Init:000000000000083e .L0 
C:\Users\Kalle\AppData\Local\Temp\cc2hNkGN.s:2429   .text.LCD_Clear:0000000000000000 LCD_Clear
C:\Users\Kalle\AppData\Local\Temp\cc2hNkGN.s:2432   .text.LCD_Clear:0000000000000000 .L0 
C:\Users\Kalle\AppData\Local\Temp\cc2hNkGN.s:2434   .text.LCD_Clear:0000000000000000 .L0 
C:\Users\Kalle\AppData\Local\Temp\cc2hNkGN.s:2435   .text.LCD_Clear:0000000000000000 .L0 
C:\Users\Kalle\AppData\Local\Temp\cc2hNkGN.s:2436   .text.LCD_Clear:0000000000000000 .L0 
C:\Users\Kalle\AppData\Local\Temp\cc2hNkGN.s:2437   .text.LCD_Clear:0000000000000000 .L0 
C:\Users\Kalle\AppData\Local\Temp\cc2hNkGN.s:2439   .text.LCD_Clear:0000000000000002 .L0 
C:\Users\Kalle\AppData\Local\Temp\cc2hNkGN.s:2442   .text.LCD_Clear:0000000000000004 .L0 
C:\Users\Kalle\AppData\Local\Temp\cc2hNkGN.s:2443   .text.LCD_Clear:0000000000000008 .L0 
C:\Users\Kalle\AppData\Local\Temp\cc2hNkGN.s:2445   .text.LCD_Clear:0000000000000008 .L0 
C:\Users\Kalle\AppData\Local\Temp\cc2hNkGN.s:2447   .text.LCD_Clear:000000000000000a .L0 
C:\Users\Kalle\AppData\Local\Temp\cc2hNkGN.s:2452   .text.LCD_Clear:0000000000000012 .L0 
C:\Users\Kalle\AppData\Local\Temp\cc2hNkGN.s:2455   .text.LCD_Clear:0000000000000018 .L0 
C:\Users\Kalle\AppData\Local\Temp\cc2hNkGN.s:2456   .text.LCD_Clear:0000000000000018 .L0 
C:\Users\Kalle\AppData\Local\Temp\cc2hNkGN.s:2457   .text.LCD_Clear:0000000000000018 .L0 
C:\Users\Kalle\AppData\Local\Temp\cc2hNkGN.s:2459   .text.LCD_Clear:0000000000000018 .L0 
C:\Users\Kalle\AppData\Local\Temp\cc2hNkGN.s:2464   .text.LCD_Clear:0000000000000024 .L0 
C:\Users\Kalle\AppData\Local\Temp\cc2hNkGN.s:2465   .text.LCD_Clear:0000000000000024 .L0 
C:\Users\Kalle\AppData\Local\Temp\cc2hNkGN.s:2469   .text.LCD_Clear:0000000000000028 .L0 
C:\Users\Kalle\AppData\Local\Temp\cc2hNkGN.s:2475   .text.LCD_Clear:0000000000000034 .L0 
C:\Users\Kalle\AppData\Local\Temp\cc2hNkGN.s:2480   .text.LCD_Clear:0000000000000038 .L0 
C:\Users\Kalle\AppData\Local\Temp\cc2hNkGN.s:2482   .text.LCD_Clear:000000000000003c .L0 
C:\Users\Kalle\AppData\Local\Temp\cc2hNkGN.s:2483   .text.LCD_Clear:000000000000003e .L0 
C:\Users\Kalle\AppData\Local\Temp\cc2hNkGN.s:2485   .text.LCD_Clear:0000000000000040 .L0 
C:\Users\Kalle\AppData\Local\Temp\cc2hNkGN.s:2487   .text.LCD_Clear:0000000000000042 .L0 
C:\Users\Kalle\AppData\Local\Temp\cc2hNkGN.s:2490   .text.LCD_Clear:0000000000000044 .L0 
C:\Users\Kalle\AppData\Local\Temp\cc2hNkGN.s:2494   .text.LCD_Clear:0000000000000046 .L0 
C:\Users\Kalle\AppData\Local\Temp\cc2hNkGN.s:2496   .text.LCD_Clear:0000000000000048 .L0 
C:\Users\Kalle\AppData\Local\Temp\cc2hNkGN.s:2503   .text.LCD_ShowChinese:0000000000000000 LCD_ShowChinese
C:\Users\Kalle\AppData\Local\Temp\cc2hNkGN.s:2506   .text.LCD_ShowChinese:0000000000000000 .L0 
C:\Users\Kalle\AppData\Local\Temp\cc2hNkGN.s:2508   .text.LCD_ShowChinese:0000000000000000 .L0 
C:\Users\Kalle\AppData\Local\Temp\cc2hNkGN.s:2509   .text.LCD_ShowChinese:0000000000000000 .L0 
C:\Users\Kalle\AppData\Local\Temp\cc2hNkGN.s:2510   .text.LCD_ShowChinese:0000000000000000 .L0 
C:\Users\Kalle\AppData\Local\Temp\cc2hNkGN.s:2511   .text.LCD_ShowChinese:0000000000000000 .L0 
C:\Users\Kalle\AppData\Local\Temp\cc2hNkGN.s:2512   .text.LCD_ShowChinese:0000000000000000 .L0 
C:\Users\Kalle\AppData\Local\Temp\cc2hNkGN.s:2513   .text.LCD_ShowChinese:0000000000000000 .L0 
C:\Users\Kalle\AppData\Local\Temp\cc2hNkGN.s:2515   .text.LCD_ShowChinese:0000000000000002 .L0 
C:\Users\Kalle\AppData\Local\Temp\cc2hNkGN.s:2517   .text.LCD_ShowChinese:0000000000000004 .L0 
C:\Users\Kalle\AppData\Local\Temp\cc2hNkGN.s:2525   .text.LCD_ShowChinese:0000000000000016 .L0 
C:\Users\Kalle\AppData\Local\Temp\cc2hNkGN.s:2526   .text.LCD_ShowChinese:0000000000000016 .L0 
C:\Users\Kalle\AppData\Local\Temp\cc2hNkGN.s:2537   .text.LCD_ShowChinese:000000000000002e .L0 
C:\Users\Kalle\AppData\Local\Temp\cc2hNkGN.s:2538   .text.LCD_ShowChinese:000000000000002e .L0 
C:\Users\Kalle\AppData\Local\Temp\cc2hNkGN.s:2539   .text.LCD_ShowChinese:000000000000002e .L0 
C:\Users\Kalle\AppData\Local\Temp\cc2hNkGN.s:2540   .text.LCD_ShowChinese:000000000000002e .L0 
C:\Users\Kalle\AppData\Local\Temp\cc2hNkGN.s:2541   .text.LCD_ShowChinese:000000000000002e .L0 
C:\Users\Kalle\AppData\Local\Temp\cc2hNkGN.s:2543   .text.LCD_ShowChinese:000000000000002e .L0 
C:\Users\Kalle\AppData\Local\Temp\cc2hNkGN.s:2548   .text.LCD_ShowChinese:000000000000003e .L0 
C:\Users\Kalle\AppData\Local\Temp\cc2hNkGN.s:2551   .text.LCD_ShowChinese:0000000000000040 .L0 
C:\Users\Kalle\AppData\Local\Temp\cc2hNkGN.s:2553   .text.LCD_ShowChinese:0000000000000044 .L0 
C:\Users\Kalle\AppData\Local\Temp\cc2hNkGN.s:2556   .text.LCD_ShowChinese:000000000000004c .L0 
C:\Users\Kalle\AppData\Local\Temp\cc2hNkGN.s:2557   .text.LCD_ShowChinese:000000000000004c .L0 
GAS LISTING C:\Users\Kalle\AppData\Local\Temp\cc2hNkGN.s 			page 164


C:\Users\Kalle\AppData\Local\Temp\cc2hNkGN.s:2558   .text.LCD_ShowChinese:000000000000004c .L0 
C:\Users\Kalle\AppData\Local\Temp\cc2hNkGN.s:2563   .text.LCD_ShowChinese:0000000000000056 .L0 
C:\Users\Kalle\AppData\Local\Temp\cc2hNkGN.s:2566   .text.LCD_ShowChinese:000000000000005a .L0 
C:\Users\Kalle\AppData\Local\Temp\cc2hNkGN.s:2568   .text.LCD_ShowChinese:000000000000005c .L0 
C:\Users\Kalle\AppData\Local\Temp\cc2hNkGN.s:2570   .text.LCD_ShowChinese:0000000000000060 .L0 
C:\Users\Kalle\AppData\Local\Temp\cc2hNkGN.s:2574   .text.LCD_ShowChinese:0000000000000062 .L0 
C:\Users\Kalle\AppData\Local\Temp\cc2hNkGN.s:2578   .text.LCD_ShowChinese:0000000000000064 .L0 
C:\Users\Kalle\AppData\Local\Temp\cc2hNkGN.s:2579   .text.LCD_ShowChinese:0000000000000064 .L0 
C:\Users\Kalle\AppData\Local\Temp\cc2hNkGN.s:2580   .text.LCD_ShowChinese:0000000000000064 .L0 
C:\Users\Kalle\AppData\Local\Temp\cc2hNkGN.s:2581   .text.LCD_ShowChinese:0000000000000064 .L0 
C:\Users\Kalle\AppData\Local\Temp\cc2hNkGN.s:2583   .text.LCD_ShowChinese:0000000000000068 .L0 
C:\Users\Kalle\AppData\Local\Temp\cc2hNkGN.s:2585   .text.LCD_ShowChinese:000000000000006a .L0 
C:\Users\Kalle\AppData\Local\Temp\cc2hNkGN.s:2588   .text.LCD_ShowChinese:0000000000000070 .L0 
C:\Users\Kalle\AppData\Local\Temp\cc2hNkGN.s:2591   .text.LCD_ShowChinese:0000000000000072 .L0 
C:\Users\Kalle\AppData\Local\Temp\cc2hNkGN.s:2599   .text.LCD_ShowChinese:0000000000000080 .L0 
C:\Users\Kalle\AppData\Local\Temp\cc2hNkGN.s:2601   .text.LCD_ShowChinese:0000000000000084 .L0 
C:\Users\Kalle\AppData\Local\Temp\cc2hNkGN.s:2602   .text.LCD_ShowChinese:0000000000000084 .L0 
C:\Users\Kalle\AppData\Local\Temp\cc2hNkGN.s:2606   .text.LCD_ShowChinese:000000000000008a .L0 
C:\Users\Kalle\AppData\Local\Temp\cc2hNkGN.s:2609   .text.LCD_ShowChinese:000000000000008c .L0 
C:\Users\Kalle\AppData\Local\Temp\cc2hNkGN.s:2613   .text.LCD_ShowChinese:0000000000000090 .L0 
C:\Users\Kalle\AppData\Local\Temp\cc2hNkGN.s:2614   .text.LCD_ShowChinese:0000000000000092 .L0 
C:\Users\Kalle\AppData\Local\Temp\cc2hNkGN.s:2615   .text.LCD_ShowChinese:0000000000000092 .L0 
C:\Users\Kalle\AppData\Local\Temp\cc2hNkGN.s:2617   .text.LCD_ShowChinese:0000000000000094 .L0 
C:\Users\Kalle\AppData\Local\Temp\cc2hNkGN.s:2619   .text.LCD_ShowChinese:0000000000000096 .L0 
C:\Users\Kalle\AppData\Local\Temp\cc2hNkGN.s:2622   .text.LCD_ShowChinese:0000000000000098 .L0 
C:\Users\Kalle\AppData\Local\Temp\cc2hNkGN.s:2625   .text.LCD_ShowChinese:000000000000009a .L0 
C:\Users\Kalle\AppData\Local\Temp\cc2hNkGN.s:2627   .text.LCD_ShowChinese:000000000000009c .L0 
C:\Users\Kalle\AppData\Local\Temp\cc2hNkGN.s:2629   .text.LCD_ShowChinese:000000000000009e .L0 
C:\Users\Kalle\AppData\Local\Temp\cc2hNkGN.s:2631   .text.LCD_ShowChinese:00000000000000a0 .L0 
C:\Users\Kalle\AppData\Local\Temp\cc2hNkGN.s:2634   .text.LCD_ShowChinese:00000000000000a2 .L0 
C:\Users\Kalle\AppData\Local\Temp\cc2hNkGN.s:2639   .text.LCD_ShowChinese:00000000000000a4 .L0 
C:\Users\Kalle\AppData\Local\Temp\cc2hNkGN.s:2641   .text.LCD_ShowChinese:00000000000000a4 .L0 
C:\Users\Kalle\AppData\Local\Temp\cc2hNkGN.s:2644   .text.LCD_ShowChinese:00000000000000ac .L0 
C:\Users\Kalle\AppData\Local\Temp\cc2hNkGN.s:2645   .text.LCD_ShowChinese:00000000000000ac .L0 
C:\Users\Kalle\AppData\Local\Temp\cc2hNkGN.s:2646   .text.LCD_ShowChinese:00000000000000ac .L0 
C:\Users\Kalle\AppData\Local\Temp\cc2hNkGN.s:2651   .text.LCD_ShowChinese:00000000000000b6 .L0 
C:\Users\Kalle\AppData\Local\Temp\cc2hNkGN.s:2652   .text.LCD_ShowChinese:00000000000000b8 .L0 
C:\Users\Kalle\AppData\Local\Temp\cc2hNkGN.s:2659   .text.LCD_DrawPoint:0000000000000000 LCD_DrawPoint
C:\Users\Kalle\AppData\Local\Temp\cc2hNkGN.s:2662   .text.LCD_DrawPoint:0000000000000000 .L0 
C:\Users\Kalle\AppData\Local\Temp\cc2hNkGN.s:2664   .text.LCD_DrawPoint:0000000000000000 .L0 
C:\Users\Kalle\AppData\Local\Temp\cc2hNkGN.s:2665   .text.LCD_DrawPoint:0000000000000000 .L0 
C:\Users\Kalle\AppData\Local\Temp\cc2hNkGN.s:2666   .text.LCD_DrawPoint:0000000000000000 .L0 
C:\Users\Kalle\AppData\Local\Temp\cc2hNkGN.s:2668   .text.LCD_DrawPoint:0000000000000002 .L0 
C:\Users\Kalle\AppData\Local\Temp\cc2hNkGN.s:2671   .text.LCD_DrawPoint:0000000000000004 .L0 
C:\Users\Kalle\AppData\Local\Temp\cc2hNkGN.s:2672   .text.LCD_DrawPoint:0000000000000006 .L0 
C:\Users\Kalle\AppData\Local\Temp\cc2hNkGN.s:2674   .text.LCD_DrawPoint:0000000000000006 .L0 
C:\Users\Kalle\AppData\Local\Temp\cc2hNkGN.s:2676   .text.LCD_DrawPoint:0000000000000008 .L0 
C:\Users\Kalle\AppData\Local\Temp\cc2hNkGN.s:2679   .text.LCD_DrawPoint:000000000000000a .L0 
C:\Users\Kalle\AppData\Local\Temp\cc2hNkGN.s:2680   .text.LCD_DrawPoint:000000000000000c .L0 
C:\Users\Kalle\AppData\Local\Temp\cc2hNkGN.s:2682   .text.LCD_DrawPoint:000000000000000c .L0 
C:\Users\Kalle\AppData\Local\Temp\cc2hNkGN.s:2685   .text.LCD_DrawPoint:0000000000000014 .L0 
C:\Users\Kalle\AppData\Local\Temp\cc2hNkGN.s:2687   .text.LCD_DrawPoint:0000000000000016 .L0 
C:\Users\Kalle\AppData\Local\Temp\cc2hNkGN.s:2688   .text.LCD_DrawPoint:0000000000000018 .L0 
C:\Users\Kalle\AppData\Local\Temp\cc2hNkGN.s:2691   .text.LCD_DrawPoint:000000000000001a .L0 
C:\Users\Kalle\AppData\Local\Temp\cc2hNkGN.s:2694   .text.LCD_DrawPoint:000000000000001c .L0 
C:\Users\Kalle\AppData\Local\Temp\cc2hNkGN.s:2696   .text.LCD_DrawPoint:000000000000001c .L0 
C:\Users\Kalle\AppData\Local\Temp\cc2hNkGN.s:2698   .text.LCD_DrawPoint:0000000000000024 .L0 
GAS LISTING C:\Users\Kalle\AppData\Local\Temp\cc2hNkGN.s 			page 165


C:\Users\Kalle\AppData\Local\Temp\cc2hNkGN.s:2705   .text.LCD_Fill:0000000000000000 LCD_Fill
C:\Users\Kalle\AppData\Local\Temp\cc2hNkGN.s:2708   .text.LCD_Fill:0000000000000000 .L0 
C:\Users\Kalle\AppData\Local\Temp\cc2hNkGN.s:2710   .text.LCD_Fill:0000000000000000 .L0 
C:\Users\Kalle\AppData\Local\Temp\cc2hNkGN.s:2711   .text.LCD_Fill:0000000000000000 .L0 
C:\Users\Kalle\AppData\Local\Temp\cc2hNkGN.s:2712   .text.LCD_Fill:0000000000000000 .L0 
C:\Users\Kalle\AppData\Local\Temp\cc2hNkGN.s:2713   .text.LCD_Fill:0000000000000000 .L0 
C:\Users\Kalle\AppData\Local\Temp\cc2hNkGN.s:2715   .text.LCD_Fill:0000000000000002 .L0 
C:\Users\Kalle\AppData\Local\Temp\cc2hNkGN.s:2718   .text.LCD_Fill:0000000000000006 .L0 
C:\Users\Kalle\AppData\Local\Temp\cc2hNkGN.s:2719   .text.LCD_Fill:0000000000000006 .L0 
C:\Users\Kalle\AppData\Local\Temp\cc2hNkGN.s:2727   .text.LCD_Fill:0000000000000014 .L0 
C:\Users\Kalle\AppData\Local\Temp\cc2hNkGN.s:2728   .text.LCD_Fill:0000000000000014 .L0 
C:\Users\Kalle\AppData\Local\Temp\cc2hNkGN.s:2729   .text.LCD_Fill:0000000000000014 .L0 
C:\Users\Kalle\AppData\Local\Temp\cc2hNkGN.s:2730   .text.LCD_Fill:0000000000000014 .L0 
C:\Users\Kalle\AppData\Local\Temp\cc2hNkGN.s:2731   .text.LCD_Fill:0000000000000014 .L0 
C:\Users\Kalle\AppData\Local\Temp\cc2hNkGN.s:2733   .text.LCD_Fill:0000000000000014 .L0 
C:\Users\Kalle\AppData\Local\Temp\cc2hNkGN.s:2737   .text.LCD_Fill:000000000000001a .L0 
C:\Users\Kalle\AppData\Local\Temp\cc2hNkGN.s:2740   .text.LCD_Fill:0000000000000022 .L0 
C:\Users\Kalle\AppData\Local\Temp\cc2hNkGN.s:2744   .text.LCD_Fill:0000000000000026 .L0 
C:\Users\Kalle\AppData\Local\Temp\cc2hNkGN.s:2749   .text.LCD_Fill:000000000000002c .L0 
C:\Users\Kalle\AppData\Local\Temp\cc2hNkGN.s:2750   .text.LCD_Fill:000000000000002c .L0 
C:\Users\Kalle\AppData\Local\Temp\cc2hNkGN.s:2753   .text.LCD_Fill:000000000000002e .L0 
C:\Users\Kalle\AppData\Local\Temp\cc2hNkGN.s:2757   .text.LCD_Fill:0000000000000038 .L0 
C:\Users\Kalle\AppData\Local\Temp\cc2hNkGN.s:2760   .text.LCD_Fill:000000000000003c .L0 
C:\Users\Kalle\AppData\Local\Temp\cc2hNkGN.s:2763   .text.LCD_Fill:000000000000003e .L0 
C:\Users\Kalle\AppData\Local\Temp\cc2hNkGN.s:2767   .text.LCD_Fill:0000000000000042 .L0 
C:\Users\Kalle\AppData\Local\Temp\cc2hNkGN.s:2768   .text.LCD_Fill:0000000000000044 .L0 
C:\Users\Kalle\AppData\Local\Temp\cc2hNkGN.s:2770   .text.LCD_Fill:0000000000000046 .L0 
C:\Users\Kalle\AppData\Local\Temp\cc2hNkGN.s:2772   .text.LCD_Fill:0000000000000048 .L0 
C:\Users\Kalle\AppData\Local\Temp\cc2hNkGN.s:2775   .text.LCD_Fill:000000000000004a .L0 
C:\Users\Kalle\AppData\Local\Temp\cc2hNkGN.s:2778   .text.LCD_Fill:000000000000004c .L0 
C:\Users\Kalle\AppData\Local\Temp\cc2hNkGN.s:2781   .text.LCD_Fill:000000000000004e .L0 
C:\Users\Kalle\AppData\Local\Temp\cc2hNkGN.s:2784   .text.LCD_Fill:0000000000000050 .L0 
C:\Users\Kalle\AppData\Local\Temp\cc2hNkGN.s:2788   .text.LCD_Fill:0000000000000052 .L0 
C:\Users\Kalle\AppData\Local\Temp\cc2hNkGN.s:2790   .text.LCD_Fill:0000000000000054 .L0 
C:\Users\Kalle\AppData\Local\Temp\cc2hNkGN.s:2797   .text.LCD_DrawPoint_big:0000000000000000 LCD_DrawPoint_big
C:\Users\Kalle\AppData\Local\Temp\cc2hNkGN.s:2800   .text.LCD_DrawPoint_big:0000000000000000 .L0 
C:\Users\Kalle\AppData\Local\Temp\cc2hNkGN.s:2802   .text.LCD_DrawPoint_big:0000000000000000 .L0 
C:\Users\Kalle\AppData\Local\Temp\cc2hNkGN.s:2803   .text.LCD_DrawPoint_big:0000000000000000 .L0 
C:\Users\Kalle\AppData\Local\Temp\cc2hNkGN.s:2813   .text.LCD_DrawPoint_big:0000000000000016 .L0 
C:\Users\Kalle\AppData\Local\Temp\cc2hNkGN.s:2820   .text.LCD_DrawLine:0000000000000000 LCD_DrawLine
C:\Users\Kalle\AppData\Local\Temp\cc2hNkGN.s:2823   .text.LCD_DrawLine:0000000000000000 .L0 
C:\Users\Kalle\AppData\Local\Temp\cc2hNkGN.s:2825   .text.LCD_DrawLine:0000000000000000 .L0 
C:\Users\Kalle\AppData\Local\Temp\cc2hNkGN.s:2826   .text.LCD_DrawLine:0000000000000000 .L0 
C:\Users\Kalle\AppData\Local\Temp\cc2hNkGN.s:2827   .text.LCD_DrawLine:0000000000000000 .L0 
C:\Users\Kalle\AppData\Local\Temp\cc2hNkGN.s:2828   .text.LCD_DrawLine:0000000000000000 .L0 
C:\Users\Kalle\AppData\Local\Temp\cc2hNkGN.s:2829   .text.LCD_DrawLine:0000000000000000 .L0 
C:\Users\Kalle\AppData\Local\Temp\cc2hNkGN.s:2830   .text.LCD_DrawLine:0000000000000000 .L0 
C:\Users\Kalle\AppData\Local\Temp\cc2hNkGN.s:2832   .text.LCD_DrawLine:0000000000000002 .L0 
C:\Users\Kalle\AppData\Local\Temp\cc2hNkGN.s:2845   .text.LCD_DrawLine:000000000000001a .L0 
C:\Users\Kalle\AppData\Local\Temp\cc2hNkGN.s:2846   .text.LCD_DrawLine:000000000000001a .L0 
C:\Users\Kalle\AppData\Local\Temp\cc2hNkGN.s:2847   .text.LCD_DrawLine:000000000000001a .L0 
C:\Users\Kalle\AppData\Local\Temp\cc2hNkGN.s:2848   .text.LCD_DrawLine:000000000000001a .L0 
C:\Users\Kalle\AppData\Local\Temp\cc2hNkGN.s:2849   .text.LCD_DrawLine:000000000000001a .L0 
C:\Users\Kalle\AppData\Local\Temp\cc2hNkGN.s:2850   .text.LCD_DrawLine:000000000000001a .L0 
C:\Users\Kalle\AppData\Local\Temp\cc2hNkGN.s:2851   .text.LCD_DrawLine:000000000000001a .L0 
C:\Users\Kalle\AppData\Local\Temp\cc2hNkGN.s:2852   .text.LCD_DrawLine:000000000000001a .L0 
C:\Users\Kalle\AppData\Local\Temp\cc2hNkGN.s:2853   .text.LCD_DrawLine:000000000000001a .L0 
GAS LISTING C:\Users\Kalle\AppData\Local\Temp\cc2hNkGN.s 			page 166


C:\Users\Kalle\AppData\Local\Temp\cc2hNkGN.s:2854   .text.LCD_DrawLine:000000000000001a .L0 
C:\Users\Kalle\AppData\Local\Temp\cc2hNkGN.s:2855   .text.LCD_DrawLine:000000000000001a .L0 
C:\Users\Kalle\AppData\Local\Temp\cc2hNkGN.s:2856   .text.LCD_DrawLine:000000000000001a .L0 
C:\Users\Kalle\AppData\Local\Temp\cc2hNkGN.s:2858   .text.LCD_DrawLine:000000000000001a .L0 
C:\Users\Kalle\AppData\Local\Temp\cc2hNkGN.s:2861   .text.LCD_DrawLine:000000000000001e .L0 
C:\Users\Kalle\AppData\Local\Temp\cc2hNkGN.s:2862   .text.LCD_DrawLine:000000000000001e .L0 
C:\Users\Kalle\AppData\Local\Temp\cc2hNkGN.s:2864   .text.LCD_DrawLine:0000000000000020 .L0 
C:\Users\Kalle\AppData\Local\Temp\cc2hNkGN.s:2867   .text.LCD_DrawLine:0000000000000024 .L0 
C:\Users\Kalle\AppData\Local\Temp\cc2hNkGN.s:2868   .text.LCD_DrawLine:0000000000000024 .L0 
C:\Users\Kalle\AppData\Local\Temp\cc2hNkGN.s:2871   .text.LCD_DrawLine:0000000000000026 .L0 
C:\Users\Kalle\AppData\Local\Temp\cc2hNkGN.s:2872   .text.LCD_DrawLine:0000000000000026 .L0 
C:\Users\Kalle\AppData\Local\Temp\cc2hNkGN.s:2875   .text.LCD_DrawLine:0000000000000028 .L0 
C:\Users\Kalle\AppData\Local\Temp\cc2hNkGN.s:2876   .text.LCD_DrawLine:0000000000000028 .L0 
C:\Users\Kalle\AppData\Local\Temp\cc2hNkGN.s:2878   .text.LCD_DrawLine:000000000000002a .L0 
C:\Users\Kalle\AppData\Local\Temp\cc2hNkGN.s:2882   .text.LCD_DrawLine:000000000000002e .L0 
C:\Users\Kalle\AppData\Local\Temp\cc2hNkGN.s:2883   .text.LCD_DrawLine:000000000000002e .L0 
C:\Users\Kalle\AppData\Local\Temp\cc2hNkGN.s:2885   .text.LCD_DrawLine:0000000000000030 .L0 
C:\Users\Kalle\AppData\Local\Temp\cc2hNkGN.s:2889   .text.LCD_DrawLine:0000000000000034 .L0 
C:\Users\Kalle\AppData\Local\Temp\cc2hNkGN.s:2896   .text.LCD_DrawLine:000000000000003c .L0 
C:\Users\Kalle\AppData\Local\Temp\cc2hNkGN.s:2897   .text.LCD_DrawLine:000000000000003c .L0 
C:\Users\Kalle\AppData\Local\Temp\cc2hNkGN.s:2899   .text.LCD_DrawLine:000000000000003e .L0 
C:\Users\Kalle\AppData\Local\Temp\cc2hNkGN.s:2901   .text.LCD_DrawLine:0000000000000040 .L0 
C:\Users\Kalle\AppData\Local\Temp\cc2hNkGN.s:2907   .text.LCD_DrawLine:0000000000000042 .L0 
C:\Users\Kalle\AppData\Local\Temp\cc2hNkGN.s:2908   .text.LCD_DrawLine:0000000000000042 .L0 
C:\Users\Kalle\AppData\Local\Temp\cc2hNkGN.s:2915   .text.LCD_DrawLine:0000000000000052 .L0 
C:\Users\Kalle\AppData\Local\Temp\cc2hNkGN.s:2919   .text.LCD_DrawLine:0000000000000054 .L0 
C:\Users\Kalle\AppData\Local\Temp\cc2hNkGN.s:2924   .text.LCD_DrawLine:0000000000000056 .L0 
C:\Users\Kalle\AppData\Local\Temp\cc2hNkGN.s:2929   .text.LCD_DrawLine:000000000000005e .L0 
C:\Users\Kalle\AppData\Local\Temp\cc2hNkGN.s:2930   .text.LCD_DrawLine:000000000000005e .L0 
C:\Users\Kalle\AppData\Local\Temp\cc2hNkGN.s:2931   .text.LCD_DrawLine:000000000000005e .L0 
C:\Users\Kalle\AppData\Local\Temp\cc2hNkGN.s:2932   .text.LCD_DrawLine:000000000000005e .L0 
C:\Users\Kalle\AppData\Local\Temp\cc2hNkGN.s:2933   .text.LCD_DrawLine:000000000000005e .L0 
C:\Users\Kalle\AppData\Local\Temp\cc2hNkGN.s:2936   .text.LCD_DrawLine:0000000000000060 .L0 
C:\Users\Kalle\AppData\Local\Temp\cc2hNkGN.s:2937   .text.LCD_DrawLine:0000000000000060 .L0 
C:\Users\Kalle\AppData\Local\Temp\cc2hNkGN.s:2939   .text.LCD_DrawLine:0000000000000064 .L0 
C:\Users\Kalle\AppData\Local\Temp\cc2hNkGN.s:2942   .text.LCD_DrawLine:0000000000000066 .L0 
C:\Users\Kalle\AppData\Local\Temp\cc2hNkGN.s:2943   .text.LCD_DrawLine:0000000000000066 .L0 
C:\Users\Kalle\AppData\Local\Temp\cc2hNkGN.s:2947   .text.LCD_DrawLine:0000000000000068 .L0 
C:\Users\Kalle\AppData\Local\Temp\cc2hNkGN.s:2948   .text.LCD_DrawLine:0000000000000068 .L0 
C:\Users\Kalle\AppData\Local\Temp\cc2hNkGN.s:2950   .text.LCD_DrawLine:000000000000006c .L0 
C:\Users\Kalle\AppData\Local\Temp\cc2hNkGN.s:2953   .text.LCD_DrawLine:0000000000000070 .L0 
C:\Users\Kalle\AppData\Local\Temp\cc2hNkGN.s:2954   .text.LCD_DrawLine:0000000000000070 .L0 
C:\Users\Kalle\AppData\Local\Temp\cc2hNkGN.s:2958   .text.LCD_DrawLine:0000000000000072 .L0 
C:\Users\Kalle\AppData\Local\Temp\cc2hNkGN.s:2961   .text.LCD_DrawLine:0000000000000076 .L0 
C:\Users\Kalle\AppData\Local\Temp\cc2hNkGN.s:2966   .text.LCD_DrawLine:000000000000007e .L0 
C:\Users\Kalle\AppData\Local\Temp\cc2hNkGN.s:2967   .text.LCD_DrawLine:0000000000000080 .L0 
C:\Users\Kalle\AppData\Local\Temp\cc2hNkGN.s:2968   .text.LCD_DrawLine:0000000000000080 .L0 
C:\Users\Kalle\AppData\Local\Temp\cc2hNkGN.s:2970   .text.LCD_DrawLine:0000000000000082 .L0 
C:\Users\Kalle\AppData\Local\Temp\cc2hNkGN.s:2973   .text.LCD_DrawLine:0000000000000084 .L0 
C:\Users\Kalle\AppData\Local\Temp\cc2hNkGN.s:2976   .text.LCD_DrawLine:0000000000000086 .L0 
C:\Users\Kalle\AppData\Local\Temp\cc2hNkGN.s:2979   .text.LCD_DrawLine:0000000000000088 .L0 
C:\Users\Kalle\AppData\Local\Temp\cc2hNkGN.s:2982   .text.LCD_DrawLine:000000000000008a .L0 
C:\Users\Kalle\AppData\Local\Temp\cc2hNkGN.s:2985   .text.LCD_DrawLine:000000000000008c .L0 
C:\Users\Kalle\AppData\Local\Temp\cc2hNkGN.s:2987   .text.LCD_DrawLine:000000000000008e .L0 
C:\Users\Kalle\AppData\Local\Temp\cc2hNkGN.s:2990   .text.LCD_DrawLine:0000000000000090 .L0 
C:\Users\Kalle\AppData\Local\Temp\cc2hNkGN.s:2993   .text.LCD_DrawLine:0000000000000092 .L0 
C:\Users\Kalle\AppData\Local\Temp\cc2hNkGN.s:2996   .text.LCD_DrawLine:0000000000000094 .L0 
GAS LISTING C:\Users\Kalle\AppData\Local\Temp\cc2hNkGN.s 			page 167


C:\Users\Kalle\AppData\Local\Temp\cc2hNkGN.s:2999   .text.LCD_DrawLine:0000000000000096 .L0 
C:\Users\Kalle\AppData\Local\Temp\cc2hNkGN.s:3003   .text.LCD_DrawLine:0000000000000098 .L0 
C:\Users\Kalle\AppData\Local\Temp\cc2hNkGN.s:3008   .text.LCD_DrawLine:000000000000009a .L0 
C:\Users\Kalle\AppData\Local\Temp\cc2hNkGN.s:3010   .text.LCD_DrawLine:000000000000009a .L0 
C:\Users\Kalle\AppData\Local\Temp\cc2hNkGN.s:3011   .text.LCD_DrawLine:000000000000009a .L0 
C:\Users\Kalle\AppData\Local\Temp\cc2hNkGN.s:3013   .text.LCD_DrawLine:000000000000009c .L0 
C:\Users\Kalle\AppData\Local\Temp\cc2hNkGN.s:3016   .text.LCD_DrawLine:00000000000000a0 .L0 
C:\Users\Kalle\AppData\Local\Temp\cc2hNkGN.s:3017   .text.LCD_DrawLine:00000000000000a0 .L0 
C:\Users\Kalle\AppData\Local\Temp\cc2hNkGN.s:3018   .text.LCD_DrawLine:00000000000000a0 .L0 
C:\Users\Kalle\AppData\Local\Temp\cc2hNkGN.s:3021   .text.LCD_DrawLine:00000000000000a4 .L0 
C:\Users\Kalle\AppData\Local\Temp\cc2hNkGN.s:3024   .text.LCD_DrawLine:00000000000000a6 .L0 
C:\Users\Kalle\AppData\Local\Temp\cc2hNkGN.s:3025   .text.LCD_DrawLine:00000000000000a6 .L0 
C:\Users\Kalle\AppData\Local\Temp\cc2hNkGN.s:3027   .text.LCD_DrawLine:00000000000000a8 .L0 
C:\Users\Kalle\AppData\Local\Temp\cc2hNkGN.s:3030   .text.LCD_DrawLine:00000000000000ac .L0 
C:\Users\Kalle\AppData\Local\Temp\cc2hNkGN.s:3031   .text.LCD_DrawLine:00000000000000ac .L0 
C:\Users\Kalle\AppData\Local\Temp\cc2hNkGN.s:3033   .text.LCD_DrawLine:00000000000000ae .L0 
C:\Users\Kalle\AppData\Local\Temp\cc2hNkGN.s:3036   .text.LCD_DrawLine:00000000000000b2 .L0 
C:\Users\Kalle\AppData\Local\Temp\cc2hNkGN.s:3037   .text.LCD_DrawLine:00000000000000b2 .L0 
C:\Users\Kalle\AppData\Local\Temp\cc2hNkGN.s:3038   .text.LCD_DrawLine:00000000000000b2 .L0 
C:\Users\Kalle\AppData\Local\Temp\cc2hNkGN.s:3041   .text.LCD_DrawLine:00000000000000b6 .L0 
C:\Users\Kalle\AppData\Local\Temp\cc2hNkGN.s:3043   .text.LCD_DrawLine:00000000000000ba .L0 
C:\Users\Kalle\AppData\Local\Temp\cc2hNkGN.s:3050   .text.LCD_DrawRectangle:0000000000000000 LCD_DrawRectangle
C:\Users\Kalle\AppData\Local\Temp\cc2hNkGN.s:3053   .text.LCD_DrawRectangle:0000000000000000 .L0 
C:\Users\Kalle\AppData\Local\Temp\cc2hNkGN.s:3055   .text.LCD_DrawRectangle:0000000000000000 .L0 
C:\Users\Kalle\AppData\Local\Temp\cc2hNkGN.s:3056   .text.LCD_DrawRectangle:0000000000000000 .L0 
C:\Users\Kalle\AppData\Local\Temp\cc2hNkGN.s:3057   .text.LCD_DrawRectangle:0000000000000000 .L0 
C:\Users\Kalle\AppData\Local\Temp\cc2hNkGN.s:3059   .text.LCD_DrawRectangle:0000000000000002 .L0 
C:\Users\Kalle\AppData\Local\Temp\cc2hNkGN.s:3061   .text.LCD_DrawRectangle:0000000000000004 .L0 
C:\Users\Kalle\AppData\Local\Temp\cc2hNkGN.s:3064   .text.LCD_DrawRectangle:0000000000000006 .L0 
C:\Users\Kalle\AppData\Local\Temp\cc2hNkGN.s:3067   .text.LCD_DrawRectangle:0000000000000008 .L0 
C:\Users\Kalle\AppData\Local\Temp\cc2hNkGN.s:3072   .text.LCD_DrawRectangle:0000000000000012 .L0 
C:\Users\Kalle\AppData\Local\Temp\cc2hNkGN.s:3073   .text.LCD_DrawRectangle:0000000000000012 .L0 
C:\Users\Kalle\AppData\Local\Temp\cc2hNkGN.s:3074   .text.LCD_DrawRectangle:0000000000000012 .L0 
C:\Users\Kalle\AppData\Local\Temp\cc2hNkGN.s:3075   .text.LCD_DrawRectangle:0000000000000012 .L0 
C:\Users\Kalle\AppData\Local\Temp\cc2hNkGN.s:3076   .text.LCD_DrawRectangle:0000000000000012 .L0 
C:\Users\Kalle\AppData\Local\Temp\cc2hNkGN.s:3078   .text.LCD_DrawRectangle:0000000000000012 .L0 
C:\Users\Kalle\AppData\Local\Temp\cc2hNkGN.s:3083   .text.LCD_DrawRectangle:000000000000001a .L0 
C:\Users\Kalle\AppData\Local\Temp\cc2hNkGN.s:3086   .text.LCD_DrawRectangle:0000000000000022 .L0 
C:\Users\Kalle\AppData\Local\Temp\cc2hNkGN.s:3094   .text.LCD_DrawRectangle:0000000000000034 .L0 
C:\Users\Kalle\AppData\Local\Temp\cc2hNkGN.s:3102   .text.LCD_DrawRectangle:0000000000000046 .L0 
C:\Users\Kalle\AppData\Local\Temp\cc2hNkGN.s:3104   .text.LCD_DrawRectangle:0000000000000048 .L0 
C:\Users\Kalle\AppData\Local\Temp\cc2hNkGN.s:3105   .text.LCD_DrawRectangle:000000000000004a .L0 
C:\Users\Kalle\AppData\Local\Temp\cc2hNkGN.s:3108   .text.LCD_DrawRectangle:000000000000004c .L0 
C:\Users\Kalle\AppData\Local\Temp\cc2hNkGN.s:3110   .text.LCD_DrawRectangle:000000000000004e .L0 
C:\Users\Kalle\AppData\Local\Temp\cc2hNkGN.s:3113   .text.LCD_DrawRectangle:000000000000004e .L0 
C:\Users\Kalle\AppData\Local\Temp\cc2hNkGN.s:3116   .text.LCD_DrawRectangle:0000000000000052 .L0 
C:\Users\Kalle\AppData\Local\Temp\cc2hNkGN.s:3117   .text.LCD_DrawRectangle:0000000000000054 .L0 
C:\Users\Kalle\AppData\Local\Temp\cc2hNkGN.s:3120   .text.LCD_DrawRectangle:0000000000000054 .L0 
C:\Users\Kalle\AppData\Local\Temp\cc2hNkGN.s:3123   .text.LCD_DrawRectangle:0000000000000058 .L0 
C:\Users\Kalle\AppData\Local\Temp\cc2hNkGN.s:3124   .text.LCD_DrawRectangle:000000000000005a .L0 
C:\Users\Kalle\AppData\Local\Temp\cc2hNkGN.s:3127   .text.LCD_DrawRectangle:000000000000005c .L0 
C:\Users\Kalle\AppData\Local\Temp\cc2hNkGN.s:3131   .text.LCD_DrawRectangle:000000000000005e .L0 
C:\Users\Kalle\AppData\Local\Temp\cc2hNkGN.s:3133   .text.LCD_DrawRectangle:000000000000005e .L0 
C:\Users\Kalle\AppData\Local\Temp\cc2hNkGN.s:3135   .text.LCD_DrawRectangle:0000000000000066 .L0 
C:\Users\Kalle\AppData\Local\Temp\cc2hNkGN.s:3142   .text.Draw_Circle:0000000000000000 Draw_Circle
C:\Users\Kalle\AppData\Local\Temp\cc2hNkGN.s:3145   .text.Draw_Circle:0000000000000000 .L0 
C:\Users\Kalle\AppData\Local\Temp\cc2hNkGN.s:3147   .text.Draw_Circle:0000000000000000 .L0 
GAS LISTING C:\Users\Kalle\AppData\Local\Temp\cc2hNkGN.s 			page 168


C:\Users\Kalle\AppData\Local\Temp\cc2hNkGN.s:3148   .text.Draw_Circle:0000000000000000 .L0 
C:\Users\Kalle\AppData\Local\Temp\cc2hNkGN.s:3149   .text.Draw_Circle:0000000000000000 .L0 
C:\Users\Kalle\AppData\Local\Temp\cc2hNkGN.s:3150   .text.Draw_Circle:0000000000000000 .L0 
C:\Users\Kalle\AppData\Local\Temp\cc2hNkGN.s:3151   .text.Draw_Circle:0000000000000000 .L0 
C:\Users\Kalle\AppData\Local\Temp\cc2hNkGN.s:3153   .text.Draw_Circle:0000000000000004 .L0 
C:\Users\Kalle\AppData\Local\Temp\cc2hNkGN.s:3155   .text.Draw_Circle:0000000000000006 .L0 
C:\Users\Kalle\AppData\Local\Temp\cc2hNkGN.s:3169   .text.Draw_Circle:0000000000000020 .L0 
C:\Users\Kalle\AppData\Local\Temp\cc2hNkGN.s:3170   .text.Draw_Circle:0000000000000020 .L0 
C:\Users\Kalle\AppData\Local\Temp\cc2hNkGN.s:3171   .text.Draw_Circle:0000000000000020 .L0 
C:\Users\Kalle\AppData\Local\Temp\cc2hNkGN.s:3172   .text.Draw_Circle:0000000000000020 .L0 
C:\Users\Kalle\AppData\Local\Temp\cc2hNkGN.s:3173   .text.Draw_Circle:0000000000000020 .L0 
C:\Users\Kalle\AppData\Local\Temp\cc2hNkGN.s:3174   .text.Draw_Circle:0000000000000020 .L0 
C:\Users\Kalle\AppData\Local\Temp\cc2hNkGN.s:3175   .text.Draw_Circle:0000000000000020 .L0 
C:\Users\Kalle\AppData\Local\Temp\cc2hNkGN.s:3176   .text.Draw_Circle:0000000000000020 .L0 
C:\Users\Kalle\AppData\Local\Temp\cc2hNkGN.s:3177   .text.Draw_Circle:0000000000000020 .L0 
C:\Users\Kalle\AppData\Local\Temp\cc2hNkGN.s:3178   .text.Draw_Circle:0000000000000020 .L0 
C:\Users\Kalle\AppData\Local\Temp\cc2hNkGN.s:3179   .text.Draw_Circle:0000000000000020 .L0 
C:\Users\Kalle\AppData\Local\Temp\cc2hNkGN.s:3180   .text.Draw_Circle:0000000000000020 .L0 
C:\Users\Kalle\AppData\Local\Temp\cc2hNkGN.s:3181   .text.Draw_Circle:0000000000000020 .L0 
C:\Users\Kalle\AppData\Local\Temp\cc2hNkGN.s:3183   .text.Draw_Circle:0000000000000020 .L0 
C:\Users\Kalle\AppData\Local\Temp\cc2hNkGN.s:3186   .text.Draw_Circle:0000000000000022 .L0 
C:\Users\Kalle\AppData\Local\Temp\cc2hNkGN.s:3187   .text.Draw_Circle:0000000000000022 .L0 
C:\Users\Kalle\AppData\Local\Temp\cc2hNkGN.s:3189   .text.Draw_Circle:0000000000000024 .L0 
C:\Users\Kalle\AppData\Local\Temp\cc2hNkGN.s:3193   .text.Draw_Circle:000000000000002a .L0 
C:\Users\Kalle\AppData\Local\Temp\cc2hNkGN.s:3197   .text.Draw_Circle:000000000000002c .L0 
C:\Users\Kalle\AppData\Local\Temp\cc2hNkGN.s:3203   .text.Draw_Circle:0000000000000034 .L0 
C:\Users\Kalle\AppData\Local\Temp\cc2hNkGN.s:3210   .text.Draw_Circle:0000000000000044 .L0 
C:\Users\Kalle\AppData\Local\Temp\cc2hNkGN.s:3216   .text.Draw_Circle:000000000000004e .L0 
C:\Users\Kalle\AppData\Local\Temp\cc2hNkGN.s:3221   .text.Draw_Circle:0000000000000052 .L0 
C:\Users\Kalle\AppData\Local\Temp\cc2hNkGN.s:3228   .text.Draw_Circle:0000000000000062 .L0 
C:\Users\Kalle\AppData\Local\Temp\cc2hNkGN.s:3234   .text.Draw_Circle:000000000000006c .L0 
C:\Users\Kalle\AppData\Local\Temp\cc2hNkGN.s:3240   .text.Draw_Circle:0000000000000074 .L0 
C:\Users\Kalle\AppData\Local\Temp\cc2hNkGN.s:3247   .text.Draw_Circle:0000000000000084 .L0 
C:\Users\Kalle\AppData\Local\Temp\cc2hNkGN.s:3253   .text.Draw_Circle:000000000000008e .L0 
C:\Users\Kalle\AppData\Local\Temp\cc2hNkGN.s:3258   .text.Draw_Circle:0000000000000092 .L0 
C:\Users\Kalle\AppData\Local\Temp\cc2hNkGN.s:3265   .text.Draw_Circle:00000000000000a2 .L0 
C:\Users\Kalle\AppData\Local\Temp\cc2hNkGN.s:3272   .text.Draw_Circle:00000000000000b0 .L0 
C:\Users\Kalle\AppData\Local\Temp\cc2hNkGN.s:3277   .text.Draw_Circle:00000000000000b2 .L0 
C:\Users\Kalle\AppData\Local\Temp\cc2hNkGN.s:3284   .text.Draw_Circle:00000000000000c2 .L0 
C:\Users\Kalle\AppData\Local\Temp\cc2hNkGN.s:3290   .text.Draw_Circle:00000000000000cc .L0 
C:\Users\Kalle\AppData\Local\Temp\cc2hNkGN.s:3295   .text.Draw_Circle:00000000000000ce .L0 
C:\Users\Kalle\AppData\Local\Temp\cc2hNkGN.s:3302   .text.Draw_Circle:00000000000000de .L0 
C:\Users\Kalle\AppData\Local\Temp\cc2hNkGN.s:3310   .text.Draw_Circle:00000000000000e8 .L0 
C:\Users\Kalle\AppData\Local\Temp\cc2hNkGN.s:3311   .text.Draw_Circle:00000000000000e8 .L0 
C:\Users\Kalle\AppData\Local\Temp\cc2hNkGN.s:3318   .text.Draw_Circle:00000000000000f8 .L0 
C:\Users\Kalle\AppData\Local\Temp\cc2hNkGN.s:3326   .text.Draw_Circle:0000000000000102 .L0 
C:\Users\Kalle\AppData\Local\Temp\cc2hNkGN.s:3327   .text.Draw_Circle:0000000000000102 .L0 
C:\Users\Kalle\AppData\Local\Temp\cc2hNkGN.s:3334   .text.Draw_Circle:0000000000000112 .L0 
C:\Users\Kalle\AppData\Local\Temp\cc2hNkGN.s:3340   .text.Draw_Circle:000000000000011c .L0 
C:\Users\Kalle\AppData\Local\Temp\cc2hNkGN.s:3341   .text.Draw_Circle:000000000000011c .L0 
C:\Users\Kalle\AppData\Local\Temp\cc2hNkGN.s:3344   .text.Draw_Circle:000000000000011e .L0 
C:\Users\Kalle\AppData\Local\Temp\cc2hNkGN.s:3345   .text.Draw_Circle:000000000000011e .L0 
C:\Users\Kalle\AppData\Local\Temp\cc2hNkGN.s:3347   .text.Draw_Circle:0000000000000122 .L0 
C:\Users\Kalle\AppData\Local\Temp\cc2hNkGN.s:3349   .text.Draw_Circle:0000000000000126 .L0 
C:\Users\Kalle\AppData\Local\Temp\cc2hNkGN.s:3351   .text.Draw_Circle:0000000000000128 .L0 
C:\Users\Kalle\AppData\Local\Temp\cc2hNkGN.s:3356   .text.Draw_Circle:0000000000000132 .L0 
C:\Users\Kalle\AppData\Local\Temp\cc2hNkGN.s:3358   .text.Draw_Circle:0000000000000136 .L0 
GAS LISTING C:\Users\Kalle\AppData\Local\Temp\cc2hNkGN.s 			page 169


C:\Users\Kalle\AppData\Local\Temp\cc2hNkGN.s:3359   .text.Draw_Circle:0000000000000138 .L0 
C:\Users\Kalle\AppData\Local\Temp\cc2hNkGN.s:3361   .text.Draw_Circle:000000000000013a .L0 
C:\Users\Kalle\AppData\Local\Temp\cc2hNkGN.s:3363   .text.Draw_Circle:000000000000013c .L0 
C:\Users\Kalle\AppData\Local\Temp\cc2hNkGN.s:3365   .text.Draw_Circle:000000000000013e .L0 
C:\Users\Kalle\AppData\Local\Temp\cc2hNkGN.s:3368   .text.Draw_Circle:0000000000000140 .L0 
C:\Users\Kalle\AppData\Local\Temp\cc2hNkGN.s:3371   .text.Draw_Circle:0000000000000142 .L0 
C:\Users\Kalle\AppData\Local\Temp\cc2hNkGN.s:3374   .text.Draw_Circle:0000000000000144 .L0 
C:\Users\Kalle\AppData\Local\Temp\cc2hNkGN.s:3377   .text.Draw_Circle:0000000000000146 .L0 
C:\Users\Kalle\AppData\Local\Temp\cc2hNkGN.s:3380   .text.Draw_Circle:0000000000000148 .L0 
C:\Users\Kalle\AppData\Local\Temp\cc2hNkGN.s:3382   .text.Draw_Circle:000000000000014a .L0 
C:\Users\Kalle\AppData\Local\Temp\cc2hNkGN.s:3384   .text.Draw_Circle:000000000000014c .L0 
C:\Users\Kalle\AppData\Local\Temp\cc2hNkGN.s:3386   .text.Draw_Circle:000000000000014e .L0 
C:\Users\Kalle\AppData\Local\Temp\cc2hNkGN.s:3388   .text.Draw_Circle:0000000000000150 .L0 
C:\Users\Kalle\AppData\Local\Temp\cc2hNkGN.s:3391   .text.Draw_Circle:0000000000000152 .L0 
C:\Users\Kalle\AppData\Local\Temp\cc2hNkGN.s:3393   .text.Draw_Circle:0000000000000154 .L0 
C:\Users\Kalle\AppData\Local\Temp\cc2hNkGN.s:3400   .text.LCD_ShowChar:0000000000000000 LCD_ShowChar
C:\Users\Kalle\AppData\Local\Temp\cc2hNkGN.s:3403   .text.LCD_ShowChar:0000000000000000 .L0 
C:\Users\Kalle\AppData\Local\Temp\cc2hNkGN.s:3405   .text.LCD_ShowChar:0000000000000000 .L0 
C:\Users\Kalle\AppData\Local\Temp\cc2hNkGN.s:3406   .text.LCD_ShowChar:0000000000000000 .L0 
C:\Users\Kalle\AppData\Local\Temp\cc2hNkGN.s:3407   .text.LCD_ShowChar:0000000000000000 .L0 
C:\Users\Kalle\AppData\Local\Temp\cc2hNkGN.s:3408   .text.LCD_ShowChar:0000000000000000 .L0 
C:\Users\Kalle\AppData\Local\Temp\cc2hNkGN.s:3409   .text.LCD_ShowChar:0000000000000000 .L0 
C:\Users\Kalle\AppData\Local\Temp\cc2hNkGN.s:3410   .text.LCD_ShowChar:0000000000000000 .L0 
C:\Users\Kalle\AppData\Local\Temp\cc2hNkGN.s:3413   .text.LCD_ShowChar:0000000000000008 .L0 
C:\Users\Kalle\AppData\Local\Temp\cc2hNkGN.s:3417   .text.LCD_ShowChar:0000000000000010 .L0 
C:\Users\Kalle\AppData\Local\Temp\cc2hNkGN.s:3421   .text.LCD_ShowChar:000000000000001a .L0 
C:\Users\Kalle\AppData\Local\Temp\cc2hNkGN.s:3428   .text.LCD_ShowString:0000000000000000 LCD_ShowString
C:\Users\Kalle\AppData\Local\Temp\cc2hNkGN.s:3431   .text.LCD_ShowString:0000000000000000 .L0 
C:\Users\Kalle\AppData\Local\Temp\cc2hNkGN.s:3433   .text.LCD_ShowString:0000000000000000 .L0 
C:\Users\Kalle\AppData\Local\Temp\cc2hNkGN.s:3434   .text.LCD_ShowString:0000000000000000 .L0 
C:\Users\Kalle\AppData\Local\Temp\cc2hNkGN.s:3435   .text.LCD_ShowString:0000000000000000 .L0 
C:\Users\Kalle\AppData\Local\Temp\cc2hNkGN.s:3438   .text.LCD_ShowString:0000000000000006 .L0 
C:\Users\Kalle\AppData\Local\Temp\cc2hNkGN.s:3440   .text.LCD_ShowString:0000000000000008 .L0 
C:\Users\Kalle\AppData\Local\Temp\cc2hNkGN.s:3442   .text.LCD_ShowString:000000000000000a .L0 
C:\Users\Kalle\AppData\Local\Temp\cc2hNkGN.s:3444   .text.LCD_ShowString:000000000000000a .L0 
C:\Users\Kalle\AppData\Local\Temp\cc2hNkGN.s:3446   .text.LCD_ShowString:000000000000000c .L0 
C:\Users\Kalle\AppData\Local\Temp\cc2hNkGN.s:3453   .text.LCD_ShowString:000000000000001a .L0 
C:\Users\Kalle\AppData\Local\Temp\cc2hNkGN.s:3454   .text.LCD_ShowString:000000000000001a .L0 
C:\Users\Kalle\AppData\Local\Temp\cc2hNkGN.s:3455   .text.LCD_ShowString:000000000000001a .L0 
C:\Users\Kalle\AppData\Local\Temp\cc2hNkGN.s:3456   .text.LCD_ShowString:000000000000001a .L0 
C:\Users\Kalle\AppData\Local\Temp\cc2hNkGN.s:3457   .text.LCD_ShowString:000000000000001a .L0 
C:\Users\Kalle\AppData\Local\Temp\cc2hNkGN.s:3458   .text.LCD_ShowString:000000000000001a .L0 
C:\Users\Kalle\AppData\Local\Temp\cc2hNkGN.s:3459   .text.LCD_ShowString:000000000000001a .L0 
C:\Users\Kalle\AppData\Local\Temp\cc2hNkGN.s:3465   .text.LCD_ShowString:0000000000000022 .L0 
C:\Users\Kalle\AppData\Local\Temp\cc2hNkGN.s:3467   .text.LCD_ShowString:0000000000000026 .L0 
C:\Users\Kalle\AppData\Local\Temp\cc2hNkGN.s:3469   .text.LCD_ShowString:000000000000002a .L0 
C:\Users\Kalle\AppData\Local\Temp\cc2hNkGN.s:3473   .text.LCD_ShowString:000000000000002e .L0 
C:\Users\Kalle\AppData\Local\Temp\cc2hNkGN.s:3474   .text.LCD_ShowString:000000000000002e .L0 
C:\Users\Kalle\AppData\Local\Temp\cc2hNkGN.s:3475   .text.LCD_ShowString:000000000000002e .L0 
C:\Users\Kalle\AppData\Local\Temp\cc2hNkGN.s:3476   .text.LCD_ShowString:000000000000002e .L0 
C:\Users\Kalle\AppData\Local\Temp\cc2hNkGN.s:3477   .text.LCD_ShowString:000000000000002e .L0 
C:\Users\Kalle\AppData\Local\Temp\cc2hNkGN.s:3479   .text.LCD_ShowString:0000000000000032 .L0 
C:\Users\Kalle\AppData\Local\Temp\cc2hNkGN.s:3482   .text.LCD_ShowString:0000000000000034 .L0 
C:\Users\Kalle\AppData\Local\Temp\cc2hNkGN.s:3483   .text.LCD_ShowString:0000000000000034 .L0 
C:\Users\Kalle\AppData\Local\Temp\cc2hNkGN.s:3484   .text.LCD_ShowString:0000000000000034 .L0 
C:\Users\Kalle\AppData\Local\Temp\cc2hNkGN.s:3486   .text.LCD_ShowString:0000000000000038 .L0 
C:\Users\Kalle\AppData\Local\Temp\cc2hNkGN.s:3491   .text.LCD_ShowString:000000000000003c .L0 
GAS LISTING C:\Users\Kalle\AppData\Local\Temp\cc2hNkGN.s 			page 170


C:\Users\Kalle\AppData\Local\Temp\cc2hNkGN.s:3492   .text.LCD_ShowString:000000000000003c .L0 
C:\Users\Kalle\AppData\Local\Temp\cc2hNkGN.s:3493   .text.LCD_ShowString:000000000000003c .L0 
C:\Users\Kalle\AppData\Local\Temp\cc2hNkGN.s:3496   .text.LCD_ShowString:000000000000003c .L0 
C:\Users\Kalle\AppData\Local\Temp\cc2hNkGN.s:3497   .text.LCD_ShowString:000000000000003c .L0 
C:\Users\Kalle\AppData\Local\Temp\cc2hNkGN.s:3499   .text.LCD_ShowString:000000000000003e .L0 
C:\Users\Kalle\AppData\Local\Temp\cc2hNkGN.s:3510   .text.LCD_ShowString:0000000000000046 .L0 
C:\Users\Kalle\AppData\Local\Temp\cc2hNkGN.s:3519   .text.LCD_ShowString:0000000000000050 .L0 
C:\Users\Kalle\AppData\Local\Temp\cc2hNkGN.s:3520   .text.LCD_ShowString:0000000000000050 .L0 
C:\Users\Kalle\AppData\Local\Temp\cc2hNkGN.s:3521   .text.LCD_ShowString:0000000000000050 .L0 
C:\Users\Kalle\AppData\Local\Temp\cc2hNkGN.s:3524   .text.LCD_ShowString:0000000000000056 .L0 
C:\Users\Kalle\AppData\Local\Temp\cc2hNkGN.s:3525   .text.LCD_ShowString:0000000000000058 .L0 
C:\Users\Kalle\AppData\Local\Temp\cc2hNkGN.s:3526   .text.LCD_ShowString:0000000000000058 .L0 
C:\Users\Kalle\AppData\Local\Temp\cc2hNkGN.s:3528   .text.LCD_ShowString:000000000000005a .L0 
C:\Users\Kalle\AppData\Local\Temp\cc2hNkGN.s:3531   .text.LCD_ShowString:000000000000005c .L0 
C:\Users\Kalle\AppData\Local\Temp\cc2hNkGN.s:3534   .text.LCD_ShowString:000000000000005e .L0 
C:\Users\Kalle\AppData\Local\Temp\cc2hNkGN.s:3536   .text.LCD_ShowString:0000000000000060 .L0 
C:\Users\Kalle\AppData\Local\Temp\cc2hNkGN.s:3539   .text.LCD_ShowString:0000000000000062 .L0 
C:\Users\Kalle\AppData\Local\Temp\cc2hNkGN.s:3541   .text.LCD_ShowString:0000000000000064 .L0 
C:\Users\Kalle\AppData\Local\Temp\cc2hNkGN.s:3543   .text.LCD_ShowString:0000000000000066 .L0 
C:\Users\Kalle\AppData\Local\Temp\cc2hNkGN.s:3546   .text.LCD_ShowString:0000000000000068 .L0 
C:\Users\Kalle\AppData\Local\Temp\cc2hNkGN.s:3551   .text.LCD_ShowString:000000000000006a .L0 
C:\Users\Kalle\AppData\Local\Temp\cc2hNkGN.s:3553   .text.LCD_ShowString:000000000000006a .L0 
C:\Users\Kalle\AppData\Local\Temp\cc2hNkGN.s:3554   .text.LCD_ShowString:000000000000006a .L0 
C:\Users\Kalle\AppData\Local\Temp\cc2hNkGN.s:3556   .text.LCD_ShowString:000000000000006e .L0 
C:\Users\Kalle\AppData\Local\Temp\cc2hNkGN.s:3562   .text.LCD_ShowString:0000000000000074 .L0 
C:\Users\Kalle\AppData\Local\Temp\cc2hNkGN.s:3563   .text.LCD_ShowString:0000000000000074 .L0 
C:\Users\Kalle\AppData\Local\Temp\cc2hNkGN.s:3564   .text.LCD_ShowString:0000000000000074 .L0 
C:\Users\Kalle\AppData\Local\Temp\cc2hNkGN.s:3567   .text.LCD_ShowString:0000000000000074 .L0 
C:\Users\Kalle\AppData\Local\Temp\cc2hNkGN.s:3568   .text.LCD_ShowString:0000000000000074 .L0 
C:\Users\Kalle\AppData\Local\Temp\cc2hNkGN.s:3574   .text.LCD_ShowString:0000000000000078 .L0 
C:\Users\Kalle\AppData\Local\Temp\cc2hNkGN.s:3575   .text.LCD_ShowString:0000000000000078 .L0 
C:\Users\Kalle\AppData\Local\Temp\cc2hNkGN.s:3579   .text.LCD_ShowString:0000000000000082 .L0 
C:\Users\Kalle\AppData\Local\Temp\cc2hNkGN.s:3585   .text.LCD_ShowString:0000000000000088 .L0 
C:\Users\Kalle\AppData\Local\Temp\cc2hNkGN.s:3586   .text.LCD_ShowString:0000000000000088 .L0 
C:\Users\Kalle\AppData\Local\Temp\cc2hNkGN.s:3587   .text.LCD_ShowString:0000000000000088 .L0 
C:\Users\Kalle\AppData\Local\Temp\cc2hNkGN.s:3590   .text.LCD_ShowString:0000000000000088 .L0 
C:\Users\Kalle\AppData\Local\Temp\cc2hNkGN.s:3591   .text.LCD_ShowString:0000000000000088 .L0 
C:\Users\Kalle\AppData\Local\Temp\cc2hNkGN.s:3593   .text.LCD_ShowString:000000000000008a .L0 
C:\Users\Kalle\AppData\Local\Temp\cc2hNkGN.s:3598   .text.LCD_ShowString:000000000000008e .L0 
C:\Users\Kalle\AppData\Local\Temp\cc2hNkGN.s:3599   .text.LCD_ShowString:000000000000008e .L0 
C:\Users\Kalle\AppData\Local\Temp\cc2hNkGN.s:3600   .text.LCD_ShowString:000000000000008e .L0 
C:\Users\Kalle\AppData\Local\Temp\cc2hNkGN.s:3601   .text.LCD_ShowString:000000000000008e .L0 
C:\Users\Kalle\AppData\Local\Temp\cc2hNkGN.s:3602   .text.LCD_ShowString:000000000000008e .L0 
C:\Users\Kalle\AppData\Local\Temp\cc2hNkGN.s:3603   .text.LCD_ShowString:000000000000008e .L0 
C:\Users\Kalle\AppData\Local\Temp\cc2hNkGN.s:3604   .text.LCD_ShowString:000000000000008e .L0 
C:\Users\Kalle\AppData\Local\Temp\cc2hNkGN.s:3605   .text.LCD_ShowString:000000000000008e .L0 
C:\Users\Kalle\AppData\Local\Temp\cc2hNkGN.s:3606   .text.LCD_ShowString:000000000000008e .L0 
C:\Users\Kalle\AppData\Local\Temp\cc2hNkGN.s:3608   .text.LCD_ShowString:0000000000000090 .L0 
C:\Users\Kalle\AppData\Local\Temp\cc2hNkGN.s:3615   .text.LCD_ShowStr:0000000000000000 LCD_ShowStr
C:\Users\Kalle\AppData\Local\Temp\cc2hNkGN.s:3618   .text.LCD_ShowStr:0000000000000000 .L0 
C:\Users\Kalle\AppData\Local\Temp\cc2hNkGN.s:3620   .text.LCD_ShowStr:0000000000000000 .L0 
C:\Users\Kalle\AppData\Local\Temp\cc2hNkGN.s:3621   .text.LCD_ShowStr:0000000000000000 .L0 
C:\Users\Kalle\AppData\Local\Temp\cc2hNkGN.s:3622   .text.LCD_ShowStr:0000000000000000 .L0 
C:\Users\Kalle\AppData\Local\Temp\cc2hNkGN.s:3624   .text.LCD_ShowStr:0000000000000002 .L0 
C:\Users\Kalle\AppData\Local\Temp\cc2hNkGN.s:3633   .text.LCD_ShowStr:0000000000000012 .L0 
C:\Users\Kalle\AppData\Local\Temp\cc2hNkGN.s:3634   .text.LCD_ShowStr:0000000000000012 .L0 
C:\Users\Kalle\AppData\Local\Temp\cc2hNkGN.s:3635   .text.LCD_ShowStr:0000000000000012 .L0 
GAS LISTING C:\Users\Kalle\AppData\Local\Temp\cc2hNkGN.s 			page 171


C:\Users\Kalle\AppData\Local\Temp\cc2hNkGN.s:3636   .text.LCD_ShowStr:0000000000000012 .L0 
C:\Users\Kalle\AppData\Local\Temp\cc2hNkGN.s:3637   .text.LCD_ShowStr:0000000000000012 .L0 
C:\Users\Kalle\AppData\Local\Temp\cc2hNkGN.s:3638   .text.LCD_ShowStr:0000000000000012 .L0 
C:\Users\Kalle\AppData\Local\Temp\cc2hNkGN.s:3639   .text.LCD_ShowStr:0000000000000012 .L0 
C:\Users\Kalle\AppData\Local\Temp\cc2hNkGN.s:3640   .text.LCD_ShowStr:0000000000000012 .L0 
C:\Users\Kalle\AppData\Local\Temp\cc2hNkGN.s:3642   .text.LCD_ShowStr:0000000000000012 .L0 
C:\Users\Kalle\AppData\Local\Temp\cc2hNkGN.s:3644   .text.LCD_ShowStr:0000000000000014 .L0 
C:\Users\Kalle\AppData\Local\Temp\cc2hNkGN.s:3647   .text.LCD_ShowStr:0000000000000018 .L0 
C:\Users\Kalle\AppData\Local\Temp\cc2hNkGN.s:3657   .text.LCD_ShowStr:000000000000002a .L0 
C:\Users\Kalle\AppData\Local\Temp\cc2hNkGN.s:3658   .text.LCD_ShowStr:000000000000002a .L0 
C:\Users\Kalle\AppData\Local\Temp\cc2hNkGN.s:3659   .text.LCD_ShowStr:000000000000002a .L0 
C:\Users\Kalle\AppData\Local\Temp\cc2hNkGN.s:3660   .text.LCD_ShowStr:000000000000002a .L0 
C:\Users\Kalle\AppData\Local\Temp\cc2hNkGN.s:3661   .text.LCD_ShowStr:000000000000002a .L0 
C:\Users\Kalle\AppData\Local\Temp\cc2hNkGN.s:3663   .text.LCD_ShowStr:000000000000002e .L0 
C:\Users\Kalle\AppData\Local\Temp\cc2hNkGN.s:3666   .text.LCD_ShowStr:0000000000000030 .L0 
C:\Users\Kalle\AppData\Local\Temp\cc2hNkGN.s:3667   .text.LCD_ShowStr:0000000000000030 .L0 
C:\Users\Kalle\AppData\Local\Temp\cc2hNkGN.s:3669   .text.LCD_ShowStr:0000000000000034 .L0 
C:\Users\Kalle\AppData\Local\Temp\cc2hNkGN.s:3671   .text.LCD_ShowStr:0000000000000036 .L0 
C:\Users\Kalle\AppData\Local\Temp\cc2hNkGN.s:3682   .text.LCD_ShowStr:000000000000003e .L0 
C:\Users\Kalle\AppData\Local\Temp\cc2hNkGN.s:3691   .text.LCD_ShowStr:0000000000000048 .L0 
C:\Users\Kalle\AppData\Local\Temp\cc2hNkGN.s:3692   .text.LCD_ShowStr:0000000000000048 .L0 
C:\Users\Kalle\AppData\Local\Temp\cc2hNkGN.s:3693   .text.LCD_ShowStr:0000000000000048 .L0 
C:\Users\Kalle\AppData\Local\Temp\cc2hNkGN.s:3695   .text.LCD_ShowStr:000000000000004c .L0 
C:\Users\Kalle\AppData\Local\Temp\cc2hNkGN.s:3699   .text.LCD_ShowStr:000000000000004e .L0 
C:\Users\Kalle\AppData\Local\Temp\cc2hNkGN.s:3700   .text.LCD_ShowStr:0000000000000050 .L0 
C:\Users\Kalle\AppData\Local\Temp\cc2hNkGN.s:3701   .text.LCD_ShowStr:0000000000000050 .L0 
C:\Users\Kalle\AppData\Local\Temp\cc2hNkGN.s:3703   .text.LCD_ShowStr:0000000000000052 .L0 
C:\Users\Kalle\AppData\Local\Temp\cc2hNkGN.s:3706   .text.LCD_ShowStr:0000000000000054 .L0 
C:\Users\Kalle\AppData\Local\Temp\cc2hNkGN.s:3708   .text.LCD_ShowStr:0000000000000056 .L0 
C:\Users\Kalle\AppData\Local\Temp\cc2hNkGN.s:3710   .text.LCD_ShowStr:0000000000000058 .L0 
C:\Users\Kalle\AppData\Local\Temp\cc2hNkGN.s:3712   .text.LCD_ShowStr:000000000000005a .L0 
C:\Users\Kalle\AppData\Local\Temp\cc2hNkGN.s:3714   .text.LCD_ShowStr:000000000000005c .L0 
C:\Users\Kalle\AppData\Local\Temp\cc2hNkGN.s:3716   .text.LCD_ShowStr:000000000000005e .L0 
C:\Users\Kalle\AppData\Local\Temp\cc2hNkGN.s:3719   .text.LCD_ShowStr:0000000000000060 .L0 
C:\Users\Kalle\AppData\Local\Temp\cc2hNkGN.s:3724   .text.LCD_ShowStr:0000000000000062 .L0 
C:\Users\Kalle\AppData\Local\Temp\cc2hNkGN.s:3726   .text.LCD_ShowStr:0000000000000062 .L0 
C:\Users\Kalle\AppData\Local\Temp\cc2hNkGN.s:3731   .text.LCD_ShowStr:000000000000006c .L0 
C:\Users\Kalle\AppData\Local\Temp\cc2hNkGN.s:3738   .text.mypow:0000000000000000 mypow
C:\Users\Kalle\AppData\Local\Temp\cc2hNkGN.s:3741   .text.mypow:0000000000000000 .L0 
C:\Users\Kalle\AppData\Local\Temp\cc2hNkGN.s:3743   .text.mypow:0000000000000000 .L0 
C:\Users\Kalle\AppData\Local\Temp\cc2hNkGN.s:3744   .text.mypow:0000000000000000 .L0 
C:\Users\Kalle\AppData\Local\Temp\cc2hNkGN.s:3745   .text.mypow:0000000000000000 .L0 
C:\Users\Kalle\AppData\Local\Temp\cc2hNkGN.s:3746   .text.mypow:0000000000000000 .L0 
C:\Users\Kalle\AppData\Local\Temp\cc2hNkGN.s:3750   .text.mypow:0000000000000008 .L0 
C:\Users\Kalle\AppData\Local\Temp\cc2hNkGN.s:3752   .text.mypow:000000000000000a .L0 
C:\Users\Kalle\AppData\Local\Temp\cc2hNkGN.s:3757   .text.mypow:0000000000000010 .L0 
C:\Users\Kalle\AppData\Local\Temp\cc2hNkGN.s:3758   .text.mypow:0000000000000010 .L0 
C:\Users\Kalle\AppData\Local\Temp\cc2hNkGN.s:3762   .text.mypow:0000000000000016 .L0 
C:\Users\Kalle\AppData\Local\Temp\cc2hNkGN.s:3765   .text.mypow:000000000000001a .L0 
C:\Users\Kalle\AppData\Local\Temp\cc2hNkGN.s:3769   .text.mypow:000000000000001e .L0 
C:\Users\Kalle\AppData\Local\Temp\cc2hNkGN.s:3772   .text.mypow:0000000000000022 .L0 
C:\Users\Kalle\AppData\Local\Temp\cc2hNkGN.s:3779   .text.LCD_ShowNum:0000000000000000 LCD_ShowNum
C:\Users\Kalle\AppData\Local\Temp\cc2hNkGN.s:3782   .text.LCD_ShowNum:0000000000000000 .L0 
C:\Users\Kalle\AppData\Local\Temp\cc2hNkGN.s:3784   .text.LCD_ShowNum:0000000000000000 .L0 
C:\Users\Kalle\AppData\Local\Temp\cc2hNkGN.s:3785   .text.LCD_ShowNum:0000000000000000 .L0 
C:\Users\Kalle\AppData\Local\Temp\cc2hNkGN.s:3786   .text.LCD_ShowNum:0000000000000000 .L0 
C:\Users\Kalle\AppData\Local\Temp\cc2hNkGN.s:3787   .text.LCD_ShowNum:0000000000000000 .L0 
GAS LISTING C:\Users\Kalle\AppData\Local\Temp\cc2hNkGN.s 			page 172


C:\Users\Kalle\AppData\Local\Temp\cc2hNkGN.s:3788   .text.LCD_ShowNum:0000000000000000 .L0 
C:\Users\Kalle\AppData\Local\Temp\cc2hNkGN.s:3790   .text.LCD_ShowNum:0000000000000002 .L0 
C:\Users\Kalle\AppData\Local\Temp\cc2hNkGN.s:3804   .text.LCD_ShowNum:000000000000001c .L0 
C:\Users\Kalle\AppData\Local\Temp\cc2hNkGN.s:3805   .text.LCD_ShowNum:000000000000001c .L0 
C:\Users\Kalle\AppData\Local\Temp\cc2hNkGN.s:3806   .text.LCD_ShowNum:000000000000001c .L0 
C:\Users\Kalle\AppData\Local\Temp\cc2hNkGN.s:3807   .text.LCD_ShowNum:000000000000001c .L0 
C:\Users\Kalle\AppData\Local\Temp\cc2hNkGN.s:3808   .text.LCD_ShowNum:000000000000001c .L0 
C:\Users\Kalle\AppData\Local\Temp\cc2hNkGN.s:3809   .text.LCD_ShowNum:000000000000001c .L0 
C:\Users\Kalle\AppData\Local\Temp\cc2hNkGN.s:3810   .text.LCD_ShowNum:000000000000001c .L0 
C:\Users\Kalle\AppData\Local\Temp\cc2hNkGN.s:3811   .text.LCD_ShowNum:000000000000001c .L0 
C:\Users\Kalle\AppData\Local\Temp\cc2hNkGN.s:3812   .text.LCD_ShowNum:000000000000001c .L0 
C:\Users\Kalle\AppData\Local\Temp\cc2hNkGN.s:3813   .text.LCD_ShowNum:000000000000001c .L0 
C:\Users\Kalle\AppData\Local\Temp\cc2hNkGN.s:3814   .text.LCD_ShowNum:000000000000001c .L0 
C:\Users\Kalle\AppData\Local\Temp\cc2hNkGN.s:3815   .text.LCD_ShowNum:000000000000001c .L0 
C:\Users\Kalle\AppData\Local\Temp\cc2hNkGN.s:3816   .text.LCD_ShowNum:000000000000001c .L0 
C:\Users\Kalle\AppData\Local\Temp\cc2hNkGN.s:3818   .text.LCD_ShowNum:000000000000001c .L0 
C:\Users\Kalle\AppData\Local\Temp\cc2hNkGN.s:3820   .text.LCD_ShowNum:000000000000001e .L0 
C:\Users\Kalle\AppData\Local\Temp\cc2hNkGN.s:3828   .text.LCD_ShowNum:0000000000000030 .L0 
C:\Users\Kalle\AppData\Local\Temp\cc2hNkGN.s:3832   .text.LCD_ShowNum:0000000000000032 .L0 
C:\Users\Kalle\AppData\Local\Temp\cc2hNkGN.s:3836   .text.LCD_ShowNum:0000000000000036 .L0 
C:\Users\Kalle\AppData\Local\Temp\cc2hNkGN.s:3840   .text.LCD_ShowNum:0000000000000038 .L0 
C:\Users\Kalle\AppData\Local\Temp\cc2hNkGN.s:3842   .text.LCD_ShowNum:000000000000003c .L0 
C:\Users\Kalle\AppData\Local\Temp\cc2hNkGN.s:3846   .text.LCD_ShowNum:0000000000000040 .L0 
C:\Users\Kalle\AppData\Local\Temp\cc2hNkGN.s:3848   .text.LCD_ShowNum:0000000000000044 .L0 
C:\Users\Kalle\AppData\Local\Temp\cc2hNkGN.s:3854   .text.LCD_ShowNum:0000000000000048 .L0 
C:\Users\Kalle\AppData\Local\Temp\cc2hNkGN.s:3855   .text.LCD_ShowNum:0000000000000048 .L0 
C:\Users\Kalle\AppData\Local\Temp\cc2hNkGN.s:3856   .text.LCD_ShowNum:0000000000000048 .L0 
C:\Users\Kalle\AppData\Local\Temp\cc2hNkGN.s:3857   .text.LCD_ShowNum:0000000000000048 .L0 
C:\Users\Kalle\AppData\Local\Temp\cc2hNkGN.s:3860   .text.LCD_ShowNum:000000000000004e .L0 
C:\Users\Kalle\AppData\Local\Temp\cc2hNkGN.s:3864   .text.LCD_ShowNum:0000000000000050 .L0 
C:\Users\Kalle\AppData\Local\Temp\cc2hNkGN.s:3865   .text.LCD_ShowNum:0000000000000050 .L0 
C:\Users\Kalle\AppData\Local\Temp\cc2hNkGN.s:3867   .text.LCD_ShowNum:0000000000000054 .L0 
C:\Users\Kalle\AppData\Local\Temp\cc2hNkGN.s:3870   .text.LCD_ShowNum:0000000000000056 .L0 
C:\Users\Kalle\AppData\Local\Temp\cc2hNkGN.s:3873   .text.LCD_ShowNum:0000000000000058 .L0 
C:\Users\Kalle\AppData\Local\Temp\cc2hNkGN.s:3875   .text.LCD_ShowNum:000000000000005c .L0 
C:\Users\Kalle\AppData\Local\Temp\cc2hNkGN.s:3878   .text.LCD_ShowNum:000000000000005e .L0 
C:\Users\Kalle\AppData\Local\Temp\cc2hNkGN.s:3885   .text.LCD_ShowNum:0000000000000066 .L0 
C:\Users\Kalle\AppData\Local\Temp\cc2hNkGN.s:3886   .text.LCD_ShowNum:0000000000000066 .L0 
C:\Users\Kalle\AppData\Local\Temp\cc2hNkGN.s:3889   .text.LCD_ShowNum:000000000000006a .L0 
C:\Users\Kalle\AppData\Local\Temp\cc2hNkGN.s:3890   .text.LCD_ShowNum:000000000000006a .L0 
C:\Users\Kalle\AppData\Local\Temp\cc2hNkGN.s:3892   .text.LCD_ShowNum:000000000000006e .L0 
C:\Users\Kalle\AppData\Local\Temp\cc2hNkGN.s:3894   .text.LCD_ShowNum:0000000000000072 .L0 
C:\Users\Kalle\AppData\Local\Temp\cc2hNkGN.s:3895   .text.LCD_ShowNum:0000000000000072 .L0 
C:\Users\Kalle\AppData\Local\Temp\cc2hNkGN.s:3902   .text.LCD_ShowNum:0000000000000076 .L0 
C:\Users\Kalle\AppData\Local\Temp\cc2hNkGN.s:3903   .text.LCD_ShowNum:0000000000000076 .L0 
C:\Users\Kalle\AppData\Local\Temp\cc2hNkGN.s:3904   .text.LCD_ShowNum:0000000000000076 .L0 
C:\Users\Kalle\AppData\Local\Temp\cc2hNkGN.s:3905   .text.LCD_ShowNum:0000000000000076 .L0 
C:\Users\Kalle\AppData\Local\Temp\cc2hNkGN.s:3906   .text.LCD_ShowNum:0000000000000076 .L0 
C:\Users\Kalle\AppData\Local\Temp\cc2hNkGN.s:3907   .text.LCD_ShowNum:0000000000000076 .L0 
C:\Users\Kalle\AppData\Local\Temp\cc2hNkGN.s:3909   .text.LCD_ShowNum:000000000000007a .L0 
C:\Users\Kalle\AppData\Local\Temp\cc2hNkGN.s:3927   .text.LCD_ShowNum:000000000000009c .L0 
C:\Users\Kalle\AppData\Local\Temp\cc2hNkGN.s:3931   .text.LCD_ShowNum:00000000000000a0 .L0 
C:\Users\Kalle\AppData\Local\Temp\cc2hNkGN.s:3932   .text.LCD_ShowNum:00000000000000a2 .L0 
C:\Users\Kalle\AppData\Local\Temp\cc2hNkGN.s:3933   .text.LCD_ShowNum:00000000000000a2 .L0 
C:\Users\Kalle\AppData\Local\Temp\cc2hNkGN.s:3935   .text.LCD_ShowNum:00000000000000a4 .L0 
C:\Users\Kalle\AppData\Local\Temp\cc2hNkGN.s:3937   .text.LCD_ShowNum:00000000000000a6 .L0 
C:\Users\Kalle\AppData\Local\Temp\cc2hNkGN.s:3939   .text.LCD_ShowNum:00000000000000a8 .L0 
GAS LISTING C:\Users\Kalle\AppData\Local\Temp\cc2hNkGN.s 			page 173


C:\Users\Kalle\AppData\Local\Temp\cc2hNkGN.s:3941   .text.LCD_ShowNum:00000000000000aa .L0 
C:\Users\Kalle\AppData\Local\Temp\cc2hNkGN.s:3943   .text.LCD_ShowNum:00000000000000ac .L0 
C:\Users\Kalle\AppData\Local\Temp\cc2hNkGN.s:3945   .text.LCD_ShowNum:00000000000000ae .L0 
C:\Users\Kalle\AppData\Local\Temp\cc2hNkGN.s:3947   .text.LCD_ShowNum:00000000000000b0 .L0 
C:\Users\Kalle\AppData\Local\Temp\cc2hNkGN.s:3949   .text.LCD_ShowNum:00000000000000b2 .L0 
C:\Users\Kalle\AppData\Local\Temp\cc2hNkGN.s:3951   .text.LCD_ShowNum:00000000000000b4 .L0 
C:\Users\Kalle\AppData\Local\Temp\cc2hNkGN.s:3953   .text.LCD_ShowNum:00000000000000b6 .L0 
C:\Users\Kalle\AppData\Local\Temp\cc2hNkGN.s:3955   .text.LCD_ShowNum:00000000000000b8 .L0 
C:\Users\Kalle\AppData\Local\Temp\cc2hNkGN.s:3957   .text.LCD_ShowNum:00000000000000ba .L0 
C:\Users\Kalle\AppData\Local\Temp\cc2hNkGN.s:3960   .text.LCD_ShowNum:00000000000000bc .L0 
C:\Users\Kalle\AppData\Local\Temp\cc2hNkGN.s:3966   .text.LCD_ShowNum:00000000000000be .L0 
C:\Users\Kalle\AppData\Local\Temp\cc2hNkGN.s:3970   .text.LCD_ShowNum:00000000000000be .L0 
C:\Users\Kalle\AppData\Local\Temp\cc2hNkGN.s:3979   .text.LCD_ShowNum:00000000000000c2 .L0 
C:\Users\Kalle\AppData\Local\Temp\cc2hNkGN.s:3980   .text.LCD_ShowNum:00000000000000c2 .L0 
C:\Users\Kalle\AppData\Local\Temp\cc2hNkGN.s:3981   .text.LCD_ShowNum:00000000000000c2 .L0 
C:\Users\Kalle\AppData\Local\Temp\cc2hNkGN.s:3982   .text.LCD_ShowNum:00000000000000c2 .L0 
C:\Users\Kalle\AppData\Local\Temp\cc2hNkGN.s:3983   .text.LCD_ShowNum:00000000000000c2 .L0 
C:\Users\Kalle\AppData\Local\Temp\cc2hNkGN.s:3984   .text.LCD_ShowNum:00000000000000c2 .L0 
C:\Users\Kalle\AppData\Local\Temp\cc2hNkGN.s:3986   .text.LCD_ShowNum:00000000000000c6 .L0 
C:\Users\Kalle\AppData\Local\Temp\cc2hNkGN.s:3998   .text.LCD_ShowNum:00000000000000e0 .L0 
C:\Users\Kalle\AppData\Local\Temp\cc2hNkGN.s:4007   .text.LCD_ShowNum1:0000000000000000 LCD_ShowNum1
C:\Users\Kalle\AppData\Local\Temp\cc2hNkGN.s:4010   .text.LCD_ShowNum1:0000000000000000 .L0 
C:\Users\Kalle\AppData\Local\Temp\cc2hNkGN.s:4012   .text.LCD_ShowNum1:0000000000000000 .L0 
C:\Users\Kalle\AppData\Local\Temp\cc2hNkGN.s:4013   .text.LCD_ShowNum1:0000000000000000 .L0 
C:\Users\Kalle\AppData\Local\Temp\cc2hNkGN.s:4014   .text.LCD_ShowNum1:0000000000000000 .L0 
C:\Users\Kalle\AppData\Local\Temp\cc2hNkGN.s:4015   .text.LCD_ShowNum1:0000000000000000 .L0 
C:\Users\Kalle\AppData\Local\Temp\cc2hNkGN.s:4016   .text.LCD_ShowNum1:0000000000000000 .L0 
C:\Users\Kalle\AppData\Local\Temp\cc2hNkGN.s:4018   .text.LCD_ShowNum1:0000000000000002 .L0 
C:\Users\Kalle\AppData\Local\Temp\cc2hNkGN.s:4020   .text.LCD_ShowNum1:0000000000000002 .L0 
C:\Users\Kalle\AppData\Local\Temp\cc2hNkGN.s:4022   .text.LCD_ShowNum1:0000000000000006 .L0 
C:\Users\Kalle\AppData\Local\Temp\cc2hNkGN.s:4023   .text.LCD_ShowNum1:0000000000000008 .L0 
C:\Users\Kalle\AppData\Local\Temp\cc2hNkGN.s:4026   .text.LCD_ShowNum1:000000000000000a .L0 
C:\Users\Kalle\AppData\Local\Temp\cc2hNkGN.s:4029   .text.LCD_ShowNum1:000000000000000e .L0 
C:\Users\Kalle\AppData\Local\Temp\cc2hNkGN.s:4030   .text.LCD_ShowNum1:0000000000000010 .L0 
C:\Users\Kalle\AppData\Local\Temp\cc2hNkGN.s:4033   .text.LCD_ShowNum1:0000000000000012 .L0 
C:\Users\Kalle\AppData\Local\Temp\cc2hNkGN.s:4036   .text.LCD_ShowNum1:0000000000000014 .L0 
C:\Users\Kalle\AppData\Local\Temp\cc2hNkGN.s:4040   .text.LCD_ShowNum1:000000000000001c .L0 
C:\Users\Kalle\AppData\Local\Temp\cc2hNkGN.s:4041   .text.LCD_ShowNum1:000000000000001c .L0 
C:\Users\Kalle\AppData\Local\Temp\cc2hNkGN.s:4042   .text.LCD_ShowNum1:000000000000001c .L0 
C:\Users\Kalle\AppData\Local\Temp\cc2hNkGN.s:4043   .text.LCD_ShowNum1:000000000000001c .L0 
C:\Users\Kalle\AppData\Local\Temp\cc2hNkGN.s:4051   .text.LCD_ShowNum1:000000000000002a .L0 
C:\Users\Kalle\AppData\Local\Temp\cc2hNkGN.s:4052   .text.LCD_ShowNum1:000000000000002a .L0 
C:\Users\Kalle\AppData\Local\Temp\cc2hNkGN.s:4053   .text.LCD_ShowNum1:000000000000002a .L0 
C:\Users\Kalle\AppData\Local\Temp\cc2hNkGN.s:4054   .text.LCD_ShowNum1:000000000000002a .L0 
C:\Users\Kalle\AppData\Local\Temp\cc2hNkGN.s:4055   .text.LCD_ShowNum1:000000000000002a .L0 
C:\Users\Kalle\AppData\Local\Temp\cc2hNkGN.s:4056   .text.LCD_ShowNum1:000000000000002a .L0 
C:\Users\Kalle\AppData\Local\Temp\cc2hNkGN.s:4058   .text.LCD_ShowNum1:000000000000002a .L0 
C:\Users\Kalle\AppData\Local\Temp\cc2hNkGN.s:4060   .text.LCD_ShowNum1:000000000000002c .L0 
C:\Users\Kalle\AppData\Local\Temp\cc2hNkGN.s:4063   .text.LCD_ShowNum1:0000000000000034 .L0 
C:\Users\Kalle\AppData\Local\Temp\cc2hNkGN.s:4066   .text.LCD_ShowNum1:000000000000003c .L0 
C:\Users\Kalle\AppData\Local\Temp\cc2hNkGN.s:4072   .text.LCD_ShowNum1:0000000000000044 .L0 
C:\Users\Kalle\AppData\Local\Temp\cc2hNkGN.s:4078   .text.LCD_ShowNum1:0000000000000048 .L0 
C:\Users\Kalle\AppData\Local\Temp\cc2hNkGN.s:4080   .text.LCD_ShowNum1:000000000000004c .L0 
C:\Users\Kalle\AppData\Local\Temp\cc2hNkGN.s:4084   .text.LCD_ShowNum1:0000000000000050 .L0 
C:\Users\Kalle\AppData\Local\Temp\cc2hNkGN.s:4088   .text.LCD_ShowNum1:0000000000000052 .L0 
C:\Users\Kalle\AppData\Local\Temp\cc2hNkGN.s:4089   .text.LCD_ShowNum1:0000000000000052 .L0 
C:\Users\Kalle\AppData\Local\Temp\cc2hNkGN.s:4096   .text.LCD_ShowNum1:000000000000005c .L0 
GAS LISTING C:\Users\Kalle\AppData\Local\Temp\cc2hNkGN.s 			page 174


C:\Users\Kalle\AppData\Local\Temp\cc2hNkGN.s:4097   .text.LCD_ShowNum1:000000000000005c .L0 
C:\Users\Kalle\AppData\Local\Temp\cc2hNkGN.s:4098   .text.LCD_ShowNum1:000000000000005c .L0 
C:\Users\Kalle\AppData\Local\Temp\cc2hNkGN.s:4102   .text.LCD_ShowNum1:0000000000000064 .L0 
C:\Users\Kalle\AppData\Local\Temp\cc2hNkGN.s:4104   .text.LCD_ShowNum1:0000000000000066 .L0 
C:\Users\Kalle\AppData\Local\Temp\cc2hNkGN.s:4108   .text.LCD_ShowNum1:0000000000000068 .L0 
C:\Users\Kalle\AppData\Local\Temp\cc2hNkGN.s:4109   .text.LCD_ShowNum1:0000000000000068 .L0 
C:\Users\Kalle\AppData\Local\Temp\cc2hNkGN.s:4111   .text.LCD_ShowNum1:000000000000006c .L0 
C:\Users\Kalle\AppData\Local\Temp\cc2hNkGN.s:4114   .text.LCD_ShowNum1:000000000000006e .L0 
C:\Users\Kalle\AppData\Local\Temp\cc2hNkGN.s:4117   .text.LCD_ShowNum1:0000000000000070 .L0 
C:\Users\Kalle\AppData\Local\Temp\cc2hNkGN.s:4119   .text.LCD_ShowNum1:0000000000000074 .L0 
C:\Users\Kalle\AppData\Local\Temp\cc2hNkGN.s:4122   .text.LCD_ShowNum1:0000000000000076 .L0 
C:\Users\Kalle\AppData\Local\Temp\cc2hNkGN.s:4129   .text.LCD_ShowNum1:000000000000007e .L0 
C:\Users\Kalle\AppData\Local\Temp\cc2hNkGN.s:4130   .text.LCD_ShowNum1:000000000000007e .L0 
C:\Users\Kalle\AppData\Local\Temp\cc2hNkGN.s:4131   .text.LCD_ShowNum1:000000000000007e .L0 
C:\Users\Kalle\AppData\Local\Temp\cc2hNkGN.s:4133   .text.LCD_ShowNum1:0000000000000082 .L0 
C:\Users\Kalle\AppData\Local\Temp\cc2hNkGN.s:4136   .text.LCD_ShowNum1:0000000000000086 .L0 
C:\Users\Kalle\AppData\Local\Temp\cc2hNkGN.s:4137   .text.LCD_ShowNum1:0000000000000086 .L0 
C:\Users\Kalle\AppData\Local\Temp\cc2hNkGN.s:4139   .text.LCD_ShowNum1:000000000000008a .L0 
C:\Users\Kalle\AppData\Local\Temp\cc2hNkGN.s:4144   .text.LCD_ShowNum1:000000000000008c .L0 
C:\Users\Kalle\AppData\Local\Temp\cc2hNkGN.s:4145   .text.LCD_ShowNum1:000000000000008c .L0 
C:\Users\Kalle\AppData\Local\Temp\cc2hNkGN.s:4146   .text.LCD_ShowNum1:000000000000008c .L0 
C:\Users\Kalle\AppData\Local\Temp\cc2hNkGN.s:4147   .text.LCD_ShowNum1:000000000000008c .L0 
C:\Users\Kalle\AppData\Local\Temp\cc2hNkGN.s:4148   .text.LCD_ShowNum1:000000000000008c .L0 
C:\Users\Kalle\AppData\Local\Temp\cc2hNkGN.s:4150   .text.LCD_ShowNum1:0000000000000090 .L0 
C:\Users\Kalle\AppData\Local\Temp\cc2hNkGN.s:4157   .text.LCD_ShowNum1:000000000000009a .L0 
C:\Users\Kalle\AppData\Local\Temp\cc2hNkGN.s:4167   .text.LCD_ShowNum1:00000000000000aa .L0 
C:\Users\Kalle\AppData\Local\Temp\cc2hNkGN.s:4172   .text.LCD_ShowNum1:00000000000000b0 .L0 
C:\Users\Kalle\AppData\Local\Temp\cc2hNkGN.s:4176   .text.LCD_ShowNum1:00000000000000b4 .L0 
C:\Users\Kalle\AppData\Local\Temp\cc2hNkGN.s:4177   .text.LCD_ShowNum1:00000000000000b6 .L0 
C:\Users\Kalle\AppData\Local\Temp\cc2hNkGN.s:4178   .text.LCD_ShowNum1:00000000000000b6 .L0 
C:\Users\Kalle\AppData\Local\Temp\cc2hNkGN.s:4180   .text.LCD_ShowNum1:00000000000000b8 .L0 
C:\Users\Kalle\AppData\Local\Temp\cc2hNkGN.s:4182   .text.LCD_ShowNum1:00000000000000ba .L0 
C:\Users\Kalle\AppData\Local\Temp\cc2hNkGN.s:4184   .text.LCD_ShowNum1:00000000000000bc .L0 
C:\Users\Kalle\AppData\Local\Temp\cc2hNkGN.s:4186   .text.LCD_ShowNum1:00000000000000be .L0 
C:\Users\Kalle\AppData\Local\Temp\cc2hNkGN.s:4189   .text.LCD_ShowNum1:00000000000000c0 .L0 
C:\Users\Kalle\AppData\Local\Temp\cc2hNkGN.s:4191   .text.LCD_ShowNum1:00000000000000c2 .L0 
C:\Users\Kalle\AppData\Local\Temp\cc2hNkGN.s:4194   .text.LCD_ShowNum1:00000000000000c4 .L0 
C:\Users\Kalle\AppData\Local\Temp\cc2hNkGN.s:4197   .text.LCD_ShowNum1:00000000000000c6 .L0 
C:\Users\Kalle\AppData\Local\Temp\cc2hNkGN.s:4199   .text.LCD_ShowNum1:00000000000000c8 .L0 
C:\Users\Kalle\AppData\Local\Temp\cc2hNkGN.s:4202   .text.LCD_ShowNum1:00000000000000ca .L0 
C:\Users\Kalle\AppData\Local\Temp\cc2hNkGN.s:4204   .text.LCD_ShowNum1:00000000000000cc .L0 
C:\Users\Kalle\AppData\Local\Temp\cc2hNkGN.s:4207   .text.LCD_ShowNum1:00000000000000ce .L0 
C:\Users\Kalle\AppData\Local\Temp\cc2hNkGN.s:4212   .text.LCD_ShowNum1:00000000000000d0 .L0 
C:\Users\Kalle\AppData\Local\Temp\cc2hNkGN.s:4214   .text.LCD_ShowNum1:00000000000000d0 .L0 
C:\Users\Kalle\AppData\Local\Temp\cc2hNkGN.s:4215   .text.LCD_ShowNum1:00000000000000d0 .L0 
C:\Users\Kalle\AppData\Local\Temp\cc2hNkGN.s:4217   .text.LCD_ShowNum1:00000000000000d4 .L0 
C:\Users\Kalle\AppData\Local\Temp\cc2hNkGN.s:4222   .text.LCD_ShowNum1:00000000000000d6 .L0 
C:\Users\Kalle\AppData\Local\Temp\cc2hNkGN.s:4223   .text.LCD_ShowNum1:00000000000000d6 .L0 
C:\Users\Kalle\AppData\Local\Temp\cc2hNkGN.s:4224   .text.LCD_ShowNum1:00000000000000d6 .L0 
C:\Users\Kalle\AppData\Local\Temp\cc2hNkGN.s:4225   .text.LCD_ShowNum1:00000000000000d6 .L0 
C:\Users\Kalle\AppData\Local\Temp\cc2hNkGN.s:4226   .text.LCD_ShowNum1:00000000000000d6 .L0 
C:\Users\Kalle\AppData\Local\Temp\cc2hNkGN.s:4228   .text.LCD_ShowNum1:00000000000000da .L0 
C:\Users\Kalle\AppData\Local\Temp\cc2hNkGN.s:4239   .text.LCD_ShowNum1:00000000000000f0 .L0 
C:\Users\Kalle\AppData\Local\Temp\cc2hNkGN.s:4240   .text.LCD_ShowNum1:00000000000000f0 .L0 
C:\Users\Kalle\AppData\Local\Temp\cc2hNkGN.s:4243   .text.LCD_ShowNum1:00000000000000f2 .L0 
C:\Users\Kalle\AppData\Local\Temp\cc2hNkGN.s:4246   .text.LCD_ShowNum1:00000000000000f4 .L0 
C:\Users\Kalle\AppData\Local\Temp\cc2hNkGN.s:4249   .text.LCD_ShowNum1:00000000000000f8 .L0 
GAS LISTING C:\Users\Kalle\AppData\Local\Temp\cc2hNkGN.s 			page 175


C:\Users\Kalle\AppData\Local\Temp\cc2hNkGN.s:4250   .text.LCD_ShowNum1:00000000000000f8 .L0 
C:\Users\Kalle\AppData\Local\Temp\cc2hNkGN.s:4258   .text.LCD_ShowNum1:00000000000000fe .L0 
C:\Users\Kalle\AppData\Local\Temp\cc2hNkGN.s:4262   .text.LCD_ShowNum1:0000000000000102 .L0 
C:\Users\Kalle\AppData\Local\Temp\cc2hNkGN.s:4269   .text.LCD_ShowPicture:0000000000000000 LCD_ShowPicture
C:\Users\Kalle\AppData\Local\Temp\cc2hNkGN.s:4272   .text.LCD_ShowPicture:0000000000000000 .L0 
C:\Users\Kalle\AppData\Local\Temp\cc2hNkGN.s:4274   .text.LCD_ShowPicture:0000000000000000 .L0 
C:\Users\Kalle\AppData\Local\Temp\cc2hNkGN.s:4275   .text.LCD_ShowPicture:0000000000000000 .L0 
C:\Users\Kalle\AppData\Local\Temp\cc2hNkGN.s:4276   .text.LCD_ShowPicture:0000000000000000 .L0 
C:\Users\Kalle\AppData\Local\Temp\cc2hNkGN.s:4277   .text.LCD_ShowPicture:0000000000000000 .L0 
C:\Users\Kalle\AppData\Local\Temp\cc2hNkGN.s:4279   .text.LCD_ShowPicture:0000000000000002 .L0 
C:\Users\Kalle\AppData\Local\Temp\cc2hNkGN.s:4282   .text.LCD_ShowPicture:0000000000000004 .L0 
C:\Users\Kalle\AppData\Local\Temp\cc2hNkGN.s:4283   .text.LCD_ShowPicture:0000000000000008 .L0 
C:\Users\Kalle\AppData\Local\Temp\cc2hNkGN.s:4285   .text.LCD_ShowPicture:0000000000000008 .L0 
C:\Users\Kalle\AppData\Local\Temp\cc2hNkGN.s:4287   .text.LCD_ShowPicture:000000000000000c .L0 
C:\Users\Kalle\AppData\Local\Temp\cc2hNkGN.s:4289   .text.LCD_ShowPicture:000000000000000e .L0 
C:\Users\Kalle\AppData\Local\Temp\cc2hNkGN.s:4291   .text.LCD_ShowPicture:0000000000000010 .L0 
C:\Users\Kalle\AppData\Local\Temp\cc2hNkGN.s:4293   .text.LCD_ShowPicture:0000000000000014 .L0 
C:\Users\Kalle\AppData\Local\Temp\cc2hNkGN.s:4296   .text.LCD_ShowPicture:000000000000001a .L0 
C:\Users\Kalle\AppData\Local\Temp\cc2hNkGN.s:4297   .text.LCD_ShowPicture:000000000000001a .L0 
C:\Users\Kalle\AppData\Local\Temp\cc2hNkGN.s:4298   .text.LCD_ShowPicture:000000000000001a .L0 
C:\Users\Kalle\AppData\Local\Temp\cc2hNkGN.s:4300   .text.LCD_ShowPicture:000000000000001a .L0 
C:\Users\Kalle\AppData\Local\Temp\cc2hNkGN.s:4302   .text.LCD_ShowPicture:000000000000001c .L0 
C:\Users\Kalle\AppData\Local\Temp\cc2hNkGN.s:4305   .text.LCD_ShowPicture:000000000000001e .L0 
C:\Users\Kalle\AppData\Local\Temp\cc2hNkGN.s:4308   .text.LCD_ShowPicture:0000000000000026 .L0 
C:\Users\Kalle\AppData\Local\Temp\cc2hNkGN.s:4313   .text.LCD_ShowPicture:000000000000002c .L0 
C:\Users\Kalle\AppData\Local\Temp\cc2hNkGN.s:4318   .text.LCD_ShowPicture:0000000000000030 .L0 
C:\Users\Kalle\AppData\Local\Temp\cc2hNkGN.s:4323   .text.LCD_ShowPicture:000000000000003e .L0 
C:\Users\Kalle\AppData\Local\Temp\cc2hNkGN.s:4331   .text.LCD_ShowPicture:000000000000004a .L0 
C:\Users\Kalle\AppData\Local\Temp\cc2hNkGN.s:4334   .text.LCD_ShowPicture:000000000000004e .L0 
C:\Users\Kalle\AppData\Local\Temp\cc2hNkGN.s:4335   .text.LCD_ShowPicture:0000000000000050 .L0 
C:\Users\Kalle\AppData\Local\Temp\cc2hNkGN.s:4337   .text.LCD_ShowPicture:0000000000000052 .L0 
C:\Users\Kalle\AppData\Local\Temp\cc2hNkGN.s:4339   .text.LCD_ShowPicture:0000000000000054 .L0 
C:\Users\Kalle\AppData\Local\Temp\cc2hNkGN.s:4341   .text.LCD_ShowPicture:0000000000000056 .L0 
C:\Users\Kalle\AppData\Local\Temp\cc2hNkGN.s:4344   .text.LCD_ShowPicture:0000000000000058 .L0 
C:\Users\Kalle\AppData\Local\Temp\cc2hNkGN.s:4346   .text.LCD_ShowPicture:000000000000005a .L0 
C:\Users\Kalle\AppData\Local\Temp\cc2hNkGN.s:4362   .bss.queue:0000000000000000 queue
C:\Users\Kalle\AppData\Local\Temp\cc2hNkGN.s:6794   .sbss.w:0000000000000000 w
C:\Users\Kalle\AppData\Local\Temp\cc2hNkGN.s:6787   .sbss.r:0000000000000000 r
C:\Users\Kalle\AppData\Local\Temp\cc2hNkGN.s:6780   .sbss.lcd_conf:0000000000000000 lcd_conf
C:\Users\Kalle\AppData\Local\Temp\cc2hNkGN.s:4369   .data.Hzk16:0000000000000000 Hzk16
C:\Users\Kalle\AppData\Local\Temp\cc2hNkGN.s:5249   .rodata.asc2_1608:0000000000000000 asc2_1608
C:\Users\Kalle\AppData\Local\Temp\cc2hNkGN.s:4599   .data.Hzk32:0000000000000000 Hzk32
C:\Users\Kalle\AppData\Local\Temp\cc2hNkGN.s:4359   .bss.queue:0000000000000000 .LANCHOR2
C:\Users\Kalle\AppData\Local\Temp\cc2hNkGN.s:4366   .data.Hzk16:0000000000000000 .LANCHOR5
C:\Users\Kalle\AppData\Local\Temp\cc2hNkGN.s:4596   .data.Hzk32:0000000000000000 .LANCHOR6
C:\Users\Kalle\AppData\Local\Temp\cc2hNkGN.s:5246   .rodata.asc2_1608:0000000000000000 .LANCHOR4
C:\Users\Kalle\AppData\Local\Temp\cc2hNkGN.s:6777   .sbss.lcd_conf:0000000000000000 .LANCHOR3
C:\Users\Kalle\AppData\Local\Temp\cc2hNkGN.s:6784   .sbss.r:0000000000000000 .LANCHOR0
C:\Users\Kalle\AppData\Local\Temp\cc2hNkGN.s:6791   .sbss.w:0000000000000000 .LANCHOR1
C:\Users\Kalle\AppData\Local\Temp\cc2hNkGN.s:163    .text.lcd_delay_1ms:00000000000000ce .L0 
C:\Users\Kalle\AppData\Local\Temp\cc2hNkGN.s:326    .text.LCD_WR_Queue:00000000000000cc .L0 
C:\Users\Kalle\AppData\Local\Temp\cc2hNkGN.s:379    .text.LCD_Wait_On_Queue:000000000000003a .L0 
C:\Users\Kalle\AppData\Local\Temp\cc2hNkGN.s:477    .text.LCD_Write_Bus:000000000000007a .L0 
C:\Users\Kalle\AppData\Local\Temp\cc2hNkGN.s:573    .text.LCD_Writ_Bus:0000000000000078 .L0 
C:\Users\Kalle\AppData\Local\Temp\cc2hNkGN.s:618    .text.LCD_WR_DATA8:0000000000000026 .L0 
C:\Users\Kalle\AppData\Local\Temp\cc2hNkGN.s:671    .text.LCD_WR_DATA:0000000000000038 .L0 
C:\Users\Kalle\AppData\Local\Temp\cc2hNkGN.s:716    .text.LCD_WR_REG:0000000000000026 .L0 
GAS LISTING C:\Users\Kalle\AppData\Local\Temp\cc2hNkGN.s 			page 176


C:\Users\Kalle\AppData\Local\Temp\cc2hNkGN.s:871    .text.LCD_Address_Set:00000000000000b2 .L0 
C:\Users\Kalle\AppData\Local\Temp\cc2hNkGN.s:1086   .text.LCD_ShowChar.part.2:00000000000000ea .L0 
C:\Users\Kalle\AppData\Local\Temp\cc2hNkGN.s:1171   .text.spi_config:000000000000006c .L0 
C:\Users\Kalle\AppData\Local\Temp\cc2hNkGN.s:1220   .text.Lcd_SetType:000000000000002a .L0 
C:\Users\Kalle\AppData\Local\Temp\cc2hNkGN.s:2425   .text.Lcd_Init:000000000000083e .L0 
C:\Users\Kalle\AppData\Local\Temp\cc2hNkGN.s:2499   .text.LCD_Clear:0000000000000048 .L0 
C:\Users\Kalle\AppData\Local\Temp\cc2hNkGN.s:2655   .text.LCD_ShowChinese:00000000000000b8 .L0 
C:\Users\Kalle\AppData\Local\Temp\cc2hNkGN.s:2701   .text.LCD_DrawPoint:0000000000000024 .L0 
C:\Users\Kalle\AppData\Local\Temp\cc2hNkGN.s:2793   .text.LCD_Fill:0000000000000054 .L0 
C:\Users\Kalle\AppData\Local\Temp\cc2hNkGN.s:2816   .text.LCD_DrawPoint_big:0000000000000016 .L0 
C:\Users\Kalle\AppData\Local\Temp\cc2hNkGN.s:3046   .text.LCD_DrawLine:00000000000000ba .L0 
C:\Users\Kalle\AppData\Local\Temp\cc2hNkGN.s:3138   .text.LCD_DrawRectangle:0000000000000066 .L0 
C:\Users\Kalle\AppData\Local\Temp\cc2hNkGN.s:3396   .text.Draw_Circle:0000000000000154 .L0 
C:\Users\Kalle\AppData\Local\Temp\cc2hNkGN.s:3424   .text.LCD_ShowChar:000000000000001a .L0 
C:\Users\Kalle\AppData\Local\Temp\cc2hNkGN.s:3611   .text.LCD_ShowString:0000000000000090 .L0 
C:\Users\Kalle\AppData\Local\Temp\cc2hNkGN.s:3734   .text.LCD_ShowStr:000000000000006c .L0 
C:\Users\Kalle\AppData\Local\Temp\cc2hNkGN.s:3775   .text.mypow:0000000000000022 .L0 
C:\Users\Kalle\AppData\Local\Temp\cc2hNkGN.s:4003   .text.LCD_ShowNum:00000000000000e0 .L0 
C:\Users\Kalle\AppData\Local\Temp\cc2hNkGN.s:4265   .text.LCD_ShowNum1:0000000000000102 .L0 
C:\Users\Kalle\AppData\Local\Temp\cc2hNkGN.s:4357   .text.LCD_ShowPicture:000000000000005a .L0 
                     .debug_frame:0000000000000000 .L0 
C:\Users\Kalle\AppData\Local\Temp\cc2hNkGN.s:6772   .rodata.lcd_delay_1ms.cst8:0000000000000000 .LC0
C:\Users\Kalle\AppData\Local\Temp\cc2hNkGN.s:72     .text.lcd_delay_1ms:000000000000003a .L3
C:\Users\Kalle\AppData\Local\Temp\cc2hNkGN.s:60     .text.lcd_delay_1ms:0000000000000026 .L2
C:\Users\Kalle\AppData\Local\Temp\cc2hNkGN.s:79     .text.lcd_delay_1ms:000000000000004a .L4
C:\Users\Kalle\AppData\Local\Temp\cc2hNkGN.s:288    .text.LCD_WR_Queue:00000000000000ac .L9
C:\Users\Kalle\AppData\Local\Temp\cc2hNkGN.s:213    .text.LCD_WR_Queue:000000000000003c .L17
C:\Users\Kalle\AppData\Local\Temp\cc2hNkGN.s:312    .text.LCD_WR_Queue:00000000000000c2 .L18
C:\Users\Kalle\AppData\Local\Temp\cc2hNkGN.s:241    .text.LCD_WR_Queue:0000000000000070 .L12
C:\Users\Kalle\AppData\Local\Temp\cc2hNkGN.s:364    .text.LCD_Wait_On_Queue:0000000000000030 .L19
C:\Users\Kalle\AppData\Local\Temp\cc2hNkGN.s:356    .text.LCD_Wait_On_Queue:0000000000000020 .L21
C:\Users\Kalle\AppData\Local\Temp\cc2hNkGN.s:447    .text.LCD_Write_Bus:000000000000005c .L25
C:\Users\Kalle\AppData\Local\Temp\cc2hNkGN.s:429    .text.LCD_Write_Bus:000000000000003a .L26
C:\Users\Kalle\AppData\Local\Temp\cc2hNkGN.s:515    .text.LCD_Writ_Bus:0000000000000022 .L30
C:\Users\Kalle\AppData\Local\Temp\cc2hNkGN.s:535    .text.LCD_Writ_Bus:0000000000000046 .L31
C:\Users\Kalle\AppData\Local\Temp\cc2hNkGN.s:1012   .text.LCD_ShowChar.part.2:0000000000000090 .L46
C:\Users\Kalle\AppData\Local\Temp\cc2hNkGN.s:962    .text.LCD_ShowChar.part.2:0000000000000060 .L63
C:\Users\Kalle\AppData\Local\Temp\cc2hNkGN.s:948    .text.LCD_ShowChar.part.2:0000000000000054 .L49
C:\Users\Kalle\AppData\Local\Temp\cc2hNkGN.s:939    .text.LCD_ShowChar.part.2:000000000000004e .L50
C:\Users\Kalle\AppData\Local\Temp\cc2hNkGN.s:1045   .text.LCD_ShowChar.part.2:00000000000000ba .L52
C:\Users\Kalle\AppData\Local\Temp\cc2hNkGN.s:1077   .text.LCD_ShowChar.part.2:00000000000000e2 .L64
C:\Users\Kalle\AppData\Local\Temp\cc2hNkGN.s:1036   .text.LCD_ShowChar.part.2:00000000000000b2 .L51
C:\Users\Kalle\AppData\Local\Temp\cc2hNkGN.s:1024   .text.LCD_ShowChar.part.2:00000000000000a4 .L53
C:\Users\Kalle\AppData\Local\Temp\cc2hNkGN.s:982    .text.LCD_ShowChar.part.2:0000000000000078 .L45
C:\Users\Kalle\AppData\Local\Temp\cc2hNkGN.s:1194   .text.Lcd_SetType:0000000000000012 .L68
C:\Users\Kalle\AppData\Local\Temp\cc2hNkGN.s:1212   .text.Lcd_SetType:0000000000000028 .L67
C:\Users\Kalle\AppData\Local\Temp\cc2hNkGN.s:1260   .text.Lcd_Init:000000000000001c .L71
C:\Users\Kalle\AppData\Local\Temp\cc2hNkGN.s:2402   .text.Lcd_Init:0000000000000822 .L72
C:\Users\Kalle\AppData\Local\Temp\cc2hNkGN.s:1359   .text.Lcd_Init:0000000000000100 .L73
C:\Users\Kalle\AppData\Local\Temp\cc2hNkGN.s:2467   .text.LCD_Clear:0000000000000028 .L77
C:\Users\Kalle\AppData\Local\Temp\cc2hNkGN.s:2463   .text.LCD_Clear:0000000000000024 .L76
C:\Users\Kalle\AppData\Local\Temp\cc2hNkGN.s:2637   .text.LCD_ShowChinese:00000000000000a4 .L82
C:\Users\Kalle\AppData\Local\Temp\cc2hNkGN.s:2611   .text.LCD_ShowChinese:0000000000000090 .L81
C:\Users\Kalle\AppData\Local\Temp\cc2hNkGN.s:2593   .text.LCD_ShowChinese:0000000000000076 .L92
C:\Users\Kalle\AppData\Local\Temp\cc2hNkGN.s:2575   .text.LCD_ShowChinese:0000000000000064 .L86
C:\Users\Kalle\AppData\Local\Temp\cc2hNkGN.s:2572   .text.LCD_ShowChinese:0000000000000062 .L87
C:\Users\Kalle\AppData\Local\Temp\cc2hNkGN.s:2564   .text.LCD_ShowChinese:000000000000005a .L83
GAS LISTING C:\Users\Kalle\AppData\Local\Temp\cc2hNkGN.s 			page 177


C:\Users\Kalle\AppData\Local\Temp\cc2hNkGN.s:2765   .text.LCD_Fill:0000000000000042 .L95
C:\Users\Kalle\AppData\Local\Temp\cc2hNkGN.s:2758   .text.LCD_Fill:000000000000003c .L99
C:\Users\Kalle\AppData\Local\Temp\cc2hNkGN.s:2747   .text.LCD_Fill:000000000000002c .L98
C:\Users\Kalle\AppData\Local\Temp\cc2hNkGN.s:2742   .text.LCD_Fill:0000000000000026 .L96
C:\Users\Kalle\AppData\Local\Temp\cc2hNkGN.s:3006   .text.LCD_DrawLine:000000000000009a .L121
C:\Users\Kalle\AppData\Local\Temp\cc2hNkGN.s:3028   .text.LCD_DrawLine:00000000000000ac .L122
C:\Users\Kalle\AppData\Local\Temp\cc2hNkGN.s:2894   .text.LCD_DrawLine:000000000000003c .L109
C:\Users\Kalle\AppData\Local\Temp\cc2hNkGN.s:2945   .text.LCD_DrawLine:0000000000000068 .L110
C:\Users\Kalle\AppData\Local\Temp\cc2hNkGN.s:2956   .text.LCD_DrawLine:0000000000000072 .L111
C:\Users\Kalle\AppData\Local\Temp\cc2hNkGN.s:2964   .text.LCD_DrawLine:000000000000007e .L123
C:\Users\Kalle\AppData\Local\Temp\cc2hNkGN.s:2903   .text.LCD_DrawLine:0000000000000042 .L112
C:\Users\Kalle\AppData\Local\Temp\cc2hNkGN.s:2879   .text.LCD_DrawLine:000000000000002e .L107
C:\Users\Kalle\AppData\Local\Temp\cc2hNkGN.s:2886   .text.LCD_DrawLine:0000000000000034 .L108
C:\Users\Kalle\AppData\Local\Temp\cc2hNkGN.s:3195   .text.Draw_Circle:000000000000002c .L128
C:\Users\Kalle\AppData\Local\Temp\cc2hNkGN.s:3415   .text.LCD_ShowChar:0000000000000010 .L131
C:\Users\Kalle\AppData\Local\Temp\cc2hNkGN.s:3418   .text.LCD_ShowChar:0000000000000012 .L133
C:\Users\Kalle\AppData\Local\Temp\cc2hNkGN.s:3596   .text.LCD_ShowString:000000000000008e .L144
C:\Users\Kalle\AppData\Local\Temp\cc2hNkGN.s:3549   .text.LCD_ShowString:000000000000006a .L136
C:\Users\Kalle\AppData\Local\Temp\cc2hNkGN.s:3572   .text.LCD_ShowString:0000000000000078 .L137
C:\Users\Kalle\AppData\Local\Temp\cc2hNkGN.s:3471   .text.LCD_ShowString:000000000000002e .L135
C:\Users\Kalle\AppData\Local\Temp\cc2hNkGN.s:3501   .text.LCD_ShowString:0000000000000040 .L138
C:\Users\Kalle\AppData\Local\Temp\cc2hNkGN.s:3697   .text.LCD_ShowStr:000000000000004e .L147
C:\Users\Kalle\AppData\Local\Temp\cc2hNkGN.s:3722   .text.LCD_ShowStr:0000000000000062 .L149
C:\Users\Kalle\AppData\Local\Temp\cc2hNkGN.s:3655   .text.LCD_ShowStr:000000000000002a .L148
C:\Users\Kalle\AppData\Local\Temp\cc2hNkGN.s:3673   .text.LCD_ShowStr:0000000000000038 .L151
C:\Users\Kalle\AppData\Local\Temp\cc2hNkGN.s:3767   .text.mypow:000000000000001e .L155
C:\Users\Kalle\AppData\Local\Temp\cc2hNkGN.s:3755   .text.mypow:0000000000000010 .L157
C:\Users\Kalle\AppData\Local\Temp\cc2hNkGN.s:3929   .text.LCD_ShowNum:00000000000000a0 .L160
C:\Users\Kalle\AppData\Local\Temp\cc2hNkGN.s:3964   .text.LCD_ShowNum:00000000000000be .L168
C:\Users\Kalle\AppData\Local\Temp\cc2hNkGN.s:3862   .text.LCD_ShowNum:0000000000000050 .L163
C:\Users\Kalle\AppData\Local\Temp\cc2hNkGN.s:3898   .text.LCD_ShowNum:0000000000000076 .L164
C:\Users\Kalle\AppData\Local\Temp\cc2hNkGN.s:3973   .text.LCD_ShowNum:00000000000000c2 .L173
C:\Users\Kalle\AppData\Local\Temp\cc2hNkGN.s:3918   .text.LCD_ShowNum:0000000000000092 .L165
C:\Users\Kalle\AppData\Local\Temp\cc2hNkGN.s:3850   .text.LCD_ShowNum:0000000000000048 .L166
C:\Users\Kalle\AppData\Local\Temp\cc2hNkGN.s:3881   .text.LCD_ShowNum:0000000000000066 .L162
C:\Users\Kalle\AppData\Local\Temp\cc2hNkGN.s:5242   .rodata.LCD_ShowNum1.cst4:0000000000000000 .LC1
C:\Users\Kalle\AppData\Local\Temp\cc2hNkGN.s:4174   .text.LCD_ShowNum1:00000000000000b4 .L174
C:\Users\Kalle\AppData\Local\Temp\cc2hNkGN.s:4254   .text.LCD_ShowNum1:00000000000000fe .L183
C:\Users\Kalle\AppData\Local\Temp\cc2hNkGN.s:4106   .text.LCD_ShowNum1:0000000000000068 .L177
C:\Users\Kalle\AppData\Local\Temp\cc2hNkGN.s:4210   .text.LCD_ShowNum1:00000000000000d0 .L188
C:\Users\Kalle\AppData\Local\Temp\cc2hNkGN.s:4163   .text.LCD_ShowNum1:00000000000000aa .L180
C:\Users\Kalle\AppData\Local\Temp\cc2hNkGN.s:4086   .text.LCD_ShowNum1:0000000000000052 .L175
C:\Users\Kalle\AppData\Local\Temp\cc2hNkGN.s:4235   .text.LCD_ShowNum1:00000000000000f0 .L179
C:\Users\Kalle\AppData\Local\Temp\cc2hNkGN.s:4134   .text.LCD_ShowNum1:0000000000000086 .L178
C:\Users\Kalle\AppData\Local\Temp\cc2hNkGN.s:4125   .text.LCD_ShowNum1:000000000000007e .L176
C:\Users\Kalle\AppData\Local\Temp\cc2hNkGN.s:4332   .text.LCD_ShowPicture:000000000000004e .L189
C:\Users\Kalle\AppData\Local\Temp\cc2hNkGN.s:4311   .text.LCD_ShowPicture:000000000000002c .L191
C:\Users\Kalle\AppData\Local\Temp\cc2hNkGN.s:15091  .debug_abbrev:0000000000000000 .Ldebug_abbrev0
C:\Users\Kalle\AppData\Local\Temp\cc2hNkGN.s:20640  .debug_str:000000000000015d .LASF250
C:\Users\Kalle\AppData\Local\Temp\cc2hNkGN.s:20840  .debug_str:00000000000005cc .LASF251
C:\Users\Kalle\AppData\Local\Temp\cc2hNkGN.s:21002  .debug_str:00000000000008e4 .LASF252
C:\Users\Kalle\AppData\Local\Temp\cc2hNkGN.s:20416  .debug_ranges:0000000000000000 .Ldebug_ranges0
C:\Users\Kalle\AppData\Local\Temp\cc2hNkGN.s:20568  .debug_line:0000000000000000 .Ldebug_line0
C:\Users\Kalle\AppData\Local\Temp\cc2hNkGN.s:20850  .debug_str:00000000000005f5 .LASF0
C:\Users\Kalle\AppData\Local\Temp\cc2hNkGN.s:20856  .debug_str:0000000000000616 .LASF1
C:\Users\Kalle\AppData\Local\Temp\cc2hNkGN.s:20814  .debug_str:000000000000054a .LASF2
C:\Users\Kalle\AppData\Local\Temp\cc2hNkGN.s:20900  .debug_str:00000000000006e9 .LASF3
GAS LISTING C:\Users\Kalle\AppData\Local\Temp\cc2hNkGN.s 			page 178


C:\Users\Kalle\AppData\Local\Temp\cc2hNkGN.s:20978  .debug_str:0000000000000884 .LASF5
C:\Users\Kalle\AppData\Local\Temp\cc2hNkGN.s:20692  .debug_str:00000000000002dc .LASF4
C:\Users\Kalle\AppData\Local\Temp\cc2hNkGN.s:20656  .debug_str:0000000000000220 .LASF6
C:\Users\Kalle\AppData\Local\Temp\cc2hNkGN.s:20702  .debug_str:000000000000030e .LASF7
C:\Users\Kalle\AppData\Local\Temp\cc2hNkGN.s:20992  .debug_str:00000000000008bc .LASF8
C:\Users\Kalle\AppData\Local\Temp\cc2hNkGN.s:21058  .debug_str:0000000000000a1d .LASF9
C:\Users\Kalle\AppData\Local\Temp\cc2hNkGN.s:20668  .debug_str:000000000000025f .LASF10
C:\Users\Kalle\AppData\Local\Temp\cc2hNkGN.s:20806  .debug_str:0000000000000522 .LASF11
C:\Users\Kalle\AppData\Local\Temp\cc2hNkGN.s:20762  .debug_str:0000000000000420 .LASF12
C:\Users\Kalle\AppData\Local\Temp\cc2hNkGN.s:20758  .debug_str:0000000000000410 .LASF13
C:\Users\Kalle\AppData\Local\Temp\cc2hNkGN.s:20928  .debug_str:000000000000076d .LASF14
C:\Users\Kalle\AppData\Local\Temp\cc2hNkGN.s:21054  .debug_str:0000000000000a11 .LASF15
C:\Users\Kalle\AppData\Local\Temp\cc2hNkGN.s:20914  .debug_str:0000000000000725 .LASF16
C:\Users\Kalle\AppData\Local\Temp\cc2hNkGN.s:20572  .debug_str:0000000000000012 .LASF17
C:\Users\Kalle\AppData\Local\Temp\cc2hNkGN.s:20654  .debug_str:000000000000021a .LASF18
C:\Users\Kalle\AppData\Local\Temp\cc2hNkGN.s:20916  .debug_str:000000000000072d .LASF19
C:\Users\Kalle\AppData\Local\Temp\cc2hNkGN.s:20892  .debug_str:00000000000006c8 .LASF20
C:\Users\Kalle\AppData\Local\Temp\cc2hNkGN.s:20578  .debug_str:000000000000002b .LASF21
C:\Users\Kalle\AppData\Local\Temp\cc2hNkGN.s:20966  .debug_str:000000000000084b .LASF22
C:\Users\Kalle\AppData\Local\Temp\cc2hNkGN.s:21038  .debug_str:00000000000009c1 .LASF23
C:\Users\Kalle\AppData\Local\Temp\cc2hNkGN.s:20784  .debug_str:00000000000004a7 .LASF24
C:\Users\Kalle\AppData\Local\Temp\cc2hNkGN.s:20958  .debug_str:000000000000081f .LASF25
C:\Users\Kalle\AppData\Local\Temp\cc2hNkGN.s:20792  .debug_str:00000000000004dc .LASF30
C:\Users\Kalle\AppData\Local\Temp\cc2hNkGN.s:20982  .debug_str:0000000000000891 .LASF26
C:\Users\Kalle\AppData\Local\Temp\cc2hNkGN.s:20794  .debug_str:00000000000004e4 .LASF27
C:\Users\Kalle\AppData\Local\Temp\cc2hNkGN.s:20848  .debug_str:00000000000005ef .LASF28
C:\Users\Kalle\AppData\Local\Temp\cc2hNkGN.s:20738  .debug_str:00000000000003b3 .LASF29
C:\Users\Kalle\AppData\Local\Temp\cc2hNkGN.s:20604  .debug_str:00000000000000a4 .LASF31
C:\Users\Kalle\AppData\Local\Temp\cc2hNkGN.s:20610  .debug_str:00000000000000c0 .LASF32
C:\Users\Kalle\AppData\Local\Temp\cc2hNkGN.s:21080  .debug_str:0000000000000a9f .LASF33
C:\Users\Kalle\AppData\Local\Temp\cc2hNkGN.s:21062  .debug_str:0000000000000a35 .LASF34
C:\Users\Kalle\AppData\Local\Temp\cc2hNkGN.s:20870  .debug_str:0000000000000662 .LASF35
C:\Users\Kalle\AppData\Local\Temp\cc2hNkGN.s:20682  .debug_str:00000000000002ab .LASF36
C:\Users\Kalle\AppData\Local\Temp\cc2hNkGN.s:21008  .debug_str:0000000000000937 .LASF37
C:\Users\Kalle\AppData\Local\Temp\cc2hNkGN.s:20896  .debug_str:00000000000006d9 .LASF38
C:\Users\Kalle\AppData\Local\Temp\cc2hNkGN.s:20902  .debug_str:00000000000006f5 .LASF39
C:\Users\Kalle\AppData\Local\Temp\cc2hNkGN.s:21076  .debug_str:0000000000000a89 .LASF40
C:\Users\Kalle\AppData\Local\Temp\cc2hNkGN.s:20662  .debug_str:0000000000000237 .LASF41
C:\Users\Kalle\AppData\Local\Temp\cc2hNkGN.s:21074  .debug_str:0000000000000a81 .LASF42
C:\Users\Kalle\AppData\Local\Temp\cc2hNkGN.s:20930  .debug_str:0000000000000784 .LASF43
C:\Users\Kalle\AppData\Local\Temp\cc2hNkGN.s:21006  .debug_str:000000000000092e .LASF44
C:\Users\Kalle\AppData\Local\Temp\cc2hNkGN.s:21030  .debug_str:00000000000009a1 .LASF45
C:\Users\Kalle\AppData\Local\Temp\cc2hNkGN.s:20886  .debug_str:00000000000006a8 .LASF46
C:\Users\Kalle\AppData\Local\Temp\cc2hNkGN.s:21026  .debug_str:0000000000000995 .LASF47
C:\Users\Kalle\AppData\Local\Temp\cc2hNkGN.s:20720  .debug_str:0000000000000375 .LASF48
C:\Users\Kalle\AppData\Local\Temp\cc2hNkGN.s:21028  .debug_str:000000000000099a .LASF49
C:\Users\Kalle\AppData\Local\Temp\cc2hNkGN.s:20940  .debug_str:00000000000007af .LASF50
C:\Users\Kalle\AppData\Local\Temp\cc2hNkGN.s:20674  .debug_str:000000000000027e .LASF51
C:\Users\Kalle\AppData\Local\Temp\cc2hNkGN.s:20768  .debug_str:0000000000000451 .LASF52
C:\Users\Kalle\AppData\Local\Temp\cc2hNkGN.s:20884  .debug_str:00000000000006a1 .LASF53
C:\Users\Kalle\AppData\Local\Temp\cc2hNkGN.s:20658  .debug_str:000000000000022a .LASF54
C:\Users\Kalle\AppData\Local\Temp\cc2hNkGN.s:21020  .debug_str:000000000000097c .LASF55
C:\Users\Kalle\AppData\Local\Temp\cc2hNkGN.s:20736  .debug_str:00000000000003ab .LASF56
C:\Users\Kalle\AppData\Local\Temp\cc2hNkGN.s:20584  .debug_str:000000000000004f .LASF57
C:\Users\Kalle\AppData\Local\Temp\cc2hNkGN.s:20592  .debug_str:000000000000006c .LASF58
C:\Users\Kalle\AppData\Local\Temp\cc2hNkGN.s:20912  .debug_str:000000000000071f .LASF59
C:\Users\Kalle\AppData\Local\Temp\cc2hNkGN.s:20722  .debug_str:000000000000037a .LASF60
GAS LISTING C:\Users\Kalle\AppData\Local\Temp\cc2hNkGN.s 			page 179


C:\Users\Kalle\AppData\Local\Temp\cc2hNkGN.s:20874  .debug_str:0000000000000671 .LASF61
C:\Users\Kalle\AppData\Local\Temp\cc2hNkGN.s:20608  .debug_str:00000000000000ba .LASF62
C:\Users\Kalle\AppData\Local\Temp\cc2hNkGN.s:20936  .debug_str:00000000000007a0 .LASF63
C:\Users\Kalle\AppData\Local\Temp\cc2hNkGN.s:20746  .debug_str:00000000000003da .LASF64
C:\Users\Kalle\AppData\Local\Temp\cc2hNkGN.s:20984  .debug_str:0000000000000897 .LASF65
C:\Users\Kalle\AppData\Local\Temp\cc2hNkGN.s:20638  .debug_str:0000000000000157 .LASF66
C:\Users\Kalle\AppData\Local\Temp\cc2hNkGN.s:20880  .debug_str:000000000000068d .LASF67
C:\Users\Kalle\AppData\Local\Temp\cc2hNkGN.s:20772  .debug_str:0000000000000464 .LASF68
C:\Users\Kalle\AppData\Local\Temp\cc2hNkGN.s:20710  .debug_str:0000000000000344 .LASF69
C:\Users\Kalle\AppData\Local\Temp\cc2hNkGN.s:20788  .debug_str:00000000000004c9 .LASF70
C:\Users\Kalle\AppData\Local\Temp\cc2hNkGN.s:20726  .debug_str:0000000000000386 .LASF71
C:\Users\Kalle\AppData\Local\Temp\cc2hNkGN.s:20934  .debug_str:0000000000000798 .LASF72
C:\Users\Kalle\AppData\Local\Temp\cc2hNkGN.s:20876  .debug_str:0000000000000677 .LASF73
C:\Users\Kalle\AppData\Local\Temp\cc2hNkGN.s:21024  .debug_str:0000000000000990 .LASF74
C:\Users\Kalle\AppData\Local\Temp\cc2hNkGN.s:20808  .debug_str:000000000000052d .LASF75
C:\Users\Kalle\AppData\Local\Temp\cc2hNkGN.s:20708  .debug_str:000000000000032b .LASF76
C:\Users\Kalle\AppData\Local\Temp\cc2hNkGN.s:21036  .debug_str:00000000000009b9 .LASF77
C:\Users\Kalle\AppData\Local\Temp\cc2hNkGN.s:20770  .debug_str:0000000000000459 .LASF78
C:\Users\Kalle\AppData\Local\Temp\cc2hNkGN.s:20798  .debug_str:00000000000004f6 .LASF79
C:\Users\Kalle\AppData\Local\Temp\cc2hNkGN.s:21046  .debug_str:00000000000009e4 .LASF80
C:\Users\Kalle\AppData\Local\Temp\cc2hNkGN.s:20672  .debug_str:0000000000000274 .LASF81
C:\Users\Kalle\AppData\Local\Temp\cc2hNkGN.s:20760  .debug_str:000000000000041b .LASF82
C:\Users\Kalle\AppData\Local\Temp\cc2hNkGN.s:20838  .debug_str:00000000000005c2 .LASF83
C:\Users\Kalle\AppData\Local\Temp\cc2hNkGN.s:20596  .debug_str:0000000000000080 .LASF84
C:\Users\Kalle\AppData\Local\Temp\cc2hNkGN.s:20748  .debug_str:00000000000003e2 .LASF85
C:\Users\Kalle\AppData\Local\Temp\cc2hNkGN.s:20872  .debug_str:000000000000066c .LASF86
C:\Users\Kalle\AppData\Local\Temp\cc2hNkGN.s:20800  .debug_str:0000000000000500 .LASF87
C:\Users\Kalle\AppData\Local\Temp\cc2hNkGN.s:20740  .debug_str:00000000000003b8 .LASF88
C:\Users\Kalle\AppData\Local\Temp\cc2hNkGN.s:20830  .debug_str:000000000000059d .LASF89
C:\Users\Kalle\AppData\Local\Temp\cc2hNkGN.s:20580  .debug_str:0000000000000033 .LASF90
C:\Users\Kalle\AppData\Local\Temp\cc2hNkGN.s:20718  .debug_str:0000000000000370 .LASF91
C:\Users\Kalle\AppData\Local\Temp\cc2hNkGN.s:20960  .debug_str:0000000000000828 .LASF92
C:\Users\Kalle\AppData\Local\Temp\cc2hNkGN.s:20844  .debug_str:00000000000005e4 .LASF93
C:\Users\Kalle\AppData\Local\Temp\cc2hNkGN.s:20828  .debug_str:0000000000000596 .LASF94
C:\Users\Kalle\AppData\Local\Temp\cc2hNkGN.s:20842  .debug_str:00000000000005de .LASF95
C:\Users\Kalle\AppData\Local\Temp\cc2hNkGN.s:20932  .debug_str:0000000000000790 .LASF96
C:\Users\Kalle\AppData\Local\Temp\cc2hNkGN.s:20910  .debug_str:0000000000000719 .LASF97
C:\Users\Kalle\AppData\Local\Temp\cc2hNkGN.s:20646  .debug_str:00000000000001f1 .LASF98
C:\Users\Kalle\AppData\Local\Temp\cc2hNkGN.s:21056  .debug_str:0000000000000a18 .LASF99
C:\Users\Kalle\AppData\Local\Temp\cc2hNkGN.s:20690  .debug_str:00000000000002cf .LASF100
C:\Users\Kalle\AppData\Local\Temp\cc2hNkGN.s:20946  .debug_str:00000000000007cb .LASF101
C:\Users\Kalle\AppData\Local\Temp\cc2hNkGN.s:20594  .debug_str:0000000000000073 .LASF102
C:\Users\Kalle\AppData\Local\Temp\cc2hNkGN.s:20678  .debug_str:0000000000000290 .LASF103
C:\Users\Kalle\AppData\Local\Temp\cc2hNkGN.s:20836  .debug_str:00000000000005b3 .LASF104
C:\Users\Kalle\AppData\Local\Temp\cc2hNkGN.s:20882  .debug_str:0000000000000696 .LASF105
C:\Users\Kalle\AppData\Local\Temp\cc2hNkGN.s:20968  .debug_str:0000000000000856 .LASF106
C:\Users\Kalle\AppData\Local\Temp\cc2hNkGN.s:20990  .debug_str:00000000000008af .LASF107
C:\Users\Kalle\AppData\Local\Temp\cc2hNkGN.s:20918  .debug_str:0000000000000734 .LASF108
C:\Users\Kalle\AppData\Local\Temp\cc2hNkGN.s:20878  .debug_str:000000000000067f .LASF109
C:\Users\Kalle\AppData\Local\Temp\cc2hNkGN.s:20620  .debug_str:00000000000000f5 .LASF110
C:\Users\Kalle\AppData\Local\Temp\cc2hNkGN.s:20790  .debug_str:00000000000004d0 .LASF111
C:\Users\Kalle\AppData\Local\Temp\cc2hNkGN.s:21082  .debug_str:0000000000000aa8 .LASF112
C:\Users\Kalle\AppData\Local\Temp\cc2hNkGN.s:20666  .debug_str:0000000000000251 .LASF113
C:\Users\Kalle\AppData\Local\Temp\cc2hNkGN.s:20952  .debug_str:00000000000007f0 .LASF114
C:\Users\Kalle\AppData\Local\Temp\cc2hNkGN.s:21064  .debug_str:0000000000000a3f .LASF115
C:\Users\Kalle\AppData\Local\Temp\cc2hNkGN.s:20868  .debug_str:0000000000000653 .LASF116
C:\Users\Kalle\AppData\Local\Temp\cc2hNkGN.s:20606  .debug_str:00000000000000a9 .LASF117
GAS LISTING C:\Users\Kalle\AppData\Local\Temp\cc2hNkGN.s 			page 180


C:\Users\Kalle\AppData\Local\Temp\cc2hNkGN.s:20860  .debug_str:000000000000062b .LASF118
C:\Users\Kalle\AppData\Local\Temp\cc2hNkGN.s:21034  .debug_str:00000000000009b2 .LASF119
C:\Users\Kalle\AppData\Local\Temp\cc2hNkGN.s:20832  .debug_str:00000000000005a5 .LASF120
C:\Users\Kalle\AppData\Local\Temp\cc2hNkGN.s:20602  .debug_str:000000000000009c .LASF121
C:\Users\Kalle\AppData\Local\Temp\cc2hNkGN.s:20576  .debug_str:0000000000000020 .LASF253
C:\Users\Kalle\AppData\Local\Temp\cc2hNkGN.s:20670  .debug_str:0000000000000268 .LASF122
C:\Users\Kalle\AppData\Local\Temp\cc2hNkGN.s:20712  .debug_str:000000000000034b .LASF123
C:\Users\Kalle\AppData\Local\Temp\cc2hNkGN.s:21004  .debug_str:0000000000000924 .LASF124
C:\Users\Kalle\AppData\Local\Temp\cc2hNkGN.s:20694  .debug_str:00000000000002e8 .LASF125
C:\Users\Kalle\AppData\Local\Temp\cc2hNkGN.s:21040  .debug_str:00000000000009c9 .LASF126
C:\Users\Kalle\AppData\Local\Temp\cc2hNkGN.s:20994  .debug_str:00000000000008c6 .LASF127
C:\Users\Kalle\AppData\Local\Temp\cc2hNkGN.s:20776  .debug_str:000000000000047e .LASF128
C:\Users\Kalle\AppData\Local\Temp\cc2hNkGN.s:20962  .debug_str:000000000000082f .LASF129
C:\Users\Kalle\AppData\Local\Temp\cc2hNkGN.s:20970  .debug_str:000000000000085b .LASF130
C:\Users\Kalle\AppData\Local\Temp\cc2hNkGN.s:20972  .debug_str:0000000000000864 .LASF131
C:\Users\Kalle\AppData\Local\Temp\cc2hNkGN.s:20858  .debug_str:0000000000000623 .LASF132
C:\Users\Kalle\AppData\Local\Temp\cc2hNkGN.s:21032  .debug_str:00000000000009a9 .LASF133
C:\Users\Kalle\AppData\Local\Temp\cc2hNkGN.s:20796  .debug_str:00000000000004ec .LASF134
C:\Users\Kalle\AppData\Local\Temp\cc2hNkGN.s:20614  .debug_str:00000000000000d4 .LASF135
C:\Users\Kalle\AppData\Local\Temp\cc2hNkGN.s:20616  .debug_str:00000000000000df .LASF136
C:\Users\Kalle\AppData\Local\Temp\cc2hNkGN.s:20618  .debug_str:00000000000000ea .LASF137
C:\Users\Kalle\AppData\Local\Temp\cc2hNkGN.s:20948  .debug_str:00000000000007d8 .LASF138
C:\Users\Kalle\AppData\Local\Temp\cc2hNkGN.s:20622  .debug_str:00000000000000ff .LASF139
C:\Users\Kalle\AppData\Local\Temp\cc2hNkGN.s:20624  .debug_str:000000000000010a .LASF140
C:\Users\Kalle\AppData\Local\Temp\cc2hNkGN.s:20888  .debug_str:00000000000006b0 .LASF141
C:\Users\Kalle\AppData\Local\Temp\cc2hNkGN.s:20686  .debug_str:00000000000002bd .LASF142
C:\Users\Kalle\AppData\Local\Temp\cc2hNkGN.s:20688  .debug_str:00000000000002c6 .LASF143
C:\Users\Kalle\AppData\Local\Temp\cc2hNkGN.s:20630  .debug_str:000000000000012d .LASF144
C:\Users\Kalle\AppData\Local\Temp\cc2hNkGN.s:20632  .debug_str:0000000000000138 .LASF145
C:\Users\Kalle\AppData\Local\Temp\cc2hNkGN.s:20598  .debug_str:0000000000000088 .LASF146
C:\Users\Kalle\AppData\Local\Temp\cc2hNkGN.s:20600  .debug_str:0000000000000092 .LASF147
C:\Users\Kalle\AppData\Local\Temp\cc2hNkGN.s:21042  .debug_str:00000000000009d2 .LASF148
C:\Users\Kalle\AppData\Local\Temp\cc2hNkGN.s:21044  .debug_str:00000000000009db .LASF149
C:\Users\Kalle\AppData\Local\Temp\cc2hNkGN.s:20714  .debug_str:000000000000035e .LASF150
C:\Users\Kalle\AppData\Local\Temp\cc2hNkGN.s:20716  .debug_str:0000000000000367 .LASF151
C:\Users\Kalle\AppData\Local\Temp\cc2hNkGN.s:21010  .debug_str:0000000000000941 .LASF152
C:\Users\Kalle\AppData\Local\Temp\cc2hNkGN.s:20588  .debug_str:000000000000005f .LASF153
C:\Users\Kalle\AppData\Local\Temp\cc2hNkGN.s:20696  .debug_str:00000000000002f0 .LASF154
C:\Users\Kalle\AppData\Local\Temp\cc2hNkGN.s:20904  .debug_str:00000000000006ff .LASF155
C:\Users\Kalle\AppData\Local\Temp\cc2hNkGN.s:20782  .debug_str:00000000000004a0 .LASF156
C:\Users\Kalle\AppData\Local\Temp\cc2hNkGN.s:20818  .debug_str:0000000000000564 .LASF157
C:\Users\Kalle\AppData\Local\Temp\cc2hNkGN.s:20820  .debug_str:000000000000056e .LASF158
C:\Users\Kalle\AppData\Local\Temp\cc2hNkGN.s:20822  .debug_str:0000000000000578 .LASF159
C:\Users\Kalle\AppData\Local\Temp\cc2hNkGN.s:20824  .debug_str:0000000000000582 .LASF160
C:\Users\Kalle\AppData\Local\Temp\cc2hNkGN.s:20826  .debug_str:000000000000058c .LASF161
C:\Users\Kalle\AppData\Local\Temp\cc2hNkGN.s:20810  .debug_str:0000000000000538 .LASF162
C:\Users\Kalle\AppData\Local\Temp\cc2hNkGN.s:20812  .debug_str:0000000000000541 .LASF163
C:\Users\Kalle\AppData\Local\Temp\cc2hNkGN.s:20612  .debug_str:00000000000000c9 .LASF164
C:\Users\Kalle\AppData\Local\Temp\cc2hNkGN.s:20684  .debug_str:00000000000002b4 .LASF165
C:\Users\Kalle\AppData\Local\Temp\cc2hNkGN.s:20628  .debug_str:0000000000000122 .LASF166
C:\Users\Kalle\AppData\Local\Temp\cc2hNkGN.s:20744  .debug_str:00000000000003ce .LASF167
C:\Users\Kalle\AppData\Local\Temp\cc2hNkGN.s:21022  .debug_str:0000000000000985 .LASF168
C:\Users\Kalle\AppData\Local\Temp\cc2hNkGN.s:21078  .debug_str:0000000000000a94 .LASF169
C:\Users\Kalle\AppData\Local\Temp\cc2hNkGN.s:20636  .debug_str:0000000000000150 .LASF170
C:\Users\Kalle\AppData\Local\Temp\cc2hNkGN.s:20642  .debug_str:00000000000001d7 .LASF171
C:\Users\Kalle\AppData\Local\Temp\cc2hNkGN.s:21066  .debug_str:0000000000000a50 .LASF172
C:\Users\Kalle\AppData\Local\Temp\cc2hNkGN.s:20956  .debug_str:000000000000080a .LASF173
GAS LISTING C:\Users\Kalle\AppData\Local\Temp\cc2hNkGN.s 			page 181


C:\Users\Kalle\AppData\Local\Temp\cc2hNkGN.s:20954  .debug_str:00000000000007ff .LASF174
C:\Users\Kalle\AppData\Local\Temp\cc2hNkGN.s:20728  .debug_str:000000000000038d .LASF175
C:\Users\Kalle\AppData\Local\Temp\cc2hNkGN.s:21014  .debug_str:0000000000000957 .LASF176
C:\Users\Kalle\AppData\Local\Temp\cc2hNkGN.s:20706  .debug_str:0000000000000325 .LASF177
C:\Users\Kalle\AppData\Local\Temp\cc2hNkGN.s:20650  .debug_str:0000000000000209 .LASF178
C:\Users\Kalle\AppData\Local\Temp\cc2hNkGN.s:20756  .debug_str:0000000000000407 .LASF179
C:\Users\Kalle\AppData\Local\Temp\cc2hNkGN.s:20778  .debug_str:000000000000048e .LASF180
C:\Users\Kalle\AppData\Local\Temp\cc2hNkGN.s:20780  .debug_str:0000000000000497 .LASF181
C:\Users\Kalle\AppData\Local\Temp\cc2hNkGN.s:20634  .debug_str:0000000000000143 .LASF182
C:\Users\Kalle\AppData\Local\Temp\cc2hNkGN.s:20750  .debug_str:00000000000003ea .LASF183
C:\Users\Kalle\AppData\Local\Temp\cc2hNkGN.s:20942  .debug_str:00000000000007b5 .LASF184
C:\Users\Kalle\AppData\Local\Temp\cc2hNkGN.s:21018  .debug_str:000000000000096c .LASF187
C:\Users\Kalle\AppData\Local\Temp\cc2hNkGN.s:4270   .text.LCD_ShowPicture:0000000000000000 .LFB28
C:\Users\Kalle\AppData\Local\Temp\cc2hNkGN.s:4347   .text.LCD_ShowPicture:000000000000005a .LFE28
C:\Users\Kalle\AppData\Local\Temp\cc2hNkGN.s:16475  .debug_loc:0000000000000000 .LLST268
C:\Users\Kalle\AppData\Local\Temp\cc2hNkGN.s:16493  .debug_loc:000000000000002c .LLST269
C:\Users\Kalle\AppData\Local\Temp\cc2hNkGN.s:16507  .debug_loc:000000000000004d .LLST270
C:\Users\Kalle\AppData\Local\Temp\cc2hNkGN.s:16521  .debug_loc:000000000000006e .LLST271
C:\Users\Kalle\AppData\Local\Temp\cc2hNkGN.s:16535  .debug_loc:000000000000008f .LLST272
C:\Users\Kalle\AppData\Local\Temp\cc2hNkGN.s:20730  .debug_str:0000000000000393 .LASF185
C:\Users\Kalle\AppData\Local\Temp\cc2hNkGN.s:16549  .debug_loc:00000000000000b0 .LLST273
C:\Users\Kalle\AppData\Local\Temp\cc2hNkGN.s:16567  .debug_loc:00000000000000dc .LLST274
C:\Users\Kalle\AppData\Local\Temp\cc2hNkGN.s:20926  .debug_str:0000000000000768 .LASF186
C:\Users\Kalle\AppData\Local\Temp\cc2hNkGN.s:16596  .debug_loc:0000000000000113 .LLST275
C:\Users\Kalle\AppData\Local\Temp\cc2hNkGN.s:4315   .text.LCD_ShowPicture:0000000000000030 .LBB454
C:\Users\Kalle\AppData\Local\Temp\cc2hNkGN.s:4329   .text.LCD_ShowPicture:000000000000004a .LBE454
C:\Users\Kalle\AppData\Local\Temp\cc2hNkGN.s:16628  .debug_loc:0000000000000146 .LLST276
C:\Users\Kalle\AppData\Local\Temp\cc2hNkGN.s:4321   .text.LCD_ShowPicture:000000000000003e .LVL497
C:\Users\Kalle\AppData\Local\Temp\cc2hNkGN.s:4327   .text.LCD_ShowPicture:000000000000004a .LVL499
C:\Users\Kalle\AppData\Local\Temp\cc2hNkGN.s:4306   .text.LCD_ShowPicture:0000000000000026 .LVL494
C:\Users\Kalle\AppData\Local\Temp\cc2hNkGN.s:20974  .debug_str:000000000000086d .LASF188
C:\Users\Kalle\AppData\Local\Temp\cc2hNkGN.s:4008   .text.LCD_ShowNum1:0000000000000000 .LFB27
C:\Users\Kalle\AppData\Local\Temp\cc2hNkGN.s:4263   .text.LCD_ShowNum1:0000000000000102 .LFE27
C:\Users\Kalle\AppData\Local\Temp\cc2hNkGN.s:16635  .debug_loc:0000000000000159 .LLST244
C:\Users\Kalle\AppData\Local\Temp\cc2hNkGN.s:16658  .debug_loc:0000000000000191 .LLST245
C:\Users\Kalle\AppData\Local\Temp\cc2hNkGN.s:16680  .debug_loc:00000000000001c8 .LLST246
C:\Users\Kalle\AppData\Local\Temp\cc2hNkGN.s:16702  .debug_loc:00000000000001ff .LLST247
C:\Users\Kalle\AppData\Local\Temp\cc2hNkGN.s:16718  .debug_loc:0000000000000222 .LLST248
C:\Users\Kalle\AppData\Local\Temp\cc2hNkGN.s:20980  .debug_str:000000000000088b .LASF189
C:\Users\Kalle\AppData\Local\Temp\cc2hNkGN.s:16744  .debug_loc:0000000000000264 .LLST249
C:\Users\Kalle\AppData\Local\Temp\cc2hNkGN.s:16766  .debug_loc:000000000000029b .LLST250
C:\Users\Kalle\AppData\Local\Temp\cc2hNkGN.s:21070  .debug_str:0000000000000a71 .LASF190
C:\Users\Kalle\AppData\Local\Temp\cc2hNkGN.s:16790  .debug_loc:00000000000002db .LLST251
C:\Users\Kalle\AppData\Local\Temp\cc2hNkGN.s:20988  .debug_str:00000000000008aa .LASF191
C:\Users\Kalle\AppData\Local\Temp\cc2hNkGN.s:16809  .debug_loc:0000000000000301 .LLST252
C:\Users\Kalle\AppData\Local\Temp\cc2hNkGN.s:4069   .text.LCD_ShowNum1:0000000000000044 .LBB440
C:\Users\Kalle\AppData\Local\Temp\cc2hNkGN.s:16824  .debug_loc:000000000000032a .LLST253
C:\Users\Kalle\AppData\Local\Temp\cc2hNkGN.s:16843  .debug_loc:000000000000035e .LLST254
C:\Users\Kalle\AppData\Local\Temp\cc2hNkGN.s:16856  .debug_loc:000000000000037e .LLST255
C:\Users\Kalle\AppData\Local\Temp\cc2hNkGN.s:4075   .text.LCD_ShowNum1:0000000000000048 .LBB444
C:\Users\Kalle\AppData\Local\Temp\cc2hNkGN.s:16877  .debug_loc:00000000000003b4 .LLST256
C:\Users\Kalle\AppData\Local\Temp\cc2hNkGN.s:16884  .debug_loc:00000000000003c7 .LLST257
C:\Users\Kalle\AppData\Local\Temp\cc2hNkGN.s:16892  .debug_loc:00000000000003db .LLST258
C:\Users\Kalle\AppData\Local\Temp\cc2hNkGN.s:16901  .debug_loc:00000000000003f0 .LLST259
C:\Users\Kalle\AppData\Local\Temp\cc2hNkGN.s:16908  .debug_loc:0000000000000403 .LLST260
C:\Users\Kalle\AppData\Local\Temp\cc2hNkGN.s:16926  .debug_loc:0000000000000428 .LLST261
C:\Users\Kalle\AppData\Local\Temp\cc2hNkGN.s:4234   .text.LCD_ShowNum1:00000000000000f0 .LVL486
GAS LISTING C:\Users\Kalle\AppData\Local\Temp\cc2hNkGN.s 			page 182


C:\Users\Kalle\AppData\Local\Temp\cc2hNkGN.s:4141   .text.LCD_ShowNum1:000000000000008c .LBB448
C:\Users\Kalle\AppData\Local\Temp\cc2hNkGN.s:16955  .debug_loc:000000000000045f .LLST262
C:\Users\Kalle\AppData\Local\Temp\cc2hNkGN.s:16962  .debug_loc:0000000000000472 .LLST263
C:\Users\Kalle\AppData\Local\Temp\cc2hNkGN.s:16970  .debug_loc:0000000000000486 .LLST264
C:\Users\Kalle\AppData\Local\Temp\cc2hNkGN.s:16983  .debug_loc:000000000000049f .LLST265
C:\Users\Kalle\AppData\Local\Temp\cc2hNkGN.s:16990  .debug_loc:00000000000004b2 .LLST266
C:\Users\Kalle\AppData\Local\Temp\cc2hNkGN.s:17008  .debug_loc:00000000000004d7 .LLST267
C:\Users\Kalle\AppData\Local\Temp\cc2hNkGN.s:4162   .text.LCD_ShowNum1:00000000000000aa .LVL476
C:\Users\Kalle\AppData\Local\Temp\cc2hNkGN.s:20680  .debug_str:000000000000029f .LASF192
C:\Users\Kalle\AppData\Local\Temp\cc2hNkGN.s:3780   .text.LCD_ShowNum:0000000000000000 .LFB26
C:\Users\Kalle\AppData\Local\Temp\cc2hNkGN.s:3999   .text.LCD_ShowNum:00000000000000e0 .LFE26
C:\Users\Kalle\AppData\Local\Temp\cc2hNkGN.s:17037  .debug_loc:000000000000050e .LLST226
C:\Users\Kalle\AppData\Local\Temp\cc2hNkGN.s:17060  .debug_loc:0000000000000548 .LLST227
C:\Users\Kalle\AppData\Local\Temp\cc2hNkGN.s:17074  .debug_loc:0000000000000569 .LLST228
C:\Users\Kalle\AppData\Local\Temp\cc2hNkGN.s:17096  .debug_loc:00000000000005a0 .LLST229
C:\Users\Kalle\AppData\Local\Temp\cc2hNkGN.s:17118  .debug_loc:00000000000005d7 .LLST230
C:\Users\Kalle\AppData\Local\Temp\cc2hNkGN.s:17132  .debug_loc:00000000000005f8 .LLST231
C:\Users\Kalle\AppData\Local\Temp\cc2hNkGN.s:17154  .debug_loc:0000000000000632 .LLST232
C:\Users\Kalle\AppData\Local\Temp\cc2hNkGN.s:17176  .debug_loc:0000000000000669 .LLST233
C:\Users\Kalle\AppData\Local\Temp\cc2hNkGN.s:21048  .debug_str:00000000000009ec .LASF193
C:\Users\Kalle\AppData\Local\Temp\cc2hNkGN.s:17193  .debug_loc:0000000000000694 .LLST234
C:\Users\Kalle\AppData\Local\Temp\cc2hNkGN.s:3829   .text.LCD_ShowNum:0000000000000032 .LBB428
C:\Users\Kalle\AppData\Local\Temp\cc2hNkGN.s:17209  .debug_loc:00000000000006be .LLST235
C:\Users\Kalle\AppData\Local\Temp\cc2hNkGN.s:17228  .debug_loc:00000000000006f2 .LLST236
C:\Users\Kalle\AppData\Local\Temp\cc2hNkGN.s:17241  .debug_loc:0000000000000712 .LLST237
C:\Users\Kalle\AppData\Local\Temp\cc2hNkGN.s:3837   .text.LCD_ShowNum:0000000000000038 .LBB432
C:\Users\Kalle\AppData\Local\Temp\cc2hNkGN.s:17262  .debug_loc:0000000000000748 .LLST238
C:\Users\Kalle\AppData\Local\Temp\cc2hNkGN.s:17270  .debug_loc:000000000000075d .LLST239
C:\Users\Kalle\AppData\Local\Temp\cc2hNkGN.s:17278  .debug_loc:0000000000000771 .LLST240
C:\Users\Kalle\AppData\Local\Temp\cc2hNkGN.s:17293  .debug_loc:0000000000000793 .LLST241
C:\Users\Kalle\AppData\Local\Temp\cc2hNkGN.s:17300  .debug_loc:00000000000007a6 .LLST242
C:\Users\Kalle\AppData\Local\Temp\cc2hNkGN.s:3917   .text.LCD_ShowNum:0000000000000092 .LVL454
C:\Users\Kalle\AppData\Local\Temp\cc2hNkGN.s:3977   .text.LCD_ShowNum:00000000000000c2 .LBB438
C:\Users\Kalle\AppData\Local\Temp\cc2hNkGN.s:3997   .text.LCD_ShowNum:00000000000000e0 .LBE438
C:\Users\Kalle\AppData\Local\Temp\cc2hNkGN.s:3978   .text.LCD_ShowNum:00000000000000c2 .LBB439
C:\Users\Kalle\AppData\Local\Temp\cc2hNkGN.s:3996   .text.LCD_ShowNum:00000000000000e0 .LBE439
C:\Users\Kalle\AppData\Local\Temp\cc2hNkGN.s:3994   .text.LCD_ShowNum:00000000000000de .LVL461
C:\Users\Kalle\AppData\Local\Temp\cc2hNkGN.s:20898  .debug_str:00000000000006e3 .LASF254
C:\Users\Kalle\AppData\Local\Temp\cc2hNkGN.s:20660  .debug_str:0000000000000230 .LASF197
C:\Users\Kalle\AppData\Local\Temp\cc2hNkGN.s:20664  .debug_str:0000000000000245 .LASF194
C:\Users\Kalle\AppData\Local\Temp\cc2hNkGN.s:3616   .text.LCD_ShowStr:0000000000000000 .LFB24
C:\Users\Kalle\AppData\Local\Temp\cc2hNkGN.s:3732   .text.LCD_ShowStr:000000000000006c .LFE24
C:\Users\Kalle\AppData\Local\Temp\cc2hNkGN.s:17317  .debug_loc:00000000000007c3 .LLST217
C:\Users\Kalle\AppData\Local\Temp\cc2hNkGN.s:17340  .debug_loc:00000000000007fb .LLST218
C:\Users\Kalle\AppData\Local\Temp\cc2hNkGN.s:17364  .debug_loc:000000000000083b .LLST219
C:\Users\Kalle\AppData\Local\Temp\cc2hNkGN.s:17379  .debug_loc:0000000000000864 .LLST220
C:\Users\Kalle\AppData\Local\Temp\cc2hNkGN.s:17404  .debug_loc:00000000000008a5 .LLST221
C:\Users\Kalle\AppData\Local\Temp\cc2hNkGN.s:20996  .debug_str:00000000000008cf .LASF195
C:\Users\Kalle\AppData\Local\Temp\cc2hNkGN.s:17426  .debug_loc:00000000000008dc .LLST222
C:\Users\Kalle\AppData\Local\Temp\cc2hNkGN.s:3674   .text.LCD_ShowStr:0000000000000038 .LBB424
C:\Users\Kalle\AppData\Local\Temp\cc2hNkGN.s:3687   .text.LCD_ShowStr:0000000000000048 .LVL432
C:\Users\Kalle\AppData\Local\Temp\cc2hNkGN.s:20854  .debug_str:0000000000000607 .LASF196
C:\Users\Kalle\AppData\Local\Temp\cc2hNkGN.s:3429   .text.LCD_ShowString:0000000000000000 .LFB23
C:\Users\Kalle\AppData\Local\Temp\cc2hNkGN.s:3609   .text.LCD_ShowString:0000000000000090 .LFE23
C:\Users\Kalle\AppData\Local\Temp\cc2hNkGN.s:17440  .debug_loc:00000000000008fd .LLST206
C:\Users\Kalle\AppData\Local\Temp\cc2hNkGN.s:17468  .debug_loc:0000000000000941 .LLST207
C:\Users\Kalle\AppData\Local\Temp\cc2hNkGN.s:17501  .debug_loc:0000000000000998 .LLST208
GAS LISTING C:\Users\Kalle\AppData\Local\Temp\cc2hNkGN.s 			page 183


C:\Users\Kalle\AppData\Local\Temp\cc2hNkGN.s:17529  .debug_loc:00000000000009e3 .LLST209
C:\Users\Kalle\AppData\Local\Temp\cc2hNkGN.s:17558  .debug_loc:0000000000000a2f .LLST210
C:\Users\Kalle\AppData\Local\Temp\cc2hNkGN.s:3488   .text.LCD_ShowString:000000000000003c .LBB414
C:\Users\Kalle\AppData\Local\Temp\cc2hNkGN.s:17584  .debug_loc:0000000000000a71 .LLST211
C:\Users\Kalle\AppData\Local\Temp\cc2hNkGN.s:17599  .debug_loc:0000000000000a9a .LLST212
C:\Users\Kalle\AppData\Local\Temp\cc2hNkGN.s:17617  .debug_loc:0000000000000ac6 .LLST213
C:\Users\Kalle\AppData\Local\Temp\cc2hNkGN.s:17632  .debug_loc:0000000000000aef .LLST214
C:\Users\Kalle\AppData\Local\Temp\cc2hNkGN.s:17648  .debug_loc:0000000000000b19 .LLST215
C:\Users\Kalle\AppData\Local\Temp\cc2hNkGN.s:3515   .text.LCD_ShowString:0000000000000050 .LVL415
C:\Users\Kalle\AppData\Local\Temp\cc2hNkGN.s:3577   .text.LCD_ShowString:0000000000000082 .LVL423
C:\Users\Kalle\AppData\Local\Temp\cc2hNkGN.s:20700  .debug_str:0000000000000301 .LASF216
C:\Users\Kalle\AppData\Local\Temp\cc2hNkGN.s:20676  .debug_str:0000000000000284 .LASF198
C:\Users\Kalle\AppData\Local\Temp\cc2hNkGN.s:3143   .text.Draw_Circle:0000000000000000 .LFB21
C:\Users\Kalle\AppData\Local\Temp\cc2hNkGN.s:3394   .text.Draw_Circle:0000000000000154 .LFE21
C:\Users\Kalle\AppData\Local\Temp\cc2hNkGN.s:17669  .debug_loc:0000000000000b4f .LLST169
C:\Users\Kalle\AppData\Local\Temp\cc2hNkGN.s:17687  .debug_loc:0000000000000b7c .LLST170
C:\Users\Kalle\AppData\Local\Temp\cc2hNkGN.s:17705  .debug_loc:0000000000000ba8 .LLST171
C:\Users\Kalle\AppData\Local\Temp\cc2hNkGN.s:17723  .debug_loc:0000000000000bd4 .LLST172
C:\Users\Kalle\AppData\Local\Temp\cc2hNkGN.s:17737  .debug_loc:0000000000000bf5 .LLST173
C:\Users\Kalle\AppData\Local\Temp\cc2hNkGN.s:17755  .debug_loc:0000000000000c21 .LLST174
C:\Users\Kalle\AppData\Local\Temp\cc2hNkGN.s:17767  .debug_loc:0000000000000c40 .LLST175
C:\Users\Kalle\AppData\Local\Temp\cc2hNkGN.s:3200   .text.Draw_Circle:0000000000000034 .LBB398
C:\Users\Kalle\AppData\Local\Temp\cc2hNkGN.s:3214   .text.Draw_Circle:000000000000004e .LBE398
C:\Users\Kalle\AppData\Local\Temp\cc2hNkGN.s:17778  .debug_loc:0000000000000c5e .LLST176
C:\Users\Kalle\AppData\Local\Temp\cc2hNkGN.s:17785  .debug_loc:0000000000000c71 .LLST177
C:\Users\Kalle\AppData\Local\Temp\cc2hNkGN.s:17792  .debug_loc:0000000000000c84 .LLST178
C:\Users\Kalle\AppData\Local\Temp\cc2hNkGN.s:3208   .text.Draw_Circle:0000000000000044 .LVL379
C:\Users\Kalle\AppData\Local\Temp\cc2hNkGN.s:3212   .text.Draw_Circle:000000000000004e .LVL380
C:\Users\Kalle\AppData\Local\Temp\cc2hNkGN.s:3218   .text.Draw_Circle:0000000000000052 .LBB400
C:\Users\Kalle\AppData\Local\Temp\cc2hNkGN.s:3232   .text.Draw_Circle:000000000000006c .LBE400
C:\Users\Kalle\AppData\Local\Temp\cc2hNkGN.s:17799  .debug_loc:0000000000000c97 .LLST179
C:\Users\Kalle\AppData\Local\Temp\cc2hNkGN.s:17806  .debug_loc:0000000000000caa .LLST180
C:\Users\Kalle\AppData\Local\Temp\cc2hNkGN.s:17813  .debug_loc:0000000000000cbd .LLST181
C:\Users\Kalle\AppData\Local\Temp\cc2hNkGN.s:3226   .text.Draw_Circle:0000000000000062 .LVL382
C:\Users\Kalle\AppData\Local\Temp\cc2hNkGN.s:3230   .text.Draw_Circle:000000000000006c .LVL383
C:\Users\Kalle\AppData\Local\Temp\cc2hNkGN.s:3237   .text.Draw_Circle:0000000000000074 .LBB402
C:\Users\Kalle\AppData\Local\Temp\cc2hNkGN.s:3251   .text.Draw_Circle:000000000000008e .LBE402
C:\Users\Kalle\AppData\Local\Temp\cc2hNkGN.s:17820  .debug_loc:0000000000000cd0 .LLST182
C:\Users\Kalle\AppData\Local\Temp\cc2hNkGN.s:17827  .debug_loc:0000000000000ce3 .LLST183
C:\Users\Kalle\AppData\Local\Temp\cc2hNkGN.s:17834  .debug_loc:0000000000000cf6 .LLST184
C:\Users\Kalle\AppData\Local\Temp\cc2hNkGN.s:3245   .text.Draw_Circle:0000000000000084 .LVL385
C:\Users\Kalle\AppData\Local\Temp\cc2hNkGN.s:3249   .text.Draw_Circle:000000000000008e .LVL386
C:\Users\Kalle\AppData\Local\Temp\cc2hNkGN.s:3255   .text.Draw_Circle:0000000000000092 .LBB404
C:\Users\Kalle\AppData\Local\Temp\cc2hNkGN.s:3270   .text.Draw_Circle:00000000000000b0 .LBE404
C:\Users\Kalle\AppData\Local\Temp\cc2hNkGN.s:17841  .debug_loc:0000000000000d09 .LLST185
C:\Users\Kalle\AppData\Local\Temp\cc2hNkGN.s:17848  .debug_loc:0000000000000d1c .LLST186
C:\Users\Kalle\AppData\Local\Temp\cc2hNkGN.s:17855  .debug_loc:0000000000000d2f .LLST187
C:\Users\Kalle\AppData\Local\Temp\cc2hNkGN.s:3263   .text.Draw_Circle:00000000000000a2 .LVL388
C:\Users\Kalle\AppData\Local\Temp\cc2hNkGN.s:3268   .text.Draw_Circle:00000000000000b0 .LVL389
C:\Users\Kalle\AppData\Local\Temp\cc2hNkGN.s:3274   .text.Draw_Circle:00000000000000b2 .LBB406
C:\Users\Kalle\AppData\Local\Temp\cc2hNkGN.s:3288   .text.Draw_Circle:00000000000000cc .LBE406
C:\Users\Kalle\AppData\Local\Temp\cc2hNkGN.s:17862  .debug_loc:0000000000000d42 .LLST188
C:\Users\Kalle\AppData\Local\Temp\cc2hNkGN.s:17869  .debug_loc:0000000000000d55 .LLST189
C:\Users\Kalle\AppData\Local\Temp\cc2hNkGN.s:17876  .debug_loc:0000000000000d68 .LLST190
C:\Users\Kalle\AppData\Local\Temp\cc2hNkGN.s:3282   .text.Draw_Circle:00000000000000c2 .LVL391
C:\Users\Kalle\AppData\Local\Temp\cc2hNkGN.s:3286   .text.Draw_Circle:00000000000000cc .LVL392
C:\Users\Kalle\AppData\Local\Temp\cc2hNkGN.s:3292   .text.Draw_Circle:00000000000000ce .LBB408
GAS LISTING C:\Users\Kalle\AppData\Local\Temp\cc2hNkGN.s 			page 184


C:\Users\Kalle\AppData\Local\Temp\cc2hNkGN.s:3306   .text.Draw_Circle:00000000000000e8 .LBE408
C:\Users\Kalle\AppData\Local\Temp\cc2hNkGN.s:17883  .debug_loc:0000000000000d7b .LLST191
C:\Users\Kalle\AppData\Local\Temp\cc2hNkGN.s:17890  .debug_loc:0000000000000d8e .LLST192
C:\Users\Kalle\AppData\Local\Temp\cc2hNkGN.s:17897  .debug_loc:0000000000000da1 .LLST193
C:\Users\Kalle\AppData\Local\Temp\cc2hNkGN.s:3300   .text.Draw_Circle:00000000000000de .LVL394
C:\Users\Kalle\AppData\Local\Temp\cc2hNkGN.s:3304   .text.Draw_Circle:00000000000000e8 .LVL395
C:\Users\Kalle\AppData\Local\Temp\cc2hNkGN.s:3308   .text.Draw_Circle:00000000000000e8 .LBB410
C:\Users\Kalle\AppData\Local\Temp\cc2hNkGN.s:3322   .text.Draw_Circle:0000000000000102 .LBE410
C:\Users\Kalle\AppData\Local\Temp\cc2hNkGN.s:17904  .debug_loc:0000000000000db4 .LLST194
C:\Users\Kalle\AppData\Local\Temp\cc2hNkGN.s:17911  .debug_loc:0000000000000dc7 .LLST195
C:\Users\Kalle\AppData\Local\Temp\cc2hNkGN.s:17918  .debug_loc:0000000000000dda .LLST196
C:\Users\Kalle\AppData\Local\Temp\cc2hNkGN.s:3316   .text.Draw_Circle:00000000000000f8 .LVL396
C:\Users\Kalle\AppData\Local\Temp\cc2hNkGN.s:3320   .text.Draw_Circle:0000000000000102 .LVL397
C:\Users\Kalle\AppData\Local\Temp\cc2hNkGN.s:3324   .text.Draw_Circle:0000000000000102 .LBB412
C:\Users\Kalle\AppData\Local\Temp\cc2hNkGN.s:3338   .text.Draw_Circle:000000000000011c .LBE412
C:\Users\Kalle\AppData\Local\Temp\cc2hNkGN.s:17925  .debug_loc:0000000000000ded .LLST197
C:\Users\Kalle\AppData\Local\Temp\cc2hNkGN.s:17932  .debug_loc:0000000000000e00 .LLST198
C:\Users\Kalle\AppData\Local\Temp\cc2hNkGN.s:17939  .debug_loc:0000000000000e13 .LLST199
C:\Users\Kalle\AppData\Local\Temp\cc2hNkGN.s:3332   .text.Draw_Circle:0000000000000112 .LVL398
C:\Users\Kalle\AppData\Local\Temp\cc2hNkGN.s:3336   .text.Draw_Circle:000000000000011c .LVL399
C:\Users\Kalle\AppData\Local\Temp\cc2hNkGN.s:20774  .debug_str:000000000000046c .LASF199
C:\Users\Kalle\AppData\Local\Temp\cc2hNkGN.s:3051   .text.LCD_DrawRectangle:0000000000000000 .LFB20
C:\Users\Kalle\AppData\Local\Temp\cc2hNkGN.s:3136   .text.LCD_DrawRectangle:0000000000000066 .LFE20
C:\Users\Kalle\AppData\Local\Temp\cc2hNkGN.s:17946  .debug_loc:0000000000000e26 .LLST163
C:\Users\Kalle\AppData\Local\Temp\cc2hNkGN.s:17964  .debug_loc:0000000000000e52 .LLST164
C:\Users\Kalle\AppData\Local\Temp\cc2hNkGN.s:17982  .debug_loc:0000000000000e7e .LLST165
C:\Users\Kalle\AppData\Local\Temp\cc2hNkGN.s:18004  .debug_loc:0000000000000eb5 .LLST166
C:\Users\Kalle\AppData\Local\Temp\cc2hNkGN.s:18026  .debug_loc:0000000000000eec .LLST167
C:\Users\Kalle\AppData\Local\Temp\cc2hNkGN.s:18048  .debug_loc:0000000000000f23 .LLST168
C:\Users\Kalle\AppData\Local\Temp\cc2hNkGN.s:3084   .text.LCD_DrawRectangle:0000000000000022 .LVL366
C:\Users\Kalle\AppData\Local\Temp\cc2hNkGN.s:3092   .text.LCD_DrawRectangle:0000000000000034 .LVL367
C:\Users\Kalle\AppData\Local\Temp\cc2hNkGN.s:3100   .text.LCD_DrawRectangle:0000000000000046 .LVL368
C:\Users\Kalle\AppData\Local\Temp\cc2hNkGN.s:3134   .text.LCD_DrawRectangle:0000000000000066 .LVL374
C:\Users\Kalle\AppData\Local\Temp\cc2hNkGN.s:20986  .debug_str:000000000000089d .LASF200
C:\Users\Kalle\AppData\Local\Temp\cc2hNkGN.s:2821   .text.LCD_DrawLine:0000000000000000 .LFB19
C:\Users\Kalle\AppData\Local\Temp\cc2hNkGN.s:3044   .text.LCD_DrawLine:00000000000000ba .LFE19
C:\Users\Kalle\AppData\Local\Temp\cc2hNkGN.s:18070  .debug_loc:0000000000000f5a .LLST144
C:\Users\Kalle\AppData\Local\Temp\cc2hNkGN.s:18093  .debug_loc:0000000000000f92 .LLST145
C:\Users\Kalle\AppData\Local\Temp\cc2hNkGN.s:18111  .debug_loc:0000000000000fbe .LLST146
C:\Users\Kalle\AppData\Local\Temp\cc2hNkGN.s:18129  .debug_loc:0000000000000fea .LLST147
C:\Users\Kalle\AppData\Local\Temp\cc2hNkGN.s:18147  .debug_loc:0000000000001016 .LLST148
C:\Users\Kalle\AppData\Local\Temp\cc2hNkGN.s:18165  .debug_loc:0000000000001042 .LLST149
C:\Users\Kalle\AppData\Local\Temp\cc2hNkGN.s:18187  .debug_loc:0000000000001079 .LLST150
C:\Users\Kalle\AppData\Local\Temp\cc2hNkGN.s:20724  .debug_str:0000000000000381 .LASF201
C:\Users\Kalle\AppData\Local\Temp\cc2hNkGN.s:18203  .debug_loc:00000000000010a3 .LLST151
C:\Users\Kalle\AppData\Local\Temp\cc2hNkGN.s:20908  .debug_str:0000000000000714 .LASF202
C:\Users\Kalle\AppData\Local\Temp\cc2hNkGN.s:18224  .debug_loc:00000000000010d9 .LLST152
C:\Users\Kalle\AppData\Local\Temp\cc2hNkGN.s:20998  .debug_str:00000000000008d4 .LASF203
C:\Users\Kalle\AppData\Local\Temp\cc2hNkGN.s:18241  .debug_loc:0000000000001104 .LLST153
C:\Users\Kalle\AppData\Local\Temp\cc2hNkGN.s:21000  .debug_str:00000000000008dc .LASF204
C:\Users\Kalle\AppData\Local\Temp\cc2hNkGN.s:18260  .debug_loc:0000000000001138 .LLST154
C:\Users\Kalle\AppData\Local\Temp\cc2hNkGN.s:21050  .debug_str:00000000000009f3 .LASF205
C:\Users\Kalle\AppData\Local\Temp\cc2hNkGN.s:18271  .debug_loc:0000000000001156 .LLST155
C:\Users\Kalle\AppData\Local\Temp\cc2hNkGN.s:20864  .debug_str:0000000000000649 .LASF206
C:\Users\Kalle\AppData\Local\Temp\cc2hNkGN.s:18278  .debug_loc:0000000000001169 .LLST156
C:\Users\Kalle\AppData\Local\Temp\cc2hNkGN.s:20866  .debug_str:000000000000064e .LASF207
C:\Users\Kalle\AppData\Local\Temp\cc2hNkGN.s:18295  .debug_loc:0000000000001194 .LLST157
GAS LISTING C:\Users\Kalle\AppData\Local\Temp\cc2hNkGN.s 			page 185


C:\Users\Kalle\AppData\Local\Temp\cc2hNkGN.s:21060  .debug_str:0000000000000a30 .LASF208
C:\Users\Kalle\AppData\Local\Temp\cc2hNkGN.s:18308  .debug_loc:00000000000011b4 .LLST158
C:\Users\Kalle\AppData\Local\Temp\cc2hNkGN.s:20920  .debug_str:0000000000000742 .LASF209
C:\Users\Kalle\AppData\Local\Temp\cc2hNkGN.s:18323  .debug_loc:00000000000011dd .LLST159
C:\Users\Kalle\AppData\Local\Temp\cc2hNkGN.s:2905   .text.LCD_DrawLine:0000000000000042 .LBB394
C:\Users\Kalle\AppData\Local\Temp\cc2hNkGN.s:18338  .debug_loc:0000000000001206 .LLST160
C:\Users\Kalle\AppData\Local\Temp\cc2hNkGN.s:18345  .debug_loc:0000000000001219 .LLST161
C:\Users\Kalle\AppData\Local\Temp\cc2hNkGN.s:18352  .debug_loc:000000000000122c .LLST162
C:\Users\Kalle\AppData\Local\Temp\cc2hNkGN.s:2913   .text.LCD_DrawLine:0000000000000052 .LVL339
C:\Users\Kalle\AppData\Local\Temp\cc2hNkGN.s:2925   .text.LCD_DrawLine:000000000000005e .LVL341
C:\Users\Kalle\AppData\Local\Temp\cc2hNkGN.s:20894  .debug_str:00000000000006d0 .LASF210
C:\Users\Kalle\AppData\Local\Temp\cc2hNkGN.s:2706   .text.LCD_Fill:0000000000000000 .LFB18
C:\Users\Kalle\AppData\Local\Temp\cc2hNkGN.s:2791   .text.LCD_Fill:0000000000000054 .LFE18
C:\Users\Kalle\AppData\Local\Temp\cc2hNkGN.s:18359  .debug_loc:000000000000123f .LLST133
C:\Users\Kalle\AppData\Local\Temp\cc2hNkGN.s:20590  .debug_str:0000000000000067 .LASF211
C:\Users\Kalle\AppData\Local\Temp\cc2hNkGN.s:18377  .debug_loc:000000000000126b .LLST134
C:\Users\Kalle\AppData\Local\Temp\cc2hNkGN.s:20846  .debug_str:00000000000005ea .LASF212
C:\Users\Kalle\AppData\Local\Temp\cc2hNkGN.s:18395  .debug_loc:0000000000001297 .LLST135
C:\Users\Kalle\AppData\Local\Temp\cc2hNkGN.s:20574  .debug_str:000000000000001b .LASF213
C:\Users\Kalle\AppData\Local\Temp\cc2hNkGN.s:18413  .debug_loc:00000000000012c3 .LLST136
C:\Users\Kalle\AppData\Local\Temp\cc2hNkGN.s:20834  .debug_str:00000000000005ae .LASF214
C:\Users\Kalle\AppData\Local\Temp\cc2hNkGN.s:18431  .debug_loc:00000000000012ef .LLST137
C:\Users\Kalle\AppData\Local\Temp\cc2hNkGN.s:18449  .debug_loc:000000000000131b .LLST138
C:\Users\Kalle\AppData\Local\Temp\cc2hNkGN.s:18467  .debug_loc:0000000000001347 .LLST139
C:\Users\Kalle\AppData\Local\Temp\cc2hNkGN.s:18474  .debug_loc:000000000000135a .LLST140
C:\Users\Kalle\AppData\Local\Temp\cc2hNkGN.s:2738   .text.LCD_Fill:0000000000000022 .LVL312
C:\Users\Kalle\AppData\Local\Temp\cc2hNkGN.s:2755   .text.LCD_Fill:0000000000000038 .LVL316
C:\Users\Kalle\AppData\Local\Temp\cc2hNkGN.s:20570  .debug_str:0000000000000000 .LASF215
C:\Users\Kalle\AppData\Local\Temp\cc2hNkGN.s:2798   .text.LCD_DrawPoint_big:0000000000000000 .LFB17
C:\Users\Kalle\AppData\Local\Temp\cc2hNkGN.s:2814   .text.LCD_DrawPoint_big:0000000000000016 .LFE17
C:\Users\Kalle\AppData\Local\Temp\cc2hNkGN.s:18495  .debug_loc:0000000000001390 .LLST141
C:\Users\Kalle\AppData\Local\Temp\cc2hNkGN.s:18515  .debug_loc:00000000000013be .LLST142
C:\Users\Kalle\AppData\Local\Temp\cc2hNkGN.s:18535  .debug_loc:00000000000013ec .LLST143
C:\Users\Kalle\AppData\Local\Temp\cc2hNkGN.s:2812   .text.LCD_DrawPoint_big:0000000000000016 .LVL328
C:\Users\Kalle\AppData\Local\Temp\cc2hNkGN.s:20890  .debug_str:00000000000006ba .LASF217
C:\Users\Kalle\AppData\Local\Temp\cc2hNkGN.s:20924  .debug_str:0000000000000758 .LASF218
C:\Users\Kalle\AppData\Local\Temp\cc2hNkGN.s:2504   .text.LCD_ShowChinese:0000000000000000 .LFB15
C:\Users\Kalle\AppData\Local\Temp\cc2hNkGN.s:2653   .text.LCD_ShowChinese:00000000000000b8 .LFE15
C:\Users\Kalle\AppData\Local\Temp\cc2hNkGN.s:18553  .debug_loc:0000000000001418 .LLST119
C:\Users\Kalle\AppData\Local\Temp\cc2hNkGN.s:18576  .debug_loc:0000000000001450 .LLST120
C:\Users\Kalle\AppData\Local\Temp\cc2hNkGN.s:18601  .debug_loc:000000000000148a .LLST121
C:\Users\Kalle\AppData\Local\Temp\cc2hNkGN.s:20752  .debug_str:00000000000003f3 .LASF219
C:\Users\Kalle\AppData\Local\Temp\cc2hNkGN.s:18626  .debug_loc:00000000000014c4 .LLST122
C:\Users\Kalle\AppData\Local\Temp\cc2hNkGN.s:18640  .debug_loc:00000000000014e5 .LLST123
C:\Users\Kalle\AppData\Local\Temp\cc2hNkGN.s:18654  .debug_loc:0000000000001506 .LLST124
C:\Users\Kalle\AppData\Local\Temp\cc2hNkGN.s:18684  .debug_loc:0000000000001553 .LLST125
C:\Users\Kalle\AppData\Local\Temp\cc2hNkGN.s:18691  .debug_loc:0000000000001566 .LLST126
C:\Users\Kalle\AppData\Local\Temp\cc2hNkGN.s:18712  .debug_loc:000000000000159c .LLST127
C:\Users\Kalle\AppData\Local\Temp\cc2hNkGN.s:20732  .debug_str:0000000000000399 .LASF220
C:\Users\Kalle\AppData\Local\Temp\cc2hNkGN.s:18735  .debug_loc:00000000000015da .LLST128
C:\Users\Kalle\AppData\Local\Temp\cc2hNkGN.s:2554   .text.LCD_ShowChinese:000000000000004c .LVL290
C:\Users\Kalle\AppData\Local\Temp\cc2hNkGN.s:2597   .text.LCD_ShowChinese:0000000000000080 .LVL297
C:\Users\Kalle\AppData\Local\Temp\cc2hNkGN.s:2642   .text.LCD_ShowChinese:00000000000000ac .LVL304
C:\Users\Kalle\AppData\Local\Temp\cc2hNkGN.s:20586  .debug_str:0000000000000055 .LASF221
C:\Users\Kalle\AppData\Local\Temp\cc2hNkGN.s:2430   .text.LCD_Clear:0000000000000000 .LFB14
C:\Users\Kalle\AppData\Local\Temp\cc2hNkGN.s:2497   .text.LCD_Clear:0000000000000048 .LFE14
C:\Users\Kalle\AppData\Local\Temp\cc2hNkGN.s:18744  .debug_loc:00000000000015ef .LLST115
GAS LISTING C:\Users\Kalle\AppData\Local\Temp\cc2hNkGN.s 			page 186


C:\Users\Kalle\AppData\Local\Temp\cc2hNkGN.s:20938  .debug_str:00000000000007a9 .LASF222
C:\Users\Kalle\AppData\Local\Temp\cc2hNkGN.s:18762  .debug_loc:000000000000161b .LLST116
C:\Users\Kalle\AppData\Local\Temp\cc2hNkGN.s:18780  .debug_loc:0000000000001647 .LLST117
C:\Users\Kalle\AppData\Local\Temp\cc2hNkGN.s:18810  .debug_loc:000000000000167f .LLST118
C:\Users\Kalle\AppData\Local\Temp\cc2hNkGN.s:2461   .text.LCD_Clear:0000000000000024 .LVL278
C:\Users\Kalle\AppData\Local\Temp\cc2hNkGN.s:2473   .text.LCD_Clear:0000000000000034 .LVL281
C:\Users\Kalle\AppData\Local\Temp\cc2hNkGN.s:20704  .debug_str:000000000000031c .LASF223
C:\Users\Kalle\AppData\Local\Temp\cc2hNkGN.s:1225   .text.Lcd_Init:0000000000000000 .LFB13
C:\Users\Kalle\AppData\Local\Temp\cc2hNkGN.s:2423   .text.Lcd_Init:000000000000083e .LFE13
C:\Users\Kalle\AppData\Local\Temp\cc2hNkGN.s:18836  .debug_loc:00000000000016b3 .LLST37
C:\Users\Kalle\AppData\Local\Temp\cc2hNkGN.s:1247   .text.Lcd_Init:0000000000000014 .LBB234
C:\Users\Kalle\AppData\Local\Temp\cc2hNkGN.s:1262   .text.Lcd_Init:000000000000001c .LBE234
C:\Users\Kalle\AppData\Local\Temp\cc2hNkGN.s:18859  .debug_loc:00000000000016eb .LLST38
C:\Users\Kalle\AppData\Local\Temp\cc2hNkGN.s:1307   .text.Lcd_Init:0000000000000096 .LBB236
C:\Users\Kalle\AppData\Local\Temp\cc2hNkGN.s:1319   .text.Lcd_Init:00000000000000ae .LBE236
C:\Users\Kalle\AppData\Local\Temp\cc2hNkGN.s:18867  .debug_loc:00000000000016ff .LLST39
C:\Users\Kalle\AppData\Local\Temp\cc2hNkGN.s:1313   .text.Lcd_Init:00000000000000a4 .LVL119
C:\Users\Kalle\AppData\Local\Temp\cc2hNkGN.s:1317   .text.Lcd_Init:00000000000000ae .LVL120
C:\Users\Kalle\AppData\Local\Temp\cc2hNkGN.s:1325   .text.Lcd_Init:00000000000000ba .LBB238
C:\Users\Kalle\AppData\Local\Temp\cc2hNkGN.s:1337   .text.Lcd_Init:00000000000000d2 .LBE238
C:\Users\Kalle\AppData\Local\Temp\cc2hNkGN.s:18875  .debug_loc:0000000000001713 .LLST40
C:\Users\Kalle\AppData\Local\Temp\cc2hNkGN.s:1331   .text.Lcd_Init:00000000000000c8 .LVL122
C:\Users\Kalle\AppData\Local\Temp\cc2hNkGN.s:1335   .text.Lcd_Init:00000000000000d2 .LVL123
C:\Users\Kalle\AppData\Local\Temp\cc2hNkGN.s:1348   .text.Lcd_Init:00000000000000e6 .LBB240
C:\Users\Kalle\AppData\Local\Temp\cc2hNkGN.s:1361   .text.Lcd_Init:0000000000000100 .LBE240
C:\Users\Kalle\AppData\Local\Temp\cc2hNkGN.s:18883  .debug_loc:0000000000001727 .LLST41
C:\Users\Kalle\AppData\Local\Temp\cc2hNkGN.s:1354   .text.Lcd_Init:00000000000000f4 .LVL126
C:\Users\Kalle\AppData\Local\Temp\cc2hNkGN.s:1358   .text.Lcd_Init:0000000000000100 .LVL127
C:\Users\Kalle\AppData\Local\Temp\cc2hNkGN.s:1363   .text.Lcd_Init:0000000000000100 .LBB242
C:\Users\Kalle\AppData\Local\Temp\cc2hNkGN.s:1375   .text.Lcd_Init:000000000000011a .LBE242
C:\Users\Kalle\AppData\Local\Temp\cc2hNkGN.s:18892  .debug_loc:000000000000173c .LLST42
C:\Users\Kalle\AppData\Local\Temp\cc2hNkGN.s:1369   .text.Lcd_Init:000000000000010e .LVL128
C:\Users\Kalle\AppData\Local\Temp\cc2hNkGN.s:1373   .text.Lcd_Init:000000000000011a .LVL129
C:\Users\Kalle\AppData\Local\Temp\cc2hNkGN.s:1377   .text.Lcd_Init:000000000000011a .LBB244
C:\Users\Kalle\AppData\Local\Temp\cc2hNkGN.s:1389   .text.Lcd_Init:0000000000000132 .LBE244
C:\Users\Kalle\AppData\Local\Temp\cc2hNkGN.s:18901  .debug_loc:0000000000001751 .LLST43
C:\Users\Kalle\AppData\Local\Temp\cc2hNkGN.s:1383   .text.Lcd_Init:0000000000000128 .LVL130
C:\Users\Kalle\AppData\Local\Temp\cc2hNkGN.s:1387   .text.Lcd_Init:0000000000000132 .LVL131
C:\Users\Kalle\AppData\Local\Temp\cc2hNkGN.s:1391   .text.Lcd_Init:0000000000000132 .LBB246
C:\Users\Kalle\AppData\Local\Temp\cc2hNkGN.s:1403   .text.Lcd_Init:000000000000014c .LBE246
C:\Users\Kalle\AppData\Local\Temp\cc2hNkGN.s:18909  .debug_loc:0000000000001765 .LLST44
C:\Users\Kalle\AppData\Local\Temp\cc2hNkGN.s:1397   .text.Lcd_Init:0000000000000140 .LVL132
C:\Users\Kalle\AppData\Local\Temp\cc2hNkGN.s:1401   .text.Lcd_Init:000000000000014c .LVL133
C:\Users\Kalle\AppData\Local\Temp\cc2hNkGN.s:1405   .text.Lcd_Init:000000000000014c .LBB248
C:\Users\Kalle\AppData\Local\Temp\cc2hNkGN.s:1417   .text.Lcd_Init:0000000000000166 .LBE248
C:\Users\Kalle\AppData\Local\Temp\cc2hNkGN.s:18918  .debug_loc:000000000000177a .LLST45
C:\Users\Kalle\AppData\Local\Temp\cc2hNkGN.s:1411   .text.Lcd_Init:000000000000015a .LVL134
C:\Users\Kalle\AppData\Local\Temp\cc2hNkGN.s:1415   .text.Lcd_Init:0000000000000166 .LVL135
C:\Users\Kalle\AppData\Local\Temp\cc2hNkGN.s:1419   .text.Lcd_Init:0000000000000166 .LBB250
C:\Users\Kalle\AppData\Local\Temp\cc2hNkGN.s:1431   .text.Lcd_Init:0000000000000180 .LBE250
C:\Users\Kalle\AppData\Local\Temp\cc2hNkGN.s:18927  .debug_loc:000000000000178f .LLST46
C:\Users\Kalle\AppData\Local\Temp\cc2hNkGN.s:1425   .text.Lcd_Init:0000000000000174 .LVL136
C:\Users\Kalle\AppData\Local\Temp\cc2hNkGN.s:1429   .text.Lcd_Init:0000000000000180 .LVL137
C:\Users\Kalle\AppData\Local\Temp\cc2hNkGN.s:1433   .text.Lcd_Init:0000000000000180 .LBB252
C:\Users\Kalle\AppData\Local\Temp\cc2hNkGN.s:1445   .text.Lcd_Init:0000000000000198 .LBE252
C:\Users\Kalle\AppData\Local\Temp\cc2hNkGN.s:18936  .debug_loc:00000000000017a4 .LLST47
C:\Users\Kalle\AppData\Local\Temp\cc2hNkGN.s:1439   .text.Lcd_Init:000000000000018e .LVL138
GAS LISTING C:\Users\Kalle\AppData\Local\Temp\cc2hNkGN.s 			page 187


C:\Users\Kalle\AppData\Local\Temp\cc2hNkGN.s:1443   .text.Lcd_Init:0000000000000198 .LVL139
C:\Users\Kalle\AppData\Local\Temp\cc2hNkGN.s:1447   .text.Lcd_Init:0000000000000198 .LBB254
C:\Users\Kalle\AppData\Local\Temp\cc2hNkGN.s:1459   .text.Lcd_Init:00000000000001b2 .LBE254
C:\Users\Kalle\AppData\Local\Temp\cc2hNkGN.s:18944  .debug_loc:00000000000017b8 .LLST48
C:\Users\Kalle\AppData\Local\Temp\cc2hNkGN.s:1453   .text.Lcd_Init:00000000000001a6 .LVL140
C:\Users\Kalle\AppData\Local\Temp\cc2hNkGN.s:1457   .text.Lcd_Init:00000000000001b2 .LVL141
C:\Users\Kalle\AppData\Local\Temp\cc2hNkGN.s:1461   .text.Lcd_Init:00000000000001b2 .LBB256
C:\Users\Kalle\AppData\Local\Temp\cc2hNkGN.s:1473   .text.Lcd_Init:00000000000001cc .LBE256
C:\Users\Kalle\AppData\Local\Temp\cc2hNkGN.s:18953  .debug_loc:00000000000017cd .LLST49
C:\Users\Kalle\AppData\Local\Temp\cc2hNkGN.s:1467   .text.Lcd_Init:00000000000001c0 .LVL142
C:\Users\Kalle\AppData\Local\Temp\cc2hNkGN.s:1471   .text.Lcd_Init:00000000000001cc .LVL143
C:\Users\Kalle\AppData\Local\Temp\cc2hNkGN.s:1475   .text.Lcd_Init:00000000000001cc .LBB258
C:\Users\Kalle\AppData\Local\Temp\cc2hNkGN.s:1487   .text.Lcd_Init:00000000000001e6 .LBE258
C:\Users\Kalle\AppData\Local\Temp\cc2hNkGN.s:18962  .debug_loc:00000000000017e2 .LLST50
C:\Users\Kalle\AppData\Local\Temp\cc2hNkGN.s:1481   .text.Lcd_Init:00000000000001da .LVL144
C:\Users\Kalle\AppData\Local\Temp\cc2hNkGN.s:1485   .text.Lcd_Init:00000000000001e6 .LVL145
C:\Users\Kalle\AppData\Local\Temp\cc2hNkGN.s:1489   .text.Lcd_Init:00000000000001e6 .LBB260
C:\Users\Kalle\AppData\Local\Temp\cc2hNkGN.s:1501   .text.Lcd_Init:00000000000001fe .LBE260
C:\Users\Kalle\AppData\Local\Temp\cc2hNkGN.s:18971  .debug_loc:00000000000017f7 .LLST51
C:\Users\Kalle\AppData\Local\Temp\cc2hNkGN.s:1495   .text.Lcd_Init:00000000000001f4 .LVL146
C:\Users\Kalle\AppData\Local\Temp\cc2hNkGN.s:1499   .text.Lcd_Init:00000000000001fe .LVL147
C:\Users\Kalle\AppData\Local\Temp\cc2hNkGN.s:1503   .text.Lcd_Init:00000000000001fe .LBB262
C:\Users\Kalle\AppData\Local\Temp\cc2hNkGN.s:1515   .text.Lcd_Init:0000000000000218 .LBE262
C:\Users\Kalle\AppData\Local\Temp\cc2hNkGN.s:18979  .debug_loc:000000000000180b .LLST52
C:\Users\Kalle\AppData\Local\Temp\cc2hNkGN.s:1509   .text.Lcd_Init:000000000000020c .LVL148
C:\Users\Kalle\AppData\Local\Temp\cc2hNkGN.s:1513   .text.Lcd_Init:0000000000000218 .LVL149
C:\Users\Kalle\AppData\Local\Temp\cc2hNkGN.s:1517   .text.Lcd_Init:0000000000000218 .LBB264
C:\Users\Kalle\AppData\Local\Temp\cc2hNkGN.s:1529   .text.Lcd_Init:0000000000000232 .LBE264
C:\Users\Kalle\AppData\Local\Temp\cc2hNkGN.s:18988  .debug_loc:0000000000001820 .LLST53
C:\Users\Kalle\AppData\Local\Temp\cc2hNkGN.s:1523   .text.Lcd_Init:0000000000000226 .LVL150
C:\Users\Kalle\AppData\Local\Temp\cc2hNkGN.s:1527   .text.Lcd_Init:0000000000000232 .LVL151
C:\Users\Kalle\AppData\Local\Temp\cc2hNkGN.s:1531   .text.Lcd_Init:0000000000000232 .LBB266
C:\Users\Kalle\AppData\Local\Temp\cc2hNkGN.s:1543   .text.Lcd_Init:000000000000024a .LBE266
C:\Users\Kalle\AppData\Local\Temp\cc2hNkGN.s:18997  .debug_loc:0000000000001835 .LLST54
C:\Users\Kalle\AppData\Local\Temp\cc2hNkGN.s:1537   .text.Lcd_Init:0000000000000240 .LVL152
C:\Users\Kalle\AppData\Local\Temp\cc2hNkGN.s:1541   .text.Lcd_Init:000000000000024a .LVL153
C:\Users\Kalle\AppData\Local\Temp\cc2hNkGN.s:1545   .text.Lcd_Init:000000000000024a .LBB268
C:\Users\Kalle\AppData\Local\Temp\cc2hNkGN.s:1557   .text.Lcd_Init:0000000000000264 .LBE268
C:\Users\Kalle\AppData\Local\Temp\cc2hNkGN.s:19005  .debug_loc:0000000000001849 .LLST55
C:\Users\Kalle\AppData\Local\Temp\cc2hNkGN.s:1551   .text.Lcd_Init:0000000000000258 .LVL154
C:\Users\Kalle\AppData\Local\Temp\cc2hNkGN.s:1555   .text.Lcd_Init:0000000000000264 .LVL155
C:\Users\Kalle\AppData\Local\Temp\cc2hNkGN.s:1559   .text.Lcd_Init:0000000000000264 .LBB270
C:\Users\Kalle\AppData\Local\Temp\cc2hNkGN.s:1571   .text.Lcd_Init:000000000000027e .LBE270
C:\Users\Kalle\AppData\Local\Temp\cc2hNkGN.s:19014  .debug_loc:000000000000185e .LLST56
C:\Users\Kalle\AppData\Local\Temp\cc2hNkGN.s:1565   .text.Lcd_Init:0000000000000272 .LVL156
C:\Users\Kalle\AppData\Local\Temp\cc2hNkGN.s:1569   .text.Lcd_Init:000000000000027e .LVL157
C:\Users\Kalle\AppData\Local\Temp\cc2hNkGN.s:1573   .text.Lcd_Init:000000000000027e .LBB272
C:\Users\Kalle\AppData\Local\Temp\cc2hNkGN.s:1585   .text.Lcd_Init:0000000000000298 .LBE272
C:\Users\Kalle\AppData\Local\Temp\cc2hNkGN.s:19023  .debug_loc:0000000000001873 .LLST57
C:\Users\Kalle\AppData\Local\Temp\cc2hNkGN.s:1579   .text.Lcd_Init:000000000000028c .LVL158
C:\Users\Kalle\AppData\Local\Temp\cc2hNkGN.s:1583   .text.Lcd_Init:0000000000000298 .LVL159
C:\Users\Kalle\AppData\Local\Temp\cc2hNkGN.s:1587   .text.Lcd_Init:0000000000000298 .LBB274
C:\Users\Kalle\AppData\Local\Temp\cc2hNkGN.s:1599   .text.Lcd_Init:00000000000002b0 .LBE274
C:\Users\Kalle\AppData\Local\Temp\cc2hNkGN.s:19032  .debug_loc:0000000000001888 .LLST58
C:\Users\Kalle\AppData\Local\Temp\cc2hNkGN.s:1593   .text.Lcd_Init:00000000000002a6 .LVL160
C:\Users\Kalle\AppData\Local\Temp\cc2hNkGN.s:1597   .text.Lcd_Init:00000000000002b0 .LVL161
C:\Users\Kalle\AppData\Local\Temp\cc2hNkGN.s:1601   .text.Lcd_Init:00000000000002b0 .LBB276
GAS LISTING C:\Users\Kalle\AppData\Local\Temp\cc2hNkGN.s 			page 188


C:\Users\Kalle\AppData\Local\Temp\cc2hNkGN.s:1613   .text.Lcd_Init:00000000000002ca .LBE276
C:\Users\Kalle\AppData\Local\Temp\cc2hNkGN.s:19040  .debug_loc:000000000000189c .LLST59
C:\Users\Kalle\AppData\Local\Temp\cc2hNkGN.s:1607   .text.Lcd_Init:00000000000002be .LVL162
C:\Users\Kalle\AppData\Local\Temp\cc2hNkGN.s:1611   .text.Lcd_Init:00000000000002ca .LVL163
C:\Users\Kalle\AppData\Local\Temp\cc2hNkGN.s:1615   .text.Lcd_Init:00000000000002ca .LBB278
C:\Users\Kalle\AppData\Local\Temp\cc2hNkGN.s:1627   .text.Lcd_Init:00000000000002e4 .LBE278
C:\Users\Kalle\AppData\Local\Temp\cc2hNkGN.s:19049  .debug_loc:00000000000018b1 .LLST60
C:\Users\Kalle\AppData\Local\Temp\cc2hNkGN.s:1621   .text.Lcd_Init:00000000000002d8 .LVL164
C:\Users\Kalle\AppData\Local\Temp\cc2hNkGN.s:1625   .text.Lcd_Init:00000000000002e4 .LVL165
C:\Users\Kalle\AppData\Local\Temp\cc2hNkGN.s:1629   .text.Lcd_Init:00000000000002e4 .LBB280
C:\Users\Kalle\AppData\Local\Temp\cc2hNkGN.s:1641   .text.Lcd_Init:00000000000002fc .LBE280
C:\Users\Kalle\AppData\Local\Temp\cc2hNkGN.s:19058  .debug_loc:00000000000018c6 .LLST61
C:\Users\Kalle\AppData\Local\Temp\cc2hNkGN.s:1635   .text.Lcd_Init:00000000000002f2 .LVL166
C:\Users\Kalle\AppData\Local\Temp\cc2hNkGN.s:1639   .text.Lcd_Init:00000000000002fc .LVL167
C:\Users\Kalle\AppData\Local\Temp\cc2hNkGN.s:1643   .text.Lcd_Init:00000000000002fc .LBB282
C:\Users\Kalle\AppData\Local\Temp\cc2hNkGN.s:1655   .text.Lcd_Init:0000000000000314 .LBE282
C:\Users\Kalle\AppData\Local\Temp\cc2hNkGN.s:19066  .debug_loc:00000000000018da .LLST62
C:\Users\Kalle\AppData\Local\Temp\cc2hNkGN.s:1649   .text.Lcd_Init:000000000000030a .LVL168
C:\Users\Kalle\AppData\Local\Temp\cc2hNkGN.s:1653   .text.Lcd_Init:0000000000000314 .LVL169
C:\Users\Kalle\AppData\Local\Temp\cc2hNkGN.s:1657   .text.Lcd_Init:0000000000000314 .LBB284
C:\Users\Kalle\AppData\Local\Temp\cc2hNkGN.s:1669   .text.Lcd_Init:000000000000032e .LBE284
C:\Users\Kalle\AppData\Local\Temp\cc2hNkGN.s:19074  .debug_loc:00000000000018ee .LLST63
C:\Users\Kalle\AppData\Local\Temp\cc2hNkGN.s:1663   .text.Lcd_Init:0000000000000322 .LVL170
C:\Users\Kalle\AppData\Local\Temp\cc2hNkGN.s:1667   .text.Lcd_Init:000000000000032e .LVL171
C:\Users\Kalle\AppData\Local\Temp\cc2hNkGN.s:1671   .text.Lcd_Init:000000000000032e .LBB286
C:\Users\Kalle\AppData\Local\Temp\cc2hNkGN.s:1683   .text.Lcd_Init:0000000000000348 .LBE286
C:\Users\Kalle\AppData\Local\Temp\cc2hNkGN.s:19083  .debug_loc:0000000000001903 .LLST64
C:\Users\Kalle\AppData\Local\Temp\cc2hNkGN.s:1677   .text.Lcd_Init:000000000000033c .LVL172
C:\Users\Kalle\AppData\Local\Temp\cc2hNkGN.s:1681   .text.Lcd_Init:0000000000000348 .LVL173
C:\Users\Kalle\AppData\Local\Temp\cc2hNkGN.s:1685   .text.Lcd_Init:0000000000000348 .LBB288
C:\Users\Kalle\AppData\Local\Temp\cc2hNkGN.s:1697   .text.Lcd_Init:0000000000000362 .LBE288
C:\Users\Kalle\AppData\Local\Temp\cc2hNkGN.s:19092  .debug_loc:0000000000001918 .LLST65
C:\Users\Kalle\AppData\Local\Temp\cc2hNkGN.s:1691   .text.Lcd_Init:0000000000000356 .LVL174
C:\Users\Kalle\AppData\Local\Temp\cc2hNkGN.s:1695   .text.Lcd_Init:0000000000000362 .LVL175
C:\Users\Kalle\AppData\Local\Temp\cc2hNkGN.s:1699   .text.Lcd_Init:0000000000000362 .LBB290
C:\Users\Kalle\AppData\Local\Temp\cc2hNkGN.s:1711   .text.Lcd_Init:000000000000037a .LBE290
C:\Users\Kalle\AppData\Local\Temp\cc2hNkGN.s:19101  .debug_loc:000000000000192d .LLST66
C:\Users\Kalle\AppData\Local\Temp\cc2hNkGN.s:1705   .text.Lcd_Init:0000000000000370 .LVL176
C:\Users\Kalle\AppData\Local\Temp\cc2hNkGN.s:1709   .text.Lcd_Init:000000000000037a .LVL177
C:\Users\Kalle\AppData\Local\Temp\cc2hNkGN.s:1713   .text.Lcd_Init:000000000000037a .LBB292
C:\Users\Kalle\AppData\Local\Temp\cc2hNkGN.s:1725   .text.Lcd_Init:0000000000000392 .LBE292
C:\Users\Kalle\AppData\Local\Temp\cc2hNkGN.s:19109  .debug_loc:0000000000001941 .LLST67
C:\Users\Kalle\AppData\Local\Temp\cc2hNkGN.s:1719   .text.Lcd_Init:0000000000000388 .LVL178
C:\Users\Kalle\AppData\Local\Temp\cc2hNkGN.s:1723   .text.Lcd_Init:0000000000000392 .LVL179
C:\Users\Kalle\AppData\Local\Temp\cc2hNkGN.s:1727   .text.Lcd_Init:0000000000000392 .LBB294
C:\Users\Kalle\AppData\Local\Temp\cc2hNkGN.s:1739   .text.Lcd_Init:00000000000003ac .LBE294
C:\Users\Kalle\AppData\Local\Temp\cc2hNkGN.s:19117  .debug_loc:0000000000001955 .LLST68
C:\Users\Kalle\AppData\Local\Temp\cc2hNkGN.s:1733   .text.Lcd_Init:00000000000003a0 .LVL180
C:\Users\Kalle\AppData\Local\Temp\cc2hNkGN.s:1737   .text.Lcd_Init:00000000000003ac .LVL181
C:\Users\Kalle\AppData\Local\Temp\cc2hNkGN.s:1741   .text.Lcd_Init:00000000000003ac .LBB296
C:\Users\Kalle\AppData\Local\Temp\cc2hNkGN.s:1753   .text.Lcd_Init:00000000000003c6 .LBE296
C:\Users\Kalle\AppData\Local\Temp\cc2hNkGN.s:19126  .debug_loc:000000000000196a .LLST69
C:\Users\Kalle\AppData\Local\Temp\cc2hNkGN.s:1747   .text.Lcd_Init:00000000000003ba .LVL182
C:\Users\Kalle\AppData\Local\Temp\cc2hNkGN.s:1751   .text.Lcd_Init:00000000000003c6 .LVL183
C:\Users\Kalle\AppData\Local\Temp\cc2hNkGN.s:1755   .text.Lcd_Init:00000000000003c6 .LBB298
C:\Users\Kalle\AppData\Local\Temp\cc2hNkGN.s:1767   .text.Lcd_Init:00000000000003e0 .LBE298
C:\Users\Kalle\AppData\Local\Temp\cc2hNkGN.s:19135  .debug_loc:000000000000197f .LLST70
GAS LISTING C:\Users\Kalle\AppData\Local\Temp\cc2hNkGN.s 			page 189


C:\Users\Kalle\AppData\Local\Temp\cc2hNkGN.s:1761   .text.Lcd_Init:00000000000003d4 .LVL184
C:\Users\Kalle\AppData\Local\Temp\cc2hNkGN.s:1765   .text.Lcd_Init:00000000000003e0 .LVL185
C:\Users\Kalle\AppData\Local\Temp\cc2hNkGN.s:1769   .text.Lcd_Init:00000000000003e0 .LBB300
C:\Users\Kalle\AppData\Local\Temp\cc2hNkGN.s:1781   .text.Lcd_Init:00000000000003fa .LBE300
C:\Users\Kalle\AppData\Local\Temp\cc2hNkGN.s:19144  .debug_loc:0000000000001994 .LLST71
C:\Users\Kalle\AppData\Local\Temp\cc2hNkGN.s:1775   .text.Lcd_Init:00000000000003ee .LVL186
C:\Users\Kalle\AppData\Local\Temp\cc2hNkGN.s:1779   .text.Lcd_Init:00000000000003fa .LVL187
C:\Users\Kalle\AppData\Local\Temp\cc2hNkGN.s:1783   .text.Lcd_Init:00000000000003fa .LBB302
C:\Users\Kalle\AppData\Local\Temp\cc2hNkGN.s:1795   .text.Lcd_Init:0000000000000414 .LBE302
C:\Users\Kalle\AppData\Local\Temp\cc2hNkGN.s:19153  .debug_loc:00000000000019a9 .LLST72
C:\Users\Kalle\AppData\Local\Temp\cc2hNkGN.s:1789   .text.Lcd_Init:0000000000000408 .LVL188
C:\Users\Kalle\AppData\Local\Temp\cc2hNkGN.s:1793   .text.Lcd_Init:0000000000000414 .LVL189
C:\Users\Kalle\AppData\Local\Temp\cc2hNkGN.s:1797   .text.Lcd_Init:0000000000000414 .LBB304
C:\Users\Kalle\AppData\Local\Temp\cc2hNkGN.s:1809   .text.Lcd_Init:000000000000042e .LBE304
C:\Users\Kalle\AppData\Local\Temp\cc2hNkGN.s:19162  .debug_loc:00000000000019be .LLST73
C:\Users\Kalle\AppData\Local\Temp\cc2hNkGN.s:1803   .text.Lcd_Init:0000000000000422 .LVL190
C:\Users\Kalle\AppData\Local\Temp\cc2hNkGN.s:1807   .text.Lcd_Init:000000000000042e .LVL191
C:\Users\Kalle\AppData\Local\Temp\cc2hNkGN.s:1811   .text.Lcd_Init:000000000000042e .LBB306
C:\Users\Kalle\AppData\Local\Temp\cc2hNkGN.s:1823   .text.Lcd_Init:0000000000000448 .LBE306
C:\Users\Kalle\AppData\Local\Temp\cc2hNkGN.s:19171  .debug_loc:00000000000019d3 .LLST74
C:\Users\Kalle\AppData\Local\Temp\cc2hNkGN.s:1817   .text.Lcd_Init:000000000000043c .LVL192
C:\Users\Kalle\AppData\Local\Temp\cc2hNkGN.s:1821   .text.Lcd_Init:0000000000000448 .LVL193
C:\Users\Kalle\AppData\Local\Temp\cc2hNkGN.s:1825   .text.Lcd_Init:0000000000000448 .LBB308
C:\Users\Kalle\AppData\Local\Temp\cc2hNkGN.s:1837   .text.Lcd_Init:0000000000000460 .LBE308
C:\Users\Kalle\AppData\Local\Temp\cc2hNkGN.s:19180  .debug_loc:00000000000019e8 .LLST75
C:\Users\Kalle\AppData\Local\Temp\cc2hNkGN.s:1831   .text.Lcd_Init:0000000000000456 .LVL194
C:\Users\Kalle\AppData\Local\Temp\cc2hNkGN.s:1835   .text.Lcd_Init:0000000000000460 .LVL195
C:\Users\Kalle\AppData\Local\Temp\cc2hNkGN.s:1839   .text.Lcd_Init:0000000000000460 .LBB310
C:\Users\Kalle\AppData\Local\Temp\cc2hNkGN.s:1851   .text.Lcd_Init:000000000000047a .LBE310
C:\Users\Kalle\AppData\Local\Temp\cc2hNkGN.s:19188  .debug_loc:00000000000019fc .LLST76
C:\Users\Kalle\AppData\Local\Temp\cc2hNkGN.s:1845   .text.Lcd_Init:000000000000046e .LVL196
C:\Users\Kalle\AppData\Local\Temp\cc2hNkGN.s:1849   .text.Lcd_Init:000000000000047a .LVL197
C:\Users\Kalle\AppData\Local\Temp\cc2hNkGN.s:1853   .text.Lcd_Init:000000000000047a .LBB312
C:\Users\Kalle\AppData\Local\Temp\cc2hNkGN.s:1865   .text.Lcd_Init:0000000000000492 .LBE312
C:\Users\Kalle\AppData\Local\Temp\cc2hNkGN.s:19197  .debug_loc:0000000000001a11 .LLST77
C:\Users\Kalle\AppData\Local\Temp\cc2hNkGN.s:1859   .text.Lcd_Init:0000000000000488 .LVL198
C:\Users\Kalle\AppData\Local\Temp\cc2hNkGN.s:1863   .text.Lcd_Init:0000000000000492 .LVL199
C:\Users\Kalle\AppData\Local\Temp\cc2hNkGN.s:1867   .text.Lcd_Init:0000000000000492 .LBB314
C:\Users\Kalle\AppData\Local\Temp\cc2hNkGN.s:1879   .text.Lcd_Init:00000000000004aa .LBE314
C:\Users\Kalle\AppData\Local\Temp\cc2hNkGN.s:19205  .debug_loc:0000000000001a25 .LLST78
C:\Users\Kalle\AppData\Local\Temp\cc2hNkGN.s:1873   .text.Lcd_Init:00000000000004a0 .LVL200
C:\Users\Kalle\AppData\Local\Temp\cc2hNkGN.s:1877   .text.Lcd_Init:00000000000004aa .LVL201
C:\Users\Kalle\AppData\Local\Temp\cc2hNkGN.s:1881   .text.Lcd_Init:00000000000004aa .LBB316
C:\Users\Kalle\AppData\Local\Temp\cc2hNkGN.s:1893   .text.Lcd_Init:00000000000004c2 .LBE316
C:\Users\Kalle\AppData\Local\Temp\cc2hNkGN.s:19213  .debug_loc:0000000000001a39 .LLST79
C:\Users\Kalle\AppData\Local\Temp\cc2hNkGN.s:1887   .text.Lcd_Init:00000000000004b8 .LVL202
C:\Users\Kalle\AppData\Local\Temp\cc2hNkGN.s:1891   .text.Lcd_Init:00000000000004c2 .LVL203
C:\Users\Kalle\AppData\Local\Temp\cc2hNkGN.s:1895   .text.Lcd_Init:00000000000004c2 .LBB318
C:\Users\Kalle\AppData\Local\Temp\cc2hNkGN.s:1907   .text.Lcd_Init:00000000000004da .LBE318
C:\Users\Kalle\AppData\Local\Temp\cc2hNkGN.s:19221  .debug_loc:0000000000001a4d .LLST80
C:\Users\Kalle\AppData\Local\Temp\cc2hNkGN.s:1901   .text.Lcd_Init:00000000000004d0 .LVL204
C:\Users\Kalle\AppData\Local\Temp\cc2hNkGN.s:1905   .text.Lcd_Init:00000000000004da .LVL205
C:\Users\Kalle\AppData\Local\Temp\cc2hNkGN.s:1909   .text.Lcd_Init:00000000000004da .LBB320
C:\Users\Kalle\AppData\Local\Temp\cc2hNkGN.s:1921   .text.Lcd_Init:00000000000004f2 .LBE320
C:\Users\Kalle\AppData\Local\Temp\cc2hNkGN.s:19229  .debug_loc:0000000000001a61 .LLST81
C:\Users\Kalle\AppData\Local\Temp\cc2hNkGN.s:1915   .text.Lcd_Init:00000000000004e8 .LVL206
C:\Users\Kalle\AppData\Local\Temp\cc2hNkGN.s:1919   .text.Lcd_Init:00000000000004f2 .LVL207
GAS LISTING C:\Users\Kalle\AppData\Local\Temp\cc2hNkGN.s 			page 190


C:\Users\Kalle\AppData\Local\Temp\cc2hNkGN.s:1923   .text.Lcd_Init:00000000000004f2 .LBB322
C:\Users\Kalle\AppData\Local\Temp\cc2hNkGN.s:1935   .text.Lcd_Init:000000000000050a .LBE322
C:\Users\Kalle\AppData\Local\Temp\cc2hNkGN.s:19237  .debug_loc:0000000000001a75 .LLST82
C:\Users\Kalle\AppData\Local\Temp\cc2hNkGN.s:1929   .text.Lcd_Init:0000000000000500 .LVL208
C:\Users\Kalle\AppData\Local\Temp\cc2hNkGN.s:1933   .text.Lcd_Init:000000000000050a .LVL209
C:\Users\Kalle\AppData\Local\Temp\cc2hNkGN.s:1937   .text.Lcd_Init:000000000000050a .LBB324
C:\Users\Kalle\AppData\Local\Temp\cc2hNkGN.s:1949   .text.Lcd_Init:0000000000000522 .LBE324
C:\Users\Kalle\AppData\Local\Temp\cc2hNkGN.s:19245  .debug_loc:0000000000001a89 .LLST83
C:\Users\Kalle\AppData\Local\Temp\cc2hNkGN.s:1943   .text.Lcd_Init:0000000000000518 .LVL210
C:\Users\Kalle\AppData\Local\Temp\cc2hNkGN.s:1947   .text.Lcd_Init:0000000000000522 .LVL211
C:\Users\Kalle\AppData\Local\Temp\cc2hNkGN.s:1951   .text.Lcd_Init:0000000000000522 .LBB326
C:\Users\Kalle\AppData\Local\Temp\cc2hNkGN.s:1963   .text.Lcd_Init:000000000000053a .LBE326
C:\Users\Kalle\AppData\Local\Temp\cc2hNkGN.s:19253  .debug_loc:0000000000001a9d .LLST84
C:\Users\Kalle\AppData\Local\Temp\cc2hNkGN.s:1957   .text.Lcd_Init:0000000000000530 .LVL212
C:\Users\Kalle\AppData\Local\Temp\cc2hNkGN.s:1961   .text.Lcd_Init:000000000000053a .LVL213
C:\Users\Kalle\AppData\Local\Temp\cc2hNkGN.s:1965   .text.Lcd_Init:000000000000053a .LBB328
C:\Users\Kalle\AppData\Local\Temp\cc2hNkGN.s:1977   .text.Lcd_Init:0000000000000552 .LBE328
C:\Users\Kalle\AppData\Local\Temp\cc2hNkGN.s:19261  .debug_loc:0000000000001ab1 .LLST85
C:\Users\Kalle\AppData\Local\Temp\cc2hNkGN.s:1971   .text.Lcd_Init:0000000000000548 .LVL214
C:\Users\Kalle\AppData\Local\Temp\cc2hNkGN.s:1975   .text.Lcd_Init:0000000000000552 .LVL215
C:\Users\Kalle\AppData\Local\Temp\cc2hNkGN.s:1979   .text.Lcd_Init:0000000000000552 .LBB330
C:\Users\Kalle\AppData\Local\Temp\cc2hNkGN.s:1991   .text.Lcd_Init:000000000000056a .LBE330
C:\Users\Kalle\AppData\Local\Temp\cc2hNkGN.s:19269  .debug_loc:0000000000001ac5 .LLST86
C:\Users\Kalle\AppData\Local\Temp\cc2hNkGN.s:1985   .text.Lcd_Init:0000000000000560 .LVL216
C:\Users\Kalle\AppData\Local\Temp\cc2hNkGN.s:1989   .text.Lcd_Init:000000000000056a .LVL217
C:\Users\Kalle\AppData\Local\Temp\cc2hNkGN.s:1993   .text.Lcd_Init:000000000000056a .LBB332
C:\Users\Kalle\AppData\Local\Temp\cc2hNkGN.s:2005   .text.Lcd_Init:0000000000000584 .LBE332
C:\Users\Kalle\AppData\Local\Temp\cc2hNkGN.s:19277  .debug_loc:0000000000001ad9 .LLST87
C:\Users\Kalle\AppData\Local\Temp\cc2hNkGN.s:1999   .text.Lcd_Init:0000000000000578 .LVL218
C:\Users\Kalle\AppData\Local\Temp\cc2hNkGN.s:2003   .text.Lcd_Init:0000000000000584 .LVL219
C:\Users\Kalle\AppData\Local\Temp\cc2hNkGN.s:2007   .text.Lcd_Init:0000000000000584 .LBB334
C:\Users\Kalle\AppData\Local\Temp\cc2hNkGN.s:2019   .text.Lcd_Init:000000000000059e .LBE334
C:\Users\Kalle\AppData\Local\Temp\cc2hNkGN.s:19286  .debug_loc:0000000000001aee .LLST88
C:\Users\Kalle\AppData\Local\Temp\cc2hNkGN.s:2013   .text.Lcd_Init:0000000000000592 .LVL220
C:\Users\Kalle\AppData\Local\Temp\cc2hNkGN.s:2017   .text.Lcd_Init:000000000000059e .LVL221
C:\Users\Kalle\AppData\Local\Temp\cc2hNkGN.s:2021   .text.Lcd_Init:000000000000059e .LBB336
C:\Users\Kalle\AppData\Local\Temp\cc2hNkGN.s:2033   .text.Lcd_Init:00000000000005b6 .LBE336
C:\Users\Kalle\AppData\Local\Temp\cc2hNkGN.s:19295  .debug_loc:0000000000001b03 .LLST89
C:\Users\Kalle\AppData\Local\Temp\cc2hNkGN.s:2027   .text.Lcd_Init:00000000000005ac .LVL222
C:\Users\Kalle\AppData\Local\Temp\cc2hNkGN.s:2031   .text.Lcd_Init:00000000000005b6 .LVL223
C:\Users\Kalle\AppData\Local\Temp\cc2hNkGN.s:2035   .text.Lcd_Init:00000000000005b6 .LBB338
C:\Users\Kalle\AppData\Local\Temp\cc2hNkGN.s:2047   .text.Lcd_Init:00000000000005ce .LBE338
C:\Users\Kalle\AppData\Local\Temp\cc2hNkGN.s:19303  .debug_loc:0000000000001b17 .LLST90
C:\Users\Kalle\AppData\Local\Temp\cc2hNkGN.s:2041   .text.Lcd_Init:00000000000005c4 .LVL224
C:\Users\Kalle\AppData\Local\Temp\cc2hNkGN.s:2045   .text.Lcd_Init:00000000000005ce .LVL225
C:\Users\Kalle\AppData\Local\Temp\cc2hNkGN.s:2049   .text.Lcd_Init:00000000000005ce .LBB340
C:\Users\Kalle\AppData\Local\Temp\cc2hNkGN.s:2061   .text.Lcd_Init:00000000000005e6 .LBE340
C:\Users\Kalle\AppData\Local\Temp\cc2hNkGN.s:19311  .debug_loc:0000000000001b2b .LLST91
C:\Users\Kalle\AppData\Local\Temp\cc2hNkGN.s:2055   .text.Lcd_Init:00000000000005dc .LVL226
C:\Users\Kalle\AppData\Local\Temp\cc2hNkGN.s:2059   .text.Lcd_Init:00000000000005e6 .LVL227
C:\Users\Kalle\AppData\Local\Temp\cc2hNkGN.s:2063   .text.Lcd_Init:00000000000005e6 .LBB342
C:\Users\Kalle\AppData\Local\Temp\cc2hNkGN.s:2075   .text.Lcd_Init:00000000000005fe .LBE342
C:\Users\Kalle\AppData\Local\Temp\cc2hNkGN.s:19319  .debug_loc:0000000000001b3f .LLST92
C:\Users\Kalle\AppData\Local\Temp\cc2hNkGN.s:2069   .text.Lcd_Init:00000000000005f4 .LVL228
C:\Users\Kalle\AppData\Local\Temp\cc2hNkGN.s:2073   .text.Lcd_Init:00000000000005fe .LVL229
C:\Users\Kalle\AppData\Local\Temp\cc2hNkGN.s:2077   .text.Lcd_Init:00000000000005fe .LBB344
C:\Users\Kalle\AppData\Local\Temp\cc2hNkGN.s:2089   .text.Lcd_Init:0000000000000618 .LBE344
GAS LISTING C:\Users\Kalle\AppData\Local\Temp\cc2hNkGN.s 			page 191


C:\Users\Kalle\AppData\Local\Temp\cc2hNkGN.s:19327  .debug_loc:0000000000001b53 .LLST93
C:\Users\Kalle\AppData\Local\Temp\cc2hNkGN.s:2083   .text.Lcd_Init:000000000000060c .LVL230
C:\Users\Kalle\AppData\Local\Temp\cc2hNkGN.s:2087   .text.Lcd_Init:0000000000000618 .LVL231
C:\Users\Kalle\AppData\Local\Temp\cc2hNkGN.s:2091   .text.Lcd_Init:0000000000000618 .LBB346
C:\Users\Kalle\AppData\Local\Temp\cc2hNkGN.s:2103   .text.Lcd_Init:0000000000000630 .LBE346
C:\Users\Kalle\AppData\Local\Temp\cc2hNkGN.s:19336  .debug_loc:0000000000001b68 .LLST94
C:\Users\Kalle\AppData\Local\Temp\cc2hNkGN.s:2097   .text.Lcd_Init:0000000000000626 .LVL232
C:\Users\Kalle\AppData\Local\Temp\cc2hNkGN.s:2101   .text.Lcd_Init:0000000000000630 .LVL233
C:\Users\Kalle\AppData\Local\Temp\cc2hNkGN.s:2105   .text.Lcd_Init:0000000000000630 .LBB348
C:\Users\Kalle\AppData\Local\Temp\cc2hNkGN.s:2117   .text.Lcd_Init:0000000000000648 .LBE348
C:\Users\Kalle\AppData\Local\Temp\cc2hNkGN.s:19344  .debug_loc:0000000000001b7c .LLST95
C:\Users\Kalle\AppData\Local\Temp\cc2hNkGN.s:2111   .text.Lcd_Init:000000000000063e .LVL234
C:\Users\Kalle\AppData\Local\Temp\cc2hNkGN.s:2115   .text.Lcd_Init:0000000000000648 .LVL235
C:\Users\Kalle\AppData\Local\Temp\cc2hNkGN.s:2119   .text.Lcd_Init:0000000000000648 .LBB350
C:\Users\Kalle\AppData\Local\Temp\cc2hNkGN.s:2131   .text.Lcd_Init:0000000000000660 .LBE350
C:\Users\Kalle\AppData\Local\Temp\cc2hNkGN.s:19352  .debug_loc:0000000000001b90 .LLST96
C:\Users\Kalle\AppData\Local\Temp\cc2hNkGN.s:2125   .text.Lcd_Init:0000000000000656 .LVL236
C:\Users\Kalle\AppData\Local\Temp\cc2hNkGN.s:2129   .text.Lcd_Init:0000000000000660 .LVL237
C:\Users\Kalle\AppData\Local\Temp\cc2hNkGN.s:2133   .text.Lcd_Init:0000000000000660 .LBB352
C:\Users\Kalle\AppData\Local\Temp\cc2hNkGN.s:2145   .text.Lcd_Init:0000000000000678 .LBE352
C:\Users\Kalle\AppData\Local\Temp\cc2hNkGN.s:19360  .debug_loc:0000000000001ba4 .LLST97
C:\Users\Kalle\AppData\Local\Temp\cc2hNkGN.s:2139   .text.Lcd_Init:000000000000066e .LVL238
C:\Users\Kalle\AppData\Local\Temp\cc2hNkGN.s:2143   .text.Lcd_Init:0000000000000678 .LVL239
C:\Users\Kalle\AppData\Local\Temp\cc2hNkGN.s:2147   .text.Lcd_Init:0000000000000678 .LBB354
C:\Users\Kalle\AppData\Local\Temp\cc2hNkGN.s:2159   .text.Lcd_Init:0000000000000690 .LBE354
C:\Users\Kalle\AppData\Local\Temp\cc2hNkGN.s:19368  .debug_loc:0000000000001bb8 .LLST98
C:\Users\Kalle\AppData\Local\Temp\cc2hNkGN.s:2153   .text.Lcd_Init:0000000000000686 .LVL240
C:\Users\Kalle\AppData\Local\Temp\cc2hNkGN.s:2157   .text.Lcd_Init:0000000000000690 .LVL241
C:\Users\Kalle\AppData\Local\Temp\cc2hNkGN.s:2161   .text.Lcd_Init:0000000000000690 .LBB356
C:\Users\Kalle\AppData\Local\Temp\cc2hNkGN.s:2173   .text.Lcd_Init:00000000000006a8 .LBE356
C:\Users\Kalle\AppData\Local\Temp\cc2hNkGN.s:19376  .debug_loc:0000000000001bcc .LLST99
C:\Users\Kalle\AppData\Local\Temp\cc2hNkGN.s:2167   .text.Lcd_Init:000000000000069e .LVL242
C:\Users\Kalle\AppData\Local\Temp\cc2hNkGN.s:2171   .text.Lcd_Init:00000000000006a8 .LVL243
C:\Users\Kalle\AppData\Local\Temp\cc2hNkGN.s:2175   .text.Lcd_Init:00000000000006a8 .LBB358
C:\Users\Kalle\AppData\Local\Temp\cc2hNkGN.s:2187   .text.Lcd_Init:00000000000006c0 .LBE358
C:\Users\Kalle\AppData\Local\Temp\cc2hNkGN.s:19384  .debug_loc:0000000000001be0 .LLST100
C:\Users\Kalle\AppData\Local\Temp\cc2hNkGN.s:2181   .text.Lcd_Init:00000000000006b6 .LVL244
C:\Users\Kalle\AppData\Local\Temp\cc2hNkGN.s:2185   .text.Lcd_Init:00000000000006c0 .LVL245
C:\Users\Kalle\AppData\Local\Temp\cc2hNkGN.s:2189   .text.Lcd_Init:00000000000006c0 .LBB360
C:\Users\Kalle\AppData\Local\Temp\cc2hNkGN.s:2201   .text.Lcd_Init:00000000000006d8 .LBE360
C:\Users\Kalle\AppData\Local\Temp\cc2hNkGN.s:19392  .debug_loc:0000000000001bf4 .LLST101
C:\Users\Kalle\AppData\Local\Temp\cc2hNkGN.s:2195   .text.Lcd_Init:00000000000006ce .LVL246
C:\Users\Kalle\AppData\Local\Temp\cc2hNkGN.s:2199   .text.Lcd_Init:00000000000006d8 .LVL247
C:\Users\Kalle\AppData\Local\Temp\cc2hNkGN.s:2203   .text.Lcd_Init:00000000000006d8 .LBB362
C:\Users\Kalle\AppData\Local\Temp\cc2hNkGN.s:2215   .text.Lcd_Init:00000000000006f0 .LBE362
C:\Users\Kalle\AppData\Local\Temp\cc2hNkGN.s:19400  .debug_loc:0000000000001c08 .LLST102
C:\Users\Kalle\AppData\Local\Temp\cc2hNkGN.s:2209   .text.Lcd_Init:00000000000006e6 .LVL248
C:\Users\Kalle\AppData\Local\Temp\cc2hNkGN.s:2213   .text.Lcd_Init:00000000000006f0 .LVL249
C:\Users\Kalle\AppData\Local\Temp\cc2hNkGN.s:2217   .text.Lcd_Init:00000000000006f0 .LBB364
C:\Users\Kalle\AppData\Local\Temp\cc2hNkGN.s:2229   .text.Lcd_Init:0000000000000708 .LBE364
C:\Users\Kalle\AppData\Local\Temp\cc2hNkGN.s:19408  .debug_loc:0000000000001c1c .LLST103
C:\Users\Kalle\AppData\Local\Temp\cc2hNkGN.s:2223   .text.Lcd_Init:00000000000006fe .LVL250
C:\Users\Kalle\AppData\Local\Temp\cc2hNkGN.s:2227   .text.Lcd_Init:0000000000000708 .LVL251
C:\Users\Kalle\AppData\Local\Temp\cc2hNkGN.s:2231   .text.Lcd_Init:0000000000000708 .LBB366
C:\Users\Kalle\AppData\Local\Temp\cc2hNkGN.s:2243   .text.Lcd_Init:0000000000000722 .LBE366
C:\Users\Kalle\AppData\Local\Temp\cc2hNkGN.s:19416  .debug_loc:0000000000001c30 .LLST104
C:\Users\Kalle\AppData\Local\Temp\cc2hNkGN.s:2237   .text.Lcd_Init:0000000000000716 .LVL252
GAS LISTING C:\Users\Kalle\AppData\Local\Temp\cc2hNkGN.s 			page 192


C:\Users\Kalle\AppData\Local\Temp\cc2hNkGN.s:2241   .text.Lcd_Init:0000000000000722 .LVL253
C:\Users\Kalle\AppData\Local\Temp\cc2hNkGN.s:2245   .text.Lcd_Init:0000000000000722 .LBB368
C:\Users\Kalle\AppData\Local\Temp\cc2hNkGN.s:2257   .text.Lcd_Init:000000000000073c .LBE368
C:\Users\Kalle\AppData\Local\Temp\cc2hNkGN.s:19425  .debug_loc:0000000000001c45 .LLST105
C:\Users\Kalle\AppData\Local\Temp\cc2hNkGN.s:2251   .text.Lcd_Init:0000000000000730 .LVL254
C:\Users\Kalle\AppData\Local\Temp\cc2hNkGN.s:2255   .text.Lcd_Init:000000000000073c .LVL255
C:\Users\Kalle\AppData\Local\Temp\cc2hNkGN.s:2259   .text.Lcd_Init:000000000000073c .LBB370
C:\Users\Kalle\AppData\Local\Temp\cc2hNkGN.s:2271   .text.Lcd_Init:0000000000000754 .LBE370
C:\Users\Kalle\AppData\Local\Temp\cc2hNkGN.s:19434  .debug_loc:0000000000001c5a .LLST106
C:\Users\Kalle\AppData\Local\Temp\cc2hNkGN.s:2265   .text.Lcd_Init:000000000000074a .LVL256
C:\Users\Kalle\AppData\Local\Temp\cc2hNkGN.s:2269   .text.Lcd_Init:0000000000000754 .LVL257
C:\Users\Kalle\AppData\Local\Temp\cc2hNkGN.s:2273   .text.Lcd_Init:0000000000000754 .LBB372
C:\Users\Kalle\AppData\Local\Temp\cc2hNkGN.s:2285   .text.Lcd_Init:000000000000076c .LBE372
C:\Users\Kalle\AppData\Local\Temp\cc2hNkGN.s:19442  .debug_loc:0000000000001c6e .LLST107
C:\Users\Kalle\AppData\Local\Temp\cc2hNkGN.s:2279   .text.Lcd_Init:0000000000000762 .LVL258
C:\Users\Kalle\AppData\Local\Temp\cc2hNkGN.s:2283   .text.Lcd_Init:000000000000076c .LVL259
C:\Users\Kalle\AppData\Local\Temp\cc2hNkGN.s:2287   .text.Lcd_Init:000000000000076c .LBB374
C:\Users\Kalle\AppData\Local\Temp\cc2hNkGN.s:2299   .text.Lcd_Init:0000000000000784 .LBE374
C:\Users\Kalle\AppData\Local\Temp\cc2hNkGN.s:19450  .debug_loc:0000000000001c82 .LLST108
C:\Users\Kalle\AppData\Local\Temp\cc2hNkGN.s:2293   .text.Lcd_Init:000000000000077a .LVL260
C:\Users\Kalle\AppData\Local\Temp\cc2hNkGN.s:2297   .text.Lcd_Init:0000000000000784 .LVL261
C:\Users\Kalle\AppData\Local\Temp\cc2hNkGN.s:2301   .text.Lcd_Init:0000000000000784 .LBB376
C:\Users\Kalle\AppData\Local\Temp\cc2hNkGN.s:2313   .text.Lcd_Init:000000000000079c .LBE376
C:\Users\Kalle\AppData\Local\Temp\cc2hNkGN.s:19458  .debug_loc:0000000000001c96 .LLST109
C:\Users\Kalle\AppData\Local\Temp\cc2hNkGN.s:2307   .text.Lcd_Init:0000000000000792 .LVL262
C:\Users\Kalle\AppData\Local\Temp\cc2hNkGN.s:2311   .text.Lcd_Init:000000000000079c .LVL263
C:\Users\Kalle\AppData\Local\Temp\cc2hNkGN.s:2315   .text.Lcd_Init:000000000000079c .LBB378
C:\Users\Kalle\AppData\Local\Temp\cc2hNkGN.s:2327   .text.Lcd_Init:00000000000007b6 .LBE378
C:\Users\Kalle\AppData\Local\Temp\cc2hNkGN.s:19466  .debug_loc:0000000000001caa .LLST110
C:\Users\Kalle\AppData\Local\Temp\cc2hNkGN.s:2321   .text.Lcd_Init:00000000000007aa .LVL264
C:\Users\Kalle\AppData\Local\Temp\cc2hNkGN.s:2325   .text.Lcd_Init:00000000000007b6 .LVL265
C:\Users\Kalle\AppData\Local\Temp\cc2hNkGN.s:2329   .text.Lcd_Init:00000000000007b6 .LBB380
C:\Users\Kalle\AppData\Local\Temp\cc2hNkGN.s:2341   .text.Lcd_Init:00000000000007ce .LBE380
C:\Users\Kalle\AppData\Local\Temp\cc2hNkGN.s:19475  .debug_loc:0000000000001cbf .LLST111
C:\Users\Kalle\AppData\Local\Temp\cc2hNkGN.s:2335   .text.Lcd_Init:00000000000007c4 .LVL266
C:\Users\Kalle\AppData\Local\Temp\cc2hNkGN.s:2339   .text.Lcd_Init:00000000000007ce .LVL267
C:\Users\Kalle\AppData\Local\Temp\cc2hNkGN.s:2343   .text.Lcd_Init:00000000000007ce .LBB382
C:\Users\Kalle\AppData\Local\Temp\cc2hNkGN.s:2355   .text.Lcd_Init:00000000000007e8 .LBE382
C:\Users\Kalle\AppData\Local\Temp\cc2hNkGN.s:19483  .debug_loc:0000000000001cd3 .LLST112
C:\Users\Kalle\AppData\Local\Temp\cc2hNkGN.s:2349   .text.Lcd_Init:00000000000007dc .LVL268
C:\Users\Kalle\AppData\Local\Temp\cc2hNkGN.s:2353   .text.Lcd_Init:00000000000007e8 .LVL269
C:\Users\Kalle\AppData\Local\Temp\cc2hNkGN.s:2357   .text.Lcd_Init:00000000000007e8 .LBB384
C:\Users\Kalle\AppData\Local\Temp\cc2hNkGN.s:2369   .text.Lcd_Init:0000000000000802 .LBE384
C:\Users\Kalle\AppData\Local\Temp\cc2hNkGN.s:19492  .debug_loc:0000000000001ce8 .LLST113
C:\Users\Kalle\AppData\Local\Temp\cc2hNkGN.s:2363   .text.Lcd_Init:00000000000007f6 .LVL270
C:\Users\Kalle\AppData\Local\Temp\cc2hNkGN.s:2367   .text.Lcd_Init:0000000000000802 .LVL271
C:\Users\Kalle\AppData\Local\Temp\cc2hNkGN.s:2371   .text.Lcd_Init:0000000000000802 .LBB386
C:\Users\Kalle\AppData\Local\Temp\cc2hNkGN.s:19501  .debug_loc:0000000000001cfd .LLST114
C:\Users\Kalle\AppData\Local\Temp\cc2hNkGN.s:2377   .text.Lcd_Init:0000000000000810 .LVL272
C:\Users\Kalle\AppData\Local\Temp\cc2hNkGN.s:2401   .text.Lcd_Init:0000000000000822 .LVL273
C:\Users\Kalle\AppData\Local\Temp\cc2hNkGN.s:2408   .text.Lcd_Init:0000000000000822 .LBB392
C:\Users\Kalle\AppData\Local\Temp\cc2hNkGN.s:2421   .text.Lcd_Init:000000000000083e .LBE392
C:\Users\Kalle\AppData\Local\Temp\cc2hNkGN.s:2414   .text.Lcd_Init:0000000000000830 .LVL274
C:\Users\Kalle\AppData\Local\Temp\cc2hNkGN.s:2418   .text.Lcd_Init:000000000000083c .LVL275
C:\Users\Kalle\AppData\Local\Temp\cc2hNkGN.s:1266   .text.Lcd_Init:0000000000000028 .LVL110
C:\Users\Kalle\AppData\Local\Temp\cc2hNkGN.s:1270   .text.Lcd_Init:0000000000000034 .LVL111
C:\Users\Kalle\AppData\Local\Temp\cc2hNkGN.s:1274   .text.Lcd_Init:0000000000000040 .LVL112
GAS LISTING C:\Users\Kalle\AppData\Local\Temp\cc2hNkGN.s 			page 193


C:\Users\Kalle\AppData\Local\Temp\cc2hNkGN.s:1278   .text.Lcd_Init:000000000000004c .LVL113
C:\Users\Kalle\AppData\Local\Temp\cc2hNkGN.s:1286   .text.Lcd_Init:0000000000000062 .LVL114
C:\Users\Kalle\AppData\Local\Temp\cc2hNkGN.s:1293   .text.Lcd_Init:0000000000000074 .LVL115
C:\Users\Kalle\AppData\Local\Temp\cc2hNkGN.s:1296   .text.Lcd_Init:000000000000007c .LVL116
C:\Users\Kalle\AppData\Local\Temp\cc2hNkGN.s:1301   .text.Lcd_Init:000000000000008a .LVL117
C:\Users\Kalle\AppData\Local\Temp\cc2hNkGN.s:1305   .text.Lcd_Init:0000000000000096 .LVL118
C:\Users\Kalle\AppData\Local\Temp\cc2hNkGN.s:1323   .text.Lcd_Init:00000000000000ba .LVL121
C:\Users\Kalle\AppData\Local\Temp\cc2hNkGN.s:1341   .text.Lcd_Init:00000000000000de .LVL124
C:\Users\Kalle\AppData\Local\Temp\cc2hNkGN.s:20742  .debug_str:00000000000003c2 .LASF224
C:\Users\Kalle\AppData\Local\Temp\cc2hNkGN.s:20644  .debug_str:00000000000001ec .LASF225
C:\Users\Kalle\AppData\Local\Temp\cc2hNkGN.s:21016  .debug_str:0000000000000961 .LASF226
C:\Users\Kalle\AppData\Local\Temp\cc2hNkGN.s:1091   .text.spi_config:0000000000000000 .LFB11
C:\Users\Kalle\AppData\Local\Temp\cc2hNkGN.s:1169   .text.spi_config:000000000000006c .LFE11
C:\Users\Kalle\AppData\Local\Temp\cc2hNkGN.s:19510  .debug_loc:0000000000001d12 .LLST35
C:\Users\Kalle\AppData\Local\Temp\cc2hNkGN.s:20944  .debug_str:00000000000007bb .LASF227
C:\Users\Kalle\AppData\Local\Temp\cc2hNkGN.s:1110   .text.spi_config:0000000000000014 .LVL100
C:\Users\Kalle\AppData\Local\Temp\cc2hNkGN.s:1114   .text.spi_config:000000000000001e .LVL101
C:\Users\Kalle\AppData\Local\Temp\cc2hNkGN.s:1149   .text.spi_config:000000000000004a .LVL102
C:\Users\Kalle\AppData\Local\Temp\cc2hNkGN.s:1154   .text.spi_config:0000000000000058 .LVL103
C:\Users\Kalle\AppData\Local\Temp\cc2hNkGN.s:1158   .text.spi_config:0000000000000064 .LVL104
C:\Users\Kalle\AppData\Local\Temp\cc2hNkGN.s:20764  .debug_str:0000000000000432 .LASF228
C:\Users\Kalle\AppData\Local\Temp\cc2hNkGN.s:721    .text.LCD_Address_Set:0000000000000000 .LFB10
C:\Users\Kalle\AppData\Local\Temp\cc2hNkGN.s:869    .text.LCD_Address_Set:00000000000000b2 .LFE10
C:\Users\Kalle\AppData\Local\Temp\cc2hNkGN.s:19528  .debug_loc:0000000000001d3e .LLST16
C:\Users\Kalle\AppData\Local\Temp\cc2hNkGN.s:19546  .debug_loc:0000000000001d6a .LLST17
C:\Users\Kalle\AppData\Local\Temp\cc2hNkGN.s:19564  .debug_loc:0000000000001d96 .LLST18
C:\Users\Kalle\AppData\Local\Temp\cc2hNkGN.s:19582  .debug_loc:0000000000001dc2 .LLST19
C:\Users\Kalle\AppData\Local\Temp\cc2hNkGN.s:19600  .debug_loc:0000000000001dee .LLST20
C:\Users\Kalle\AppData\Local\Temp\cc2hNkGN.s:726    .text.LCD_Address_Set:0000000000000000 .LBB212
C:\Users\Kalle\AppData\Local\Temp\cc2hNkGN.s:19618  .debug_loc:0000000000001e1a .LLST21
C:\Users\Kalle\AppData\Local\Temp\cc2hNkGN.s:766    .text.LCD_Address_Set:0000000000000024 .LVL54
C:\Users\Kalle\AppData\Local\Temp\cc2hNkGN.s:777    .text.LCD_Address_Set:0000000000000034 .LVL55
C:\Users\Kalle\AppData\Local\Temp\cc2hNkGN.s:796    .text.LCD_Address_Set:0000000000000054 .LBB220
C:\Users\Kalle\AppData\Local\Temp\cc2hNkGN.s:808    .text.LCD_Address_Set:000000000000006e .LBE220
C:\Users\Kalle\AppData\Local\Temp\cc2hNkGN.s:19627  .debug_loc:0000000000001e2f .LLST22
C:\Users\Kalle\AppData\Local\Temp\cc2hNkGN.s:802    .text.LCD_Address_Set:0000000000000062 .LVL58
C:\Users\Kalle\AppData\Local\Temp\cc2hNkGN.s:806    .text.LCD_Address_Set:000000000000006e .LVL59
C:\Users\Kalle\AppData\Local\Temp\cc2hNkGN.s:824    .text.LCD_Address_Set:000000000000008a .LBB222
C:\Users\Kalle\AppData\Local\Temp\cc2hNkGN.s:830    .text.LCD_Address_Set:0000000000000098 .LVL62
C:\Users\Kalle\AppData\Local\Temp\cc2hNkGN.s:865    .text.LCD_Address_Set:00000000000000b2 .LVL67
C:\Users\Kalle\AppData\Local\Temp\cc2hNkGN.s:787    .text.LCD_Address_Set:0000000000000046 .LVL56
C:\Users\Kalle\AppData\Local\Temp\cc2hNkGN.s:794    .text.LCD_Address_Set:0000000000000054 .LVL57
C:\Users\Kalle\AppData\Local\Temp\cc2hNkGN.s:815    .text.LCD_Address_Set:000000000000007c .LVL60
C:\Users\Kalle\AppData\Local\Temp\cc2hNkGN.s:822    .text.LCD_Address_Set:000000000000008a .LVL61
C:\Users\Kalle\AppData\Local\Temp\cc2hNkGN.s:20802  .debug_str:0000000000000509 .LASF229
C:\Users\Kalle\AppData\Local\Temp\cc2hNkGN.s:20852  .debug_str:00000000000005fb .LASF230
C:\Users\Kalle\AppData\Local\Temp\cc2hNkGN.s:623    .text.LCD_WR_DATA:0000000000000000 .LFB8
C:\Users\Kalle\AppData\Local\Temp\cc2hNkGN.s:669    .text.LCD_WR_DATA:0000000000000038 .LFE8
C:\Users\Kalle\AppData\Local\Temp\cc2hNkGN.s:19636  .debug_loc:0000000000001e44 .LLST12
C:\Users\Kalle\AppData\Local\Temp\cc2hNkGN.s:19654  .debug_loc:0000000000001e70 .LLST13
C:\Users\Kalle\AppData\Local\Temp\cc2hNkGN.s:646    .text.LCD_WR_DATA:0000000000000016 .LVL43
C:\Users\Kalle\AppData\Local\Temp\cc2hNkGN.s:653    .text.LCD_WR_DATA:0000000000000026 .LVL44
C:\Users\Kalle\AppData\Local\Temp\cc2hNkGN.s:667    .text.LCD_WR_DATA:0000000000000038 .LVL46
C:\Users\Kalle\AppData\Local\Temp\cc2hNkGN.s:20906  .debug_str:0000000000000707 .LASF231
C:\Users\Kalle\AppData\Local\Temp\cc2hNkGN.s:21012  .debug_str:000000000000094a .LASF232
C:\Users\Kalle\AppData\Local\Temp\cc2hNkGN.s:482    .text.LCD_Writ_Bus:0000000000000000 .LFB6
C:\Users\Kalle\AppData\Local\Temp\cc2hNkGN.s:571    .text.LCD_Writ_Bus:0000000000000078 .LFE6
GAS LISTING C:\Users\Kalle\AppData\Local\Temp\cc2hNkGN.s 			page 194


C:\Users\Kalle\AppData\Local\Temp\cc2hNkGN.s:19672  .debug_loc:0000000000001e9c .LLST8
C:\Users\Kalle\AppData\Local\Temp\cc2hNkGN.s:19690  .debug_loc:0000000000001ec8 .LLST9
C:\Users\Kalle\AppData\Local\Temp\cc2hNkGN.s:513    .text.LCD_Writ_Bus:0000000000000022 .LVL31
C:\Users\Kalle\AppData\Local\Temp\cc2hNkGN.s:521    .text.LCD_Writ_Bus:000000000000002e .LVL32
C:\Users\Kalle\AppData\Local\Temp\cc2hNkGN.s:531    .text.LCD_Writ_Bus:0000000000000042 .LVL33
C:\Users\Kalle\AppData\Local\Temp\cc2hNkGN.s:541    .text.LCD_Writ_Bus:0000000000000052 .LVL34
C:\Users\Kalle\AppData\Local\Temp\cc2hNkGN.s:547    .text.LCD_Writ_Bus:0000000000000060 .LVL35
C:\Users\Kalle\AppData\Local\Temp\cc2hNkGN.s:569    .text.LCD_Writ_Bus:0000000000000078 .LVL36
C:\Users\Kalle\AppData\Local\Temp\cc2hNkGN.s:20754  .debug_str:00000000000003f9 .LASF233
C:\Users\Kalle\AppData\Local\Temp\cc2hNkGN.s:384    .text.LCD_Write_Bus:0000000000000000 .LFB5
C:\Users\Kalle\AppData\Local\Temp\cc2hNkGN.s:475    .text.LCD_Write_Bus:000000000000007a .LFE5
C:\Users\Kalle\AppData\Local\Temp\cc2hNkGN.s:19704  .debug_loc:0000000000001ee9 .LLST6
C:\Users\Kalle\AppData\Local\Temp\cc2hNkGN.s:19722  .debug_loc:0000000000001f15 .LLST7
C:\Users\Kalle\AppData\Local\Temp\cc2hNkGN.s:432    .text.LCD_Write_Bus:0000000000000042 .LVL27
C:\Users\Kalle\AppData\Local\Temp\cc2hNkGN.s:20626  .debug_str:0000000000000115 .LASF255
C:\Users\Kalle\AppData\Local\Temp\cc2hNkGN.s:20648  .debug_str:00000000000001f7 .LASF256
C:\Users\Kalle\AppData\Local\Temp\cc2hNkGN.s:331    .text.LCD_Wait_On_Queue:0000000000000000 .LFB3
C:\Users\Kalle\AppData\Local\Temp\cc2hNkGN.s:377    .text.LCD_Wait_On_Queue:000000000000003a .LFE3
C:\Users\Kalle\AppData\Local\Temp\cc2hNkGN.s:19738  .debug_loc:0000000000001f3f .LLST5
C:\Users\Kalle\AppData\Local\Temp\cc2hNkGN.s:359    .text.LCD_Wait_On_Queue:0000000000000028 .LVL24
C:\Users\Kalle\AppData\Local\Temp\cc2hNkGN.s:20804  .debug_str:0000000000000514 .LASF234
C:\Users\Kalle\AppData\Local\Temp\cc2hNkGN.s:19     .text.lcd_delay_1ms:0000000000000000 .LFB2
C:\Users\Kalle\AppData\Local\Temp\cc2hNkGN.s:161    .text.lcd_delay_1ms:00000000000000ce .LFE2
C:\Users\Kalle\AppData\Local\Temp\cc2hNkGN.s:19756  .debug_loc:0000000000001f6b .LLST0
C:\Users\Kalle\AppData\Local\Temp\cc2hNkGN.s:20652  .debug_str:0000000000000214 .LASF235
C:\Users\Kalle\AppData\Local\Temp\cc2hNkGN.s:19774  .debug_loc:0000000000001f97 .LLST1
C:\Users\Kalle\AppData\Local\Temp\cc2hNkGN.s:20734  .debug_str:000000000000039f .LASF236
C:\Users\Kalle\AppData\Local\Temp\cc2hNkGN.s:19792  .debug_loc:0000000000001fc3 .LLST2
C:\Users\Kalle\AppData\Local\Temp\cc2hNkGN.s:20816  .debug_str:0000000000000558 .LASF237
C:\Users\Kalle\AppData\Local\Temp\cc2hNkGN.s:19804  .debug_loc:0000000000001fdb .LLST3
C:\Users\Kalle\AppData\Local\Temp\cc2hNkGN.s:56     .text.lcd_delay_1ms:0000000000000022 .LVL1
C:\Users\Kalle\AppData\Local\Temp\cc2hNkGN.s:65     .text.lcd_delay_1ms:000000000000002e .LVL3
C:\Users\Kalle\AppData\Local\Temp\cc2hNkGN.s:84     .text.lcd_delay_1ms:0000000000000052 .LVL6
C:\Users\Kalle\AppData\Local\Temp\cc2hNkGN.s:168    .text.LCD_WR_Queue:0000000000000000 .LFB4
C:\Users\Kalle\AppData\Local\Temp\cc2hNkGN.s:324    .text.LCD_WR_Queue:00000000000000cc .LFE4
C:\Users\Kalle\AppData\Local\Temp\cc2hNkGN.s:19816  .debug_loc:0000000000001ff3 .LLST4
C:\Users\Kalle\AppData\Local\Temp\cc2hNkGN.s:216    .text.LCD_WR_Queue:000000000000003c .LBB206
C:\Users\Kalle\AppData\Local\Temp\cc2hNkGN.s:222    .text.LCD_WR_Queue:000000000000004a .LVL19
C:\Users\Kalle\AppData\Local\Temp\cc2hNkGN.s:240    .text.LCD_WR_Queue:0000000000000070 .LVL20
C:\Users\Kalle\AppData\Local\Temp\cc2hNkGN.s:258    .text.LCD_WR_Queue:0000000000000090 .LVL21
C:\Users\Kalle\AppData\Local\Temp\cc2hNkGN.s:319    .text.LCD_WR_Queue:00000000000000ca .LVL23
C:\Users\Kalle\AppData\Local\Temp\cc2hNkGN.s:198    .text.LCD_WR_Queue:0000000000000030 .LVL18
C:\Users\Kalle\AppData\Local\Temp\cc2hNkGN.s:311    .text.LCD_WR_Queue:00000000000000c2 .LVL22
C:\Users\Kalle\AppData\Local\Temp\cc2hNkGN.s:578    .text.LCD_WR_DATA8:0000000000000000 .LFB7
C:\Users\Kalle\AppData\Local\Temp\cc2hNkGN.s:616    .text.LCD_WR_DATA8:0000000000000026 .LFE7
C:\Users\Kalle\AppData\Local\Temp\cc2hNkGN.s:19859  .debug_loc:000000000000205b .LLST10
C:\Users\Kalle\AppData\Local\Temp\cc2hNkGN.s:19877  .debug_loc:0000000000002087 .LLST11
C:\Users\Kalle\AppData\Local\Temp\cc2hNkGN.s:601    .text.LCD_WR_DATA8:0000000000000016 .LVL39
C:\Users\Kalle\AppData\Local\Temp\cc2hNkGN.s:614    .text.LCD_WR_DATA8:0000000000000026 .LVL40
C:\Users\Kalle\AppData\Local\Temp\cc2hNkGN.s:676    .text.LCD_WR_REG:0000000000000000 .LFB9
C:\Users\Kalle\AppData\Local\Temp\cc2hNkGN.s:714    .text.LCD_WR_REG:0000000000000026 .LFE9
C:\Users\Kalle\AppData\Local\Temp\cc2hNkGN.s:19891  .debug_loc:00000000000020a8 .LLST14
C:\Users\Kalle\AppData\Local\Temp\cc2hNkGN.s:19909  .debug_loc:00000000000020d4 .LLST15
C:\Users\Kalle\AppData\Local\Temp\cc2hNkGN.s:699    .text.LCD_WR_REG:0000000000000016 .LVL49
C:\Users\Kalle\AppData\Local\Temp\cc2hNkGN.s:712    .text.LCD_WR_REG:0000000000000026 .LVL50
C:\Users\Kalle\AppData\Local\Temp\cc2hNkGN.s:875    .text.LCD_ShowChar.part.2:0000000000000000 .LFB31
C:\Users\Kalle\AppData\Local\Temp\cc2hNkGN.s:1084   .text.LCD_ShowChar.part.2:00000000000000ea .LFE31
GAS LISTING C:\Users\Kalle\AppData\Local\Temp\cc2hNkGN.s 			page 195


C:\Users\Kalle\AppData\Local\Temp\cc2hNkGN.s:19923  .debug_loc:00000000000020f5 .LLST23
C:\Users\Kalle\AppData\Local\Temp\cc2hNkGN.s:19946  .debug_loc:000000000000212d .LLST24
C:\Users\Kalle\AppData\Local\Temp\cc2hNkGN.s:19965  .debug_loc:0000000000002161 .LLST25
C:\Users\Kalle\AppData\Local\Temp\cc2hNkGN.s:19990  .debug_loc:00000000000021a2 .LLST26
C:\Users\Kalle\AppData\Local\Temp\cc2hNkGN.s:20004  .debug_loc:00000000000021c3 .LLST27
C:\Users\Kalle\AppData\Local\Temp\cc2hNkGN.s:20018  .debug_loc:00000000000021e4 .LLST28
C:\Users\Kalle\AppData\Local\Temp\cc2hNkGN.s:20048  .debug_loc:0000000000002231 .LLST29
C:\Users\Kalle\AppData\Local\Temp\cc2hNkGN.s:20059  .debug_loc:000000000000224f .LLST30
C:\Users\Kalle\AppData\Local\Temp\cc2hNkGN.s:20082  .debug_loc:0000000000002279 .LLST31
C:\Users\Kalle\AppData\Local\Temp\cc2hNkGN.s:1053   .text.LCD_ShowChar.part.2:00000000000000c0 .LBB228
C:\Users\Kalle\AppData\Local\Temp\cc2hNkGN.s:1069   .text.LCD_ShowChar.part.2:00000000000000dc .LBE228
C:\Users\Kalle\AppData\Local\Temp\cc2hNkGN.s:20121  .debug_loc:00000000000022c8 .LLST32
C:\Users\Kalle\AppData\Local\Temp\cc2hNkGN.s:20128  .debug_loc:00000000000022db .LLST33
C:\Users\Kalle\AppData\Local\Temp\cc2hNkGN.s:20135  .debug_loc:00000000000022ee .LLST34
C:\Users\Kalle\AppData\Local\Temp\cc2hNkGN.s:1061   .text.LCD_ShowChar.part.2:00000000000000d0 .LVL94
C:\Users\Kalle\AppData\Local\Temp\cc2hNkGN.s:1067   .text.LCD_ShowChar.part.2:00000000000000dc .LVL96
C:\Users\Kalle\AppData\Local\Temp\cc2hNkGN.s:927    .text.LCD_ShowChar.part.2:0000000000000038 .LVL72
C:\Users\Kalle\AppData\Local\Temp\cc2hNkGN.s:967    .text.LCD_ShowChar.part.2:000000000000006e .LVL79
C:\Users\Kalle\AppData\Local\Temp\cc2hNkGN.s:1176   .text.Lcd_SetType:0000000000000000 .LFB12
C:\Users\Kalle\AppData\Local\Temp\cc2hNkGN.s:1218   .text.Lcd_SetType:000000000000002a .LFE12
C:\Users\Kalle\AppData\Local\Temp\cc2hNkGN.s:1200   .text.Lcd_SetType:0000000000000018 .LBB232
C:\Users\Kalle\AppData\Local\Temp\cc2hNkGN.s:1214   .text.Lcd_SetType:0000000000000028 .LBE232
C:\Users\Kalle\AppData\Local\Temp\cc2hNkGN.s:20148  .debug_loc:000000000000230e .LLST36
C:\Users\Kalle\AppData\Local\Temp\cc2hNkGN.s:2660   .text.LCD_DrawPoint:0000000000000000 .LFB16
C:\Users\Kalle\AppData\Local\Temp\cc2hNkGN.s:2699   .text.LCD_DrawPoint:0000000000000024 .LFE16
C:\Users\Kalle\AppData\Local\Temp\cc2hNkGN.s:20156  .debug_loc:0000000000002322 .LLST129
C:\Users\Kalle\AppData\Local\Temp\cc2hNkGN.s:20174  .debug_loc:000000000000234e .LLST130
C:\Users\Kalle\AppData\Local\Temp\cc2hNkGN.s:20188  .debug_loc:000000000000236f .LLST131
C:\Users\Kalle\AppData\Local\Temp\cc2hNkGN.s:20202  .debug_loc:0000000000002390 .LLST132
C:\Users\Kalle\AppData\Local\Temp\cc2hNkGN.s:2683   .text.LCD_DrawPoint:0000000000000014 .LVL308
C:\Users\Kalle\AppData\Local\Temp\cc2hNkGN.s:2697   .text.LCD_DrawPoint:0000000000000024 .LVL310
C:\Users\Kalle\AppData\Local\Temp\cc2hNkGN.s:3401   .text.LCD_ShowChar:0000000000000000 .LFB22
C:\Users\Kalle\AppData\Local\Temp\cc2hNkGN.s:3422   .text.LCD_ShowChar:000000000000001a .LFE22
C:\Users\Kalle\AppData\Local\Temp\cc2hNkGN.s:20224  .debug_loc:00000000000023c7 .LLST200
C:\Users\Kalle\AppData\Local\Temp\cc2hNkGN.s:20238  .debug_loc:00000000000023e8 .LLST201
C:\Users\Kalle\AppData\Local\Temp\cc2hNkGN.s:20252  .debug_loc:0000000000002409 .LLST202
C:\Users\Kalle\AppData\Local\Temp\cc2hNkGN.s:20266  .debug_loc:000000000000242a .LLST203
C:\Users\Kalle\AppData\Local\Temp\cc2hNkGN.s:20280  .debug_loc:000000000000244b .LLST204
C:\Users\Kalle\AppData\Local\Temp\cc2hNkGN.s:20294  .debug_loc:000000000000246c .LLST205
C:\Users\Kalle\AppData\Local\Temp\cc2hNkGN.s:3420   .text.LCD_ShowChar:000000000000001a .LVL408
C:\Users\Kalle\AppData\Local\Temp\cc2hNkGN.s:3739   .text.mypow:0000000000000000 .LFB25
C:\Users\Kalle\AppData\Local\Temp\cc2hNkGN.s:3773   .text.mypow:0000000000000022 .LFE25
C:\Users\Kalle\AppData\Local\Temp\cc2hNkGN.s:20308  .debug_loc:000000000000248d .LLST223
C:\Users\Kalle\AppData\Local\Temp\cc2hNkGN.s:20322  .debug_loc:00000000000024ae .LLST224
C:\Users\Kalle\AppData\Local\Temp\cc2hNkGN.s:20337  .debug_loc:00000000000024d7 .LLST225
C:\Users\Kalle\AppData\Local\Temp\cc2hNkGN.s:20950  .debug_str:00000000000007e3 .LASF238
C:\Users\Kalle\AppData\Local\Temp\cc2hNkGN.s:20766  .debug_str:0000000000000442 .LASF239
C:\Users\Kalle\AppData\Local\Temp\cc2hNkGN.s:21068  .debug_str:0000000000000a59 .LASF240
C:\Users\Kalle\AppData\Local\Temp\cc2hNkGN.s:20976  .debug_str:000000000000087a .LASF241
C:\Users\Kalle\AppData\Local\Temp\cc2hNkGN.s:21052  .debug_str:00000000000009fc .LASF242
C:\Users\Kalle\AppData\Local\Temp\cc2hNkGN.s:20698  .debug_str:00000000000002f8 .LASF243
C:\Users\Kalle\AppData\Local\Temp\cc2hNkGN.s:20582  .debug_str:0000000000000038 .LASF244
C:\Users\Kalle\AppData\Local\Temp\cc2hNkGN.s:21072  .debug_str:0000000000000a76 .LASF245
C:\Users\Kalle\AppData\Local\Temp\cc2hNkGN.s:20922  .debug_str:0000000000000747 .LASF246
C:\Users\Kalle\AppData\Local\Temp\cc2hNkGN.s:20964  .debug_str:0000000000000835 .LASF247
C:\Users\Kalle\AppData\Local\Temp\cc2hNkGN.s:20862  .debug_str:0000000000000634 .LASF248
C:\Users\Kalle\AppData\Local\Temp\cc2hNkGN.s:20786  .debug_str:00000000000004b9 .LASF249
GAS LISTING C:\Users\Kalle\AppData\Local\Temp\cc2hNkGN.s 			page 196


C:\Users\Kalle\AppData\Local\Temp\cc2hNkGN.s:4278   .text.LCD_ShowPicture:0000000000000002 .LCFI60
C:\Users\Kalle\AppData\Local\Temp\cc2hNkGN.s:4343   .text.LCD_ShowPicture:0000000000000058 .LCFI61
C:\Users\Kalle\AppData\Local\Temp\cc2hNkGN.s:4273   .text.LCD_ShowPicture:0000000000000000 .LVL492
C:\Users\Kalle\AppData\Local\Temp\cc2hNkGN.s:4310   .text.LCD_ShowPicture:000000000000002c .LVL495
C:\Users\Kalle\AppData\Local\Temp\cc2hNkGN.s:4324   .text.LCD_ShowPicture:0000000000000040 .LVL498
C:\Users\Kalle\AppData\Local\Temp\cc2hNkGN.s:4303   .text.LCD_ShowPicture:000000000000001e .LVL493
C:\Users\Kalle\AppData\Local\Temp\cc2hNkGN.s:4314   .text.LCD_ShowPicture:0000000000000030 .LVL496
C:\Users\Kalle\AppData\Local\Temp\cc2hNkGN.s:4017   .text.LCD_ShowNum1:0000000000000002 .LCFI57
C:\Users\Kalle\AppData\Local\Temp\cc2hNkGN.s:4206   .text.LCD_ShowNum1:00000000000000ce .LCFI58
C:\Users\Kalle\AppData\Local\Temp\cc2hNkGN.s:4211   .text.LCD_ShowNum1:00000000000000d0 .LCFI59
C:\Users\Kalle\AppData\Local\Temp\cc2hNkGN.s:4011   .text.LCD_ShowNum1:0000000000000000 .LVL462
C:\Users\Kalle\AppData\Local\Temp\cc2hNkGN.s:4034   .text.LCD_ShowNum1:0000000000000014 .LVL464
C:\Users\Kalle\AppData\Local\Temp\cc2hNkGN.s:4195   .text.LCD_ShowNum1:00000000000000c4 .LVL482
C:\Users\Kalle\AppData\Local\Temp\cc2hNkGN.s:4209   .text.LCD_ShowNum1:00000000000000d0 .LVL484
C:\Users\Kalle\AppData\Local\Temp\cc2hNkGN.s:4027   .text.LCD_ShowNum1:000000000000000e .LVL463
C:\Users\Kalle\AppData\Local\Temp\cc2hNkGN.s:4200   .text.LCD_ShowNum1:00000000000000c8 .LVL483
C:\Users\Kalle\AppData\Local\Temp\cc2hNkGN.s:4061   .text.LCD_ShowNum1:0000000000000034 .LVL465
C:\Users\Kalle\AppData\Local\Temp\cc2hNkGN.s:4064   .text.LCD_ShowNum1:000000000000003c .LVL466
C:\Users\Kalle\AppData\Local\Temp\cc2hNkGN.s:4192   .text.LCD_ShowNum1:00000000000000c2 .LVL481
C:\Users\Kalle\AppData\Local\Temp\cc2hNkGN.s:4244   .text.LCD_ShowNum1:00000000000000f4 .LVL488
C:\Users\Kalle\AppData\Local\Temp\cc2hNkGN.s:4251   .text.LCD_ShowNum1:00000000000000fc .LVL490
C:\Users\Kalle\AppData\Local\Temp\cc2hNkGN.s:4187   .text.LCD_ShowNum1:00000000000000be .LVL480
C:\Users\Kalle\AppData\Local\Temp\cc2hNkGN.s:4085   .text.LCD_ShowNum1:0000000000000052 .LVL467
C:\Users\Kalle\AppData\Local\Temp\cc2hNkGN.s:4168   .text.LCD_ShowNum1:00000000000000ac .LVL477
C:\Users\Kalle\AppData\Local\Temp\cc2hNkGN.s:4170   .text.LCD_ShowNum1:00000000000000b0 .LVL478
C:\Users\Kalle\AppData\Local\Temp\cc2hNkGN.s:4173   .text.LCD_ShowNum1:00000000000000b4 .LVL479
C:\Users\Kalle\AppData\Local\Temp\cc2hNkGN.s:4241   .text.LCD_ShowNum1:00000000000000f2 .LVL487
C:\Users\Kalle\AppData\Local\Temp\cc2hNkGN.s:4247   .text.LCD_ShowNum1:00000000000000f8 .LVL489
C:\Users\Kalle\AppData\Local\Temp\cc2hNkGN.s:4124   .text.LCD_ShowNum1:000000000000007e .LVL474
C:\Users\Kalle\AppData\Local\Temp\cc2hNkGN.s:4253   .text.LCD_ShowNum1:00000000000000fe .LVL491
C:\Users\Kalle\AppData\Local\Temp\cc2hNkGN.s:4092   .text.LCD_ShowNum1:000000000000005c .LVL468
C:\Users\Kalle\AppData\Local\Temp\cc2hNkGN.s:4100   .text.LCD_ShowNum1:0000000000000064 .LVL469
C:\Users\Kalle\AppData\Local\Temp\cc2hNkGN.s:4112   .text.LCD_ShowNum1:000000000000006e .LVL471
C:\Users\Kalle\AppData\Local\Temp\cc2hNkGN.s:4120   .text.LCD_ShowNum1:0000000000000076 .LVL473
C:\Users\Kalle\AppData\Local\Temp\cc2hNkGN.s:4105   .text.LCD_ShowNum1:0000000000000068 .LVL470
C:\Users\Kalle\AppData\Local\Temp\cc2hNkGN.s:4115   .text.LCD_ShowNum1:0000000000000070 .LVL472
C:\Users\Kalle\AppData\Local\Temp\cc2hNkGN.s:4218   .text.LCD_ShowNum1:00000000000000d6 .LVL485
C:\Users\Kalle\AppData\Local\Temp\cc2hNkGN.s:4140   .text.LCD_ShowNum1:000000000000008c .LVL475
C:\Users\Kalle\AppData\Local\Temp\cc2hNkGN.s:3789   .text.LCD_ShowNum:0000000000000002 .LCFI54
C:\Users\Kalle\AppData\Local\Temp\cc2hNkGN.s:3959   .text.LCD_ShowNum:00000000000000bc .LCFI55
C:\Users\Kalle\AppData\Local\Temp\cc2hNkGN.s:3965   .text.LCD_ShowNum:00000000000000be .LCFI56
C:\Users\Kalle\AppData\Local\Temp\cc2hNkGN.s:3783   .text.LCD_ShowNum:0000000000000000 .LVL444
C:\Users\Kalle\AppData\Local\Temp\cc2hNkGN.s:3849   .text.LCD_ShowNum:0000000000000048 .LVL445
C:\Users\Kalle\AppData\Local\Temp\cc2hNkGN.s:3928   .text.LCD_ShowNum:00000000000000a0 .LVL456
C:\Users\Kalle\AppData\Local\Temp\cc2hNkGN.s:3963   .text.LCD_ShowNum:00000000000000be .LVL458
C:\Users\Kalle\AppData\Local\Temp\cc2hNkGN.s:3961   .text.LCD_ShowNum:00000000000000bc .LVL457
C:\Users\Kalle\AppData\Local\Temp\cc2hNkGN.s:3922   .text.LCD_ShowNum:000000000000009a .LVL455
C:\Users\Kalle\AppData\Local\Temp\cc2hNkGN.s:3887   .text.LCD_ShowNum:000000000000006a .LVL451
C:\Users\Kalle\AppData\Local\Temp\cc2hNkGN.s:3913   .text.LCD_ShowNum:0000000000000086 .LVL453
C:\Users\Kalle\AppData\Local\Temp\cc2hNkGN.s:3972   .text.LCD_ShowNum:00000000000000c2 .LVL459
C:\Users\Kalle\AppData\Local\Temp\cc2hNkGN.s:3990   .text.LCD_ShowNum:00000000000000d2 .LVL460
C:\Users\Kalle\AppData\Local\Temp\cc2hNkGN.s:3861   .text.LCD_ShowNum:0000000000000050 .LVL446
C:\Users\Kalle\AppData\Local\Temp\cc2hNkGN.s:3868   .text.LCD_ShowNum:0000000000000056 .LVL447
C:\Users\Kalle\AppData\Local\Temp\cc2hNkGN.s:3876   .text.LCD_ShowNum:000000000000005e .LVL449
C:\Users\Kalle\AppData\Local\Temp\cc2hNkGN.s:3880   .text.LCD_ShowNum:0000000000000066 .LVL450
C:\Users\Kalle\AppData\Local\Temp\cc2hNkGN.s:3871   .text.LCD_ShowNum:0000000000000058 .LVL448
C:\Users\Kalle\AppData\Local\Temp\cc2hNkGN.s:3897   .text.LCD_ShowNum:0000000000000076 .LVL452
GAS LISTING C:\Users\Kalle\AppData\Local\Temp\cc2hNkGN.s 			page 197


C:\Users\Kalle\AppData\Local\Temp\cc2hNkGN.s:3623   .text.LCD_ShowStr:0000000000000002 .LCFI51
C:\Users\Kalle\AppData\Local\Temp\cc2hNkGN.s:3718   .text.LCD_ShowStr:0000000000000060 .LCFI52
C:\Users\Kalle\AppData\Local\Temp\cc2hNkGN.s:3723   .text.LCD_ShowStr:0000000000000062 .LCFI53
C:\Users\Kalle\AppData\Local\Temp\cc2hNkGN.s:3619   .text.LCD_ShowStr:0000000000000000 .LVL426
C:\Users\Kalle\AppData\Local\Temp\cc2hNkGN.s:3654   .text.LCD_ShowStr:000000000000002a .LVL428
C:\Users\Kalle\AppData\Local\Temp\cc2hNkGN.s:3664   .text.LCD_ShowStr:0000000000000030 .LVL429
C:\Users\Kalle\AppData\Local\Temp\cc2hNkGN.s:3672   .text.LCD_ShowStr:0000000000000038 .LVL430
C:\Users\Kalle\AppData\Local\Temp\cc2hNkGN.s:3721   .text.LCD_ShowStr:0000000000000062 .LVL435
C:\Users\Kalle\AppData\Local\Temp\cc2hNkGN.s:3729   .text.LCD_ShowStr:000000000000006a .LVL436
C:\Users\Kalle\AppData\Local\Temp\cc2hNkGN.s:3696   .text.LCD_ShowStr:000000000000004e .LVL433
C:\Users\Kalle\AppData\Local\Temp\cc2hNkGN.s:3645   .text.LCD_ShowStr:0000000000000018 .LVL427
C:\Users\Kalle\AppData\Local\Temp\cc2hNkGN.s:3683   .text.LCD_ShowStr:0000000000000040 .LVL431
C:\Users\Kalle\AppData\Local\Temp\cc2hNkGN.s:3704   .text.LCD_ShowStr:0000000000000052 .LVL434
C:\Users\Kalle\AppData\Local\Temp\cc2hNkGN.s:3439   .text.LCD_ShowString:0000000000000008 .LCFI47
C:\Users\Kalle\AppData\Local\Temp\cc2hNkGN.s:3545   .text.LCD_ShowString:0000000000000068 .LCFI48
C:\Users\Kalle\AppData\Local\Temp\cc2hNkGN.s:3550   .text.LCD_ShowString:000000000000006a .LCFI49
C:\Users\Kalle\AppData\Local\Temp\cc2hNkGN.s:3597   .text.LCD_ShowString:000000000000008e .LCFI50
C:\Users\Kalle\AppData\Local\Temp\cc2hNkGN.s:3432   .text.LCD_ShowString:0000000000000000 .LVL409
C:\Users\Kalle\AppData\Local\Temp\cc2hNkGN.s:3470   .text.LCD_ShowString:000000000000002e .LVL410
C:\Users\Kalle\AppData\Local\Temp\cc2hNkGN.s:3480   .text.LCD_ShowString:0000000000000034 .LVL411
C:\Users\Kalle\AppData\Local\Temp\cc2hNkGN.s:3500   .text.LCD_ShowString:0000000000000040 .LVL413
C:\Users\Kalle\AppData\Local\Temp\cc2hNkGN.s:3548   .text.LCD_ShowString:000000000000006a .LVL419
C:\Users\Kalle\AppData\Local\Temp\cc2hNkGN.s:3569   .text.LCD_ShowString:0000000000000076 .LVL421
C:\Users\Kalle\AppData\Local\Temp\cc2hNkGN.s:3571   .text.LCD_ShowString:0000000000000078 .LVL422
C:\Users\Kalle\AppData\Local\Temp\cc2hNkGN.s:3595   .text.LCD_ShowString:000000000000008e .LVL425
C:\Users\Kalle\AppData\Local\Temp\cc2hNkGN.s:3532   .text.LCD_ShowString:000000000000005c .LVL417
C:\Users\Kalle\AppData\Local\Temp\cc2hNkGN.s:3511   .text.LCD_ShowString:0000000000000048 .LVL414
C:\Users\Kalle\AppData\Local\Temp\cc2hNkGN.s:3529   .text.LCD_ShowString:000000000000005a .LVL416
C:\Users\Kalle\AppData\Local\Temp\cc2hNkGN.s:3537   .text.LCD_ShowString:0000000000000060 .LVL418
C:\Users\Kalle\AppData\Local\Temp\cc2hNkGN.s:3487   .text.LCD_ShowString:000000000000003c .LVL412
C:\Users\Kalle\AppData\Local\Temp\cc2hNkGN.s:3558   .text.LCD_ShowString:0000000000000074 .LVL420
C:\Users\Kalle\AppData\Local\Temp\cc2hNkGN.s:3581   .text.LCD_ShowString:0000000000000088 .LVL424
C:\Users\Kalle\AppData\Local\Temp\cc2hNkGN.s:3154   .text.Draw_Circle:0000000000000006 .LCFI45
C:\Users\Kalle\AppData\Local\Temp\cc2hNkGN.s:3390   .text.Draw_Circle:0000000000000152 .LCFI46
C:\Users\Kalle\AppData\Local\Temp\cc2hNkGN.s:3146   .text.Draw_Circle:0000000000000000 .LVL375
C:\Users\Kalle\AppData\Local\Temp\cc2hNkGN.s:3194   .text.Draw_Circle:000000000000002c .LVL377
C:\Users\Kalle\AppData\Local\Temp\cc2hNkGN.s:3378   .text.Draw_Circle:0000000000000146 .LVL406
C:\Users\Kalle\AppData\Local\Temp\cc2hNkGN.s:3375   .text.Draw_Circle:0000000000000144 .LVL405
C:\Users\Kalle\AppData\Local\Temp\cc2hNkGN.s:3372   .text.Draw_Circle:0000000000000142 .LVL404
C:\Users\Kalle\AppData\Local\Temp\cc2hNkGN.s:3369   .text.Draw_Circle:0000000000000140 .LVL403
C:\Users\Kalle\AppData\Local\Temp\cc2hNkGN.s:3184   .text.Draw_Circle:0000000000000022 .LVL376
C:\Users\Kalle\AppData\Local\Temp\cc2hNkGN.s:3366   .text.Draw_Circle:000000000000013e .LVL402
C:\Users\Kalle\AppData\Local\Temp\cc2hNkGN.s:3199   .text.Draw_Circle:0000000000000034 .LVL378
C:\Users\Kalle\AppData\Local\Temp\cc2hNkGN.s:3217   .text.Draw_Circle:0000000000000052 .LVL381
C:\Users\Kalle\AppData\Local\Temp\cc2hNkGN.s:3236   .text.Draw_Circle:0000000000000074 .LVL384
C:\Users\Kalle\AppData\Local\Temp\cc2hNkGN.s:3254   .text.Draw_Circle:0000000000000092 .LVL387
C:\Users\Kalle\AppData\Local\Temp\cc2hNkGN.s:3273   .text.Draw_Circle:00000000000000b2 .LVL390
C:\Users\Kalle\AppData\Local\Temp\cc2hNkGN.s:3291   .text.Draw_Circle:00000000000000ce .LVL393
C:\Users\Kalle\AppData\Local\Temp\cc2hNkGN.s:3058   .text.LCD_DrawRectangle:0000000000000002 .LCFI43
C:\Users\Kalle\AppData\Local\Temp\cc2hNkGN.s:3130   .text.LCD_DrawRectangle:000000000000005e .LCFI44
C:\Users\Kalle\AppData\Local\Temp\cc2hNkGN.s:3054   .text.LCD_DrawRectangle:0000000000000000 .LVL364
C:\Users\Kalle\AppData\Local\Temp\cc2hNkGN.s:3111   .text.LCD_DrawRectangle:000000000000004e .LVL370
C:\Users\Kalle\AppData\Local\Temp\cc2hNkGN.s:3125   .text.LCD_DrawRectangle:000000000000005a .LVL372
C:\Users\Kalle\AppData\Local\Temp\cc2hNkGN.s:3128   .text.LCD_DrawRectangle:000000000000005c .LVL373
C:\Users\Kalle\AppData\Local\Temp\cc2hNkGN.s:3065   .text.LCD_DrawRectangle:0000000000000008 .LVL365
C:\Users\Kalle\AppData\Local\Temp\cc2hNkGN.s:3106   .text.LCD_DrawRectangle:000000000000004a .LVL369
C:\Users\Kalle\AppData\Local\Temp\cc2hNkGN.s:3118   .text.LCD_DrawRectangle:0000000000000054 .LVL371
GAS LISTING C:\Users\Kalle\AppData\Local\Temp\cc2hNkGN.s 			page 198


C:\Users\Kalle\AppData\Local\Temp\cc2hNkGN.s:2831   .text.LCD_DrawLine:0000000000000002 .LCFI40
C:\Users\Kalle\AppData\Local\Temp\cc2hNkGN.s:3002   .text.LCD_DrawLine:0000000000000098 .LCFI41
C:\Users\Kalle\AppData\Local\Temp\cc2hNkGN.s:3007   .text.LCD_DrawLine:000000000000009a .LCFI42
C:\Users\Kalle\AppData\Local\Temp\cc2hNkGN.s:2824   .text.LCD_DrawLine:0000000000000000 .LVL329
C:\Users\Kalle\AppData\Local\Temp\cc2hNkGN.s:2902   .text.LCD_DrawLine:0000000000000042 .LVL338
C:\Users\Kalle\AppData\Local\Temp\cc2hNkGN.s:3005   .text.LCD_DrawLine:000000000000009a .LVL358
C:\Users\Kalle\AppData\Local\Temp\cc2hNkGN.s:2994   .text.LCD_DrawLine:0000000000000092 .LVL355
C:\Users\Kalle\AppData\Local\Temp\cc2hNkGN.s:2893   .text.LCD_DrawLine:000000000000003c .LVL337
C:\Users\Kalle\AppData\Local\Temp\cc2hNkGN.s:2959   .text.LCD_DrawLine:0000000000000076 .LVL347
C:\Users\Kalle\AppData\Local\Temp\cc2hNkGN.s:2920   .text.LCD_DrawLine:0000000000000056 .LVL340
C:\Users\Kalle\AppData\Local\Temp\cc2hNkGN.s:2974   .text.LCD_DrawLine:0000000000000084 .LVL349
C:\Users\Kalle\AppData\Local\Temp\cc2hNkGN.s:2977   .text.LCD_DrawLine:0000000000000086 .LVL350
C:\Users\Kalle\AppData\Local\Temp\cc2hNkGN.s:2859   .text.LCD_DrawLine:000000000000001e .LVL330
C:\Users\Kalle\AppData\Local\Temp\cc2hNkGN.s:2891   .text.LCD_DrawLine:000000000000003a .LVL336
C:\Users\Kalle\AppData\Local\Temp\cc2hNkGN.s:2988   .text.LCD_DrawLine:000000000000008e .LVL353
C:\Users\Kalle\AppData\Local\Temp\cc2hNkGN.s:2865   .text.LCD_DrawLine:0000000000000024 .LVL331
C:\Users\Kalle\AppData\Local\Temp\cc2hNkGN.s:2991   .text.LCD_DrawLine:0000000000000090 .LVL354
C:\Users\Kalle\AppData\Local\Temp\cc2hNkGN.s:2971   .text.LCD_DrawLine:0000000000000082 .LVL348
C:\Users\Kalle\AppData\Local\Temp\cc2hNkGN.s:2880   .text.LCD_DrawLine:000000000000002e .LVL334
C:\Users\Kalle\AppData\Local\Temp\cc2hNkGN.s:2997   .text.LCD_DrawLine:0000000000000094 .LVL356
C:\Users\Kalle\AppData\Local\Temp\cc2hNkGN.s:3015   .text.LCD_DrawLine:00000000000000a0 .LVL359
C:\Users\Kalle\AppData\Local\Temp\cc2hNkGN.s:3022   .text.LCD_DrawLine:00000000000000a6 .LVL361
C:\Users\Kalle\AppData\Local\Temp\cc2hNkGN.s:2887   .text.LCD_DrawLine:0000000000000034 .LVL335
C:\Users\Kalle\AppData\Local\Temp\cc2hNkGN.s:3000   .text.LCD_DrawLine:0000000000000096 .LVL357
C:\Users\Kalle\AppData\Local\Temp\cc2hNkGN.s:3035   .text.LCD_DrawLine:00000000000000b2 .LVL362
C:\Users\Kalle\AppData\Local\Temp\cc2hNkGN.s:2869   .text.LCD_DrawLine:0000000000000026 .LVL332
C:\Users\Kalle\AppData\Local\Temp\cc2hNkGN.s:2980   .text.LCD_DrawLine:0000000000000088 .LVL351
C:\Users\Kalle\AppData\Local\Temp\cc2hNkGN.s:2873   .text.LCD_DrawLine:0000000000000028 .LVL333
C:\Users\Kalle\AppData\Local\Temp\cc2hNkGN.s:2983   .text.LCD_DrawLine:000000000000008a .LVL352
C:\Users\Kalle\AppData\Local\Temp\cc2hNkGN.s:2714   .text.LCD_Fill:0000000000000002 .LCFI38
C:\Users\Kalle\AppData\Local\Temp\cc2hNkGN.s:2787   .text.LCD_Fill:0000000000000052 .LCFI39
C:\Users\Kalle\AppData\Local\Temp\cc2hNkGN.s:2709   .text.LCD_Fill:0000000000000000 .LVL311
C:\Users\Kalle\AppData\Local\Temp\cc2hNkGN.s:2782   .text.LCD_Fill:000000000000004e .LVL322
C:\Users\Kalle\AppData\Local\Temp\cc2hNkGN.s:2741   .text.LCD_Fill:0000000000000026 .LVL313
C:\Users\Kalle\AppData\Local\Temp\cc2hNkGN.s:2773   .text.LCD_Fill:0000000000000048 .LVL319
C:\Users\Kalle\AppData\Local\Temp\cc2hNkGN.s:2785   .text.LCD_Fill:0000000000000050 .LVL323
C:\Users\Kalle\AppData\Local\Temp\cc2hNkGN.s:2776   .text.LCD_Fill:000000000000004a .LVL320
C:\Users\Kalle\AppData\Local\Temp\cc2hNkGN.s:2779   .text.LCD_Fill:000000000000004c .LVL321
C:\Users\Kalle\AppData\Local\Temp\cc2hNkGN.s:2746   .text.LCD_Fill:000000000000002c .LVL314
C:\Users\Kalle\AppData\Local\Temp\cc2hNkGN.s:2751   .text.LCD_Fill:000000000000002e .LVL315
C:\Users\Kalle\AppData\Local\Temp\cc2hNkGN.s:2764   .text.LCD_Fill:0000000000000042 .LVL318
C:\Users\Kalle\AppData\Local\Temp\cc2hNkGN.s:2801   .text.LCD_DrawPoint_big:0000000000000000 .LVL324
C:\Users\Kalle\AppData\Local\Temp\cc2hNkGN.s:2810   .text.LCD_DrawPoint_big:000000000000000e .LVL327
C:\Users\Kalle\AppData\Local\Temp\cc2hNkGN.s:2808   .text.LCD_DrawPoint_big:000000000000000c .LVL326
C:\Users\Kalle\AppData\Local\Temp\cc2hNkGN.s:2806   .text.LCD_DrawPoint_big:000000000000000a .LVL325
C:\Users\Kalle\AppData\Local\Temp\cc2hNkGN.s:2514   .text.LCD_ShowChinese:0000000000000002 .LCFI33
C:\Users\Kalle\AppData\Local\Temp\cc2hNkGN.s:2633   .text.LCD_ShowChinese:00000000000000a2 .LCFI34
C:\Users\Kalle\AppData\Local\Temp\cc2hNkGN.s:2638   .text.LCD_ShowChinese:00000000000000a4 .LCFI35
C:\Users\Kalle\AppData\Local\Temp\cc2hNkGN.s:2507   .text.LCD_ShowChinese:0000000000000000 .LVL286
C:\Users\Kalle\AppData\Local\Temp\cc2hNkGN.s:2636   .text.LCD_ShowChinese:00000000000000a4 .LVL303
C:\Users\Kalle\AppData\Local\Temp\cc2hNkGN.s:2549   .text.LCD_ShowChinese:0000000000000040 .LVL289
C:\Users\Kalle\AppData\Local\Temp\cc2hNkGN.s:2521   .text.LCD_ShowChinese:000000000000000e .LVL287
C:\Users\Kalle\AppData\Local\Temp\cc2hNkGN.s:2530   .text.LCD_ShowChinese:000000000000001e .LVL288
C:\Users\Kalle\AppData\Local\Temp\cc2hNkGN.s:2589   .text.LCD_ShowChinese:0000000000000072 .LVL294
C:\Users\Kalle\AppData\Local\Temp\cc2hNkGN.s:2592   .text.LCD_ShowChinese:0000000000000076 .LVL295
C:\Users\Kalle\AppData\Local\Temp\cc2hNkGN.s:2623   .text.LCD_ShowChinese:0000000000000098 .LVL302
C:\Users\Kalle\AppData\Local\Temp\cc2hNkGN.s:2576   .text.LCD_ShowChinese:0000000000000064 .LVL293
GAS LISTING C:\Users\Kalle\AppData\Local\Temp\cc2hNkGN.s 			page 199


C:\Users\Kalle\AppData\Local\Temp\cc2hNkGN.s:2595   .text.LCD_ShowChinese:0000000000000078 .LVL296
C:\Users\Kalle\AppData\Local\Temp\cc2hNkGN.s:2561   .text.LCD_ShowChinese:0000000000000056 .LVL291
C:\Users\Kalle\AppData\Local\Temp\cc2hNkGN.s:2571   .text.LCD_ShowChinese:0000000000000062 .LVL292
C:\Users\Kalle\AppData\Local\Temp\cc2hNkGN.s:2603   .text.LCD_ShowChinese:0000000000000086 .LVL298
C:\Users\Kalle\AppData\Local\Temp\cc2hNkGN.s:2607   .text.LCD_ShowChinese:000000000000008c .LVL299
C:\Users\Kalle\AppData\Local\Temp\cc2hNkGN.s:2610   .text.LCD_ShowChinese:0000000000000090 .LVL300
C:\Users\Kalle\AppData\Local\Temp\cc2hNkGN.s:2649   .text.LCD_ShowChinese:00000000000000b6 .LVL305
C:\Users\Kalle\AppData\Local\Temp\cc2hNkGN.s:2620   .text.LCD_ShowChinese:0000000000000096 .LVL301
C:\Users\Kalle\AppData\Local\Temp\cc2hNkGN.s:2438   .text.LCD_Clear:0000000000000002 .LCFI31
C:\Users\Kalle\AppData\Local\Temp\cc2hNkGN.s:2493   .text.LCD_Clear:0000000000000046 .LCFI32
C:\Users\Kalle\AppData\Local\Temp\cc2hNkGN.s:2433   .text.LCD_Clear:0000000000000000 .LVL276
C:\Users\Kalle\AppData\Local\Temp\cc2hNkGN.s:2450   .text.LCD_Clear:0000000000000012 .LVL277
C:\Users\Kalle\AppData\Local\Temp\cc2hNkGN.s:2488   .text.LCD_Clear:0000000000000042 .LVL284
C:\Users\Kalle\AppData\Local\Temp\cc2hNkGN.s:2476   .text.LCD_Clear:0000000000000036 .LVL282
C:\Users\Kalle\AppData\Local\Temp\cc2hNkGN.s:2478   .text.LCD_Clear:0000000000000038 .LVL283
C:\Users\Kalle\AppData\Local\Temp\cc2hNkGN.s:2491   .text.LCD_Clear:0000000000000044 .LVL285
C:\Users\Kalle\AppData\Local\Temp\cc2hNkGN.s:2466   .text.LCD_Clear:0000000000000028 .LVL279
C:\Users\Kalle\AppData\Local\Temp\cc2hNkGN.s:2470   .text.LCD_Clear:000000000000002a .LVL280
C:\Users\Kalle\AppData\Local\Temp\cc2hNkGN.s:1231   .text.Lcd_Init:0000000000000002 .LCFI28
C:\Users\Kalle\AppData\Local\Temp\cc2hNkGN.s:2395   .text.Lcd_Init:000000000000081a .LCFI29
C:\Users\Kalle\AppData\Local\Temp\cc2hNkGN.s:2403   .text.Lcd_Init:0000000000000822 .LCFI30
C:\Users\Kalle\AppData\Local\Temp\cc2hNkGN.s:1246   .text.Lcd_Init:0000000000000014 .LVL108
C:\Users\Kalle\AppData\Local\Temp\cc2hNkGN.s:1259   .text.Lcd_Init:000000000000001c .LVL109
C:\Users\Kalle\AppData\Local\Temp\cc2hNkGN.s:1347   .text.Lcd_Init:00000000000000e6 .LVL125
C:\Users\Kalle\AppData\Local\Temp\cc2hNkGN.s:1098   .text.spi_config:0000000000000002 .LCFI26
C:\Users\Kalle\AppData\Local\Temp\cc2hNkGN.s:1165   .text.spi_config:000000000000006a .LCFI27
C:\Users\Kalle\AppData\Local\Temp\cc2hNkGN.s:733    .text.LCD_Address_Set:0000000000000002 .LCFI21
C:\Users\Kalle\AppData\Local\Temp\cc2hNkGN.s:859    .text.LCD_Address_Set:00000000000000aa .LCFI22
C:\Users\Kalle\AppData\Local\Temp\cc2hNkGN.s:724    .text.LCD_Address_Set:0000000000000000 .LVL51
C:\Users\Kalle\AppData\Local\Temp\cc2hNkGN.s:747    .text.LCD_Address_Set:0000000000000010 .LVL53
C:\Users\Kalle\AppData\Local\Temp\cc2hNkGN.s:850    .text.LCD_Address_Set:00000000000000a4 .LVL66
C:\Users\Kalle\AppData\Local\Temp\cc2hNkGN.s:745    .text.LCD_Address_Set:000000000000000c .LVL52
C:\Users\Kalle\AppData\Local\Temp\cc2hNkGN.s:844    .text.LCD_Address_Set:00000000000000a0 .LVL64
C:\Users\Kalle\AppData\Local\Temp\cc2hNkGN.s:847    .text.LCD_Address_Set:00000000000000a2 .LVL65
C:\Users\Kalle\AppData\Local\Temp\cc2hNkGN.s:841    .text.LCD_Address_Set:000000000000009e .LVL63
C:\Users\Kalle\AppData\Local\Temp\cc2hNkGN.s:630    .text.LCD_WR_DATA:0000000000000002 .LCFI17
C:\Users\Kalle\AppData\Local\Temp\cc2hNkGN.s:663    .text.LCD_WR_DATA:0000000000000030 .LCFI18
C:\Users\Kalle\AppData\Local\Temp\cc2hNkGN.s:626    .text.LCD_WR_DATA:0000000000000000 .LVL41
C:\Users\Kalle\AppData\Local\Temp\cc2hNkGN.s:640    .text.LCD_WR_DATA:000000000000000c .LVL42
C:\Users\Kalle\AppData\Local\Temp\cc2hNkGN.s:659    .text.LCD_WR_DATA:000000000000002c .LVL45
C:\Users\Kalle\AppData\Local\Temp\cc2hNkGN.s:489    .text.LCD_Writ_Bus:0000000000000002 .LCFI13
C:\Users\Kalle\AppData\Local\Temp\cc2hNkGN.s:565    .text.LCD_Writ_Bus:0000000000000070 .LCFI14
C:\Users\Kalle\AppData\Local\Temp\cc2hNkGN.s:485    .text.LCD_Writ_Bus:0000000000000000 .LVL29
C:\Users\Kalle\AppData\Local\Temp\cc2hNkGN.s:503    .text.LCD_Writ_Bus:0000000000000012 .LVL30
C:\Users\Kalle\AppData\Local\Temp\cc2hNkGN.s:391    .text.LCD_Write_Bus:0000000000000002 .LCFI11
C:\Users\Kalle\AppData\Local\Temp\cc2hNkGN.s:471    .text.LCD_Write_Bus:0000000000000078 .LCFI12
C:\Users\Kalle\AppData\Local\Temp\cc2hNkGN.s:387    .text.LCD_Write_Bus:0000000000000000 .LVL25
C:\Users\Kalle\AppData\Local\Temp\cc2hNkGN.s:428    .text.LCD_Write_Bus:000000000000003a .LVL26
C:\Users\Kalle\AppData\Local\Temp\cc2hNkGN.s:469    .text.LCD_Write_Bus:0000000000000076 .LVL28
C:\Users\Kalle\AppData\Local\Temp\cc2hNkGN.s:337    .text.LCD_Wait_On_Queue:0000000000000002 .LCFI9
C:\Users\Kalle\AppData\Local\Temp\cc2hNkGN.s:373    .text.LCD_Wait_On_Queue:0000000000000038 .LCFI10
C:\Users\Kalle\AppData\Local\Temp\cc2hNkGN.s:28     .text.lcd_delay_1ms:0000000000000002 .LCFI0
C:\Users\Kalle\AppData\Local\Temp\cc2hNkGN.s:157    .text.lcd_delay_1ms:00000000000000cc .LCFI1
C:\Users\Kalle\AppData\Local\Temp\cc2hNkGN.s:23     .text.lcd_delay_1ms:0000000000000000 .LVL0
C:\Users\Kalle\AppData\Local\Temp\cc2hNkGN.s:151    .text.lcd_delay_1ms:00000000000000c6 .LVL17
C:\Users\Kalle\AppData\Local\Temp\cc2hNkGN.s:68     .text.lcd_delay_1ms:0000000000000032 .LVL4
C:\Users\Kalle\AppData\Local\Temp\cc2hNkGN.s:136    .text.lcd_delay_1ms:00000000000000b8 .LVL16
GAS LISTING C:\Users\Kalle\AppData\Local\Temp\cc2hNkGN.s 			page 200


C:\Users\Kalle\AppData\Local\Temp\cc2hNkGN.s:59     .text.lcd_delay_1ms:0000000000000026 .LVL2
C:\Users\Kalle\AppData\Local\Temp\cc2hNkGN.s:76     .text.lcd_delay_1ms:0000000000000042 .LVL5
C:\Users\Kalle\AppData\Local\Temp\cc2hNkGN.s:174    .text.LCD_WR_Queue:0000000000000002 .LCFI2
C:\Users\Kalle\AppData\Local\Temp\cc2hNkGN.s:210    .text.LCD_WR_Queue:000000000000003a .LCFI3
C:\Users\Kalle\AppData\Local\Temp\cc2hNkGN.s:214    .text.LCD_WR_Queue:000000000000003c .LCFI4
C:\Users\Kalle\AppData\Local\Temp\cc2hNkGN.s:285    .text.LCD_WR_Queue:00000000000000aa .LCFI5
C:\Users\Kalle\AppData\Local\Temp\cc2hNkGN.s:289    .text.LCD_WR_Queue:00000000000000ac .LCFI6
C:\Users\Kalle\AppData\Local\Temp\cc2hNkGN.s:307    .text.LCD_WR_Queue:00000000000000ba .LCFI7
C:\Users\Kalle\AppData\Local\Temp\cc2hNkGN.s:313    .text.LCD_WR_Queue:00000000000000c2 .LCFI8
C:\Users\Kalle\AppData\Local\Temp\cc2hNkGN.s:585    .text.LCD_WR_DATA8:0000000000000002 .LCFI15
C:\Users\Kalle\AppData\Local\Temp\cc2hNkGN.s:610    .text.LCD_WR_DATA8:000000000000001e .LCFI16
C:\Users\Kalle\AppData\Local\Temp\cc2hNkGN.s:581    .text.LCD_WR_DATA8:0000000000000000 .LVL37
C:\Users\Kalle\AppData\Local\Temp\cc2hNkGN.s:595    .text.LCD_WR_DATA8:000000000000000c .LVL38
C:\Users\Kalle\AppData\Local\Temp\cc2hNkGN.s:683    .text.LCD_WR_REG:0000000000000002 .LCFI19
C:\Users\Kalle\AppData\Local\Temp\cc2hNkGN.s:708    .text.LCD_WR_REG:000000000000001e .LCFI20
C:\Users\Kalle\AppData\Local\Temp\cc2hNkGN.s:679    .text.LCD_WR_REG:0000000000000000 .LVL47
C:\Users\Kalle\AppData\Local\Temp\cc2hNkGN.s:693    .text.LCD_WR_REG:000000000000000c .LVL48
C:\Users\Kalle\AppData\Local\Temp\cc2hNkGN.s:880    .text.LCD_ShowChar.part.2:0000000000000002 .LCFI23
C:\Users\Kalle\AppData\Local\Temp\cc2hNkGN.s:1008   .text.LCD_ShowChar.part.2:000000000000008e .LCFI24
C:\Users\Kalle\AppData\Local\Temp\cc2hNkGN.s:1013   .text.LCD_ShowChar.part.2:0000000000000090 .LCFI25
C:\Users\Kalle\AppData\Local\Temp\cc2hNkGN.s:878    .text.LCD_ShowChar.part.2:0000000000000000 .LVL68
C:\Users\Kalle\AppData\Local\Temp\cc2hNkGN.s:943    .text.LCD_ShowChar.part.2:0000000000000052 .LVL74
C:\Users\Kalle\AppData\Local\Temp\cc2hNkGN.s:976    .text.LCD_ShowChar.part.2:0000000000000072 .LVL81
C:\Users\Kalle\AppData\Local\Temp\cc2hNkGN.s:981    .text.LCD_ShowChar.part.2:0000000000000078 .LVL82
C:\Users\Kalle\AppData\Local\Temp\cc2hNkGN.s:1011   .text.LCD_ShowChar.part.2:0000000000000090 .LVL85
C:\Users\Kalle\AppData\Local\Temp\cc2hNkGN.s:938    .text.LCD_ShowChar.part.2:000000000000004e .LVL73
C:\Users\Kalle\AppData\Local\Temp\cc2hNkGN.s:1019   .text.LCD_ShowChar.part.2:0000000000000098 .LVL86
C:\Users\Kalle\AppData\Local\Temp\cc2hNkGN.s:1023   .text.LCD_ShowChar.part.2:00000000000000a4 .LVL87
C:\Users\Kalle\AppData\Local\Temp\cc2hNkGN.s:891    .text.LCD_ShowChar.part.2:000000000000000e .LVL69
C:\Users\Kalle\AppData\Local\Temp\cc2hNkGN.s:919    .text.LCD_ShowChar.part.2:000000000000002a .LVL71
C:\Users\Kalle\AppData\Local\Temp\cc2hNkGN.s:898    .text.LCD_ShowChar.part.2:0000000000000018 .LVL70
C:\Users\Kalle\AppData\Local\Temp\cc2hNkGN.s:958    .text.LCD_ShowChar.part.2:000000000000005c .LVL76
C:\Users\Kalle\AppData\Local\Temp\cc2hNkGN.s:961    .text.LCD_ShowChar.part.2:0000000000000060 .LVL77
C:\Users\Kalle\AppData\Local\Temp\cc2hNkGN.s:994    .text.LCD_ShowChar.part.2:0000000000000080 .LVL84
C:\Users\Kalle\AppData\Local\Temp\cc2hNkGN.s:991    .text.LCD_ShowChar.part.2:000000000000007e .LVL83
C:\Users\Kalle\AppData\Local\Temp\cc2hNkGN.s:1030   .text.LCD_ShowChar.part.2:00000000000000ae .LVL88
C:\Users\Kalle\AppData\Local\Temp\cc2hNkGN.s:1076   .text.LCD_ShowChar.part.2:00000000000000e2 .LVL98
C:\Users\Kalle\AppData\Local\Temp\cc2hNkGN.s:1079   .text.LCD_ShowChar.part.2:00000000000000e4 .LVL99
C:\Users\Kalle\AppData\Local\Temp\cc2hNkGN.s:947    .text.LCD_ShowChar.part.2:0000000000000054 .LVL75
C:\Users\Kalle\AppData\Local\Temp\cc2hNkGN.s:964    .text.LCD_ShowChar.part.2:0000000000000062 .LVL78
C:\Users\Kalle\AppData\Local\Temp\cc2hNkGN.s:1035   .text.LCD_ShowChar.part.2:00000000000000b2 .LVL89
C:\Users\Kalle\AppData\Local\Temp\cc2hNkGN.s:1039   .text.LCD_ShowChar.part.2:00000000000000b4 .LVL90
C:\Users\Kalle\AppData\Local\Temp\cc2hNkGN.s:1046   .text.LCD_ShowChar.part.2:00000000000000ba .LVL92
C:\Users\Kalle\AppData\Local\Temp\cc2hNkGN.s:1065   .text.LCD_ShowChar.part.2:00000000000000d4 .LVL95
C:\Users\Kalle\AppData\Local\Temp\cc2hNkGN.s:1052   .text.LCD_ShowChar.part.2:00000000000000c0 .LVL93
C:\Users\Kalle\AppData\Local\Temp\cc2hNkGN.s:1199   .text.Lcd_SetType:0000000000000018 .LVL106
C:\Users\Kalle\AppData\Local\Temp\cc2hNkGN.s:1211   .text.Lcd_SetType:0000000000000028 .LVL107
C:\Users\Kalle\AppData\Local\Temp\cc2hNkGN.s:2667   .text.LCD_DrawPoint:0000000000000002 .LCFI36
C:\Users\Kalle\AppData\Local\Temp\cc2hNkGN.s:2693   .text.LCD_DrawPoint:000000000000001c .LCFI37
C:\Users\Kalle\AppData\Local\Temp\cc2hNkGN.s:2663   .text.LCD_DrawPoint:0000000000000000 .LVL306
C:\Users\Kalle\AppData\Local\Temp\cc2hNkGN.s:2677   .text.LCD_DrawPoint:000000000000000a .LVL307
C:\Users\Kalle\AppData\Local\Temp\cc2hNkGN.s:2689   .text.LCD_DrawPoint:0000000000000018 .LVL309
C:\Users\Kalle\AppData\Local\Temp\cc2hNkGN.s:3404   .text.LCD_ShowChar:0000000000000000 .LVL407
C:\Users\Kalle\AppData\Local\Temp\cc2hNkGN.s:3742   .text.mypow:0000000000000000 .LVL437
C:\Users\Kalle\AppData\Local\Temp\cc2hNkGN.s:3770   .text.mypow:0000000000000020 .LVL443
C:\Users\Kalle\AppData\Local\Temp\cc2hNkGN.s:3748   .text.mypow:0000000000000008 .LVL438
C:\Users\Kalle\AppData\Local\Temp\cc2hNkGN.s:3759   .text.mypow:0000000000000012 .LVL440
GAS LISTING C:\Users\Kalle\AppData\Local\Temp\cc2hNkGN.s 			page 201


C:\Users\Kalle\AppData\Local\Temp\cc2hNkGN.s:3763   .text.mypow:000000000000001a .LVL441
C:\Users\Kalle\AppData\Local\Temp\cc2hNkGN.s:3754   .text.mypow:0000000000000010 .LVL439
C:\Users\Kalle\AppData\Local\Temp\cc2hNkGN.s:3766   .text.mypow:000000000000001e .LVL442
C:\Users\Kalle\AppData\Local\Temp\cc2hNkGN.s:6814   .debug_info:0000000000000000 .Ldebug_info0
C:\Users\Kalle\AppData\Local\Temp\cc2hNkGN.s:263    .text.LCD_WR_Queue:0000000000000092 .LBE206
C:\Users\Kalle\AppData\Local\Temp\cc2hNkGN.s:270    .text.LCD_WR_Queue:0000000000000096 .LBB210
C:\Users\Kalle\AppData\Local\Temp\cc2hNkGN.s:280    .text.LCD_WR_Queue:00000000000000a6 .LBE210
C:\Users\Kalle\AppData\Local\Temp\cc2hNkGN.s:315    .text.LCD_WR_Queue:00000000000000c2 .LBB211
C:\Users\Kalle\AppData\Local\Temp\cc2hNkGN.s:322    .text.LCD_WR_Queue:00000000000000cc .LBE211
C:\Users\Kalle\AppData\Local\Temp\cc2hNkGN.s:730    .text.LCD_Address_Set:0000000000000000 .LBE212
C:\Users\Kalle\AppData\Local\Temp\cc2hNkGN.s:741    .text.LCD_Address_Set:000000000000000a .LBB217
C:\Users\Kalle\AppData\Local\Temp\cc2hNkGN.s:749    .text.LCD_Address_Set:0000000000000010 .LBE217
C:\Users\Kalle\AppData\Local\Temp\cc2hNkGN.s:762    .text.LCD_Address_Set:000000000000001c .LBB218
C:\Users\Kalle\AppData\Local\Temp\cc2hNkGN.s:770    .text.LCD_Address_Set:0000000000000028 .LBE218
C:\Users\Kalle\AppData\Local\Temp\cc2hNkGN.s:773    .text.LCD_Address_Set:000000000000002c .LBB219
C:\Users\Kalle\AppData\Local\Temp\cc2hNkGN.s:779    .text.LCD_Address_Set:0000000000000034 .LBE219
C:\Users\Kalle\AppData\Local\Temp\cc2hNkGN.s:833    .text.LCD_Address_Set:0000000000000098 .LBE222
C:\Users\Kalle\AppData\Local\Temp\cc2hNkGN.s:851    .text.LCD_Address_Set:00000000000000a4 .LBB226
C:\Users\Kalle\AppData\Local\Temp\cc2hNkGN.s:856    .text.LCD_Address_Set:00000000000000a8 .LBE226
C:\Users\Kalle\AppData\Local\Temp\cc2hNkGN.s:861    .text.LCD_Address_Set:00000000000000aa .LBB227
C:\Users\Kalle\AppData\Local\Temp\cc2hNkGN.s:867    .text.LCD_Address_Set:00000000000000b2 .LBE227
C:\Users\Kalle\AppData\Local\Temp\cc2hNkGN.s:2380   .text.Lcd_Init:0000000000000810 .LBE386
C:\Users\Kalle\AppData\Local\Temp\cc2hNkGN.s:2387   .text.Lcd_Init:0000000000000814 .LBB390
C:\Users\Kalle\AppData\Local\Temp\cc2hNkGN.s:2392   .text.Lcd_Init:0000000000000818 .LBE390
C:\Users\Kalle\AppData\Local\Temp\cc2hNkGN.s:2397   .text.Lcd_Init:000000000000081a .LBB391
C:\Users\Kalle\AppData\Local\Temp\cc2hNkGN.s:2406   .text.Lcd_Init:0000000000000822 .LBE391
C:\Users\Kalle\AppData\Local\Temp\cc2hNkGN.s:2917   .text.LCD_DrawLine:0000000000000054 .LBE394
C:\Users\Kalle\AppData\Local\Temp\cc2hNkGN.s:2921   .text.LCD_DrawLine:0000000000000056 .LBB397
C:\Users\Kalle\AppData\Local\Temp\cc2hNkGN.s:2927   .text.LCD_DrawLine:000000000000005e .LBE397
C:\Users\Kalle\AppData\Local\Temp\cc2hNkGN.s:3495   .text.LCD_ShowString:000000000000003c .LBE414
C:\Users\Kalle\AppData\Local\Temp\cc2hNkGN.s:3502   .text.LCD_ShowString:0000000000000040 .LBB420
C:\Users\Kalle\AppData\Local\Temp\cc2hNkGN.s:3508   .text.LCD_ShowString:0000000000000046 .LBE420
C:\Users\Kalle\AppData\Local\Temp\cc2hNkGN.s:3512   .text.LCD_ShowString:0000000000000048 .LBB421
C:\Users\Kalle\AppData\Local\Temp\cc2hNkGN.s:3517   .text.LCD_ShowString:0000000000000050 .LBE421
C:\Users\Kalle\AppData\Local\Temp\cc2hNkGN.s:3559   .text.LCD_ShowString:0000000000000074 .LBB422
C:\Users\Kalle\AppData\Local\Temp\cc2hNkGN.s:3566   .text.LCD_ShowString:0000000000000074 .LBE422
C:\Users\Kalle\AppData\Local\Temp\cc2hNkGN.s:3582   .text.LCD_ShowString:0000000000000088 .LBB423
C:\Users\Kalle\AppData\Local\Temp\cc2hNkGN.s:3589   .text.LCD_ShowString:0000000000000088 .LBE423
C:\Users\Kalle\AppData\Local\Temp\cc2hNkGN.s:3680   .text.LCD_ShowStr:000000000000003e .LBE424
C:\Users\Kalle\AppData\Local\Temp\cc2hNkGN.s:3684   .text.LCD_ShowStr:0000000000000040 .LBB427
C:\Users\Kalle\AppData\Local\Temp\cc2hNkGN.s:3689   .text.LCD_ShowStr:0000000000000048 .LBE427
C:\Users\Kalle\AppData\Local\Temp\cc2hNkGN.s:3834   .text.LCD_ShowNum:0000000000000036 .LBE428
C:\Users\Kalle\AppData\Local\Temp\cc2hNkGN.s:3852   .text.LCD_ShowNum:0000000000000048 .LBB435
C:\Users\Kalle\AppData\Local\Temp\cc2hNkGN.s:3884   .text.LCD_ShowNum:0000000000000066 .LBE435
C:\Users\Kalle\AppData\Local\Temp\cc2hNkGN.s:3967   .text.LCD_ShowNum:00000000000000be .LBB437
C:\Users\Kalle\AppData\Local\Temp\cc2hNkGN.s:3975   .text.LCD_ShowNum:00000000000000c2 .LBE437
C:\Users\Kalle\AppData\Local\Temp\cc2hNkGN.s:3844   .text.LCD_ShowNum:0000000000000040 .LBE432
C:\Users\Kalle\AppData\Local\Temp\cc2hNkGN.s:3900   .text.LCD_ShowNum:0000000000000076 .LBB436
C:\Users\Kalle\AppData\Local\Temp\cc2hNkGN.s:3925   .text.LCD_ShowNum:000000000000009c .LBE436
C:\Users\Kalle\AppData\Local\Temp\cc2hNkGN.s:4074   .text.LCD_ShowNum1:0000000000000048 .LBE440
C:\Users\Kalle\AppData\Local\Temp\cc2hNkGN.s:4093   .text.LCD_ShowNum1:000000000000005c .LBB447
C:\Users\Kalle\AppData\Local\Temp\cc2hNkGN.s:4128   .text.LCD_ShowNum1:000000000000007e .LBE447
C:\Users\Kalle\AppData\Local\Temp\cc2hNkGN.s:4255   .text.LCD_ShowNum1:00000000000000fe .LBB453
C:\Users\Kalle\AppData\Local\Temp\cc2hNkGN.s:4261   .text.LCD_ShowNum1:0000000000000102 .LBE453
C:\Users\Kalle\AppData\Local\Temp\cc2hNkGN.s:4082   .text.LCD_ShowNum1:0000000000000050 .LBE444
C:\Users\Kalle\AppData\Local\Temp\cc2hNkGN.s:4219   .text.LCD_ShowNum1:00000000000000d6 .LBB452
C:\Users\Kalle\AppData\Local\Temp\cc2hNkGN.s:4237   .text.LCD_ShowNum1:00000000000000f0 .LBE452
GAS LISTING C:\Users\Kalle\AppData\Local\Temp\cc2hNkGN.s 			page 202


C:\Users\Kalle\AppData\Local\Temp\cc2hNkGN.s:4155   .text.LCD_ShowNum1:000000000000009a .LBE448
C:\Users\Kalle\AppData\Local\Temp\cc2hNkGN.s:4158   .text.LCD_ShowNum1:000000000000009e .LBB451
C:\Users\Kalle\AppData\Local\Temp\cc2hNkGN.s:4165   .text.LCD_ShowNum1:00000000000000aa .LBE451

UNDEFINED SYMBOLS
__floatundidf
__floatunsidf
__divdf3
__muldf3
__ltdf2
get_timer_value
SystemCoreClock
spi_i2s_flag_get
gpio_bit_reset
spi_i2s_data_transmit
gpio_bit_set
spi_i2s_data_receive
spi_struct_para_init
spi_init
spi_crc_polynomial_set
spi_enable
rcu_periph_clock_enable
gpio_init
__mulsf3
__fixunssfsi
