GAS LISTING C:\Users\Kalle\AppData\Local\Temp\cc2hNkGN.s 			page 1


   1              		.file	"lcd.c"
   2              		.option nopic
   3              		.attribute arch, "rv32i2p0_m2p0_a2p0_c2p0"
   4              		.attribute unaligned_access, 0
   5              		.attribute stack_align, 16
   6              		.text
   7              	.Ltext0:
   8              		.cfi_sections	.debug_frame
   9              		.globl	__floatundidf
  10              		.globl	__floatunsidf
  11              		.globl	__divdf3
  12              		.globl	__muldf3
  13              		.globl	__ltdf2
  14              		.section	.text.lcd_delay_1ms,"ax",@progbits
  15              		.align	1
  16              		.globl	lcd_delay_1ms
  18              	lcd_delay_1ms:
  19              	.LFB2:
  20              		.file 1 "lib/lcd/src/lcd.c"
   1:lib/lcd/src/lcd.c **** /*
   2:lib/lcd/src/lcd.c ****   Longan Nano LCD driver
   3:lib/lcd/src/lcd.c **** */
   4:lib/lcd/src/lcd.c **** 
   5:lib/lcd/src/lcd.c **** #include "lcd.h"
   6:lib/lcd/src/lcd.c **** #include "oledfont.h"
   7:lib/lcd/src/lcd.c **** 
   8:lib/lcd/src/lcd.c **** u16 BACK_COLOR;	// Background color
   9:lib/lcd/src/lcd.c **** 
  10:lib/lcd/src/lcd.c **** typedef struct{
  11:lib/lcd/src/lcd.c **** 	u8 configured;
  12:lib/lcd/src/lcd.c **** 	u8 inverted;
  13:lib/lcd/src/lcd.c **** 	u8 offset_x;
  14:lib/lcd/src/lcd.c **** 	u8 offset_y;
  15:lib/lcd/src/lcd.c **** }lcd_config_t;
  16:lib/lcd/src/lcd.c **** 
  17:lib/lcd/src/lcd.c **** lcd_config_t lcd_conf = {0};
  18:lib/lcd/src/lcd.c **** 
  19:lib/lcd/src/lcd.c **** 
  20:lib/lcd/src/lcd.c **** void lcd_delay_1ms(uint32_t count)
  21:lib/lcd/src/lcd.c **** {
  21              		.loc 1 21 1
  22              		.cfi_startproc
  23              	.LVL0:
  22:lib/lcd/src/lcd.c **** 	uint64_t start_mtime, delta_mtime;
  24              		.loc 1 22 2
  23:lib/lcd/src/lcd.c **** 
  24:lib/lcd/src/lcd.c **** 	// Don't start measuring until we see an mtime tick
  25:lib/lcd/src/lcd.c **** 	uint64_t tmp = get_timer_value();
  25              		.loc 1 25 2
  21:lib/lcd/src/lcd.c **** 	uint64_t start_mtime, delta_mtime;
  26              		.loc 1 21 1 is_stmt 0
  27 0000 7971     		addi	sp,sp,-48
  28              	.LCFI0:
  29              		.cfi_def_cfa_offset 48
  30 0002 4AD0     		sw	s2,32(sp)
  31 0004 4ECE     		sw	s3,28(sp)
  32 0006 5EC6     		sw	s7,12(sp)
GAS LISTING C:\Users\Kalle\AppData\Local\Temp\cc2hNkGN.s 			page 2


  33 0008 06D6     		sw	ra,44(sp)
  34 000a 22D4     		sw	s0,40(sp)
  35 000c 26D2     		sw	s1,36(sp)
  36 000e 52CC     		sw	s4,24(sp)
  37 0010 56CA     		sw	s5,20(sp)
  38 0012 5AC8     		sw	s6,16(sp)
  39 0014 62C4     		sw	s8,8(sp)
  40 0016 66C2     		sw	s9,4(sp)
  41              		.cfi_offset 18, -16
  42              		.cfi_offset 19, -20
  43              		.cfi_offset 23, -36
  44              		.cfi_offset 1, -4
  45              		.cfi_offset 8, -8
  46              		.cfi_offset 9, -12
  47              		.cfi_offset 20, -24
  48              		.cfi_offset 21, -28
  49              		.cfi_offset 22, -32
  50              		.cfi_offset 24, -40
  51              		.cfi_offset 25, -44
  21:lib/lcd/src/lcd.c **** 	uint64_t start_mtime, delta_mtime;
  52              		.loc 1 21 1
  53 0018 AA8B     		mv	s7,a0
  54              		.loc 1 25 17
  55 001a 97000000 		call	get_timer_value
  55      E7800000 
  56              	.LVL1:
  57 0022 2A89     		mv	s2,a0
  58 0024 AE89     		mv	s3,a1
  59              	.LVL2:
  60              	.L2:
  26:lib/lcd/src/lcd.c **** 	do {
  61              		.loc 1 26 2 is_stmt 1 discriminator 1
  27:lib/lcd/src/lcd.c **** 	start_mtime = get_timer_value();
  62              		.loc 1 27 2 discriminator 1
  63              		.loc 1 27 16 is_stmt 0 discriminator 1
  64 0026 97000000 		call	get_timer_value
  64      E7800000 
  65              	.LVL3:
  66 002e 2A84     		mv	s0,a0
  67 0030 AE84     		mv	s1,a1
  68              	.LVL4:
  28:lib/lcd/src/lcd.c **** 	} while (start_mtime == tmp);
  69              		.loc 1 28 2 discriminator 1
  70 0032 6314A900 		bne	s2,a0,.L3
  71 0036 E388B9FE 		beq	s3,a1,.L2
  72              	.L3:
  73 003a B7070000 		lui	a5,%hi(.LC0)
  29:lib/lcd/src/lcd.c **** 
  30:lib/lcd/src/lcd.c **** 	do {
  31:lib/lcd/src/lcd.c **** 	delta_mtime = get_timer_value() - start_mtime;
  32:lib/lcd/src/lcd.c **** 	}while(delta_mtime <(SystemCoreClock/4000.0 *count ));
  74              		.loc 1 32 38 discriminator 1
  75 003e 03A90700 		lw	s2,%lo(.LC0)(a5)
  76              	.LVL5:
  77 0042 83A94700 		lw	s3,%lo(.LC0+4)(a5)
  78 0046 370B0000 		lui	s6,%hi(SystemCoreClock)
  79              	.L4:
GAS LISTING C:\Users\Kalle\AppData\Local\Temp\cc2hNkGN.s 			page 3


  30:lib/lcd/src/lcd.c **** 	delta_mtime = get_timer_value() - start_mtime;
  80              		.loc 1 30 2 is_stmt 1 discriminator 1
  31:lib/lcd/src/lcd.c **** 	}while(delta_mtime <(SystemCoreClock/4000.0 *count ));
  81              		.loc 1 31 2 discriminator 1
  31:lib/lcd/src/lcd.c **** 	}while(delta_mtime <(SystemCoreClock/4000.0 *count ));
  82              		.loc 1 31 16 is_stmt 0 discriminator 1
  83 004a 97000000 		call	get_timer_value
  83      E7800000 
  84              	.LVL6:
  85 0052 AA87     		mv	a5,a0
  86              	.LVL7:
  31:lib/lcd/src/lcd.c **** 	}while(delta_mtime <(SystemCoreClock/4000.0 *count ));
  87              		.loc 1 31 14 discriminator 1
  88 0054 018D     		sub	a0,a0,s0
  89              	.LVL8:
  90 0056 B3B7A700 		sgtu	a5,a0,a5
  91              	.LVL9:
  92 005a 858D     		sub	a1,a1,s1
  93              		.loc 1 32 21 discriminator 1
  94 005c 9D8D     		sub	a1,a1,a5
  95 005e 97000000 		call	__floatundidf
  95      E7800000 
  96              	.LVL10:
  97 0066 2A8A     		mv	s4,a0
  98              		.loc 1 32 38 discriminator 1
  99 0068 03250B00 		lw	a0,%lo(SystemCoreClock)(s6)
 100              		.loc 1 32 21 discriminator 1
 101 006c AE8A     		mv	s5,a1
 102              		.loc 1 32 38 discriminator 1
 103 006e 97000000 		call	__floatunsidf
 103      E7800000 
 104              	.LVL11:
 105 0076 4A86     		mv	a2,s2
 106 0078 CE86     		mv	a3,s3
 107 007a 97000000 		call	__divdf3
 107      E7800000 
 108              	.LVL12:
 109 0082 2A8C     		mv	s8,a0
 110              		.loc 1 32 46 discriminator 1
 111 0084 5E85     		mv	a0,s7
 112              		.loc 1 32 38 discriminator 1
 113 0086 AE8C     		mv	s9,a1
 114              		.loc 1 32 46 discriminator 1
 115 0088 97000000 		call	__floatunsidf
 115      E7800000 
 116              	.LVL13:
 117 0090 2A86     		mv	a2,a0
 118 0092 AE86     		mv	a3,a1
 119 0094 6285     		mv	a0,s8
 120 0096 E685     		mv	a1,s9
 121 0098 97000000 		call	__muldf3
 121      E7800000 
 122              	.LVL14:
 123              		.loc 1 32 2 discriminator 1
 124 00a0 2A86     		mv	a2,a0
 125 00a2 AE86     		mv	a3,a1
 126 00a4 5285     		mv	a0,s4
GAS LISTING C:\Users\Kalle\AppData\Local\Temp\cc2hNkGN.s 			page 4


 127 00a6 D685     		mv	a1,s5
 128 00a8 97000000 		call	__ltdf2
 128      E7800000 
 129              	.LVL15:
 130 00b0 E34D05F8 		blt	a0,zero,.L4
  33:lib/lcd/src/lcd.c **** }
 131              		.loc 1 33 1
 132 00b4 B250     		lw	ra,44(sp)
 133              		.cfi_restore 1
 134 00b6 2254     		lw	s0,40(sp)
 135              		.cfi_restore 8
 136              	.LVL16:
 137 00b8 9254     		lw	s1,36(sp)
 138              		.cfi_restore 9
 139 00ba 0259     		lw	s2,32(sp)
 140              		.cfi_restore 18
 141 00bc F249     		lw	s3,28(sp)
 142              		.cfi_restore 19
 143 00be 624A     		lw	s4,24(sp)
 144              		.cfi_restore 20
 145 00c0 D24A     		lw	s5,20(sp)
 146              		.cfi_restore 21
 147 00c2 424B     		lw	s6,16(sp)
 148              		.cfi_restore 22
 149 00c4 B24B     		lw	s7,12(sp)
 150              		.cfi_restore 23
 151              	.LVL17:
 152 00c6 224C     		lw	s8,8(sp)
 153              		.cfi_restore 24
 154 00c8 924C     		lw	s9,4(sp)
 155              		.cfi_restore 25
 156 00ca 4561     		addi	sp,sp,48
 157              	.LCFI1:
 158              		.cfi_def_cfa_offset 0
 159 00cc 8280     		jr	ra
 160              		.cfi_endproc
 161              	.LFE2:
 163              		.section	.text.LCD_WR_Queue,"ax",@progbits
 164              		.align	1
 165              		.globl	LCD_WR_Queue
 167              	LCD_WR_Queue:
 168              	.LFB4:
  34:lib/lcd/src/lcd.c **** 
  35:lib/lcd/src/lcd.c **** 
  36:lib/lcd/src/lcd.c **** 
  37:lib/lcd/src/lcd.c **** int r=0, w=0, queue[256]={0};                       // 256 Byte wr queue
  38:lib/lcd/src/lcd.c **** 
  39:lib/lcd/src/lcd.c **** void LCD_Wait_On_Queue(){
  40:lib/lcd/src/lcd.c **** 	while(r != w) LCD_WR_Queue();					//Blocks while emptying the queue
  41:lib/lcd/src/lcd.c **** }
  42:lib/lcd/src/lcd.c **** 
  43:lib/lcd/src/lcd.c **** void LCD_WR_Queue(){
 169              		.loc 1 43 20 is_stmt 1
 170              		.cfi_startproc
  44:lib/lcd/src/lcd.c ****     if (r!=w) {                                     // Buffer empty?
 171              		.loc 1 44 5
  43:lib/lcd/src/lcd.c ****     if (r!=w) {                                     // Buffer empty?
GAS LISTING C:\Users\Kalle\AppData\Local\Temp\cc2hNkGN.s 			page 5


 172              		.loc 1 43 20 is_stmt 0
 173 0000 4111     		addi	sp,sp,-16
 174              	.LCFI2:
 175              		.cfi_def_cfa_offset 16
 176 0002 22C4     		sw	s0,8(sp)
 177              		.cfi_offset 8, -8
 178              		.loc 1 44 10
 179 0004 37040000 		lui	s0,%hi(.LANCHOR0)
 180 0008 13040400 		addi	s0,s0,%lo(.LANCHOR0)
 181              		.loc 1 44 8
 182 000c B7070000 		lui	a5,%hi(.LANCHOR1)
 183 0010 1840     		lw	a4,0(s0)
 184 0012 83A70700 		lw	a5,%lo(.LANCHOR1)(a5)
  43:lib/lcd/src/lcd.c ****     if (r!=w) {                                     // Buffer empty?
 185              		.loc 1 43 20
 186 0016 06C6     		sw	ra,12(sp)
 187 0018 26C2     		sw	s1,4(sp)
 188              		.cfi_offset 1, -4
 189              		.cfi_offset 9, -12
 190              		.loc 1 44 8
 191 001a 6309F708 		beq	a4,a5,.L9
  45:lib/lcd/src/lcd.c ****        if (spi_i2s_flag_get(SPI1,SPI_FLAG_TBE)) {   // ...no! Device redy?
 192              		.loc 1 45 8 is_stmt 1
 193              		.loc 1 45 12 is_stmt 0
 194 001e 37450040 		li	a0,1073758208
 195 0022 8945     		li	a1,2
 196 0024 13050580 		addi	a0,a0,-2048
 197 0028 97000000 		call	spi_i2s_flag_get
 197      E7800000 
 198              	.LVL18:
 199              		.loc 1 45 11
 200 0030 11E5     		bne	a0,zero,.L17
  46:lib/lcd/src/lcd.c ****           OLED_CS_Clr();                            // ......Yes! CS (again)
  47:lib/lcd/src/lcd.c ****           (queue[r]>=1<<8) ? OLED_DC_Set() : OLED_DC_Clr(); //    DC
  48:lib/lcd/src/lcd.c ****           spi_i2s_data_transmit(SPI1, queue[r++]&0xFF); //        Write!
  49:lib/lcd/src/lcd.c ****           r%=256;                                   //            Advance.
  50:lib/lcd/src/lcd.c ****         }                                           //       (No! Return!)
  51:lib/lcd/src/lcd.c ****     } else {
  52:lib/lcd/src/lcd.c ****         OLED_CS_Set();                              // ...yes! CS high, done!
  53:lib/lcd/src/lcd.c ****     }
  54:lib/lcd/src/lcd.c **** }
 201              		.loc 1 54 1
 202 0032 B240     		lw	ra,12(sp)
 203              		.cfi_remember_state
 204              		.cfi_restore 1
 205 0034 2244     		lw	s0,8(sp)
 206              		.cfi_restore 8
 207 0036 9244     		lw	s1,4(sp)
 208              		.cfi_restore 9
 209 0038 4101     		addi	sp,sp,16
 210              	.LCFI3:
 211              		.cfi_def_cfa_offset 0
 212 003a 8280     		jr	ra
 213              	.L17:
 214              	.LCFI4:
 215              		.cfi_restore_state
 216              	.LBB206:
GAS LISTING C:\Users\Kalle\AppData\Local\Temp\cc2hNkGN.s 			page 6


 217              	.LBB207:
  46:lib/lcd/src/lcd.c ****           OLED_CS_Clr();                            // ......Yes! CS (again)
 218              		.loc 1 46 11 is_stmt 1
 219 003c 8965     		li	a1,8192
 220 003e 37150140 		li	a0,1073811456
 221 0042 97000000 		call	gpio_bit_reset
 221      E7800000 
 222              	.LVL19:
  47:lib/lcd/src/lcd.c ****           spi_i2s_data_transmit(SPI1, queue[r++]&0xFF); //        Write!
 223              		.loc 1 47 11
  47:lib/lcd/src/lcd.c ****           spi_i2s_data_transmit(SPI1, queue[r++]&0xFF); //        Write!
 224              		.loc 1 47 17 is_stmt 0
 225 004a 1C40     		lw	a5,0(s0)
 226 004c B7040000 		lui	s1,%hi(.LANCHOR2)
 227 0050 93840400 		addi	s1,s1,%lo(.LANCHOR2)
 228 0054 8A07     		slli	a5,a5,2
 229 0056 A697     		add	a5,s1,a5
  47:lib/lcd/src/lcd.c ****           spi_i2s_data_transmit(SPI1, queue[r++]&0xFF); //        Write!
 230              		.loc 1 47 44
 231 0058 9843     		lw	a4,0(a5)
 232 005a 9307F00F 		li	a5,255
  47:lib/lcd/src/lcd.c ****           spi_i2s_data_transmit(SPI1, queue[r++]&0xFF); //        Write!
 233              		.loc 1 47 30
 234 005e A165     		li	a1,32768
 235 0060 37150140 		li	a0,1073811456
  47:lib/lcd/src/lcd.c ****           spi_i2s_data_transmit(SPI1, queue[r++]&0xFF); //        Write!
 236              		.loc 1 47 44
 237 0064 63CFE704 		bgt	a4,a5,.L18
  47:lib/lcd/src/lcd.c ****           spi_i2s_data_transmit(SPI1, queue[r++]&0xFF); //        Write!
 238              		.loc 1 47 46
 239 0068 97000000 		call	gpio_bit_reset
 239      E7800000 
 240              	.LVL20:
 241              	.L12:
  48:lib/lcd/src/lcd.c ****           r%=256;                                   //            Advance.
 242              		.loc 1 48 11 is_stmt 1
  48:lib/lcd/src/lcd.c ****           r%=256;                                   //            Advance.
 243              		.loc 1 48 46 is_stmt 0
 244 0070 1C40     		lw	a5,0(s0)
  48:lib/lcd/src/lcd.c ****           r%=256;                                   //            Advance.
 245              		.loc 1 48 11
 246 0072 37450040 		li	a0,1073758208
 247 0076 13050580 		addi	a0,a0,-2048
  48:lib/lcd/src/lcd.c ****           r%=256;                                   //            Advance.
 248              		.loc 1 48 44
 249 007a 13972700 		slli	a4,a5,2
 250 007e BA94     		add	s1,s1,a4
  48:lib/lcd/src/lcd.c ****           r%=256;                                   //            Advance.
 251              		.loc 1 48 11
 252 0080 83C50400 		lbu	a1,0(s1)
  48:lib/lcd/src/lcd.c ****           r%=256;                                   //            Advance.
 253              		.loc 1 48 46
 254 0084 8507     		addi	a5,a5,1
 255 0086 1CC0     		sw	a5,0(s0)
  48:lib/lcd/src/lcd.c ****           r%=256;                                   //            Advance.
 256              		.loc 1 48 11
 257 0088 97000000 		call	spi_i2s_data_transmit
GAS LISTING C:\Users\Kalle\AppData\Local\Temp\cc2hNkGN.s 			page 7


 257      E7800000 
 258              	.LVL21:
  49:lib/lcd/src/lcd.c ****         }                                           //       (No! Return!)
 259              		.loc 1 49 11 is_stmt 1
  49:lib/lcd/src/lcd.c ****         }                                           //       (No! Return!)
 260              		.loc 1 49 12 is_stmt 0
 261 0090 1C40     		lw	a5,0(s0)
 262              	.LBE207:
 263              	.LBE206:
 264              		.loc 1 54 1
 265 0092 B240     		lw	ra,12(sp)
 266              		.cfi_remember_state
 267              		.cfi_restore 1
 268 0094 9244     		lw	s1,4(sp)
 269              		.cfi_restore 9
 270              	.LBB210:
 271              	.LBB208:
  49:lib/lcd/src/lcd.c ****         }                                           //       (No! Return!)
 272              		.loc 1 49 12
 273 0096 13D7F741 		srai	a4,a5,31
 274 009a 6183     		srli	a4,a4,24
 275 009c BA97     		add	a5,a5,a4
 276 009e 93F7F70F 		andi	a5,a5,255
 277 00a2 998F     		sub	a5,a5,a4
 278 00a4 1CC0     		sw	a5,0(s0)
 279              	.LBE208:
 280              	.LBE210:
 281              		.loc 1 54 1
 282 00a6 2244     		lw	s0,8(sp)
 283              		.cfi_restore 8
 284 00a8 4101     		addi	sp,sp,16
 285              	.LCFI5:
 286              		.cfi_def_cfa_offset 0
 287 00aa 8280     		jr	ra
 288              	.L9:
 289              	.LCFI6:
 290              		.cfi_restore_state
  52:lib/lcd/src/lcd.c ****     }
 291              		.loc 1 52 9 is_stmt 1
 292              		.loc 1 54 1 is_stmt 0
 293 00ac 2244     		lw	s0,8(sp)
 294              		.cfi_remember_state
 295              		.cfi_restore 8
 296 00ae B240     		lw	ra,12(sp)
 297              		.cfi_restore 1
 298 00b0 9244     		lw	s1,4(sp)
 299              		.cfi_restore 9
  52:lib/lcd/src/lcd.c ****     }
 300              		.loc 1 52 9
 301 00b2 8965     		li	a1,8192
 302              		.loc 1 54 1
  52:lib/lcd/src/lcd.c ****     }
 303              		.loc 1 52 9
 304 00b4 37150140 		li	a0,1073811456
 305              		.loc 1 54 1
 306 00b8 4101     		addi	sp,sp,16
 307              	.LCFI7:
GAS LISTING C:\Users\Kalle\AppData\Local\Temp\cc2hNkGN.s 			page 8


 308              		.cfi_def_cfa_offset 0
  52:lib/lcd/src/lcd.c ****     }
 309              		.loc 1 52 9
 310 00ba 17030000 		tail	gpio_bit_set
 310      67000300 
 311              	.LVL22:
 312              	.L18:
 313              	.LCFI8:
 314              		.cfi_restore_state
 315              	.LBB211:
 316              	.LBB209:
  47:lib/lcd/src/lcd.c ****           spi_i2s_data_transmit(SPI1, queue[r++]&0xFF); //        Write!
 317              		.loc 1 47 30
 318 00c2 97000000 		call	gpio_bit_set
 318      E7800000 
 319              	.LVL23:
 320 00ca 5DB7     		j	.L12
 321              	.LBE209:
 322              	.LBE211:
 323              		.cfi_endproc
 324              	.LFE4:
 326              		.section	.text.LCD_Wait_On_Queue,"ax",@progbits
 327              		.align	1
 328              		.globl	LCD_Wait_On_Queue
 330              	LCD_Wait_On_Queue:
 331              	.LFB3:
  39:lib/lcd/src/lcd.c **** 	while(r != w) LCD_WR_Queue();					//Blocks while emptying the queue
 332              		.loc 1 39 25 is_stmt 1
 333              		.cfi_startproc
  40:lib/lcd/src/lcd.c **** }
 334              		.loc 1 40 2
  39:lib/lcd/src/lcd.c **** 	while(r != w) LCD_WR_Queue();					//Blocks while emptying the queue
 335              		.loc 1 39 25 is_stmt 0
 336 0000 4111     		addi	sp,sp,-16
 337              	.LCFI9:
 338              		.cfi_def_cfa_offset 16
 339 0002 22C4     		sw	s0,8(sp)
 340 0004 26C2     		sw	s1,4(sp)
 341              		.cfi_offset 8, -8
 342              		.cfi_offset 9, -12
  40:lib/lcd/src/lcd.c **** }
 343              		.loc 1 40 10
 344 0006 37040000 		lui	s0,%hi(.LANCHOR1)
 345 000a B7040000 		lui	s1,%hi(.LANCHOR0)
 346 000e 93840400 		addi	s1,s1,%lo(.LANCHOR0)
 347 0012 13040400 		addi	s0,s0,%lo(.LANCHOR1)
  40:lib/lcd/src/lcd.c **** }
 348              		.loc 1 40 7
 349 0016 9840     		lw	a4,0(s1)
 350 0018 1C40     		lw	a5,0(s0)
  39:lib/lcd/src/lcd.c **** 	while(r != w) LCD_WR_Queue();					//Blocks while emptying the queue
 351              		.loc 1 39 25
 352 001a 06C6     		sw	ra,12(sp)
 353              		.cfi_offset 1, -4
  40:lib/lcd/src/lcd.c **** }
 354              		.loc 1 40 7
 355 001c 630AF700 		beq	a4,a5,.L19
GAS LISTING C:\Users\Kalle\AppData\Local\Temp\cc2hNkGN.s 			page 9


 356              	.L21:
  40:lib/lcd/src/lcd.c **** }
 357              		.loc 1 40 16 is_stmt 1 discriminator 2
 358 0020 97000000 		call	LCD_WR_Queue
 358      E7800000 
 359              	.LVL24:
  40:lib/lcd/src/lcd.c **** }
 360              		.loc 1 40 7 is_stmt 0 discriminator 2
 361 0028 9840     		lw	a4,0(s1)
 362 002a 1C40     		lw	a5,0(s0)
 363 002c E31AF7FE 		bne	a4,a5,.L21
 364              	.L19:
  41:lib/lcd/src/lcd.c **** 
 365              		.loc 1 41 1
 366 0030 B240     		lw	ra,12(sp)
 367              		.cfi_restore 1
 368 0032 2244     		lw	s0,8(sp)
 369              		.cfi_restore 8
 370 0034 9244     		lw	s1,4(sp)
 371              		.cfi_restore 9
 372 0036 4101     		addi	sp,sp,16
 373              	.LCFI10:
 374              		.cfi_def_cfa_offset 0
 375 0038 8280     		jr	ra
 376              		.cfi_endproc
 377              	.LFE3:
 379              		.section	.text.LCD_Write_Bus,"ax",@progbits
 380              		.align	1
 381              		.globl	LCD_Write_Bus
 383              	LCD_Write_Bus:
 384              	.LFB5:
  55:lib/lcd/src/lcd.c **** 
  56:lib/lcd/src/lcd.c **** void LCD_Write_Bus(int dat) {
 385              		.loc 1 56 29 is_stmt 1
 386              		.cfi_startproc
 387              	.LVL25:
  57:lib/lcd/src/lcd.c ****    while (((w+1)%256)==r) LCD_WR_Queue(); //If buffer full then spin...
 388              		.loc 1 57 4
  56:lib/lcd/src/lcd.c ****    while (((w+1)%256)==r) LCD_WR_Queue(); //If buffer full then spin...
 389              		.loc 1 56 29 is_stmt 0
 390 0000 4111     		addi	sp,sp,-16
 391              	.LCFI11:
 392              		.cfi_def_cfa_offset 16
 393 0002 22C4     		sw	s0,8(sp)
 394              		.cfi_offset 8, -8
 395              		.loc 1 57 14
 396 0004 37040000 		lui	s0,%hi(.LANCHOR1)
 397 0008 13040400 		addi	s0,s0,%lo(.LANCHOR1)
 398 000c 1440     		lw	a3,0(s0)
  56:lib/lcd/src/lcd.c ****    while (((w+1)%256)==r) LCD_WR_Queue(); //If buffer full then spin...
 399              		.loc 1 56 29
 400 000e 26C2     		sw	s1,4(sp)
 401              		.cfi_offset 9, -12
 402              		.loc 1 57 22
 403 0010 B7040000 		lui	s1,%hi(.LANCHOR0)
 404              		.loc 1 57 14
 405 0014 13871600 		addi	a4,a3,1
GAS LISTING C:\Users\Kalle\AppData\Local\Temp\cc2hNkGN.s 			page 10


 406              		.loc 1 57 17
 407 0018 9357F741 		srai	a5,a4,31
 408 001c 13D68701 		srli	a2,a5,24
 409              		.loc 1 57 22
 410 0020 93840400 		addi	s1,s1,%lo(.LANCHOR0)
 411              		.loc 1 57 17
 412 0024 B307C700 		add	a5,a4,a2
 413              		.loc 1 57 10
 414 0028 9840     		lw	a4,0(s1)
 415              		.loc 1 57 17
 416 002a 93F7F70F 		andi	a5,a5,255
  56:lib/lcd/src/lcd.c ****    while (((w+1)%256)==r) LCD_WR_Queue(); //If buffer full then spin...
 417              		.loc 1 56 29
 418 002e 4AC0     		sw	s2,0(sp)
 419 0030 06C6     		sw	ra,12(sp)
 420              		.cfi_offset 18, -16
 421              		.cfi_offset 1, -4
 422              		.loc 1 57 17
 423 0032 918F     		sub	a5,a5,a2
  56:lib/lcd/src/lcd.c ****    while (((w+1)%256)==r) LCD_WR_Queue(); //If buffer full then spin...
 424              		.loc 1 56 29
 425 0034 2A89     		mv	s2,a0
 426              		.loc 1 57 10
 427 0036 6393E702 		bne	a5,a4,.L25
 428              	.LVL26:
 429              	.L26:
 430              		.loc 1 57 27 is_stmt 1 discriminator 2
 431 003a 97000000 		call	LCD_WR_Queue
 431      E7800000 
 432              	.LVL27:
 433              		.loc 1 57 14 is_stmt 0 discriminator 2
 434 0042 1440     		lw	a3,0(s0)
 435              		.loc 1 57 10 discriminator 2
 436 0044 9040     		lw	a2,0(s1)
 437              		.loc 1 57 14 discriminator 2
 438 0046 93871600 		addi	a5,a3,1
 439              		.loc 1 57 17 discriminator 2
 440 004a 13D7F741 		srai	a4,a5,31
 441 004e 6183     		srli	a4,a4,24
 442 0050 BA97     		add	a5,a5,a4
 443 0052 93F7F70F 		andi	a5,a5,255
 444 0056 998F     		sub	a5,a5,a4
 445              		.loc 1 57 10 discriminator 2
 446 0058 E381C7FE 		beq	a5,a2,.L26
 447              	.L25:
  58:lib/lcd/src/lcd.c ****    queue[w++]=dat;                        //...If/when not then store data...
 448              		.loc 1 58 4 is_stmt 1
 449              		.loc 1 58 14 is_stmt 0
 450 005c 37070000 		lui	a4,%hi(.LANCHOR2)
  59:lib/lcd/src/lcd.c ****    w%=256;                                //...and advance write index!
 451              		.loc 1 59 5
 452 0060 1CC0     		sw	a5,0(s0)
  60:lib/lcd/src/lcd.c **** }
 453              		.loc 1 60 1
 454 0062 B240     		lw	ra,12(sp)
 455              		.cfi_restore 1
 456 0064 2244     		lw	s0,8(sp)
GAS LISTING C:\Users\Kalle\AppData\Local\Temp\cc2hNkGN.s 			page 11


 457              		.cfi_restore 8
  58:lib/lcd/src/lcd.c ****    queue[w++]=dat;                        //...If/when not then store data...
 458              		.loc 1 58 14
 459 0066 8A06     		slli	a3,a3,2
 460 0068 13070700 		addi	a4,a4,%lo(.LANCHOR2)
 461 006c BA96     		add	a3,a4,a3
 462 006e 23A02601 		sw	s2,0(a3)
  59:lib/lcd/src/lcd.c ****    w%=256;                                //...and advance write index!
 463              		.loc 1 59 4 is_stmt 1
 464              		.loc 1 60 1 is_stmt 0
 465 0072 9244     		lw	s1,4(sp)
 466              		.cfi_restore 9
 467 0074 0249     		lw	s2,0(sp)
 468              		.cfi_restore 18
 469              	.LVL28:
 470 0076 4101     		addi	sp,sp,16
 471              	.LCFI12:
 472              		.cfi_def_cfa_offset 0
 473 0078 8280     		jr	ra
 474              		.cfi_endproc
 475              	.LFE5:
 477              		.section	.text.LCD_Writ_Bus,"ax",@progbits
 478              		.align	1
 479              		.globl	LCD_Writ_Bus
 481              	LCD_Writ_Bus:
 482              	.LFB6:
  61:lib/lcd/src/lcd.c **** 
  62:lib/lcd/src/lcd.c **** /*
  63:lib/lcd/src/lcd.c ****   Function description: LCD serial data write function (write one byte)
  64:lib/lcd/src/lcd.c ****   Entry data: dat: byte to be written
  65:lib/lcd/src/lcd.c ****   Return value: None
  66:lib/lcd/src/lcd.c ****   Note: DC must already be set (for data) or reset (for command)
  67:lib/lcd/src/lcd.c **** */
  68:lib/lcd/src/lcd.c **** void LCD_Writ_Bus(u8 dat) 
  69:lib/lcd/src/lcd.c **** {
 483              		.loc 1 69 1 is_stmt 1
 484              		.cfi_startproc
 485              	.LVL29:
  70:lib/lcd/src/lcd.c **** 	OLED_CS_Clr();
 486              		.loc 1 70 2
  69:lib/lcd/src/lcd.c **** 	OLED_CS_Clr();
 487              		.loc 1 69 1 is_stmt 0
 488 0000 4111     		addi	sp,sp,-16
 489              	.LCFI13:
 490              		.cfi_def_cfa_offset 16
 491 0002 26C2     		sw	s1,4(sp)
 492 0004 4AC0     		sw	s2,0(sp)
 493              		.loc 1 70 2
 494 0006 8965     		li	a1,8192
 495              		.cfi_offset 9, -12
 496              		.cfi_offset 18, -16
  69:lib/lcd/src/lcd.c **** 	OLED_CS_Clr();
 497              		.loc 1 69 1
 498 0008 2A89     		mv	s2,a0
  71:lib/lcd/src/lcd.c **** 
  72:lib/lcd/src/lcd.c **** 	while(RESET == spi_i2s_flag_get(SPI1, SPI_FLAG_TBE));
 499              		.loc 1 72 17
GAS LISTING C:\Users\Kalle\AppData\Local\Temp\cc2hNkGN.s 			page 12


 500 000a B7440040 		li	s1,1073758208
  70:lib/lcd/src/lcd.c **** 
 501              		.loc 1 70 2
 502 000e 37150140 		li	a0,1073811456
 503              	.LVL30:
  69:lib/lcd/src/lcd.c **** 	OLED_CS_Clr();
 504              		.loc 1 69 1
 505 0012 22C4     		sw	s0,8(sp)
 506 0014 06C6     		sw	ra,12(sp)
 507              		.cfi_offset 8, -8
 508              		.cfi_offset 1, -4
 509              		.loc 1 72 17
 510 0016 13840480 		addi	s0,s1,-2048
  70:lib/lcd/src/lcd.c **** 
 511              		.loc 1 70 2
 512 001a 97000000 		call	gpio_bit_reset
 512      E7800000 
 513              	.LVL31:
 514              		.loc 1 72 2 is_stmt 1
 515              	.L30:
 516              		.loc 1 72 54 discriminator 1
 517              		.loc 1 72 17 is_stmt 0 discriminator 1
 518 0022 8945     		li	a1,2
 519 0024 2285     		mv	a0,s0
 520 0026 97000000 		call	spi_i2s_flag_get
 520      E7800000 
 521              	.LVL32:
 522              		.loc 1 72 7 discriminator 1
 523 002e 75D9     		beq	a0,zero,.L30
  73:lib/lcd/src/lcd.c ****         spi_i2s_data_transmit(SPI1, dat);
 524              		.loc 1 73 9 is_stmt 1
 525 0030 13850480 		addi	a0,s1,-2048
 526 0034 CA85     		mv	a1,s2
  74:lib/lcd/src/lcd.c **** 
  75:lib/lcd/src/lcd.c **** 
  76:lib/lcd/src/lcd.c **** 	while(RESET == spi_i2s_flag_get(SPI1, SPI_FLAG_RBNE));
 527              		.loc 1 76 17 is_stmt 0
 528 0036 B7440040 		li	s1,1073758208
  73:lib/lcd/src/lcd.c ****         spi_i2s_data_transmit(SPI1, dat);
 529              		.loc 1 73 9
 530 003a 97000000 		call	spi_i2s_data_transmit
 530      E7800000 
 531              	.LVL33:
 532              		.loc 1 76 2 is_stmt 1
 533              		.loc 1 76 17 is_stmt 0
 534 0042 13840480 		addi	s0,s1,-2048
 535              	.L31:
 536              		.loc 1 76 55 is_stmt 1 discriminator 1
 537              		.loc 1 76 17 is_stmt 0 discriminator 1
 538 0046 8545     		li	a1,1
 539 0048 2285     		mv	a0,s0
 540 004a 97000000 		call	spi_i2s_flag_get
 540      E7800000 
 541              	.LVL34:
 542              		.loc 1 76 7 discriminator 1
 543 0052 75D9     		beq	a0,zero,.L31
  77:lib/lcd/src/lcd.c ****         spi_i2s_data_receive(SPI1);
GAS LISTING C:\Users\Kalle\AppData\Local\Temp\cc2hNkGN.s 			page 13


 544              		.loc 1 77 9 is_stmt 1
 545 0054 13850480 		addi	a0,s1,-2048
 546 0058 97000000 		call	spi_i2s_data_receive
 546      E7800000 
 547              	.LVL35:
  78:lib/lcd/src/lcd.c **** 
  79:lib/lcd/src/lcd.c **** 	OLED_CS_Set();  
 548              		.loc 1 79 2
  80:lib/lcd/src/lcd.c **** }
 549              		.loc 1 80 1 is_stmt 0
 550 0060 2244     		lw	s0,8(sp)
 551              		.cfi_restore 8
 552 0062 B240     		lw	ra,12(sp)
 553              		.cfi_restore 1
 554 0064 9244     		lw	s1,4(sp)
 555              		.cfi_restore 9
 556 0066 0249     		lw	s2,0(sp)
 557              		.cfi_restore 18
  79:lib/lcd/src/lcd.c **** }
 558              		.loc 1 79 2
 559 0068 8965     		li	a1,8192
 560              		.loc 1 80 1
  79:lib/lcd/src/lcd.c **** }
 561              		.loc 1 79 2
 562 006a 37150140 		li	a0,1073811456
 563              		.loc 1 80 1
 564 006e 4101     		addi	sp,sp,16
 565              	.LCFI14:
 566              		.cfi_def_cfa_offset 0
  79:lib/lcd/src/lcd.c **** }
 567              		.loc 1 79 2
 568 0070 17030000 		tail	gpio_bit_set
 568      67000300 
 569              	.LVL36:
 570              		.cfi_endproc
 571              	.LFE6:
 573              		.section	.text.LCD_WR_DATA8,"ax",@progbits
 574              		.align	1
 575              		.globl	LCD_WR_DATA8
 577              	LCD_WR_DATA8:
 578              	.LFB7:
  81:lib/lcd/src/lcd.c **** 
  82:lib/lcd/src/lcd.c **** 
  83:lib/lcd/src/lcd.c **** /*
  84:lib/lcd/src/lcd.c ****   Function description: LCD write 8-bit data
  85:lib/lcd/src/lcd.c ****   Entry data: dat: data to be written
  86:lib/lcd/src/lcd.c ****   Return value: None
  87:lib/lcd/src/lcd.c **** */
  88:lib/lcd/src/lcd.c **** void LCD_WR_DATA8(u8 dat)
  89:lib/lcd/src/lcd.c **** {
 579              		.loc 1 89 1 is_stmt 1
 580              		.cfi_startproc
 581              	.LVL37:
  90:lib/lcd/src/lcd.c **** 	OLED_DC_Set();  // Write data
 582              		.loc 1 90 2
  89:lib/lcd/src/lcd.c **** 	OLED_DC_Set();  // Write data
 583              		.loc 1 89 1 is_stmt 0
GAS LISTING C:\Users\Kalle\AppData\Local\Temp\cc2hNkGN.s 			page 14


 584 0000 4111     		addi	sp,sp,-16
 585              	.LCFI15:
 586              		.cfi_def_cfa_offset 16
 587 0002 22C4     		sw	s0,8(sp)
 588              		.loc 1 90 2
 589 0004 A165     		li	a1,32768
 590              		.cfi_offset 8, -8
  89:lib/lcd/src/lcd.c **** 	OLED_DC_Set();  // Write data
 591              		.loc 1 89 1
 592 0006 2A84     		mv	s0,a0
 593              		.loc 1 90 2
 594 0008 37150140 		li	a0,1073811456
 595              	.LVL38:
  89:lib/lcd/src/lcd.c **** 	OLED_DC_Set();  // Write data
 596              		.loc 1 89 1
 597 000c 06C6     		sw	ra,12(sp)
 598              		.cfi_offset 1, -4
 599              		.loc 1 90 2
 600 000e 97000000 		call	gpio_bit_set
 600      E7800000 
 601              	.LVL39:
  91:lib/lcd/src/lcd.c **** 	LCD_Writ_Bus(dat);
 602              		.loc 1 91 2 is_stmt 1
 603 0016 2285     		mv	a0,s0
  92:lib/lcd/src/lcd.c ****     //LCD_Write_Bus(((int)dat)+(1<<8));
  93:lib/lcd/src/lcd.c **** }
 604              		.loc 1 93 1 is_stmt 0
 605 0018 2244     		lw	s0,8(sp)
 606              		.cfi_restore 8
 607 001a B240     		lw	ra,12(sp)
 608              		.cfi_restore 1
 609 001c 4101     		addi	sp,sp,16
 610              	.LCFI16:
 611              		.cfi_def_cfa_offset 0
  91:lib/lcd/src/lcd.c **** 	LCD_Writ_Bus(dat);
 612              		.loc 1 91 2
 613 001e 17030000 		tail	LCD_Writ_Bus
 613      67000300 
 614              	.LVL40:
 615              		.cfi_endproc
 616              	.LFE7:
 618              		.section	.text.LCD_WR_DATA,"ax",@progbits
 619              		.align	1
 620              		.globl	LCD_WR_DATA
 622              	LCD_WR_DATA:
 623              	.LFB8:
  94:lib/lcd/src/lcd.c **** 
  95:lib/lcd/src/lcd.c **** 
  96:lib/lcd/src/lcd.c **** /*
  97:lib/lcd/src/lcd.c ****   Function description: LCD write 16-bit data
  98:lib/lcd/src/lcd.c ****   Entry data: dat: 16-bit data to be written
  99:lib/lcd/src/lcd.c ****   Return value: None
 100:lib/lcd/src/lcd.c **** */
 101:lib/lcd/src/lcd.c **** void LCD_WR_DATA(u16 dat)
 102:lib/lcd/src/lcd.c **** {
 624              		.loc 1 102 1 is_stmt 1
 625              		.cfi_startproc
GAS LISTING C:\Users\Kalle\AppData\Local\Temp\cc2hNkGN.s 			page 15


 626              	.LVL41:
 103:lib/lcd/src/lcd.c **** 	OLED_DC_Set();  // Write data
 627              		.loc 1 103 2
 102:lib/lcd/src/lcd.c **** 	OLED_DC_Set();  // Write data
 628              		.loc 1 102 1 is_stmt 0
 629 0000 4111     		addi	sp,sp,-16
 630              	.LCFI17:
 631              		.cfi_def_cfa_offset 16
 632 0002 22C4     		sw	s0,8(sp)
 633              		.loc 1 103 2
 634 0004 A165     		li	a1,32768
 635              		.cfi_offset 8, -8
 102:lib/lcd/src/lcd.c **** 	OLED_DC_Set();  // Write data
 636              		.loc 1 102 1
 637 0006 2A84     		mv	s0,a0
 638              		.loc 1 103 2
 639 0008 37150140 		li	a0,1073811456
 640              	.LVL42:
 102:lib/lcd/src/lcd.c **** 	OLED_DC_Set();  // Write data
 641              		.loc 1 102 1
 642 000c 06C6     		sw	ra,12(sp)
 643              		.cfi_offset 1, -4
 644              		.loc 1 103 2
 645 000e 97000000 		call	gpio_bit_set
 645      E7800000 
 646              	.LVL43:
 104:lib/lcd/src/lcd.c **** 	LCD_Writ_Bus(dat>>8);
 647              		.loc 1 104 2 is_stmt 1
 648              		.loc 1 104 18 is_stmt 0
 649 0016 13558400 		srli	a0,s0,8
 650              		.loc 1 104 2
 651 001a 1375F50F 		andi	a0,a0,0xff
 652 001e 97000000 		call	LCD_Writ_Bus
 652      E7800000 
 653              	.LVL44:
 105:lib/lcd/src/lcd.c **** 	LCD_Writ_Bus(dat);
 654              		.loc 1 105 2 is_stmt 1
 655 0026 1375F40F 		andi	a0,s0,0xff
 106:lib/lcd/src/lcd.c ****     //LCD_Write_Bus(((int)dat>>8)+(1<<8));
 107:lib/lcd/src/lcd.c ****     //LCD_Write_Bus(((int)dat&0xFF)+(1<<8));
 108:lib/lcd/src/lcd.c **** }
 656              		.loc 1 108 1 is_stmt 0
 657 002a 2244     		lw	s0,8(sp)
 658              		.cfi_restore 8
 659              	.LVL45:
 660 002c B240     		lw	ra,12(sp)
 661              		.cfi_restore 1
 662 002e 4101     		addi	sp,sp,16
 663              	.LCFI18:
 664              		.cfi_def_cfa_offset 0
 105:lib/lcd/src/lcd.c **** 	LCD_Writ_Bus(dat);
 665              		.loc 1 105 2
 666 0030 17030000 		tail	LCD_Writ_Bus
 666      67000300 
 667              	.LVL46:
 668              		.cfi_endproc
 669              	.LFE8:
GAS LISTING C:\Users\Kalle\AppData\Local\Temp\cc2hNkGN.s 			page 16


 671              		.section	.text.LCD_WR_REG,"ax",@progbits
 672              		.align	1
 673              		.globl	LCD_WR_REG
 675              	LCD_WR_REG:
 676              	.LFB9:
 109:lib/lcd/src/lcd.c **** 
 110:lib/lcd/src/lcd.c **** 
 111:lib/lcd/src/lcd.c **** /*
 112:lib/lcd/src/lcd.c ****   Function description: LCD write 8-bit command
 113:lib/lcd/src/lcd.c ****   Entry data: dat: command to be written
 114:lib/lcd/src/lcd.c ****   Return value: None
 115:lib/lcd/src/lcd.c **** */
 116:lib/lcd/src/lcd.c **** void LCD_WR_REG(u8 dat)
 117:lib/lcd/src/lcd.c **** {
 677              		.loc 1 117 1 is_stmt 1
 678              		.cfi_startproc
 679              	.LVL47:
 118:lib/lcd/src/lcd.c **** 	OLED_DC_Clr();  // Write command
 680              		.loc 1 118 2
 117:lib/lcd/src/lcd.c **** 	OLED_DC_Clr();  // Write command
 681              		.loc 1 117 1 is_stmt 0
 682 0000 4111     		addi	sp,sp,-16
 683              	.LCFI19:
 684              		.cfi_def_cfa_offset 16
 685 0002 22C4     		sw	s0,8(sp)
 686              		.loc 1 118 2
 687 0004 A165     		li	a1,32768
 688              		.cfi_offset 8, -8
 117:lib/lcd/src/lcd.c **** 	OLED_DC_Clr();  // Write command
 689              		.loc 1 117 1
 690 0006 2A84     		mv	s0,a0
 691              		.loc 1 118 2
 692 0008 37150140 		li	a0,1073811456
 693              	.LVL48:
 117:lib/lcd/src/lcd.c **** 	OLED_DC_Clr();  // Write command
 694              		.loc 1 117 1
 695 000c 06C6     		sw	ra,12(sp)
 696              		.cfi_offset 1, -4
 697              		.loc 1 118 2
 698 000e 97000000 		call	gpio_bit_reset
 698      E7800000 
 699              	.LVL49:
 119:lib/lcd/src/lcd.c **** 	LCD_Writ_Bus(dat);
 700              		.loc 1 119 2 is_stmt 1
 701 0016 2285     		mv	a0,s0
 120:lib/lcd/src/lcd.c ****     //LCD_Write_Bus((int)dat);
 121:lib/lcd/src/lcd.c **** }
 702              		.loc 1 121 1 is_stmt 0
 703 0018 2244     		lw	s0,8(sp)
 704              		.cfi_restore 8
 705 001a B240     		lw	ra,12(sp)
 706              		.cfi_restore 1
 707 001c 4101     		addi	sp,sp,16
 708              	.LCFI20:
 709              		.cfi_def_cfa_offset 0
 119:lib/lcd/src/lcd.c **** 	LCD_Writ_Bus(dat);
 710              		.loc 1 119 2
GAS LISTING C:\Users\Kalle\AppData\Local\Temp\cc2hNkGN.s 			page 17


 711 001e 17030000 		tail	LCD_Writ_Bus
 711      67000300 
 712              	.LVL50:
 713              		.cfi_endproc
 714              	.LFE9:
 716              		.section	.text.LCD_Address_Set,"ax",@progbits
 717              		.align	1
 718              		.globl	LCD_Address_Set
 720              	LCD_Address_Set:
 721              	.LFB10:
 122:lib/lcd/src/lcd.c **** 
 123:lib/lcd/src/lcd.c **** 
 124:lib/lcd/src/lcd.c **** 
 125:lib/lcd/src/lcd.c **** /*
 126:lib/lcd/src/lcd.c ****   Function description: Set start and end addresses
 127:lib/lcd/src/lcd.c ****   Entry data: x1, x2 set the start and end column address
 128:lib/lcd/src/lcd.c ****               y1, y2 set the start and end row address
 129:lib/lcd/src/lcd.c ****   Return value: None
 130:lib/lcd/src/lcd.c **** */
 131:lib/lcd/src/lcd.c **** void LCD_Address_Set(u16 x1,u16 y1,u16 x2,u16 y2)
 132:lib/lcd/src/lcd.c **** {
 722              		.loc 1 132 1 is_stmt 1
 723              		.cfi_startproc
 724              	.LVL51:
 133:lib/lcd/src/lcd.c **** 	LCD_WR_REG(0x2a);  // Column address setting
 725              		.loc 1 133 2
 726              	.LBB212:
 727              	.LBB213:
 118:lib/lcd/src/lcd.c **** 	LCD_Writ_Bus(dat);
 728              		.loc 1 118 2
 729              	.LBE213:
 730              	.LBE212:
 132:lib/lcd/src/lcd.c **** 	LCD_WR_REG(0x2a);  // Column address setting
 731              		.loc 1 132 1 is_stmt 0
 732 0000 0111     		addi	sp,sp,-32
 733              	.LCFI21:
 734              		.cfi_def_cfa_offset 32
 735 0002 4AC8     		sw	s2,16(sp)
 736 0004 52C4     		sw	s4,8(sp)
 737              		.cfi_offset 18, -16
 738              		.cfi_offset 20, -24
 739 0006 2E89     		mv	s2,a1
 740 0008 2A8A     		mv	s4,a0
 741              	.LBB217:
 742              	.LBB214:
 118:lib/lcd/src/lcd.c **** 	LCD_Writ_Bus(dat);
 743              		.loc 1 118 2
 744 000a A165     		li	a1,32768
 745              	.LVL52:
 746 000c 37150140 		li	a0,1073811456
 747              	.LVL53:
 748              	.LBE214:
 749              	.LBE217:
 132:lib/lcd/src/lcd.c **** 	LCD_WR_REG(0x2a);  // Column address setting
 750              		.loc 1 132 1
 751 0010 06CE     		sw	ra,28(sp)
 752 0012 22CC     		sw	s0,24(sp)
GAS LISTING C:\Users\Kalle\AppData\Local\Temp\cc2hNkGN.s 			page 18


 753 0014 26CA     		sw	s1,20(sp)
 754 0016 4EC6     		sw	s3,12(sp)
 755              		.cfi_offset 1, -4
 756              		.cfi_offset 8, -8
 757              		.cfi_offset 9, -12
 758              		.cfi_offset 19, -20
 132:lib/lcd/src/lcd.c **** 	LCD_WR_REG(0x2a);  // Column address setting
 759              		.loc 1 132 1
 760 0018 B684     		mv	s1,a3
 761 001a B289     		mv	s3,a2
 762              	.LBB218:
 763              	.LBB215:
 118:lib/lcd/src/lcd.c **** 	LCD_Writ_Bus(dat);
 764              		.loc 1 118 2
 765 001c 97000000 		call	gpio_bit_reset
 765      E7800000 
 766              	.LVL54:
 119:lib/lcd/src/lcd.c ****     //LCD_Write_Bus((int)dat);
 767              		.loc 1 119 2 is_stmt 1
 768 0024 1305A002 		li	a0,42
 769              	.LBE215:
 770              	.LBE218:
 134:lib/lcd/src/lcd.c **** 	LCD_WR_DATA(x1+lcd_conf.offset_x);
 771              		.loc 1 134 25 is_stmt 0
 772 0028 37040000 		lui	s0,%hi(.LANCHOR3)
 773              	.LBB219:
 774              	.LBB216:
 119:lib/lcd/src/lcd.c ****     //LCD_Write_Bus((int)dat);
 775              		.loc 1 119 2
 776 002c 97000000 		call	LCD_Writ_Bus
 776      E7800000 
 777              	.LVL55:
 778              	.LBE216:
 779              	.LBE219:
 780              		.loc 1 134 2 is_stmt 1
 781              		.loc 1 134 25 is_stmt 0
 782 0034 13040400 		addi	s0,s0,%lo(.LANCHOR3)
 783 0038 03452400 		lbu	a0,2(s0)
 784              		.loc 1 134 2
 785 003c 5295     		add	a0,a0,s4
 786 003e 97000000 		call	LCD_WR_DATA
 786      E7800000 
 787              	.LVL56:
 135:lib/lcd/src/lcd.c **** 	LCD_WR_DATA(x2+lcd_conf.offset_x);
 788              		.loc 1 135 2 is_stmt 1
 789              		.loc 1 135 25 is_stmt 0
 790 0046 03452400 		lbu	a0,2(s0)
 791              		.loc 1 135 2
 792 004a 4E95     		add	a0,a0,s3
 793 004c 97000000 		call	LCD_WR_DATA
 793      E7800000 
 794              	.LVL57:
 136:lib/lcd/src/lcd.c **** 	LCD_WR_REG(0x2b);  // row address setting
 795              		.loc 1 136 2 is_stmt 1
 796              	.LBB220:
 797              	.LBB221:
 118:lib/lcd/src/lcd.c **** 	LCD_Writ_Bus(dat);
GAS LISTING C:\Users\Kalle\AppData\Local\Temp\cc2hNkGN.s 			page 19


 798              		.loc 1 118 2
 799 0054 A165     		li	a1,32768
 800 0056 37150140 		li	a0,1073811456
 801 005a 97000000 		call	gpio_bit_reset
 801      E7800000 
 802              	.LVL58:
 119:lib/lcd/src/lcd.c ****     //LCD_Write_Bus((int)dat);
 803              		.loc 1 119 2
 804 0062 1305B002 		li	a0,43
 805 0066 97000000 		call	LCD_Writ_Bus
 805      E7800000 
 806              	.LVL59:
 807              	.LBE221:
 808              	.LBE220:
 137:lib/lcd/src/lcd.c **** 	LCD_WR_DATA(y1+lcd_conf.offset_y);
 809              		.loc 1 137 2
 810              		.loc 1 137 25 is_stmt 0
 811 006e 03453400 		lbu	a0,3(s0)
 812              		.loc 1 137 2
 813 0072 4A95     		add	a0,a0,s2
 814 0074 97000000 		call	LCD_WR_DATA
 814      E7800000 
 815              	.LVL60:
 138:lib/lcd/src/lcd.c **** 	LCD_WR_DATA(y2+lcd_conf.offset_y);
 816              		.loc 1 138 2 is_stmt 1
 817              		.loc 1 138 25 is_stmt 0
 818 007c 03453400 		lbu	a0,3(s0)
 819              		.loc 1 138 2
 820 0080 2695     		add	a0,a0,s1
 821 0082 97000000 		call	LCD_WR_DATA
 821      E7800000 
 822              	.LVL61:
 139:lib/lcd/src/lcd.c **** 	LCD_WR_REG(0x2c);  // Memory write
 823              		.loc 1 139 2 is_stmt 1
 824              	.LBB222:
 825              	.LBB223:
 118:lib/lcd/src/lcd.c **** 	LCD_Writ_Bus(dat);
 826              		.loc 1 118 2
 827 008a 37150140 		li	a0,1073811456
 828 008e A165     		li	a1,32768
 829 0090 97000000 		call	gpio_bit_reset
 829      E7800000 
 830              	.LVL62:
 119:lib/lcd/src/lcd.c ****     //LCD_Write_Bus((int)dat);
 831              		.loc 1 119 2
 832              	.LBE223:
 833              	.LBE222:
 140:lib/lcd/src/lcd.c **** }
 834              		.loc 1 140 1 is_stmt 0
 835 0098 6244     		lw	s0,24(sp)
 836              		.cfi_restore 8
 837 009a F240     		lw	ra,28(sp)
 838              		.cfi_restore 1
 839 009c D244     		lw	s1,20(sp)
 840              		.cfi_restore 9
 841              	.LVL63:
 842 009e 4249     		lw	s2,16(sp)
GAS LISTING C:\Users\Kalle\AppData\Local\Temp\cc2hNkGN.s 			page 20


 843              		.cfi_restore 18
 844              	.LVL64:
 845 00a0 B249     		lw	s3,12(sp)
 846              		.cfi_restore 19
 847              	.LVL65:
 848 00a2 224A     		lw	s4,8(sp)
 849              		.cfi_restore 20
 850              	.LVL66:
 851              	.LBB226:
 852              	.LBB224:
 119:lib/lcd/src/lcd.c ****     //LCD_Write_Bus((int)dat);
 853              		.loc 1 119 2
 854 00a4 1305C002 		li	a0,44
 855              	.LBE224:
 856              	.LBE226:
 857              		.loc 1 140 1
 858 00a8 0561     		addi	sp,sp,32
 859              	.LCFI22:
 860              		.cfi_def_cfa_offset 0
 861              	.LBB227:
 862              	.LBB225:
 119:lib/lcd/src/lcd.c ****     //LCD_Write_Bus((int)dat);
 863              		.loc 1 119 2
 864 00aa 17030000 		tail	LCD_Writ_Bus
 864      67000300 
 865              	.LVL67:
 866              	.LBE225:
 867              	.LBE227:
 868              		.cfi_endproc
 869              	.LFE10:
 871              		.section	.text.LCD_ShowChar.part.2,"ax",@progbits
 872              		.align	1
 874              	LCD_ShowChar.part.2:
 875              	.LFB31:
 141:lib/lcd/src/lcd.c **** 
 142:lib/lcd/src/lcd.c **** /*!
 143:lib/lcd/src/lcd.c ****     \brief      configure the SPI peripheral
 144:lib/lcd/src/lcd.c ****     \param[in]  none
 145:lib/lcd/src/lcd.c ****     \param[out] none
 146:lib/lcd/src/lcd.c ****     \retval     none
 147:lib/lcd/src/lcd.c **** */
 148:lib/lcd/src/lcd.c **** void spi_config(void)
 149:lib/lcd/src/lcd.c **** {
 150:lib/lcd/src/lcd.c ****     spi_parameter_struct spi_init_struct;
 151:lib/lcd/src/lcd.c ****     /* deinitilize SPI and the parameters */
 152:lib/lcd/src/lcd.c ****     OLED_CS_Set();
 153:lib/lcd/src/lcd.c ****     spi_struct_para_init(&spi_init_struct);
 154:lib/lcd/src/lcd.c **** 
 155:lib/lcd/src/lcd.c ****     /* SPI1 parameter config */
 156:lib/lcd/src/lcd.c ****     spi_init_struct.trans_mode           = SPI_TRANSMODE_FULLDUPLEX;
 157:lib/lcd/src/lcd.c ****     spi_init_struct.device_mode          = SPI_MASTER;
 158:lib/lcd/src/lcd.c ****     spi_init_struct.frame_size           = SPI_FRAMESIZE_8BIT;
 159:lib/lcd/src/lcd.c ****     spi_init_struct.clock_polarity_phase = SPI_CK_PL_HIGH_PH_2EDGE;
 160:lib/lcd/src/lcd.c ****     spi_init_struct.nss                  = SPI_NSS_SOFT;
 161:lib/lcd/src/lcd.c ****     spi_init_struct.prescale             = SPI_PSC_4;
 162:lib/lcd/src/lcd.c ****     spi_init_struct.endian               = SPI_ENDIAN_MSB;
 163:lib/lcd/src/lcd.c ****     spi_init(SPI1, &spi_init_struct);
GAS LISTING C:\Users\Kalle\AppData\Local\Temp\cc2hNkGN.s 			page 21


 164:lib/lcd/src/lcd.c **** 
 165:lib/lcd/src/lcd.c **** 	spi_crc_polynomial_set(SPI1,7);
 166:lib/lcd/src/lcd.c **** 	spi_enable(SPI1);
 167:lib/lcd/src/lcd.c **** }
 168:lib/lcd/src/lcd.c **** 
 169:lib/lcd/src/lcd.c **** void Lcd_SetType(int type){
 170:lib/lcd/src/lcd.c **** 	if(type == LCD_NORMAL){
 171:lib/lcd/src/lcd.c **** 		lcd_conf.configured = 1;
 172:lib/lcd/src/lcd.c **** 		lcd_conf.offset_x = 1;
 173:lib/lcd/src/lcd.c **** 		lcd_conf.offset_y = 26;
 174:lib/lcd/src/lcd.c **** 		lcd_conf.inverted = 0;
 175:lib/lcd/src/lcd.c **** 	}
 176:lib/lcd/src/lcd.c **** 	if(type == LCD_INVERTED){
 177:lib/lcd/src/lcd.c **** 		lcd_conf.configured = 1;
 178:lib/lcd/src/lcd.c **** 		lcd_conf.offset_x = 0;
 179:lib/lcd/src/lcd.c **** 		lcd_conf.offset_y = 24;
 180:lib/lcd/src/lcd.c **** 		lcd_conf.inverted = 1;
 181:lib/lcd/src/lcd.c **** 	}
 182:lib/lcd/src/lcd.c **** }
 183:lib/lcd/src/lcd.c **** 
 184:lib/lcd/src/lcd.c **** 
 185:lib/lcd/src/lcd.c **** /*
 186:lib/lcd/src/lcd.c ****   Function description: LCD initialization function
 187:lib/lcd/src/lcd.c ****   Entry data: None
 188:lib/lcd/src/lcd.c ****   Return value: None
 189:lib/lcd/src/lcd.c **** */
 190:lib/lcd/src/lcd.c **** void Lcd_Init(void)
 191:lib/lcd/src/lcd.c **** {
 192:lib/lcd/src/lcd.c **** 	if(!lcd_conf.configured) Lcd_SetType(LCD_NORMAL);
 193:lib/lcd/src/lcd.c **** 	rcu_periph_clock_enable(RCU_GPIOB);
 194:lib/lcd/src/lcd.c **** 	rcu_periph_clock_enable(RCU_GPIOC);
 195:lib/lcd/src/lcd.c **** 
 196:lib/lcd/src/lcd.c ****  	rcu_periph_clock_enable(RCU_AF);
 197:lib/lcd/src/lcd.c **** 	rcu_periph_clock_enable(RCU_SPI1);
 198:lib/lcd/src/lcd.c **** 	
 199:lib/lcd/src/lcd.c ****     gpio_init(GPIOB, GPIO_MODE_AF_PP, GPIO_OSPEED_50MHZ, GPIO_PIN_13 |GPIO_PIN_14| GPIO_PIN_15);
 200:lib/lcd/src/lcd.c **** 	gpio_init(GPIOC, GPIO_MODE_OUT_PP, GPIO_OSPEED_50MHZ, GPIO_PIN_13 | GPIO_PIN_15); //CS
 201:lib/lcd/src/lcd.c **** 
 202:lib/lcd/src/lcd.c **** 	spi_config();
 203:lib/lcd/src/lcd.c **** 
 204:lib/lcd/src/lcd.c **** 	gpio_bit_reset(GPIOC, GPIO_PIN_13 | GPIO_PIN_15);
 205:lib/lcd/src/lcd.c **** 	//LCD_Wait_On_Queue();
 206:lib/lcd/src/lcd.c **** 	lcd_delay_1ms(100);
 207:lib/lcd/src/lcd.c **** 	
 208:lib/lcd/src/lcd.c **** 
 209:lib/lcd/src/lcd.c **** 	LCD_WR_REG(0x01); 	//SW reset
 210:lib/lcd/src/lcd.c **** 	//LCD_Wait_On_Queue();
 211:lib/lcd/src/lcd.c **** 	lcd_delay_1ms(120);
 212:lib/lcd/src/lcd.c **** 	
 213:lib/lcd/src/lcd.c **** 
 214:lib/lcd/src/lcd.c **** 	LCD_WR_REG(0x11); 	//SLPOUT
 215:lib/lcd/src/lcd.c **** 	//LCD_Wait_On_Queue();
 216:lib/lcd/src/lcd.c **** 	lcd_delay_1ms(100);
 217:lib/lcd/src/lcd.c **** 
 218:lib/lcd/src/lcd.c **** 	if(lcd_conf.inverted) LCD_WR_REG(0x22); 
 219:lib/lcd/src/lcd.c **** 	else				  LCD_WR_REG(0x21); 	//INVON
 220:lib/lcd/src/lcd.c **** 
GAS LISTING C:\Users\Kalle\AppData\Local\Temp\cc2hNkGN.s 			page 22


 221:lib/lcd/src/lcd.c **** 	LCD_WR_REG(0xB1); 	//FRMCTRL1 - Full color
 222:lib/lcd/src/lcd.c **** 	LCD_WR_DATA8(0x05); // Framerate = 333khz / (25) * (196) = 67.9fps
 223:lib/lcd/src/lcd.c **** 	LCD_WR_DATA8(0x3A);
 224:lib/lcd/src/lcd.c **** 	LCD_WR_DATA8(0x3A);
 225:lib/lcd/src/lcd.c **** 
 226:lib/lcd/src/lcd.c **** 	LCD_WR_REG(0xB2);	//FRMCTRL - 8-bit color
 227:lib/lcd/src/lcd.c **** 	LCD_WR_DATA8(0x05); //fps = 67.9
 228:lib/lcd/src/lcd.c **** 	LCD_WR_DATA8(0x3A);
 229:lib/lcd/src/lcd.c **** 	LCD_WR_DATA8(0x3A);
 230:lib/lcd/src/lcd.c **** 
 231:lib/lcd/src/lcd.c **** 	LCD_WR_REG(0xB3);   //Partial mode
 232:lib/lcd/src/lcd.c **** 	LCD_WR_DATA8(0x05);  
 233:lib/lcd/src/lcd.c **** 	LCD_WR_DATA8(0x3A);
 234:lib/lcd/src/lcd.c **** 	LCD_WR_DATA8(0x3A);
 235:lib/lcd/src/lcd.c **** 	LCD_WR_DATA8(0x05);
 236:lib/lcd/src/lcd.c **** 	LCD_WR_DATA8(0x3A);
 237:lib/lcd/src/lcd.c **** 	LCD_WR_DATA8(0x3A);
 238:lib/lcd/src/lcd.c **** 
 239:lib/lcd/src/lcd.c **** 	LCD_WR_REG(0xB4);  //INVCTR - Inversion control
 240:lib/lcd/src/lcd.c **** 	LCD_WR_DATA8(0x03);//Line inversion(full color) | Frame inversion
 241:lib/lcd/src/lcd.c **** 
 242:lib/lcd/src/lcd.c **** 	LCD_WR_REG(0xC0);  //PWRCTR1 - Set GVDD voltage
 243:lib/lcd/src/lcd.c **** 	LCD_WR_DATA8(0x62);//
 244:lib/lcd/src/lcd.c **** 	LCD_WR_DATA8(0x02);//
 245:lib/lcd/src/lcd.c **** 	LCD_WR_DATA8(0x04);//
 246:lib/lcd/src/lcd.c **** 
 247:lib/lcd/src/lcd.c **** 	LCD_WR_REG(0xC1); //More power regulation
 248:lib/lcd/src/lcd.c **** 	LCD_WR_DATA8(0xC0);
 249:lib/lcd/src/lcd.c **** 
 250:lib/lcd/src/lcd.c **** 	LCD_WR_REG(0xC2); //Same
 251:lib/lcd/src/lcd.c **** 	LCD_WR_DATA8(0x0D);
 252:lib/lcd/src/lcd.c **** 	LCD_WR_DATA8(0x00);
 253:lib/lcd/src/lcd.c **** 
 254:lib/lcd/src/lcd.c **** 	LCD_WR_REG(0xC3); //same
 255:lib/lcd/src/lcd.c **** 	LCD_WR_DATA8(0x8D);
 256:lib/lcd/src/lcd.c **** 	LCD_WR_DATA8(0x6A);   
 257:lib/lcd/src/lcd.c **** 
 258:lib/lcd/src/lcd.c **** 	LCD_WR_REG(0xC4);
 259:lib/lcd/src/lcd.c **** 	LCD_WR_DATA8(0x8D); 
 260:lib/lcd/src/lcd.c **** 	LCD_WR_DATA8(0xEE); 
 261:lib/lcd/src/lcd.c **** 
 262:lib/lcd/src/lcd.c **** 	LCD_WR_REG(0xC5);  /*VCOM*/
 263:lib/lcd/src/lcd.c **** 	LCD_WR_DATA8(0x0E);    
 264:lib/lcd/src/lcd.c **** 
 265:lib/lcd/src/lcd.c **** 	LCD_WR_REG(0xE0);  //Gamma correction
 266:lib/lcd/src/lcd.c **** 	LCD_WR_DATA8(0x10);
 267:lib/lcd/src/lcd.c **** 	LCD_WR_DATA8(0x0E);
 268:lib/lcd/src/lcd.c **** 	LCD_WR_DATA8(0x02);
 269:lib/lcd/src/lcd.c **** 	LCD_WR_DATA8(0x03);
 270:lib/lcd/src/lcd.c **** 	LCD_WR_DATA8(0x0E);
 271:lib/lcd/src/lcd.c **** 	LCD_WR_DATA8(0x07);
 272:lib/lcd/src/lcd.c **** 	LCD_WR_DATA8(0x02);
 273:lib/lcd/src/lcd.c **** 	LCD_WR_DATA8(0x07);
 274:lib/lcd/src/lcd.c **** 	LCD_WR_DATA8(0x0A);
 275:lib/lcd/src/lcd.c **** 	LCD_WR_DATA8(0x12);
 276:lib/lcd/src/lcd.c **** 	LCD_WR_DATA8(0x27);
 277:lib/lcd/src/lcd.c **** 	LCD_WR_DATA8(0x37);
GAS LISTING C:\Users\Kalle\AppData\Local\Temp\cc2hNkGN.s 			page 23


 278:lib/lcd/src/lcd.c **** 	LCD_WR_DATA8(0x00);
 279:lib/lcd/src/lcd.c **** 	LCD_WR_DATA8(0x0D);
 280:lib/lcd/src/lcd.c **** 	LCD_WR_DATA8(0x0E);
 281:lib/lcd/src/lcd.c **** 	LCD_WR_DATA8(0x10);
 282:lib/lcd/src/lcd.c **** 
 283:lib/lcd/src/lcd.c **** 	LCD_WR_REG(0xE1);
 284:lib/lcd/src/lcd.c **** 	LCD_WR_DATA8(0x10);
 285:lib/lcd/src/lcd.c **** 	LCD_WR_DATA8(0x0E);
 286:lib/lcd/src/lcd.c **** 	LCD_WR_DATA8(0x03);
 287:lib/lcd/src/lcd.c **** 	LCD_WR_DATA8(0x03);
 288:lib/lcd/src/lcd.c **** 	LCD_WR_DATA8(0x0F);
 289:lib/lcd/src/lcd.c **** 	LCD_WR_DATA8(0x06);
 290:lib/lcd/src/lcd.c **** 	LCD_WR_DATA8(0x02);
 291:lib/lcd/src/lcd.c **** 	LCD_WR_DATA8(0x08);
 292:lib/lcd/src/lcd.c **** 	LCD_WR_DATA8(0x0A);
 293:lib/lcd/src/lcd.c **** 	LCD_WR_DATA8(0x13);
 294:lib/lcd/src/lcd.c **** 	LCD_WR_DATA8(0x26);
 295:lib/lcd/src/lcd.c **** 	LCD_WR_DATA8(0x36);
 296:lib/lcd/src/lcd.c **** 	LCD_WR_DATA8(0x00);
 297:lib/lcd/src/lcd.c **** 	LCD_WR_DATA8(0x0D);
 298:lib/lcd/src/lcd.c **** 	LCD_WR_DATA8(0x0E);
 299:lib/lcd/src/lcd.c **** 	LCD_WR_DATA8(0x10);
 300:lib/lcd/src/lcd.c **** 
 301:lib/lcd/src/lcd.c **** 	LCD_WR_REG(0x3A);  //Set color resolution
 302:lib/lcd/src/lcd.c **** 	LCD_WR_DATA8(0x05);//16 bit color
 303:lib/lcd/src/lcd.c **** 
 304:lib/lcd/src/lcd.c **** 	LCD_WR_REG(0x36); //Data access mode
 305:lib/lcd/src/lcd.c **** 	LCD_WR_DATA8(0x78);
 306:lib/lcd/src/lcd.c **** 	LCD_WR_REG(0x29); 
 307:lib/lcd/src/lcd.c **** } 
 308:lib/lcd/src/lcd.c **** 
 309:lib/lcd/src/lcd.c **** 
 310:lib/lcd/src/lcd.c **** /*
 311:lib/lcd/src/lcd.c ****   Function description: LCD clear screen function
 312:lib/lcd/src/lcd.c ****   Entry data: Color: color to set as background
 313:lib/lcd/src/lcd.c ****   Return value: None
 314:lib/lcd/src/lcd.c **** */
 315:lib/lcd/src/lcd.c **** void LCD_Clear(u16 Color)
 316:lib/lcd/src/lcd.c **** {
 317:lib/lcd/src/lcd.c **** 	u16 i,j;  	
 318:lib/lcd/src/lcd.c **** 	LCD_Address_Set(0,0,LCD_W-1,LCD_H-1);
 319:lib/lcd/src/lcd.c ****     for(i=0;i<LCD_W;i++)
 320:lib/lcd/src/lcd.c **** 	  {
 321:lib/lcd/src/lcd.c **** 			for (j=0;j<LCD_H;j++)
 322:lib/lcd/src/lcd.c **** 				{
 323:lib/lcd/src/lcd.c **** 					LCD_WR_DATA(Color);
 324:lib/lcd/src/lcd.c **** 				}
 325:lib/lcd/src/lcd.c **** 	  }
 326:lib/lcd/src/lcd.c **** }
 327:lib/lcd/src/lcd.c **** 
 328:lib/lcd/src/lcd.c **** 
 329:lib/lcd/src/lcd.c **** /*
 330:lib/lcd/src/lcd.c ****   Function description: LCD display Chinese characters
 331:lib/lcd/src/lcd.c ****   Entry data:  x, y: start coordinates
 332:lib/lcd/src/lcd.c ****               index: Chinese character number
 333:lib/lcd/src/lcd.c ****                size: font size
 334:lib/lcd/src/lcd.c ****   Return value: None
GAS LISTING C:\Users\Kalle\AppData\Local\Temp\cc2hNkGN.s 			page 24


 335:lib/lcd/src/lcd.c **** */
 336:lib/lcd/src/lcd.c **** void LCD_ShowChinese(u16 x,u16 y,u8 index,u8 size,u16 color)	
 337:lib/lcd/src/lcd.c **** {  
 338:lib/lcd/src/lcd.c **** 	u8 i,j;
 339:lib/lcd/src/lcd.c **** 	u8 *temp,size1;
 340:lib/lcd/src/lcd.c **** 	if(size==16){temp=Hzk16;}               // Choose a font size
 341:lib/lcd/src/lcd.c **** 	if(size==32){temp=Hzk32;}
 342:lib/lcd/src/lcd.c ****     LCD_Address_Set(x,y,x+size-1,y+size-1); // Set a region of Chinese characters
 343:lib/lcd/src/lcd.c ****     size1=size*size/8;                      // The bytes occupied by a Chinese character
 344:lib/lcd/src/lcd.c **** 	temp+=index*size1;                      // Start of writing
 345:lib/lcd/src/lcd.c **** 	for(j=0;j<size1;j++)
 346:lib/lcd/src/lcd.c **** 	{
 347:lib/lcd/src/lcd.c **** 		for(i=0;i<8;i++)
 348:lib/lcd/src/lcd.c **** 		{
 349:lib/lcd/src/lcd.c **** 		 	if((*temp&(1<<i))!=0) {         // Read from the lower bit of the data
 350:lib/lcd/src/lcd.c **** 				LCD_WR_DATA(color);         // set dot color
 351:lib/lcd/src/lcd.c **** 			}
 352:lib/lcd/src/lcd.c **** 			else
 353:lib/lcd/src/lcd.c **** 			{
 354:lib/lcd/src/lcd.c **** 				LCD_WR_DATA(BACK_COLOR);    // set dot color to background
 355:lib/lcd/src/lcd.c **** 			}
 356:lib/lcd/src/lcd.c **** 		}
 357:lib/lcd/src/lcd.c **** 		temp++;
 358:lib/lcd/src/lcd.c **** 	 }
 359:lib/lcd/src/lcd.c **** }
 360:lib/lcd/src/lcd.c **** 
 361:lib/lcd/src/lcd.c **** 
 362:lib/lcd/src/lcd.c **** /*
 363:lib/lcd/src/lcd.c ****   Function description: LCD display Chinese characters
 364:lib/lcd/src/lcd.c ****   Entry data: x, y: start coordinates
 365:lib/lcd/src/lcd.c ****   Return value: None
 366:lib/lcd/src/lcd.c **** */
 367:lib/lcd/src/lcd.c **** void LCD_DrawPoint(u16 x,u16 y,u16 color)
 368:lib/lcd/src/lcd.c **** {
 369:lib/lcd/src/lcd.c **** 	LCD_Address_Set(x,y,x,y); // Set cursor position
 370:lib/lcd/src/lcd.c **** 	LCD_WR_DATA(color);
 371:lib/lcd/src/lcd.c **** } 
 372:lib/lcd/src/lcd.c **** 
 373:lib/lcd/src/lcd.c **** 
 374:lib/lcd/src/lcd.c **** /*
 375:lib/lcd/src/lcd.c ****   Function description: LCD draws a large dot
 376:lib/lcd/src/lcd.c ****   Entry data: x, y: start coordinates
 377:lib/lcd/src/lcd.c ****   Return value: None
 378:lib/lcd/src/lcd.c **** */
 379:lib/lcd/src/lcd.c **** void LCD_DrawPoint_big(u16 x,u16 y,u16 color)
 380:lib/lcd/src/lcd.c **** {
 381:lib/lcd/src/lcd.c **** 	LCD_Fill(x-1,y-1,x+1,y+1,color);
 382:lib/lcd/src/lcd.c **** } 
 383:lib/lcd/src/lcd.c **** 
 384:lib/lcd/src/lcd.c **** 
 385:lib/lcd/src/lcd.c **** /*
 386:lib/lcd/src/lcd.c ****   Function description: fill color in the specified area
 387:lib/lcd/src/lcd.c ****   Entry data: xsta, ysta:  start coordinates
 388:lib/lcd/src/lcd.c ****               xend, yend:  end coordinates
 389:lib/lcd/src/lcd.c ****   Return value: None
 390:lib/lcd/src/lcd.c **** */
 391:lib/lcd/src/lcd.c **** void LCD_Fill(u16 xsta,u16 ysta,u16 xend,u16 yend,u16 color)
GAS LISTING C:\Users\Kalle\AppData\Local\Temp\cc2hNkGN.s 			page 25


 392:lib/lcd/src/lcd.c **** {          
 393:lib/lcd/src/lcd.c **** 	u16 i,j; 
 394:lib/lcd/src/lcd.c **** 	LCD_Address_Set(xsta,ysta,xend,yend);          //Set cursor position
 395:lib/lcd/src/lcd.c **** 	for(i=ysta;i<=yend;i++)
 396:lib/lcd/src/lcd.c **** 	{													   	 	
 397:lib/lcd/src/lcd.c **** 		for(j=xsta;j<=xend;j++)LCD_WR_DATA(color); //Set cursor position
 398:lib/lcd/src/lcd.c **** 	} 					  	    
 399:lib/lcd/src/lcd.c **** }
 400:lib/lcd/src/lcd.c **** 
 401:lib/lcd/src/lcd.c **** 
 402:lib/lcd/src/lcd.c **** /*
 403:lib/lcd/src/lcd.c ****   Function description: draw a line
 404:lib/lcd/src/lcd.c ****   Entry data: x1, y1:  start coordinates
 405:lib/lcd/src/lcd.c ****               x2, y2:  end coordinates
 406:lib/lcd/src/lcd.c ****   Return value: None
 407:lib/lcd/src/lcd.c **** ******************************************************************************/
 408:lib/lcd/src/lcd.c **** void LCD_DrawLine(u16 x1,u16 y1,u16 x2,u16 y2,u16 color)
 409:lib/lcd/src/lcd.c **** {
 410:lib/lcd/src/lcd.c **** 	u16 t; 
 411:lib/lcd/src/lcd.c **** 	int xerr=0,yerr=0,delta_x,delta_y,distance;
 412:lib/lcd/src/lcd.c **** 	int incx,incy,uRow,uCol;
 413:lib/lcd/src/lcd.c **** 	delta_x=x2-x1;                       // Calculate coordinate increments
 414:lib/lcd/src/lcd.c **** 	delta_y=y2-y1;
 415:lib/lcd/src/lcd.c **** 	uRow=x1;                             // Coordinates of starting point of drawing
 416:lib/lcd/src/lcd.c **** 	uCol=y1;
 417:lib/lcd/src/lcd.c **** 	if(delta_x>0)incx=1;                 // Set single step direction
 418:lib/lcd/src/lcd.c **** 	else if (delta_x==0)incx=0;          // Vertical line
 419:lib/lcd/src/lcd.c **** 	else {incx=-1;delta_x=-delta_x;}
 420:lib/lcd/src/lcd.c **** 	if(delta_y>0)incy=1;
 421:lib/lcd/src/lcd.c **** 	else if (delta_y==0)incy=0;          // Horizontal line
 422:lib/lcd/src/lcd.c **** 	else {incy=-1;delta_y=-delta_y;}
 423:lib/lcd/src/lcd.c **** 	if(delta_x>delta_y)distance=delta_x; // Pick basic incremental axis
 424:lib/lcd/src/lcd.c **** 	else distance=delta_y;
 425:lib/lcd/src/lcd.c **** 	for(t=0;t<distance+1;t++)
 426:lib/lcd/src/lcd.c **** 	{
 427:lib/lcd/src/lcd.c **** 		LCD_DrawPoint(uRow,uCol,color);  // Dot
 428:lib/lcd/src/lcd.c **** 		xerr+=delta_x;
 429:lib/lcd/src/lcd.c **** 		yerr+=delta_y;
 430:lib/lcd/src/lcd.c **** 		if(xerr>distance)
 431:lib/lcd/src/lcd.c **** 		{
 432:lib/lcd/src/lcd.c **** 			xerr-=distance;
 433:lib/lcd/src/lcd.c **** 			uRow+=incx;
 434:lib/lcd/src/lcd.c **** 		}
 435:lib/lcd/src/lcd.c **** 		if(yerr>distance)
 436:lib/lcd/src/lcd.c **** 		{
 437:lib/lcd/src/lcd.c **** 			yerr-=distance;
 438:lib/lcd/src/lcd.c **** 			uCol+=incy;
 439:lib/lcd/src/lcd.c **** 		}
 440:lib/lcd/src/lcd.c **** 	}
 441:lib/lcd/src/lcd.c **** }
 442:lib/lcd/src/lcd.c **** 
 443:lib/lcd/src/lcd.c **** 
 444:lib/lcd/src/lcd.c **** /*
 445:lib/lcd/src/lcd.c ****   Function description: draw a rectangle
 446:lib/lcd/src/lcd.c ****   Entry data: x1, y1:  start coordinates
 447:lib/lcd/src/lcd.c ****               x2, y2:  end coordinates
 448:lib/lcd/src/lcd.c ****   Return value: None
GAS LISTING C:\Users\Kalle\AppData\Local\Temp\cc2hNkGN.s 			page 26


 449:lib/lcd/src/lcd.c **** */
 450:lib/lcd/src/lcd.c **** void LCD_DrawRectangle(u16 x1, u16 y1, u16 x2, u16 y2,u16 color)
 451:lib/lcd/src/lcd.c **** {
 452:lib/lcd/src/lcd.c **** 	LCD_DrawLine(x1,y1,x2,y1,color);
 453:lib/lcd/src/lcd.c **** 	LCD_DrawLine(x1,y1,x1,y2,color);
 454:lib/lcd/src/lcd.c **** 	LCD_DrawLine(x1,y2,x2,y2,color);
 455:lib/lcd/src/lcd.c **** 	LCD_DrawLine(x2,y1,x2,y2,color);
 456:lib/lcd/src/lcd.c **** }
 457:lib/lcd/src/lcd.c **** 
 458:lib/lcd/src/lcd.c **** 
 459:lib/lcd/src/lcd.c **** /*
 460:lib/lcd/src/lcd.c ****   Function description: draw circle
 461:lib/lcd/src/lcd.c ****   Entry data: x0, y0:  center coordinates
 462:lib/lcd/src/lcd.c ****                    r:  radius
 463:lib/lcd/src/lcd.c ****   Return value: None
 464:lib/lcd/src/lcd.c **** */
 465:lib/lcd/src/lcd.c **** void Draw_Circle(u16 x0,u16 y0,u8 r,u16 color)
 466:lib/lcd/src/lcd.c **** {
 467:lib/lcd/src/lcd.c **** 	int a,b;
 468:lib/lcd/src/lcd.c **** 	// int di;
 469:lib/lcd/src/lcd.c **** 	a=0;b=r;	  
 470:lib/lcd/src/lcd.c **** 	while(a<=b)
 471:lib/lcd/src/lcd.c **** 	{
 472:lib/lcd/src/lcd.c **** 		LCD_DrawPoint(x0-b,y0-a,color);  //3           
 473:lib/lcd/src/lcd.c **** 		LCD_DrawPoint(x0+b,y0-a,color);  //0           
 474:lib/lcd/src/lcd.c **** 		LCD_DrawPoint(x0-a,y0+b,color);  //1                
 475:lib/lcd/src/lcd.c **** 		LCD_DrawPoint(x0-a,y0-b,color);  //2             
 476:lib/lcd/src/lcd.c **** 		LCD_DrawPoint(x0+b,y0+a,color);  //4               
 477:lib/lcd/src/lcd.c **** 		LCD_DrawPoint(x0+a,y0-b,color);  //5
 478:lib/lcd/src/lcd.c **** 		LCD_DrawPoint(x0+a,y0+b,color);             //6 
 479:lib/lcd/src/lcd.c **** 		LCD_DrawPoint(x0-b,y0+a,color);             //7
 480:lib/lcd/src/lcd.c **** 		a++;
 481:lib/lcd/src/lcd.c **** 		if((a*a+b*b)>(r*r)) // Determine whether the points to be drawn are too far away
 482:lib/lcd/src/lcd.c **** 		{
 483:lib/lcd/src/lcd.c **** 			b--;
 484:lib/lcd/src/lcd.c **** 		}
 485:lib/lcd/src/lcd.c **** 	}
 486:lib/lcd/src/lcd.c **** }
 487:lib/lcd/src/lcd.c **** 
 488:lib/lcd/src/lcd.c **** 
 489:lib/lcd/src/lcd.c **** /*
 490:lib/lcd/src/lcd.c ****   Function description: display characters
 491:lib/lcd/src/lcd.c ****   Entry data: x, y:  start point coordinates
 492:lib/lcd/src/lcd.c ****                num:  characters to display
 493:lib/lcd/src/lcd.c ****               mode:  1: transparent mode
 494:lib/lcd/src/lcd.c ****                      0: non-transparent mode
 495:lib/lcd/src/lcd.c ****   Return value: None
 496:lib/lcd/src/lcd.c **** */
 497:lib/lcd/src/lcd.c **** void LCD_ShowChar(u16 x,u16 y,u8 num,u8 mode,u16 color)
 876              		.loc 1 497 6 is_stmt 1
 877              		.cfi_startproc
 878              	.LVL68:
 879 0000 7971     		addi	sp,sp,-48
 880              	.LCFI23:
 881              		.cfi_def_cfa_offset 48
 882 0002 56CA     		sw	s5,20(sp)
 883              		.cfi_offset 21, -28
GAS LISTING C:\Users\Kalle\AppData\Local\Temp\cc2hNkGN.s 			page 27


 884 0004 B28A     		mv	s5,a2
 498:lib/lcd/src/lcd.c **** {
 499:lib/lcd/src/lcd.c ****     u8 temp;
 500:lib/lcd/src/lcd.c ****     u8 pos,t;
 501:lib/lcd/src/lcd.c **** 	  u16 x0=x;    
 502:lib/lcd/src/lcd.c ****     if(x>LCD_W-8 || y>LCD_H-16)return;	// Outside of display area
 503:lib/lcd/src/lcd.c **** 	num=num-' ';                        // Get offset value
 885              		.loc 1 503 5 is_stmt 0
 886 0006 811A     		addi	s5,s5,-32
 497:lib/lcd/src/lcd.c **** {
 887              		.loc 1 497 6
 888 0008 26D2     		sw	s1,36(sp)
 504:lib/lcd/src/lcd.c **** 	LCD_Address_Set(x,y,x+8-1,y+16-1);  // Set cursor position
 889              		.loc 1 504 2
 890 000a 13067500 		addi	a2,a0,7
 891              	.LVL69:
 892              		.cfi_offset 9, -12
 497:lib/lcd/src/lcd.c **** {
 893              		.loc 1 497 6
 894 000e B684     		mv	s1,a3
 895 0010 93FAFA0F 		andi	s5,s5,0xff
 896              		.loc 1 504 2
 897 0014 9386F500 		addi	a3,a1,15
 898              	.LVL70:
 497:lib/lcd/src/lcd.c **** {
 899              		.loc 1 497 6
 900 0018 4AD0     		sw	s2,32(sp)
 901 001a 5AC8     		sw	s6,16(sp)
 902 001c 5EC6     		sw	s7,12(sp)
 903 001e 06D6     		sw	ra,44(sp)
 904 0020 22D4     		sw	s0,40(sp)
 905 0022 4ECE     		sw	s3,28(sp)
 906 0024 52CC     		sw	s4,24(sp)
 907 0026 62C4     		sw	s8,8(sp)
 908              		.cfi_offset 18, -16
 909              		.cfi_offset 22, -32
 910              		.cfi_offset 23, -36
 911              		.cfi_offset 1, -4
 912              		.cfi_offset 8, -8
 913              		.cfi_offset 19, -20
 914              		.cfi_offset 20, -24
 915              		.cfi_offset 24, -40
 497:lib/lcd/src/lcd.c **** {
 916              		.loc 1 497 6
 917 0028 AA8B     		mv	s7,a0
 503:lib/lcd/src/lcd.c **** 	LCD_Address_Set(x,y,x+8-1,y+16-1);  // Set cursor position
 918              		.loc 1 503 2 is_stmt 1
 919              	.LVL71:
 920              		.loc 1 504 2
 497:lib/lcd/src/lcd.c **** {
 921              		.loc 1 497 6 is_stmt 0
 922 002a 2E8B     		mv	s6,a1
 923 002c 3A89     		mv	s2,a4
 924 002e 920A     		slli	s5,s5,4
 925              		.loc 1 504 2
 926 0030 97000000 		call	LCD_Address_Set
 926      E7800000 
GAS LISTING C:\Users\Kalle\AppData\Local\Temp\cc2hNkGN.s 			page 28


 927              	.LVL72:
 505:lib/lcd/src/lcd.c **** 	if(!mode)
 928              		.loc 1 505 2 is_stmt 1
 929              		.loc 1 505 4 is_stmt 0
 930 0038 A1EC     		bne	s1,zero,.L46
 931 003a B7090000 		lui	s3,%hi(.LANCHOR4)
 932 003e 93890900 		addi	s3,s3,%lo(.LANCHOR4)
 933 0042 93870901 		addi	a5,s3,16
 506:lib/lcd/src/lcd.c **** 	{
 507:lib/lcd/src/lcd.c **** 		// non-trasparent mode
 508:lib/lcd/src/lcd.c **** 		for(pos=0;pos<16;pos++)
 509:lib/lcd/src/lcd.c **** 		{ 
 510:lib/lcd/src/lcd.c **** 			temp=asc2_1608[(u16)num*16+pos];  // load 1608 font character
 511:lib/lcd/src/lcd.c **** 			for(t=0;t<8;t++)
 512:lib/lcd/src/lcd.c **** 		    {                 
 513:lib/lcd/src/lcd.c **** 		        if(temp&0x01)LCD_WR_DATA(color);
 514:lib/lcd/src/lcd.c **** 				else LCD_WR_DATA(BACK_COLOR);
 934              		.loc 1 514 10
 935 0046 370A0000 		lui	s4,%hi(BACK_COLOR)
 936 004a D699     		add	s3,s3,s5
 937 004c BE9A     		add	s5,a5,s5
 938              	.LVL73:
 939              	.L50:
 510:lib/lcd/src/lcd.c **** 			for(t=0;t<8;t++)
 940              		.loc 1 510 4 is_stmt 1
 510:lib/lcd/src/lcd.c **** 			for(t=0;t<8;t++)
 941              		.loc 1 510 8 is_stmt 0
 942 004e 83C40900 		lbu	s1,0(s3)
 943              	.LVL74:
 511:lib/lcd/src/lcd.c **** 		    {                 
 944              		.loc 1 511 4 is_stmt 1
 510:lib/lcd/src/lcd.c **** 			for(t=0;t<8;t++)
 945              		.loc 1 510 8 is_stmt 0
 946 0052 2144     		li	s0,8
 947              	.LVL75:
 948              	.L49:
 513:lib/lcd/src/lcd.c **** 				else LCD_WR_DATA(BACK_COLOR);
 949              		.loc 1 513 11 is_stmt 1
 513:lib/lcd/src/lcd.c **** 				else LCD_WR_DATA(BACK_COLOR);
 950              		.loc 1 513 24
 951              		.loc 1 514 10
 513:lib/lcd/src/lcd.c **** 				else LCD_WR_DATA(BACK_COLOR);
 952              		.loc 1 513 13 is_stmt 0
 953 0054 93F71400 		andi	a5,s1,1
 513:lib/lcd/src/lcd.c **** 				else LCD_WR_DATA(BACK_COLOR);
 954              		.loc 1 513 24
 955 0058 4A85     		mv	a0,s2
 513:lib/lcd/src/lcd.c **** 				else LCD_WR_DATA(BACK_COLOR);
 956              		.loc 1 513 13
 957 005a 99E3     		bne	a5,zero,.L63
 958              	.LVL76:
 959              		.loc 1 514 10
 960 005c 03250A00 		lw	a0,%lo(BACK_COLOR)(s4)
 961              	.LVL77:
 962              	.L63:
 963 0060 7D14     		addi	s0,s0,-1
 964              	.LVL78:
GAS LISTING C:\Users\Kalle\AppData\Local\Temp\cc2hNkGN.s 			page 29


 965 0062 1374F40F 		andi	s0,s0,0xff
 966 0066 97000000 		call	LCD_WR_DATA
 966      E7800000 
 967              	.LVL79:
 515:lib/lcd/src/lcd.c **** 				temp>>=1;
 968              		.loc 1 515 5 is_stmt 1
 969              		.loc 1 515 9 is_stmt 0
 970 006e 8580     		srli	s1,s1,1
 971              	.LVL80:
 516:lib/lcd/src/lcd.c **** 				x++;
 972              		.loc 1 516 5 is_stmt 1
 511:lib/lcd/src/lcd.c **** 		    {                 
 973              		.loc 1 511 4 is_stmt 0
 974 0070 75F0     		bne	s0,zero,.L49
 517:lib/lcd/src/lcd.c **** 		    }
 518:lib/lcd/src/lcd.c **** 			x=x0;
 975              		.loc 1 518 4 is_stmt 1
 976              	.LVL81:
 519:lib/lcd/src/lcd.c **** 			y++;
 977              		.loc 1 519 4
 978 0072 8509     		addi	s3,s3,1
 508:lib/lcd/src/lcd.c **** 		{ 
 979              		.loc 1 508 3 is_stmt 0
 980 0074 E39D3AFD 		bne	s5,s3,.L50
 981              	.LVL82:
 982              	.L45:
 520:lib/lcd/src/lcd.c **** 		}	
 521:lib/lcd/src/lcd.c **** 	}else
 522:lib/lcd/src/lcd.c **** 	{
 523:lib/lcd/src/lcd.c **** 		// Transparent mode
 524:lib/lcd/src/lcd.c **** 		for(pos=0;pos<16;pos++)
 525:lib/lcd/src/lcd.c **** 		{
 526:lib/lcd/src/lcd.c **** 		    temp=asc2_1608[(u16)num*16+pos]; // load 1608 font character
 527:lib/lcd/src/lcd.c **** 			for(t=0;t<8;t++)
 528:lib/lcd/src/lcd.c **** 		    {                 
 529:lib/lcd/src/lcd.c **** 		        if(temp&0x01)LCD_DrawPoint(x+t,y+pos,color); //Draw a dot
 530:lib/lcd/src/lcd.c **** 		        temp>>=1; 
 531:lib/lcd/src/lcd.c **** 		    }
 532:lib/lcd/src/lcd.c **** 		}
 533:lib/lcd/src/lcd.c **** 	}   	   	 	  
 534:lib/lcd/src/lcd.c **** }
 983              		.loc 1 534 1
 984 0078 B250     		lw	ra,44(sp)
 985              		.cfi_remember_state
 986              		.cfi_restore 1
 987 007a 2254     		lw	s0,40(sp)
 988              		.cfi_restore 8
 989 007c 9254     		lw	s1,36(sp)
 990              		.cfi_restore 9
 991              	.LVL83:
 992 007e 0259     		lw	s2,32(sp)
 993              		.cfi_restore 18
 994              	.LVL84:
 995 0080 F249     		lw	s3,28(sp)
 996              		.cfi_restore 19
 997 0082 624A     		lw	s4,24(sp)
 998              		.cfi_restore 20
GAS LISTING C:\Users\Kalle\AppData\Local\Temp\cc2hNkGN.s 			page 30


 999 0084 D24A     		lw	s5,20(sp)
 1000              		.cfi_restore 21
 1001 0086 424B     		lw	s6,16(sp)
 1002              		.cfi_restore 22
 1003 0088 B24B     		lw	s7,12(sp)
 1004              		.cfi_restore 23
 1005 008a 224C     		lw	s8,8(sp)
 1006              		.cfi_restore 24
 1007 008c 4561     		addi	sp,sp,48
 1008              	.LCFI24:
 1009              		.cfi_def_cfa_offset 0
 1010 008e 8280     		jr	ra
 1011              	.LVL85:
 1012              	.L46:
 1013              	.LCFI25:
 1014              		.cfi_restore_state
 505:lib/lcd/src/lcd.c **** 	{
 1015              		.loc 1 505 4
 1016 0090 DA89     		mv	s3,s6
 1017 0092 370C0000 		lui	s8,%hi(.LANCHOR4)
 1018 0096 410B     		addi	s6,s6,16
 1019              	.LVL86:
 1020 0098 130C0C00 		addi	s8,s8,%lo(.LANCHOR4)
 1021 009c B38A3A41 		sub	s5,s5,s3
 1022 00a0 138A8B00 		addi	s4,s7,8
 1023              	.LVL87:
 1024              	.L53:
 526:lib/lcd/src/lcd.c **** 			for(t=0;t<8;t++)
 1025              		.loc 1 526 7 is_stmt 1
 526:lib/lcd/src/lcd.c **** 			for(t=0;t<8;t++)
 1026              		.loc 1 526 11 is_stmt 0
 1027 00a4 B3873A01 		add	a5,s5,s3
 1028 00a8 E297     		add	a5,s8,a5
 1029 00aa 83C40700 		lbu	s1,0(a5)
 1030              	.LVL88:
 527:lib/lcd/src/lcd.c **** 		    {                 
 1031              		.loc 1 527 4 is_stmt 1
 526:lib/lcd/src/lcd.c **** 			for(t=0;t<8;t++)
 1032              		.loc 1 526 11 is_stmt 0
 1033 00ae 5E84     		mv	s0,s7
 1034 00b0 29A0     		j	.L52
 1035              	.LVL89:
 1036              	.L51:
 530:lib/lcd/src/lcd.c **** 		    }
 1037              		.loc 1 530 11 is_stmt 1
 1038 00b2 0504     		addi	s0,s0,1
 1039              	.LVL90:
 530:lib/lcd/src/lcd.c **** 		    }
 1040              		.loc 1 530 15 is_stmt 0
 1041 00b4 8580     		srli	s1,s1,1
 1042              	.LVL91:
 527:lib/lcd/src/lcd.c **** 		    {                 
 1043              		.loc 1 527 4
 1044 00b6 63068A02 		beq	s4,s0,.L64
 1045              	.L52:
 1046              	.LVL92:
 529:lib/lcd/src/lcd.c **** 		        temp>>=1; 
GAS LISTING C:\Users\Kalle\AppData\Local\Temp\cc2hNkGN.s 			page 31


 1047              		.loc 1 529 11 is_stmt 1
 529:lib/lcd/src/lcd.c **** 		        temp>>=1; 
 1048              		.loc 1 529 13 is_stmt 0
 1049 00ba 93F71400 		andi	a5,s1,1
 1050 00be F5DB     		beq	a5,zero,.L51
 529:lib/lcd/src/lcd.c **** 		        temp>>=1; 
 1051              		.loc 1 529 24 is_stmt 1
 1052              	.LVL93:
 1053              	.LBB228:
 1054              	.LBB229:
 369:lib/lcd/src/lcd.c **** 	LCD_WR_DATA(color);
 1055              		.loc 1 369 2
 1056 00c0 2286     		mv	a2,s0
 1057 00c2 2285     		mv	a0,s0
 1058 00c4 CE86     		mv	a3,s3
 1059 00c6 CE85     		mv	a1,s3
 1060 00c8 97000000 		call	LCD_Address_Set
 1060      E7800000 
 1061              	.LVL94:
 370:lib/lcd/src/lcd.c **** } 
 1062              		.loc 1 370 2
 1063 00d0 4A85     		mv	a0,s2
 1064 00d2 0504     		addi	s0,s0,1
 1065              	.LVL95:
 1066 00d4 97000000 		call	LCD_WR_DATA
 1066      E7800000 
 1067              	.LVL96:
 1068              	.LBE229:
 1069              	.LBE228:
 530:lib/lcd/src/lcd.c **** 		    }
 1070              		.loc 1 530 11
 530:lib/lcd/src/lcd.c **** 		    }
 1071              		.loc 1 530 15 is_stmt 0
 1072 00dc 8580     		srli	s1,s1,1
 1073              	.LVL97:
 527:lib/lcd/src/lcd.c **** 		    {                 
 1074              		.loc 1 527 4
 1075 00de E31E8AFC 		bne	s4,s0,.L52
 1076              	.LVL98:
 1077              	.L64:
 1078 00e2 8509     		addi	s3,s3,1
 1079              	.LVL99:
 524:lib/lcd/src/lcd.c **** 		{
 1080              		.loc 1 524 3
 1081 00e4 E39069FD 		bne	s3,s6,.L53
 1082 00e8 41BF     		j	.L45
 1083              		.cfi_endproc
 1084              	.LFE31:
 1086              		.section	.text.spi_config,"ax",@progbits
 1087              		.align	1
 1088              		.globl	spi_config
 1090              	spi_config:
 1091              	.LFB11:
 149:lib/lcd/src/lcd.c ****     spi_parameter_struct spi_init_struct;
 1092              		.loc 1 149 1 is_stmt 1
 1093              		.cfi_startproc
 150:lib/lcd/src/lcd.c ****     /* deinitilize SPI and the parameters */
GAS LISTING C:\Users\Kalle\AppData\Local\Temp\cc2hNkGN.s 			page 32


 1094              		.loc 1 150 5
 152:lib/lcd/src/lcd.c ****     spi_struct_para_init(&spi_init_struct);
 1095              		.loc 1 152 5
 149:lib/lcd/src/lcd.c ****     spi_parameter_struct spi_init_struct;
 1096              		.loc 1 149 1 is_stmt 0
 1097 0000 7971     		addi	sp,sp,-48
 1098              	.LCFI26:
 1099              		.cfi_def_cfa_offset 48
 152:lib/lcd/src/lcd.c ****     spi_struct_para_init(&spi_init_struct);
 1100              		.loc 1 152 5
 1101 0002 8965     		li	a1,8192
 1102 0004 37150140 		li	a0,1073811456
 149:lib/lcd/src/lcd.c ****     spi_parameter_struct spi_init_struct;
 1103              		.loc 1 149 1
 1104 0008 06D6     		sw	ra,44(sp)
 1105 000a 22D4     		sw	s0,40(sp)
 1106              		.cfi_offset 1, -4
 1107              		.cfi_offset 8, -8
 152:lib/lcd/src/lcd.c ****     spi_struct_para_init(&spi_init_struct);
 1108              		.loc 1 152 5
 1109 000c 97000000 		call	gpio_bit_set
 1109      E7800000 
 1110              	.LVL100:
 153:lib/lcd/src/lcd.c **** 
 1111              		.loc 1 153 5 is_stmt 1
 1112 0014 4800     		addi	a0,sp,4
 1113 0016 97000000 		call	spi_struct_para_init
 1113      E7800000 
 1114              	.LVL101:
 156:lib/lcd/src/lcd.c ****     spi_init_struct.device_mode          = SPI_MASTER;
 1115              		.loc 1 156 5
 157:lib/lcd/src/lcd.c ****     spi_init_struct.frame_size           = SPI_FRAMESIZE_8BIT;
 1116              		.loc 1 157 42 is_stmt 0
 1117 001e 93074010 		li	a5,260
 1118 0022 3EC2     		sw	a5,4(sp)
 159:lib/lcd/src/lcd.c ****     spi_init_struct.nss                  = SPI_NSS_SOFT;
 1119              		.loc 1 159 42
 1120 0024 8D47     		li	a5,3
 163:lib/lcd/src/lcd.c **** 
 1121              		.loc 1 163 5
 1122 0026 37440040 		li	s0,1073758208
 159:lib/lcd/src/lcd.c ****     spi_init_struct.nss                  = SPI_NSS_SOFT;
 1123              		.loc 1 159 42
 1124 002a 3ECC     		sw	a5,24(sp)
 160:lib/lcd/src/lcd.c ****     spi_init_struct.prescale             = SPI_PSC_4;
 1125              		.loc 1 160 42
 1126 002c 93070020 		li	a5,512
 163:lib/lcd/src/lcd.c **** 
 1127              		.loc 1 163 5
 1128 0030 4C00     		addi	a1,sp,4
 1129 0032 13050480 		addi	a0,s0,-2048
 160:lib/lcd/src/lcd.c ****     spi_init_struct.prescale             = SPI_PSC_4;
 1130              		.loc 1 160 42
 1131 0036 3EC8     		sw	a5,16(sp)
 161:lib/lcd/src/lcd.c ****     spi_init_struct.endian               = SPI_ENDIAN_MSB;
 1132              		.loc 1 161 42
 1133 0038 A147     		li	a5,8
GAS LISTING C:\Users\Kalle\AppData\Local\Temp\cc2hNkGN.s 			page 33


 1134 003a 3ECE     		sw	a5,28(sp)
 156:lib/lcd/src/lcd.c ****     spi_init_struct.device_mode          = SPI_MASTER;
 1135              		.loc 1 156 42
 1136 003c 02C4     		sw	zero,8(sp)
 157:lib/lcd/src/lcd.c ****     spi_init_struct.frame_size           = SPI_FRAMESIZE_8BIT;
 1137              		.loc 1 157 5 is_stmt 1
 158:lib/lcd/src/lcd.c ****     spi_init_struct.clock_polarity_phase = SPI_CK_PL_HIGH_PH_2EDGE;
 1138              		.loc 1 158 5
 158:lib/lcd/src/lcd.c ****     spi_init_struct.clock_polarity_phase = SPI_CK_PL_HIGH_PH_2EDGE;
 1139              		.loc 1 158 42 is_stmt 0
 1140 003e 02C6     		sw	zero,12(sp)
 159:lib/lcd/src/lcd.c ****     spi_init_struct.nss                  = SPI_NSS_SOFT;
 1141              		.loc 1 159 5 is_stmt 1
 160:lib/lcd/src/lcd.c ****     spi_init_struct.prescale             = SPI_PSC_4;
 1142              		.loc 1 160 5
 161:lib/lcd/src/lcd.c ****     spi_init_struct.endian               = SPI_ENDIAN_MSB;
 1143              		.loc 1 161 5
 162:lib/lcd/src/lcd.c ****     spi_init(SPI1, &spi_init_struct);
 1144              		.loc 1 162 5
 162:lib/lcd/src/lcd.c ****     spi_init(SPI1, &spi_init_struct);
 1145              		.loc 1 162 42 is_stmt 0
 1146 0040 02CA     		sw	zero,20(sp)
 163:lib/lcd/src/lcd.c **** 
 1147              		.loc 1 163 5 is_stmt 1
 1148 0042 97000000 		call	spi_init
 1148      E7800000 
 1149              	.LVL102:
 165:lib/lcd/src/lcd.c **** 	spi_enable(SPI1);
 1150              		.loc 1 165 2
 1151 004a 13050480 		addi	a0,s0,-2048
 1152 004e 9D45     		li	a1,7
 1153 0050 97000000 		call	spi_crc_polynomial_set
 1153      E7800000 
 1154              	.LVL103:
 166:lib/lcd/src/lcd.c **** }
 1155              		.loc 1 166 2
 1156 0058 13050480 		addi	a0,s0,-2048
 1157 005c 97000000 		call	spi_enable
 1157      E7800000 
 1158              	.LVL104:
 167:lib/lcd/src/lcd.c **** 
 1159              		.loc 1 167 1 is_stmt 0
 1160 0064 B250     		lw	ra,44(sp)
 1161              		.cfi_restore 1
 1162 0066 2254     		lw	s0,40(sp)
 1163              		.cfi_restore 8
 1164 0068 4561     		addi	sp,sp,48
 1165              	.LCFI27:
 1166              		.cfi_def_cfa_offset 0
 1167 006a 8280     		jr	ra
 1168              		.cfi_endproc
 1169              	.LFE11:
 1171              		.section	.text.Lcd_SetType,"ax",@progbits
 1172              		.align	1
 1173              		.globl	Lcd_SetType
 1175              	Lcd_SetType:
 1176              	.LFB12:
GAS LISTING C:\Users\Kalle\AppData\Local\Temp\cc2hNkGN.s 			page 34


 169:lib/lcd/src/lcd.c **** 	if(type == LCD_NORMAL){
 1177              		.loc 1 169 27 is_stmt 1
 1178              		.cfi_startproc
 1179              	.LVL105:
 170:lib/lcd/src/lcd.c **** 		lcd_conf.configured = 1;
 1180              		.loc 1 170 2
 170:lib/lcd/src/lcd.c **** 		lcd_conf.configured = 1;
 1181              		.loc 1 170 4 is_stmt 0
 1182 0000 09E9     		bne	a0,zero,.L68
 171:lib/lcd/src/lcd.c **** 		lcd_conf.offset_x = 1;
 1183              		.loc 1 171 3 is_stmt 1
 172:lib/lcd/src/lcd.c **** 		lcd_conf.offset_y = 26;
 1184              		.loc 1 172 3
 173:lib/lcd/src/lcd.c **** 		lcd_conf.inverted = 0;
 1185              		.loc 1 173 3
 174:lib/lcd/src/lcd.c **** 	}
 1186              		.loc 1 174 3
 171:lib/lcd/src/lcd.c **** 		lcd_conf.offset_x = 1;
 1187              		.loc 1 171 23 is_stmt 0
 1188 0002 B707011A 		li	a5,436273152
 1189 0006 37070000 		lui	a4,%hi(.LANCHOR3)
 1190 000a 8507     		addi	a5,a5,1
 1191 000c 2320F700 		sw	a5,%lo(.LANCHOR3)(a4)
 176:lib/lcd/src/lcd.c **** 		lcd_conf.configured = 1;
 1192              		.loc 1 176 2 is_stmt 1
 1193 0010 8280     		ret
 1194              	.L68:
 176:lib/lcd/src/lcd.c **** 		lcd_conf.configured = 1;
 1195              		.loc 1 176 2
 176:lib/lcd/src/lcd.c **** 		lcd_conf.configured = 1;
 1196              		.loc 1 176 4 is_stmt 0
 1197 0012 8547     		li	a5,1
 1198 0014 631AF500 		bne	a0,a5,.L67
 1199              	.LVL106:
 1200              	.LBB232:
 1201              	.LBB233:
 177:lib/lcd/src/lcd.c **** 		lcd_conf.offset_x = 0;
 1202              		.loc 1 177 3 is_stmt 1
 178:lib/lcd/src/lcd.c **** 		lcd_conf.offset_y = 24;
 1203              		.loc 1 178 3
 179:lib/lcd/src/lcd.c **** 		lcd_conf.inverted = 1;
 1204              		.loc 1 179 3
 180:lib/lcd/src/lcd.c **** 	}
 1205              		.loc 1 180 3
 177:lib/lcd/src/lcd.c **** 		lcd_conf.offset_x = 0;
 1206              		.loc 1 177 23 is_stmt 0
 1207 0018 B7070018 		li	a5,402653184
 1208 001c 37070000 		lui	a4,%hi(.LANCHOR3)
 1209 0020 93871710 		addi	a5,a5,257
 1210 0024 2320F700 		sw	a5,%lo(.LANCHOR3)(a4)
 1211              	.LVL107:
 1212              	.L67:
 1213              	.LBE233:
 1214              	.LBE232:
 182:lib/lcd/src/lcd.c **** 
 1215              		.loc 1 182 1
 1216 0028 8280     		ret
GAS LISTING C:\Users\Kalle\AppData\Local\Temp\cc2hNkGN.s 			page 35


 1217              		.cfi_endproc
 1218              	.LFE12:
 1220              		.section	.text.Lcd_Init,"ax",@progbits
 1221              		.align	1
 1222              		.globl	Lcd_Init
 1224              	Lcd_Init:
 1225              	.LFB13:
 191:lib/lcd/src/lcd.c **** 	if(!lcd_conf.configured) Lcd_SetType(LCD_NORMAL);
 1226              		.loc 1 191 1 is_stmt 1
 1227              		.cfi_startproc
 192:lib/lcd/src/lcd.c **** 	rcu_periph_clock_enable(RCU_GPIOB);
 1228              		.loc 1 192 2
 191:lib/lcd/src/lcd.c **** 	if(!lcd_conf.configured) Lcd_SetType(LCD_NORMAL);
 1229              		.loc 1 191 1 is_stmt 0
 1230 0000 4111     		addi	sp,sp,-16
 1231              	.LCFI28:
 1232              		.cfi_def_cfa_offset 16
 1233 0002 22C4     		sw	s0,8(sp)
 1234              		.cfi_offset 8, -8
 192:lib/lcd/src/lcd.c **** 	rcu_periph_clock_enable(RCU_GPIOB);
 1235              		.loc 1 192 14
 1236 0004 37040000 		lui	s0,%hi(.LANCHOR3)
 1237 0008 13040400 		addi	s0,s0,%lo(.LANCHOR3)
 192:lib/lcd/src/lcd.c **** 	rcu_periph_clock_enable(RCU_GPIOB);
 1238              		.loc 1 192 4
 1239 000c 83470400 		lbu	a5,0(s0)
 191:lib/lcd/src/lcd.c **** 	if(!lcd_conf.configured) Lcd_SetType(LCD_NORMAL);
 1240              		.loc 1 191 1
 1241 0010 06C6     		sw	ra,12(sp)
 1242              		.cfi_offset 1, -4
 192:lib/lcd/src/lcd.c **** 	rcu_periph_clock_enable(RCU_GPIOB);
 1243              		.loc 1 192 4
 1244 0012 89E7     		bne	a5,zero,.L71
 192:lib/lcd/src/lcd.c **** 	rcu_periph_clock_enable(RCU_GPIOB);
 1245              		.loc 1 192 27 is_stmt 1
 1246              	.LVL108:
 1247              	.LBB234:
 1248              	.LBB235:
 170:lib/lcd/src/lcd.c **** 		lcd_conf.configured = 1;
 1249              		.loc 1 170 2
 171:lib/lcd/src/lcd.c **** 		lcd_conf.offset_x = 1;
 1250              		.loc 1 171 3
 172:lib/lcd/src/lcd.c **** 		lcd_conf.offset_y = 26;
 1251              		.loc 1 172 3
 173:lib/lcd/src/lcd.c **** 		lcd_conf.inverted = 0;
 1252              		.loc 1 173 3
 174:lib/lcd/src/lcd.c **** 	}
 1253              		.loc 1 174 3
 171:lib/lcd/src/lcd.c **** 		lcd_conf.offset_x = 1;
 1254              		.loc 1 171 23 is_stmt 0
 1255 0014 B707011A 		li	a5,436273152
 1256 0018 8507     		addi	a5,a5,1
 1257 001a 1CC0     		sw	a5,0(s0)
 176:lib/lcd/src/lcd.c **** 		lcd_conf.configured = 1;
 1258              		.loc 1 176 2 is_stmt 1
 1259              	.LVL109:
 1260              	.L71:
GAS LISTING C:\Users\Kalle\AppData\Local\Temp\cc2hNkGN.s 			page 36


 1261              	.LBE235:
 1262              	.LBE234:
 193:lib/lcd/src/lcd.c **** 	rcu_periph_clock_enable(RCU_GPIOC);
 1263              		.loc 1 193 2
 1264 001c 13053060 		li	a0,1539
 1265 0020 97000000 		call	rcu_periph_clock_enable
 1265      E7800000 
 1266              	.LVL110:
 194:lib/lcd/src/lcd.c **** 
 1267              		.loc 1 194 2
 1268 0028 13054060 		li	a0,1540
 1269 002c 97000000 		call	rcu_periph_clock_enable
 1269      E7800000 
 1270              	.LVL111:
 196:lib/lcd/src/lcd.c **** 	rcu_periph_clock_enable(RCU_SPI1);
 1271              		.loc 1 196 3
 1272 0034 13050060 		li	a0,1536
 1273 0038 97000000 		call	rcu_periph_clock_enable
 1273      E7800000 
 1274              	.LVL112:
 197:lib/lcd/src/lcd.c **** 	
 1275              		.loc 1 197 2
 1276 0040 1305E070 		li	a0,1806
 1277 0044 97000000 		call	rcu_periph_clock_enable
 1277      E7800000 
 1278              	.LVL113:
 199:lib/lcd/src/lcd.c **** 	gpio_init(GPIOC, GPIO_MODE_OUT_PP, GPIO_OSPEED_50MHZ, GPIO_PIN_13 | GPIO_PIN_15); //CS
 1279              		.loc 1 199 5
 1280 004c 37150140 		li	a0,1073811456
 1281 0050 B966     		li	a3,57344
 1282 0052 0D46     		li	a2,3
 1283 0054 E145     		li	a1,24
 1284 0056 130505C0 		addi	a0,a0,-1024
 1285 005a 97000000 		call	gpio_init
 1285      E7800000 
 1286              	.LVL114:
 200:lib/lcd/src/lcd.c **** 
 1287              		.loc 1 200 2
 1288 0062 A966     		li	a3,40960
 1289 0064 0D46     		li	a2,3
 1290 0066 C145     		li	a1,16
 1291 0068 37150140 		li	a0,1073811456
 1292 006c 97000000 		call	gpio_init
 1292      E7800000 
 1293              	.LVL115:
 202:lib/lcd/src/lcd.c **** 
 1294              		.loc 1 202 2
 1295 0074 97000000 		call	spi_config
 1295      E7800000 
 1296              	.LVL116:
 204:lib/lcd/src/lcd.c **** 	//LCD_Wait_On_Queue();
 1297              		.loc 1 204 2
 1298 007c A965     		li	a1,40960
 1299 007e 37150140 		li	a0,1073811456
 1300 0082 97000000 		call	gpio_bit_reset
 1300      E7800000 
 1301              	.LVL117:
GAS LISTING C:\Users\Kalle\AppData\Local\Temp\cc2hNkGN.s 			page 37


 206:lib/lcd/src/lcd.c **** 	
 1302              		.loc 1 206 2
 1303 008a 13054006 		li	a0,100
 1304 008e 97000000 		call	lcd_delay_1ms
 1304      E7800000 
 1305              	.LVL118:
 209:lib/lcd/src/lcd.c **** 	//LCD_Wait_On_Queue();
 1306              		.loc 1 209 2
 1307              	.LBB236:
 1308              	.LBB237:
 118:lib/lcd/src/lcd.c **** 	LCD_Writ_Bus(dat);
 1309              		.loc 1 118 2
 1310 0096 A165     		li	a1,32768
 1311 0098 37150140 		li	a0,1073811456
 1312 009c 97000000 		call	gpio_bit_reset
 1312      E7800000 
 1313              	.LVL119:
 119:lib/lcd/src/lcd.c ****     //LCD_Write_Bus((int)dat);
 1314              		.loc 1 119 2
 1315 00a4 0545     		li	a0,1
 1316 00a6 97000000 		call	LCD_Writ_Bus
 1316      E7800000 
 1317              	.LVL120:
 1318              	.LBE237:
 1319              	.LBE236:
 211:lib/lcd/src/lcd.c **** 	
 1320              		.loc 1 211 2
 1321 00ae 13058007 		li	a0,120
 1322 00b2 97000000 		call	lcd_delay_1ms
 1322      E7800000 
 1323              	.LVL121:
 214:lib/lcd/src/lcd.c **** 	//LCD_Wait_On_Queue();
 1324              		.loc 1 214 2
 1325              	.LBB238:
 1326              	.LBB239:
 118:lib/lcd/src/lcd.c **** 	LCD_Writ_Bus(dat);
 1327              		.loc 1 118 2
 1328 00ba A165     		li	a1,32768
 1329 00bc 37150140 		li	a0,1073811456
 1330 00c0 97000000 		call	gpio_bit_reset
 1330      E7800000 
 1331              	.LVL122:
 119:lib/lcd/src/lcd.c ****     //LCD_Write_Bus((int)dat);
 1332              		.loc 1 119 2
 1333 00c8 4545     		li	a0,17
 1334 00ca 97000000 		call	LCD_Writ_Bus
 1334      E7800000 
 1335              	.LVL123:
 1336              	.LBE239:
 1337              	.LBE238:
 216:lib/lcd/src/lcd.c **** 
 1338              		.loc 1 216 2
 1339 00d2 13054006 		li	a0,100
 1340 00d6 97000000 		call	lcd_delay_1ms
 1340      E7800000 
 1341              	.LVL124:
 218:lib/lcd/src/lcd.c **** 	else				  LCD_WR_REG(0x21); 	//INVON
GAS LISTING C:\Users\Kalle\AppData\Local\Temp\cc2hNkGN.s 			page 38


 1342              		.loc 1 218 2
 218:lib/lcd/src/lcd.c **** 	else				  LCD_WR_REG(0x21); 	//INVON
 1343              		.loc 1 218 4 is_stmt 0
 1344 00de 83471400 		lbu	a5,1(s0)
 1345 00e2 63800774 		beq	a5,zero,.L72
 218:lib/lcd/src/lcd.c **** 	else				  LCD_WR_REG(0x21); 	//INVON
 1346              		.loc 1 218 24 is_stmt 1
 1347              	.LVL125:
 1348              	.LBB240:
 1349              	.LBB241:
 118:lib/lcd/src/lcd.c **** 	LCD_Writ_Bus(dat);
 1350              		.loc 1 118 2
 1351 00e6 37150140 		li	a0,1073811456
 1352 00ea A165     		li	a1,32768
 1353 00ec 97000000 		call	gpio_bit_reset
 1353      E7800000 
 1354              	.LVL126:
 119:lib/lcd/src/lcd.c ****     //LCD_Write_Bus((int)dat);
 1355              		.loc 1 119 2
 1356 00f4 13052002 		li	a0,34
 1357 00f8 97000000 		call	LCD_Writ_Bus
 1357      E7800000 
 1358              	.LVL127:
 1359              	.L73:
 1360              	.LBE241:
 1361              	.LBE240:
 221:lib/lcd/src/lcd.c **** 	LCD_WR_DATA8(0x05); // Framerate = 333khz / (25) * (196) = 67.9fps
 1362              		.loc 1 221 2
 1363              	.LBB242:
 1364              	.LBB243:
 118:lib/lcd/src/lcd.c **** 	LCD_Writ_Bus(dat);
 1365              		.loc 1 118 2
 1366 0100 A165     		li	a1,32768
 1367 0102 37150140 		li	a0,1073811456
 1368 0106 97000000 		call	gpio_bit_reset
 1368      E7800000 
 1369              	.LVL128:
 119:lib/lcd/src/lcd.c ****     //LCD_Write_Bus((int)dat);
 1370              		.loc 1 119 2
 1371 010e 1305100B 		li	a0,177
 1372 0112 97000000 		call	LCD_Writ_Bus
 1372      E7800000 
 1373              	.LVL129:
 1374              	.LBE243:
 1375              	.LBE242:
 222:lib/lcd/src/lcd.c **** 	LCD_WR_DATA8(0x3A);
 1376              		.loc 1 222 2
 1377              	.LBB244:
 1378              	.LBB245:
  90:lib/lcd/src/lcd.c **** 	LCD_Writ_Bus(dat);
 1379              		.loc 1 90 2
 1380 011a A165     		li	a1,32768
 1381 011c 37150140 		li	a0,1073811456
 1382 0120 97000000 		call	gpio_bit_set
 1382      E7800000 
 1383              	.LVL130:
  91:lib/lcd/src/lcd.c ****     //LCD_Write_Bus(((int)dat)+(1<<8));
GAS LISTING C:\Users\Kalle\AppData\Local\Temp\cc2hNkGN.s 			page 39


 1384              		.loc 1 91 2
 1385 0128 1545     		li	a0,5
 1386 012a 97000000 		call	LCD_Writ_Bus
 1386      E7800000 
 1387              	.LVL131:
 1388              	.LBE245:
 1389              	.LBE244:
 223:lib/lcd/src/lcd.c **** 	LCD_WR_DATA8(0x3A);
 1390              		.loc 1 223 2
 1391              	.LBB246:
 1392              	.LBB247:
  90:lib/lcd/src/lcd.c **** 	LCD_Writ_Bus(dat);
 1393              		.loc 1 90 2
 1394 0132 A165     		li	a1,32768
 1395 0134 37150140 		li	a0,1073811456
 1396 0138 97000000 		call	gpio_bit_set
 1396      E7800000 
 1397              	.LVL132:
  91:lib/lcd/src/lcd.c ****     //LCD_Write_Bus(((int)dat)+(1<<8));
 1398              		.loc 1 91 2
 1399 0140 1305A003 		li	a0,58
 1400 0144 97000000 		call	LCD_Writ_Bus
 1400      E7800000 
 1401              	.LVL133:
 1402              	.LBE247:
 1403              	.LBE246:
 224:lib/lcd/src/lcd.c **** 
 1404              		.loc 1 224 2
 1405              	.LBB248:
 1406              	.LBB249:
  90:lib/lcd/src/lcd.c **** 	LCD_Writ_Bus(dat);
 1407              		.loc 1 90 2
 1408 014c A165     		li	a1,32768
 1409 014e 37150140 		li	a0,1073811456
 1410 0152 97000000 		call	gpio_bit_set
 1410      E7800000 
 1411              	.LVL134:
  91:lib/lcd/src/lcd.c ****     //LCD_Write_Bus(((int)dat)+(1<<8));
 1412              		.loc 1 91 2
 1413 015a 1305A003 		li	a0,58
 1414 015e 97000000 		call	LCD_Writ_Bus
 1414      E7800000 
 1415              	.LVL135:
 1416              	.LBE249:
 1417              	.LBE248:
 226:lib/lcd/src/lcd.c **** 	LCD_WR_DATA8(0x05); //fps = 67.9
 1418              		.loc 1 226 2
 1419              	.LBB250:
 1420              	.LBB251:
 118:lib/lcd/src/lcd.c **** 	LCD_Writ_Bus(dat);
 1421              		.loc 1 118 2
 1422 0166 A165     		li	a1,32768
 1423 0168 37150140 		li	a0,1073811456
 1424 016c 97000000 		call	gpio_bit_reset
 1424      E7800000 
 1425              	.LVL136:
 119:lib/lcd/src/lcd.c ****     //LCD_Write_Bus((int)dat);
GAS LISTING C:\Users\Kalle\AppData\Local\Temp\cc2hNkGN.s 			page 40


 1426              		.loc 1 119 2
 1427 0174 1305200B 		li	a0,178
 1428 0178 97000000 		call	LCD_Writ_Bus
 1428      E7800000 
 1429              	.LVL137:
 1430              	.LBE251:
 1431              	.LBE250:
 227:lib/lcd/src/lcd.c **** 	LCD_WR_DATA8(0x3A);
 1432              		.loc 1 227 2
 1433              	.LBB252:
 1434              	.LBB253:
  90:lib/lcd/src/lcd.c **** 	LCD_Writ_Bus(dat);
 1435              		.loc 1 90 2
 1436 0180 A165     		li	a1,32768
 1437 0182 37150140 		li	a0,1073811456
 1438 0186 97000000 		call	gpio_bit_set
 1438      E7800000 
 1439              	.LVL138:
  91:lib/lcd/src/lcd.c ****     //LCD_Write_Bus(((int)dat)+(1<<8));
 1440              		.loc 1 91 2
 1441 018e 1545     		li	a0,5
 1442 0190 97000000 		call	LCD_Writ_Bus
 1442      E7800000 
 1443              	.LVL139:
 1444              	.LBE253:
 1445              	.LBE252:
 228:lib/lcd/src/lcd.c **** 	LCD_WR_DATA8(0x3A);
 1446              		.loc 1 228 2
 1447              	.LBB254:
 1448              	.LBB255:
  90:lib/lcd/src/lcd.c **** 	LCD_Writ_Bus(dat);
 1449              		.loc 1 90 2
 1450 0198 A165     		li	a1,32768
 1451 019a 37150140 		li	a0,1073811456
 1452 019e 97000000 		call	gpio_bit_set
 1452      E7800000 
 1453              	.LVL140:
  91:lib/lcd/src/lcd.c ****     //LCD_Write_Bus(((int)dat)+(1<<8));
 1454              		.loc 1 91 2
 1455 01a6 1305A003 		li	a0,58
 1456 01aa 97000000 		call	LCD_Writ_Bus
 1456      E7800000 
 1457              	.LVL141:
 1458              	.LBE255:
 1459              	.LBE254:
 229:lib/lcd/src/lcd.c **** 
 1460              		.loc 1 229 2
 1461              	.LBB256:
 1462              	.LBB257:
  90:lib/lcd/src/lcd.c **** 	LCD_Writ_Bus(dat);
 1463              		.loc 1 90 2
 1464 01b2 A165     		li	a1,32768
 1465 01b4 37150140 		li	a0,1073811456
 1466 01b8 97000000 		call	gpio_bit_set
 1466      E7800000 
 1467              	.LVL142:
  91:lib/lcd/src/lcd.c ****     //LCD_Write_Bus(((int)dat)+(1<<8));
GAS LISTING C:\Users\Kalle\AppData\Local\Temp\cc2hNkGN.s 			page 41


 1468              		.loc 1 91 2
 1469 01c0 1305A003 		li	a0,58
 1470 01c4 97000000 		call	LCD_Writ_Bus
 1470      E7800000 
 1471              	.LVL143:
 1472              	.LBE257:
 1473              	.LBE256:
 231:lib/lcd/src/lcd.c **** 	LCD_WR_DATA8(0x05);  
 1474              		.loc 1 231 2
 1475              	.LBB258:
 1476              	.LBB259:
 118:lib/lcd/src/lcd.c **** 	LCD_Writ_Bus(dat);
 1477              		.loc 1 118 2
 1478 01cc A165     		li	a1,32768
 1479 01ce 37150140 		li	a0,1073811456
 1480 01d2 97000000 		call	gpio_bit_reset
 1480      E7800000 
 1481              	.LVL144:
 119:lib/lcd/src/lcd.c ****     //LCD_Write_Bus((int)dat);
 1482              		.loc 1 119 2
 1483 01da 1305300B 		li	a0,179
 1484 01de 97000000 		call	LCD_Writ_Bus
 1484      E7800000 
 1485              	.LVL145:
 1486              	.LBE259:
 1487              	.LBE258:
 232:lib/lcd/src/lcd.c **** 	LCD_WR_DATA8(0x3A);
 1488              		.loc 1 232 2
 1489              	.LBB260:
 1490              	.LBB261:
  90:lib/lcd/src/lcd.c **** 	LCD_Writ_Bus(dat);
 1491              		.loc 1 90 2
 1492 01e6 A165     		li	a1,32768
 1493 01e8 37150140 		li	a0,1073811456
 1494 01ec 97000000 		call	gpio_bit_set
 1494      E7800000 
 1495              	.LVL146:
  91:lib/lcd/src/lcd.c ****     //LCD_Write_Bus(((int)dat)+(1<<8));
 1496              		.loc 1 91 2
 1497 01f4 1545     		li	a0,5
 1498 01f6 97000000 		call	LCD_Writ_Bus
 1498      E7800000 
 1499              	.LVL147:
 1500              	.LBE261:
 1501              	.LBE260:
 233:lib/lcd/src/lcd.c **** 	LCD_WR_DATA8(0x3A);
 1502              		.loc 1 233 2
 1503              	.LBB262:
 1504              	.LBB263:
  90:lib/lcd/src/lcd.c **** 	LCD_Writ_Bus(dat);
 1505              		.loc 1 90 2
 1506 01fe A165     		li	a1,32768
 1507 0200 37150140 		li	a0,1073811456
 1508 0204 97000000 		call	gpio_bit_set
 1508      E7800000 
 1509              	.LVL148:
  91:lib/lcd/src/lcd.c ****     //LCD_Write_Bus(((int)dat)+(1<<8));
GAS LISTING C:\Users\Kalle\AppData\Local\Temp\cc2hNkGN.s 			page 42


 1510              		.loc 1 91 2
 1511 020c 1305A003 		li	a0,58
 1512 0210 97000000 		call	LCD_Writ_Bus
 1512      E7800000 
 1513              	.LVL149:
 1514              	.LBE263:
 1515              	.LBE262:
 234:lib/lcd/src/lcd.c **** 	LCD_WR_DATA8(0x05);
 1516              		.loc 1 234 2
 1517              	.LBB264:
 1518              	.LBB265:
  90:lib/lcd/src/lcd.c **** 	LCD_Writ_Bus(dat);
 1519              		.loc 1 90 2
 1520 0218 A165     		li	a1,32768
 1521 021a 37150140 		li	a0,1073811456
 1522 021e 97000000 		call	gpio_bit_set
 1522      E7800000 
 1523              	.LVL150:
  91:lib/lcd/src/lcd.c ****     //LCD_Write_Bus(((int)dat)+(1<<8));
 1524              		.loc 1 91 2
 1525 0226 1305A003 		li	a0,58
 1526 022a 97000000 		call	LCD_Writ_Bus
 1526      E7800000 
 1527              	.LVL151:
 1528              	.LBE265:
 1529              	.LBE264:
 235:lib/lcd/src/lcd.c **** 	LCD_WR_DATA8(0x3A);
 1530              		.loc 1 235 2
 1531              	.LBB266:
 1532              	.LBB267:
  90:lib/lcd/src/lcd.c **** 	LCD_Writ_Bus(dat);
 1533              		.loc 1 90 2
 1534 0232 A165     		li	a1,32768
 1535 0234 37150140 		li	a0,1073811456
 1536 0238 97000000 		call	gpio_bit_set
 1536      E7800000 
 1537              	.LVL152:
  91:lib/lcd/src/lcd.c ****     //LCD_Write_Bus(((int)dat)+(1<<8));
 1538              		.loc 1 91 2
 1539 0240 1545     		li	a0,5
 1540 0242 97000000 		call	LCD_Writ_Bus
 1540      E7800000 
 1541              	.LVL153:
 1542              	.LBE267:
 1543              	.LBE266:
 236:lib/lcd/src/lcd.c **** 	LCD_WR_DATA8(0x3A);
 1544              		.loc 1 236 2
 1545              	.LBB268:
 1546              	.LBB269:
  90:lib/lcd/src/lcd.c **** 	LCD_Writ_Bus(dat);
 1547              		.loc 1 90 2
 1548 024a A165     		li	a1,32768
 1549 024c 37150140 		li	a0,1073811456
 1550 0250 97000000 		call	gpio_bit_set
 1550      E7800000 
 1551              	.LVL154:
  91:lib/lcd/src/lcd.c ****     //LCD_Write_Bus(((int)dat)+(1<<8));
GAS LISTING C:\Users\Kalle\AppData\Local\Temp\cc2hNkGN.s 			page 43


 1552              		.loc 1 91 2
 1553 0258 1305A003 		li	a0,58
 1554 025c 97000000 		call	LCD_Writ_Bus
 1554      E7800000 
 1555              	.LVL155:
 1556              	.LBE269:
 1557              	.LBE268:
 237:lib/lcd/src/lcd.c **** 
 1558              		.loc 1 237 2
 1559              	.LBB270:
 1560              	.LBB271:
  90:lib/lcd/src/lcd.c **** 	LCD_Writ_Bus(dat);
 1561              		.loc 1 90 2
 1562 0264 A165     		li	a1,32768
 1563 0266 37150140 		li	a0,1073811456
 1564 026a 97000000 		call	gpio_bit_set
 1564      E7800000 
 1565              	.LVL156:
  91:lib/lcd/src/lcd.c ****     //LCD_Write_Bus(((int)dat)+(1<<8));
 1566              		.loc 1 91 2
 1567 0272 1305A003 		li	a0,58
 1568 0276 97000000 		call	LCD_Writ_Bus
 1568      E7800000 
 1569              	.LVL157:
 1570              	.LBE271:
 1571              	.LBE270:
 239:lib/lcd/src/lcd.c **** 	LCD_WR_DATA8(0x03);//Line inversion(full color) | Frame inversion
 1572              		.loc 1 239 2
 1573              	.LBB272:
 1574              	.LBB273:
 118:lib/lcd/src/lcd.c **** 	LCD_Writ_Bus(dat);
 1575              		.loc 1 118 2
 1576 027e A165     		li	a1,32768
 1577 0280 37150140 		li	a0,1073811456
 1578 0284 97000000 		call	gpio_bit_reset
 1578      E7800000 
 1579              	.LVL158:
 119:lib/lcd/src/lcd.c ****     //LCD_Write_Bus((int)dat);
 1580              		.loc 1 119 2
 1581 028c 1305400B 		li	a0,180
 1582 0290 97000000 		call	LCD_Writ_Bus
 1582      E7800000 
 1583              	.LVL159:
 1584              	.LBE273:
 1585              	.LBE272:
 240:lib/lcd/src/lcd.c **** 
 1586              		.loc 1 240 2
 1587              	.LBB274:
 1588              	.LBB275:
  90:lib/lcd/src/lcd.c **** 	LCD_Writ_Bus(dat);
 1589              		.loc 1 90 2
 1590 0298 A165     		li	a1,32768
 1591 029a 37150140 		li	a0,1073811456
 1592 029e 97000000 		call	gpio_bit_set
 1592      E7800000 
 1593              	.LVL160:
  91:lib/lcd/src/lcd.c ****     //LCD_Write_Bus(((int)dat)+(1<<8));
GAS LISTING C:\Users\Kalle\AppData\Local\Temp\cc2hNkGN.s 			page 44


 1594              		.loc 1 91 2
 1595 02a6 0D45     		li	a0,3
 1596 02a8 97000000 		call	LCD_Writ_Bus
 1596      E7800000 
 1597              	.LVL161:
 1598              	.LBE275:
 1599              	.LBE274:
 242:lib/lcd/src/lcd.c **** 	LCD_WR_DATA8(0x62);//
 1600              		.loc 1 242 2
 1601              	.LBB276:
 1602              	.LBB277:
 118:lib/lcd/src/lcd.c **** 	LCD_Writ_Bus(dat);
 1603              		.loc 1 118 2
 1604 02b0 A165     		li	a1,32768
 1605 02b2 37150140 		li	a0,1073811456
 1606 02b6 97000000 		call	gpio_bit_reset
 1606      E7800000 
 1607              	.LVL162:
 119:lib/lcd/src/lcd.c ****     //LCD_Write_Bus((int)dat);
 1608              		.loc 1 119 2
 1609 02be 1305000C 		li	a0,192
 1610 02c2 97000000 		call	LCD_Writ_Bus
 1610      E7800000 
 1611              	.LVL163:
 1612              	.LBE277:
 1613              	.LBE276:
 243:lib/lcd/src/lcd.c **** 	LCD_WR_DATA8(0x02);//
 1614              		.loc 1 243 2
 1615              	.LBB278:
 1616              	.LBB279:
  90:lib/lcd/src/lcd.c **** 	LCD_Writ_Bus(dat);
 1617              		.loc 1 90 2
 1618 02ca A165     		li	a1,32768
 1619 02cc 37150140 		li	a0,1073811456
 1620 02d0 97000000 		call	gpio_bit_set
 1620      E7800000 
 1621              	.LVL164:
  91:lib/lcd/src/lcd.c ****     //LCD_Write_Bus(((int)dat)+(1<<8));
 1622              		.loc 1 91 2
 1623 02d8 13052006 		li	a0,98
 1624 02dc 97000000 		call	LCD_Writ_Bus
 1624      E7800000 
 1625              	.LVL165:
 1626              	.LBE279:
 1627              	.LBE278:
 244:lib/lcd/src/lcd.c **** 	LCD_WR_DATA8(0x04);//
 1628              		.loc 1 244 2
 1629              	.LBB280:
 1630              	.LBB281:
  90:lib/lcd/src/lcd.c **** 	LCD_Writ_Bus(dat);
 1631              		.loc 1 90 2
 1632 02e4 A165     		li	a1,32768
 1633 02e6 37150140 		li	a0,1073811456
 1634 02ea 97000000 		call	gpio_bit_set
 1634      E7800000 
 1635              	.LVL166:
  91:lib/lcd/src/lcd.c ****     //LCD_Write_Bus(((int)dat)+(1<<8));
GAS LISTING C:\Users\Kalle\AppData\Local\Temp\cc2hNkGN.s 			page 45


 1636              		.loc 1 91 2
 1637 02f2 0945     		li	a0,2
 1638 02f4 97000000 		call	LCD_Writ_Bus
 1638      E7800000 
 1639              	.LVL167:
 1640              	.LBE281:
 1641              	.LBE280:
 245:lib/lcd/src/lcd.c **** 
 1642              		.loc 1 245 2
 1643              	.LBB282:
 1644              	.LBB283:
  90:lib/lcd/src/lcd.c **** 	LCD_Writ_Bus(dat);
 1645              		.loc 1 90 2
 1646 02fc A165     		li	a1,32768
 1647 02fe 37150140 		li	a0,1073811456
 1648 0302 97000000 		call	gpio_bit_set
 1648      E7800000 
 1649              	.LVL168:
  91:lib/lcd/src/lcd.c ****     //LCD_Write_Bus(((int)dat)+(1<<8));
 1650              		.loc 1 91 2
 1651 030a 1145     		li	a0,4
 1652 030c 97000000 		call	LCD_Writ_Bus
 1652      E7800000 
 1653              	.LVL169:
 1654              	.LBE283:
 1655              	.LBE282:
 247:lib/lcd/src/lcd.c **** 	LCD_WR_DATA8(0xC0);
 1656              		.loc 1 247 2
 1657              	.LBB284:
 1658              	.LBB285:
 118:lib/lcd/src/lcd.c **** 	LCD_Writ_Bus(dat);
 1659              		.loc 1 118 2
 1660 0314 A165     		li	a1,32768
 1661 0316 37150140 		li	a0,1073811456
 1662 031a 97000000 		call	gpio_bit_reset
 1662      E7800000 
 1663              	.LVL170:
 119:lib/lcd/src/lcd.c ****     //LCD_Write_Bus((int)dat);
 1664              		.loc 1 119 2
 1665 0322 1305100C 		li	a0,193
 1666 0326 97000000 		call	LCD_Writ_Bus
 1666      E7800000 
 1667              	.LVL171:
 1668              	.LBE285:
 1669              	.LBE284:
 248:lib/lcd/src/lcd.c **** 
 1670              		.loc 1 248 2
 1671              	.LBB286:
 1672              	.LBB287:
  90:lib/lcd/src/lcd.c **** 	LCD_Writ_Bus(dat);
 1673              		.loc 1 90 2
 1674 032e A165     		li	a1,32768
 1675 0330 37150140 		li	a0,1073811456
 1676 0334 97000000 		call	gpio_bit_set
 1676      E7800000 
 1677              	.LVL172:
  91:lib/lcd/src/lcd.c ****     //LCD_Write_Bus(((int)dat)+(1<<8));
GAS LISTING C:\Users\Kalle\AppData\Local\Temp\cc2hNkGN.s 			page 46


 1678              		.loc 1 91 2
 1679 033c 1305000C 		li	a0,192
 1680 0340 97000000 		call	LCD_Writ_Bus
 1680      E7800000 
 1681              	.LVL173:
 1682              	.LBE287:
 1683              	.LBE286:
 250:lib/lcd/src/lcd.c **** 	LCD_WR_DATA8(0x0D);
 1684              		.loc 1 250 2
 1685              	.LBB288:
 1686              	.LBB289:
 118:lib/lcd/src/lcd.c **** 	LCD_Writ_Bus(dat);
 1687              		.loc 1 118 2
 1688 0348 A165     		li	a1,32768
 1689 034a 37150140 		li	a0,1073811456
 1690 034e 97000000 		call	gpio_bit_reset
 1690      E7800000 
 1691              	.LVL174:
 119:lib/lcd/src/lcd.c ****     //LCD_Write_Bus((int)dat);
 1692              		.loc 1 119 2
 1693 0356 1305200C 		li	a0,194
 1694 035a 97000000 		call	LCD_Writ_Bus
 1694      E7800000 
 1695              	.LVL175:
 1696              	.LBE289:
 1697              	.LBE288:
 251:lib/lcd/src/lcd.c **** 	LCD_WR_DATA8(0x00);
 1698              		.loc 1 251 2
 1699              	.LBB290:
 1700              	.LBB291:
  90:lib/lcd/src/lcd.c **** 	LCD_Writ_Bus(dat);
 1701              		.loc 1 90 2
 1702 0362 A165     		li	a1,32768
 1703 0364 37150140 		li	a0,1073811456
 1704 0368 97000000 		call	gpio_bit_set
 1704      E7800000 
 1705              	.LVL176:
  91:lib/lcd/src/lcd.c ****     //LCD_Write_Bus(((int)dat)+(1<<8));
 1706              		.loc 1 91 2
 1707 0370 3545     		li	a0,13
 1708 0372 97000000 		call	LCD_Writ_Bus
 1708      E7800000 
 1709              	.LVL177:
 1710              	.LBE291:
 1711              	.LBE290:
 252:lib/lcd/src/lcd.c **** 
 1712              		.loc 1 252 2
 1713              	.LBB292:
 1714              	.LBB293:
  90:lib/lcd/src/lcd.c **** 	LCD_Writ_Bus(dat);
 1715              		.loc 1 90 2
 1716 037a A165     		li	a1,32768
 1717 037c 37150140 		li	a0,1073811456
 1718 0380 97000000 		call	gpio_bit_set
 1718      E7800000 
 1719              	.LVL178:
  91:lib/lcd/src/lcd.c ****     //LCD_Write_Bus(((int)dat)+(1<<8));
GAS LISTING C:\Users\Kalle\AppData\Local\Temp\cc2hNkGN.s 			page 47


 1720              		.loc 1 91 2
 1721 0388 0145     		li	a0,0
 1722 038a 97000000 		call	LCD_Writ_Bus
 1722      E7800000 
 1723              	.LVL179:
 1724              	.LBE293:
 1725              	.LBE292:
 254:lib/lcd/src/lcd.c **** 	LCD_WR_DATA8(0x8D);
 1726              		.loc 1 254 2
 1727              	.LBB294:
 1728              	.LBB295:
 118:lib/lcd/src/lcd.c **** 	LCD_Writ_Bus(dat);
 1729              		.loc 1 118 2
 1730 0392 A165     		li	a1,32768
 1731 0394 37150140 		li	a0,1073811456
 1732 0398 97000000 		call	gpio_bit_reset
 1732      E7800000 
 1733              	.LVL180:
 119:lib/lcd/src/lcd.c ****     //LCD_Write_Bus((int)dat);
 1734              		.loc 1 119 2
 1735 03a0 1305300C 		li	a0,195
 1736 03a4 97000000 		call	LCD_Writ_Bus
 1736      E7800000 
 1737              	.LVL181:
 1738              	.LBE295:
 1739              	.LBE294:
 255:lib/lcd/src/lcd.c **** 	LCD_WR_DATA8(0x6A);   
 1740              		.loc 1 255 2
 1741              	.LBB296:
 1742              	.LBB297:
  90:lib/lcd/src/lcd.c **** 	LCD_Writ_Bus(dat);
 1743              		.loc 1 90 2
 1744 03ac A165     		li	a1,32768
 1745 03ae 37150140 		li	a0,1073811456
 1746 03b2 97000000 		call	gpio_bit_set
 1746      E7800000 
 1747              	.LVL182:
  91:lib/lcd/src/lcd.c ****     //LCD_Write_Bus(((int)dat)+(1<<8));
 1748              		.loc 1 91 2
 1749 03ba 1305D008 		li	a0,141
 1750 03be 97000000 		call	LCD_Writ_Bus
 1750      E7800000 
 1751              	.LVL183:
 1752              	.LBE297:
 1753              	.LBE296:
 256:lib/lcd/src/lcd.c **** 
 1754              		.loc 1 256 2
 1755              	.LBB298:
 1756              	.LBB299:
  90:lib/lcd/src/lcd.c **** 	LCD_Writ_Bus(dat);
 1757              		.loc 1 90 2
 1758 03c6 A165     		li	a1,32768
 1759 03c8 37150140 		li	a0,1073811456
 1760 03cc 97000000 		call	gpio_bit_set
 1760      E7800000 
 1761              	.LVL184:
  91:lib/lcd/src/lcd.c ****     //LCD_Write_Bus(((int)dat)+(1<<8));
GAS LISTING C:\Users\Kalle\AppData\Local\Temp\cc2hNkGN.s 			page 48


 1762              		.loc 1 91 2
 1763 03d4 1305A006 		li	a0,106
 1764 03d8 97000000 		call	LCD_Writ_Bus
 1764      E7800000 
 1765              	.LVL185:
 1766              	.LBE299:
 1767              	.LBE298:
 258:lib/lcd/src/lcd.c **** 	LCD_WR_DATA8(0x8D); 
 1768              		.loc 1 258 2
 1769              	.LBB300:
 1770              	.LBB301:
 118:lib/lcd/src/lcd.c **** 	LCD_Writ_Bus(dat);
 1771              		.loc 1 118 2
 1772 03e0 A165     		li	a1,32768
 1773 03e2 37150140 		li	a0,1073811456
 1774 03e6 97000000 		call	gpio_bit_reset
 1774      E7800000 
 1775              	.LVL186:
 119:lib/lcd/src/lcd.c ****     //LCD_Write_Bus((int)dat);
 1776              		.loc 1 119 2
 1777 03ee 1305400C 		li	a0,196
 1778 03f2 97000000 		call	LCD_Writ_Bus
 1778      E7800000 
 1779              	.LVL187:
 1780              	.LBE301:
 1781              	.LBE300:
 259:lib/lcd/src/lcd.c **** 	LCD_WR_DATA8(0xEE); 
 1782              		.loc 1 259 2
 1783              	.LBB302:
 1784              	.LBB303:
  90:lib/lcd/src/lcd.c **** 	LCD_Writ_Bus(dat);
 1785              		.loc 1 90 2
 1786 03fa A165     		li	a1,32768
 1787 03fc 37150140 		li	a0,1073811456
 1788 0400 97000000 		call	gpio_bit_set
 1788      E7800000 
 1789              	.LVL188:
  91:lib/lcd/src/lcd.c ****     //LCD_Write_Bus(((int)dat)+(1<<8));
 1790              		.loc 1 91 2
 1791 0408 1305D008 		li	a0,141
 1792 040c 97000000 		call	LCD_Writ_Bus
 1792      E7800000 
 1793              	.LVL189:
 1794              	.LBE303:
 1795              	.LBE302:
 260:lib/lcd/src/lcd.c **** 
 1796              		.loc 1 260 2
 1797              	.LBB304:
 1798              	.LBB305:
  90:lib/lcd/src/lcd.c **** 	LCD_Writ_Bus(dat);
 1799              		.loc 1 90 2
 1800 0414 A165     		li	a1,32768
 1801 0416 37150140 		li	a0,1073811456
 1802 041a 97000000 		call	gpio_bit_set
 1802      E7800000 
 1803              	.LVL190:
  91:lib/lcd/src/lcd.c ****     //LCD_Write_Bus(((int)dat)+(1<<8));
GAS LISTING C:\Users\Kalle\AppData\Local\Temp\cc2hNkGN.s 			page 49


 1804              		.loc 1 91 2
 1805 0422 1305E00E 		li	a0,238
 1806 0426 97000000 		call	LCD_Writ_Bus
 1806      E7800000 
 1807              	.LVL191:
 1808              	.LBE305:
 1809              	.LBE304:
 262:lib/lcd/src/lcd.c **** 	LCD_WR_DATA8(0x0E);    
 1810              		.loc 1 262 2
 1811              	.LBB306:
 1812              	.LBB307:
 118:lib/lcd/src/lcd.c **** 	LCD_Writ_Bus(dat);
 1813              		.loc 1 118 2
 1814 042e A165     		li	a1,32768
 1815 0430 37150140 		li	a0,1073811456
 1816 0434 97000000 		call	gpio_bit_reset
 1816      E7800000 
 1817              	.LVL192:
 119:lib/lcd/src/lcd.c ****     //LCD_Write_Bus((int)dat);
 1818              		.loc 1 119 2
 1819 043c 1305500C 		li	a0,197
 1820 0440 97000000 		call	LCD_Writ_Bus
 1820      E7800000 
 1821              	.LVL193:
 1822              	.LBE307:
 1823              	.LBE306:
 263:lib/lcd/src/lcd.c **** 
 1824              		.loc 1 263 2
 1825              	.LBB308:
 1826              	.LBB309:
  90:lib/lcd/src/lcd.c **** 	LCD_Writ_Bus(dat);
 1827              		.loc 1 90 2
 1828 0448 A165     		li	a1,32768
 1829 044a 37150140 		li	a0,1073811456
 1830 044e 97000000 		call	gpio_bit_set
 1830      E7800000 
 1831              	.LVL194:
  91:lib/lcd/src/lcd.c ****     //LCD_Write_Bus(((int)dat)+(1<<8));
 1832              		.loc 1 91 2
 1833 0456 3945     		li	a0,14
 1834 0458 97000000 		call	LCD_Writ_Bus
 1834      E7800000 
 1835              	.LVL195:
 1836              	.LBE309:
 1837              	.LBE308:
 265:lib/lcd/src/lcd.c **** 	LCD_WR_DATA8(0x10);
 1838              		.loc 1 265 2
 1839              	.LBB310:
 1840              	.LBB311:
 118:lib/lcd/src/lcd.c **** 	LCD_Writ_Bus(dat);
 1841              		.loc 1 118 2
 1842 0460 A165     		li	a1,32768
 1843 0462 37150140 		li	a0,1073811456
 1844 0466 97000000 		call	gpio_bit_reset
 1844      E7800000 
 1845              	.LVL196:
 119:lib/lcd/src/lcd.c ****     //LCD_Write_Bus((int)dat);
GAS LISTING C:\Users\Kalle\AppData\Local\Temp\cc2hNkGN.s 			page 50


 1846              		.loc 1 119 2
 1847 046e 1305000E 		li	a0,224
 1848 0472 97000000 		call	LCD_Writ_Bus
 1848      E7800000 
 1849              	.LVL197:
 1850              	.LBE311:
 1851              	.LBE310:
 266:lib/lcd/src/lcd.c **** 	LCD_WR_DATA8(0x0E);
 1852              		.loc 1 266 2
 1853              	.LBB312:
 1854              	.LBB313:
  90:lib/lcd/src/lcd.c **** 	LCD_Writ_Bus(dat);
 1855              		.loc 1 90 2
 1856 047a A165     		li	a1,32768
 1857 047c 37150140 		li	a0,1073811456
 1858 0480 97000000 		call	gpio_bit_set
 1858      E7800000 
 1859              	.LVL198:
  91:lib/lcd/src/lcd.c ****     //LCD_Write_Bus(((int)dat)+(1<<8));
 1860              		.loc 1 91 2
 1861 0488 4145     		li	a0,16
 1862 048a 97000000 		call	LCD_Writ_Bus
 1862      E7800000 
 1863              	.LVL199:
 1864              	.LBE313:
 1865              	.LBE312:
 267:lib/lcd/src/lcd.c **** 	LCD_WR_DATA8(0x02);
 1866              		.loc 1 267 2
 1867              	.LBB314:
 1868              	.LBB315:
  90:lib/lcd/src/lcd.c **** 	LCD_Writ_Bus(dat);
 1869              		.loc 1 90 2
 1870 0492 A165     		li	a1,32768
 1871 0494 37150140 		li	a0,1073811456
 1872 0498 97000000 		call	gpio_bit_set
 1872      E7800000 
 1873              	.LVL200:
  91:lib/lcd/src/lcd.c ****     //LCD_Write_Bus(((int)dat)+(1<<8));
 1874              		.loc 1 91 2
 1875 04a0 3945     		li	a0,14
 1876 04a2 97000000 		call	LCD_Writ_Bus
 1876      E7800000 
 1877              	.LVL201:
 1878              	.LBE315:
 1879              	.LBE314:
 268:lib/lcd/src/lcd.c **** 	LCD_WR_DATA8(0x03);
 1880              		.loc 1 268 2
 1881              	.LBB316:
 1882              	.LBB317:
  90:lib/lcd/src/lcd.c **** 	LCD_Writ_Bus(dat);
 1883              		.loc 1 90 2
 1884 04aa A165     		li	a1,32768
 1885 04ac 37150140 		li	a0,1073811456
 1886 04b0 97000000 		call	gpio_bit_set
 1886      E7800000 
 1887              	.LVL202:
  91:lib/lcd/src/lcd.c ****     //LCD_Write_Bus(((int)dat)+(1<<8));
GAS LISTING C:\Users\Kalle\AppData\Local\Temp\cc2hNkGN.s 			page 51


 1888              		.loc 1 91 2
 1889 04b8 0945     		li	a0,2
 1890 04ba 97000000 		call	LCD_Writ_Bus
 1890      E7800000 
 1891              	.LVL203:
 1892              	.LBE317:
 1893              	.LBE316:
 269:lib/lcd/src/lcd.c **** 	LCD_WR_DATA8(0x0E);
 1894              		.loc 1 269 2
 1895              	.LBB318:
 1896              	.LBB319:
  90:lib/lcd/src/lcd.c **** 	LCD_Writ_Bus(dat);
 1897              		.loc 1 90 2
 1898 04c2 A165     		li	a1,32768
 1899 04c4 37150140 		li	a0,1073811456
 1900 04c8 97000000 		call	gpio_bit_set
 1900      E7800000 
 1901              	.LVL204:
  91:lib/lcd/src/lcd.c ****     //LCD_Write_Bus(((int)dat)+(1<<8));
 1902              		.loc 1 91 2
 1903 04d0 0D45     		li	a0,3
 1904 04d2 97000000 		call	LCD_Writ_Bus
 1904      E7800000 
 1905              	.LVL205:
 1906              	.LBE319:
 1907              	.LBE318:
 270:lib/lcd/src/lcd.c **** 	LCD_WR_DATA8(0x07);
 1908              		.loc 1 270 2
 1909              	.LBB320:
 1910              	.LBB321:
  90:lib/lcd/src/lcd.c **** 	LCD_Writ_Bus(dat);
 1911              		.loc 1 90 2
 1912 04da A165     		li	a1,32768
 1913 04dc 37150140 		li	a0,1073811456
 1914 04e0 97000000 		call	gpio_bit_set
 1914      E7800000 
 1915              	.LVL206:
  91:lib/lcd/src/lcd.c ****     //LCD_Write_Bus(((int)dat)+(1<<8));
 1916              		.loc 1 91 2
 1917 04e8 3945     		li	a0,14
 1918 04ea 97000000 		call	LCD_Writ_Bus
 1918      E7800000 
 1919              	.LVL207:
 1920              	.LBE321:
 1921              	.LBE320:
 271:lib/lcd/src/lcd.c **** 	LCD_WR_DATA8(0x02);
 1922              		.loc 1 271 2
 1923              	.LBB322:
 1924              	.LBB323:
  90:lib/lcd/src/lcd.c **** 	LCD_Writ_Bus(dat);
 1925              		.loc 1 90 2
 1926 04f2 A165     		li	a1,32768
 1927 04f4 37150140 		li	a0,1073811456
 1928 04f8 97000000 		call	gpio_bit_set
 1928      E7800000 
 1929              	.LVL208:
  91:lib/lcd/src/lcd.c ****     //LCD_Write_Bus(((int)dat)+(1<<8));
GAS LISTING C:\Users\Kalle\AppData\Local\Temp\cc2hNkGN.s 			page 52


 1930              		.loc 1 91 2
 1931 0500 1D45     		li	a0,7
 1932 0502 97000000 		call	LCD_Writ_Bus
 1932      E7800000 
 1933              	.LVL209:
 1934              	.LBE323:
 1935              	.LBE322:
 272:lib/lcd/src/lcd.c **** 	LCD_WR_DATA8(0x07);
 1936              		.loc 1 272 2
 1937              	.LBB324:
 1938              	.LBB325:
  90:lib/lcd/src/lcd.c **** 	LCD_Writ_Bus(dat);
 1939              		.loc 1 90 2
 1940 050a A165     		li	a1,32768
 1941 050c 37150140 		li	a0,1073811456
 1942 0510 97000000 		call	gpio_bit_set
 1942      E7800000 
 1943              	.LVL210:
  91:lib/lcd/src/lcd.c ****     //LCD_Write_Bus(((int)dat)+(1<<8));
 1944              		.loc 1 91 2
 1945 0518 0945     		li	a0,2
 1946 051a 97000000 		call	LCD_Writ_Bus
 1946      E7800000 
 1947              	.LVL211:
 1948              	.LBE325:
 1949              	.LBE324:
 273:lib/lcd/src/lcd.c **** 	LCD_WR_DATA8(0x0A);
 1950              		.loc 1 273 2
 1951              	.LBB326:
 1952              	.LBB327:
  90:lib/lcd/src/lcd.c **** 	LCD_Writ_Bus(dat);
 1953              		.loc 1 90 2
 1954 0522 A165     		li	a1,32768
 1955 0524 37150140 		li	a0,1073811456
 1956 0528 97000000 		call	gpio_bit_set
 1956      E7800000 
 1957              	.LVL212:
  91:lib/lcd/src/lcd.c ****     //LCD_Write_Bus(((int)dat)+(1<<8));
 1958              		.loc 1 91 2
 1959 0530 1D45     		li	a0,7
 1960 0532 97000000 		call	LCD_Writ_Bus
 1960      E7800000 
 1961              	.LVL213:
 1962              	.LBE327:
 1963              	.LBE326:
 274:lib/lcd/src/lcd.c **** 	LCD_WR_DATA8(0x12);
 1964              		.loc 1 274 2
 1965              	.LBB328:
 1966              	.LBB329:
  90:lib/lcd/src/lcd.c **** 	LCD_Writ_Bus(dat);
 1967              		.loc 1 90 2
 1968 053a A165     		li	a1,32768
 1969 053c 37150140 		li	a0,1073811456
 1970 0540 97000000 		call	gpio_bit_set
 1970      E7800000 
 1971              	.LVL214:
  91:lib/lcd/src/lcd.c ****     //LCD_Write_Bus(((int)dat)+(1<<8));
GAS LISTING C:\Users\Kalle\AppData\Local\Temp\cc2hNkGN.s 			page 53


 1972              		.loc 1 91 2
 1973 0548 2945     		li	a0,10
 1974 054a 97000000 		call	LCD_Writ_Bus
 1974      E7800000 
 1975              	.LVL215:
 1976              	.LBE329:
 1977              	.LBE328:
 275:lib/lcd/src/lcd.c **** 	LCD_WR_DATA8(0x27);
 1978              		.loc 1 275 2
 1979              	.LBB330:
 1980              	.LBB331:
  90:lib/lcd/src/lcd.c **** 	LCD_Writ_Bus(dat);
 1981              		.loc 1 90 2
 1982 0552 A165     		li	a1,32768
 1983 0554 37150140 		li	a0,1073811456
 1984 0558 97000000 		call	gpio_bit_set
 1984      E7800000 
 1985              	.LVL216:
  91:lib/lcd/src/lcd.c ****     //LCD_Write_Bus(((int)dat)+(1<<8));
 1986              		.loc 1 91 2
 1987 0560 4945     		li	a0,18
 1988 0562 97000000 		call	LCD_Writ_Bus
 1988      E7800000 
 1989              	.LVL217:
 1990              	.LBE331:
 1991              	.LBE330:
 276:lib/lcd/src/lcd.c **** 	LCD_WR_DATA8(0x37);
 1992              		.loc 1 276 2
 1993              	.LBB332:
 1994              	.LBB333:
  90:lib/lcd/src/lcd.c **** 	LCD_Writ_Bus(dat);
 1995              		.loc 1 90 2
 1996 056a A165     		li	a1,32768
 1997 056c 37150140 		li	a0,1073811456
 1998 0570 97000000 		call	gpio_bit_set
 1998      E7800000 
 1999              	.LVL218:
  91:lib/lcd/src/lcd.c ****     //LCD_Write_Bus(((int)dat)+(1<<8));
 2000              		.loc 1 91 2
 2001 0578 13057002 		li	a0,39
 2002 057c 97000000 		call	LCD_Writ_Bus
 2002      E7800000 
 2003              	.LVL219:
 2004              	.LBE333:
 2005              	.LBE332:
 277:lib/lcd/src/lcd.c **** 	LCD_WR_DATA8(0x00);
 2006              		.loc 1 277 2
 2007              	.LBB334:
 2008              	.LBB335:
  90:lib/lcd/src/lcd.c **** 	LCD_Writ_Bus(dat);
 2009              		.loc 1 90 2
 2010 0584 A165     		li	a1,32768
 2011 0586 37150140 		li	a0,1073811456
 2012 058a 97000000 		call	gpio_bit_set
 2012      E7800000 
 2013              	.LVL220:
  91:lib/lcd/src/lcd.c ****     //LCD_Write_Bus(((int)dat)+(1<<8));
GAS LISTING C:\Users\Kalle\AppData\Local\Temp\cc2hNkGN.s 			page 54


 2014              		.loc 1 91 2
 2015 0592 13057003 		li	a0,55
 2016 0596 97000000 		call	LCD_Writ_Bus
 2016      E7800000 
 2017              	.LVL221:
 2018              	.LBE335:
 2019              	.LBE334:
 278:lib/lcd/src/lcd.c **** 	LCD_WR_DATA8(0x0D);
 2020              		.loc 1 278 2
 2021              	.LBB336:
 2022              	.LBB337:
  90:lib/lcd/src/lcd.c **** 	LCD_Writ_Bus(dat);
 2023              		.loc 1 90 2
 2024 059e A165     		li	a1,32768
 2025 05a0 37150140 		li	a0,1073811456
 2026 05a4 97000000 		call	gpio_bit_set
 2026      E7800000 
 2027              	.LVL222:
  91:lib/lcd/src/lcd.c ****     //LCD_Write_Bus(((int)dat)+(1<<8));
 2028              		.loc 1 91 2
 2029 05ac 0145     		li	a0,0
 2030 05ae 97000000 		call	LCD_Writ_Bus
 2030      E7800000 
 2031              	.LVL223:
 2032              	.LBE337:
 2033              	.LBE336:
 279:lib/lcd/src/lcd.c **** 	LCD_WR_DATA8(0x0E);
 2034              		.loc 1 279 2
 2035              	.LBB338:
 2036              	.LBB339:
  90:lib/lcd/src/lcd.c **** 	LCD_Writ_Bus(dat);
 2037              		.loc 1 90 2
 2038 05b6 A165     		li	a1,32768
 2039 05b8 37150140 		li	a0,1073811456
 2040 05bc 97000000 		call	gpio_bit_set
 2040      E7800000 
 2041              	.LVL224:
  91:lib/lcd/src/lcd.c ****     //LCD_Write_Bus(((int)dat)+(1<<8));
 2042              		.loc 1 91 2
 2043 05c4 3545     		li	a0,13
 2044 05c6 97000000 		call	LCD_Writ_Bus
 2044      E7800000 
 2045              	.LVL225:
 2046              	.LBE339:
 2047              	.LBE338:
 280:lib/lcd/src/lcd.c **** 	LCD_WR_DATA8(0x10);
 2048              		.loc 1 280 2
 2049              	.LBB340:
 2050              	.LBB341:
  90:lib/lcd/src/lcd.c **** 	LCD_Writ_Bus(dat);
 2051              		.loc 1 90 2
 2052 05ce A165     		li	a1,32768
 2053 05d0 37150140 		li	a0,1073811456
 2054 05d4 97000000 		call	gpio_bit_set
 2054      E7800000 
 2055              	.LVL226:
  91:lib/lcd/src/lcd.c ****     //LCD_Write_Bus(((int)dat)+(1<<8));
GAS LISTING C:\Users\Kalle\AppData\Local\Temp\cc2hNkGN.s 			page 55


 2056              		.loc 1 91 2
 2057 05dc 3945     		li	a0,14
 2058 05de 97000000 		call	LCD_Writ_Bus
 2058      E7800000 
 2059              	.LVL227:
 2060              	.LBE341:
 2061              	.LBE340:
 281:lib/lcd/src/lcd.c **** 
 2062              		.loc 1 281 2
 2063              	.LBB342:
 2064              	.LBB343:
  90:lib/lcd/src/lcd.c **** 	LCD_Writ_Bus(dat);
 2065              		.loc 1 90 2
 2066 05e6 A165     		li	a1,32768
 2067 05e8 37150140 		li	a0,1073811456
 2068 05ec 97000000 		call	gpio_bit_set
 2068      E7800000 
 2069              	.LVL228:
  91:lib/lcd/src/lcd.c ****     //LCD_Write_Bus(((int)dat)+(1<<8));
 2070              		.loc 1 91 2
 2071 05f4 4145     		li	a0,16
 2072 05f6 97000000 		call	LCD_Writ_Bus
 2072      E7800000 
 2073              	.LVL229:
 2074              	.LBE343:
 2075              	.LBE342:
 283:lib/lcd/src/lcd.c **** 	LCD_WR_DATA8(0x10);
 2076              		.loc 1 283 2
 2077              	.LBB344:
 2078              	.LBB345:
 118:lib/lcd/src/lcd.c **** 	LCD_Writ_Bus(dat);
 2079              		.loc 1 118 2
 2080 05fe A165     		li	a1,32768
 2081 0600 37150140 		li	a0,1073811456
 2082 0604 97000000 		call	gpio_bit_reset
 2082      E7800000 
 2083              	.LVL230:
 119:lib/lcd/src/lcd.c ****     //LCD_Write_Bus((int)dat);
 2084              		.loc 1 119 2
 2085 060c 1305100E 		li	a0,225
 2086 0610 97000000 		call	LCD_Writ_Bus
 2086      E7800000 
 2087              	.LVL231:
 2088              	.LBE345:
 2089              	.LBE344:
 284:lib/lcd/src/lcd.c **** 	LCD_WR_DATA8(0x0E);
 2090              		.loc 1 284 2
 2091              	.LBB346:
 2092              	.LBB347:
  90:lib/lcd/src/lcd.c **** 	LCD_Writ_Bus(dat);
 2093              		.loc 1 90 2
 2094 0618 A165     		li	a1,32768
 2095 061a 37150140 		li	a0,1073811456
 2096 061e 97000000 		call	gpio_bit_set
 2096      E7800000 
 2097              	.LVL232:
  91:lib/lcd/src/lcd.c ****     //LCD_Write_Bus(((int)dat)+(1<<8));
GAS LISTING C:\Users\Kalle\AppData\Local\Temp\cc2hNkGN.s 			page 56


 2098              		.loc 1 91 2
 2099 0626 4145     		li	a0,16
 2100 0628 97000000 		call	LCD_Writ_Bus
 2100      E7800000 
 2101              	.LVL233:
 2102              	.LBE347:
 2103              	.LBE346:
 285:lib/lcd/src/lcd.c **** 	LCD_WR_DATA8(0x03);
 2104              		.loc 1 285 2
 2105              	.LBB348:
 2106              	.LBB349:
  90:lib/lcd/src/lcd.c **** 	LCD_Writ_Bus(dat);
 2107              		.loc 1 90 2
 2108 0630 A165     		li	a1,32768
 2109 0632 37150140 		li	a0,1073811456
 2110 0636 97000000 		call	gpio_bit_set
 2110      E7800000 
 2111              	.LVL234:
  91:lib/lcd/src/lcd.c ****     //LCD_Write_Bus(((int)dat)+(1<<8));
 2112              		.loc 1 91 2
 2113 063e 3945     		li	a0,14
 2114 0640 97000000 		call	LCD_Writ_Bus
 2114      E7800000 
 2115              	.LVL235:
 2116              	.LBE349:
 2117              	.LBE348:
 286:lib/lcd/src/lcd.c **** 	LCD_WR_DATA8(0x03);
 2118              		.loc 1 286 2
 2119              	.LBB350:
 2120              	.LBB351:
  90:lib/lcd/src/lcd.c **** 	LCD_Writ_Bus(dat);
 2121              		.loc 1 90 2
 2122 0648 A165     		li	a1,32768
 2123 064a 37150140 		li	a0,1073811456
 2124 064e 97000000 		call	gpio_bit_set
 2124      E7800000 
 2125              	.LVL236:
  91:lib/lcd/src/lcd.c ****     //LCD_Write_Bus(((int)dat)+(1<<8));
 2126              		.loc 1 91 2
 2127 0656 0D45     		li	a0,3
 2128 0658 97000000 		call	LCD_Writ_Bus
 2128      E7800000 
 2129              	.LVL237:
 2130              	.LBE351:
 2131              	.LBE350:
 287:lib/lcd/src/lcd.c **** 	LCD_WR_DATA8(0x0F);
 2132              		.loc 1 287 2
 2133              	.LBB352:
 2134              	.LBB353:
  90:lib/lcd/src/lcd.c **** 	LCD_Writ_Bus(dat);
 2135              		.loc 1 90 2
 2136 0660 A165     		li	a1,32768
 2137 0662 37150140 		li	a0,1073811456
 2138 0666 97000000 		call	gpio_bit_set
 2138      E7800000 
 2139              	.LVL238:
  91:lib/lcd/src/lcd.c ****     //LCD_Write_Bus(((int)dat)+(1<<8));
GAS LISTING C:\Users\Kalle\AppData\Local\Temp\cc2hNkGN.s 			page 57


 2140              		.loc 1 91 2
 2141 066e 0D45     		li	a0,3
 2142 0670 97000000 		call	LCD_Writ_Bus
 2142      E7800000 
 2143              	.LVL239:
 2144              	.LBE353:
 2145              	.LBE352:
 288:lib/lcd/src/lcd.c **** 	LCD_WR_DATA8(0x06);
 2146              		.loc 1 288 2
 2147              	.LBB354:
 2148              	.LBB355:
  90:lib/lcd/src/lcd.c **** 	LCD_Writ_Bus(dat);
 2149              		.loc 1 90 2
 2150 0678 A165     		li	a1,32768
 2151 067a 37150140 		li	a0,1073811456
 2152 067e 97000000 		call	gpio_bit_set
 2152      E7800000 
 2153              	.LVL240:
  91:lib/lcd/src/lcd.c ****     //LCD_Write_Bus(((int)dat)+(1<<8));
 2154              		.loc 1 91 2
 2155 0686 3D45     		li	a0,15
 2156 0688 97000000 		call	LCD_Writ_Bus
 2156      E7800000 
 2157              	.LVL241:
 2158              	.LBE355:
 2159              	.LBE354:
 289:lib/lcd/src/lcd.c **** 	LCD_WR_DATA8(0x02);
 2160              		.loc 1 289 2
 2161              	.LBB356:
 2162              	.LBB357:
  90:lib/lcd/src/lcd.c **** 	LCD_Writ_Bus(dat);
 2163              		.loc 1 90 2
 2164 0690 A165     		li	a1,32768
 2165 0692 37150140 		li	a0,1073811456
 2166 0696 97000000 		call	gpio_bit_set
 2166      E7800000 
 2167              	.LVL242:
  91:lib/lcd/src/lcd.c ****     //LCD_Write_Bus(((int)dat)+(1<<8));
 2168              		.loc 1 91 2
 2169 069e 1945     		li	a0,6
 2170 06a0 97000000 		call	LCD_Writ_Bus
 2170      E7800000 
 2171              	.LVL243:
 2172              	.LBE357:
 2173              	.LBE356:
 290:lib/lcd/src/lcd.c **** 	LCD_WR_DATA8(0x08);
 2174              		.loc 1 290 2
 2175              	.LBB358:
 2176              	.LBB359:
  90:lib/lcd/src/lcd.c **** 	LCD_Writ_Bus(dat);
 2177              		.loc 1 90 2
 2178 06a8 A165     		li	a1,32768
 2179 06aa 37150140 		li	a0,1073811456
 2180 06ae 97000000 		call	gpio_bit_set
 2180      E7800000 
 2181              	.LVL244:
  91:lib/lcd/src/lcd.c ****     //LCD_Write_Bus(((int)dat)+(1<<8));
GAS LISTING C:\Users\Kalle\AppData\Local\Temp\cc2hNkGN.s 			page 58


 2182              		.loc 1 91 2
 2183 06b6 0945     		li	a0,2
 2184 06b8 97000000 		call	LCD_Writ_Bus
 2184      E7800000 
 2185              	.LVL245:
 2186              	.LBE359:
 2187              	.LBE358:
 291:lib/lcd/src/lcd.c **** 	LCD_WR_DATA8(0x0A);
 2188              		.loc 1 291 2
 2189              	.LBB360:
 2190              	.LBB361:
  90:lib/lcd/src/lcd.c **** 	LCD_Writ_Bus(dat);
 2191              		.loc 1 90 2
 2192 06c0 A165     		li	a1,32768
 2193 06c2 37150140 		li	a0,1073811456
 2194 06c6 97000000 		call	gpio_bit_set
 2194      E7800000 
 2195              	.LVL246:
  91:lib/lcd/src/lcd.c ****     //LCD_Write_Bus(((int)dat)+(1<<8));
 2196              		.loc 1 91 2
 2197 06ce 2145     		li	a0,8
 2198 06d0 97000000 		call	LCD_Writ_Bus
 2198      E7800000 
 2199              	.LVL247:
 2200              	.LBE361:
 2201              	.LBE360:
 292:lib/lcd/src/lcd.c **** 	LCD_WR_DATA8(0x13);
 2202              		.loc 1 292 2
 2203              	.LBB362:
 2204              	.LBB363:
  90:lib/lcd/src/lcd.c **** 	LCD_Writ_Bus(dat);
 2205              		.loc 1 90 2
 2206 06d8 A165     		li	a1,32768
 2207 06da 37150140 		li	a0,1073811456
 2208 06de 97000000 		call	gpio_bit_set
 2208      E7800000 
 2209              	.LVL248:
  91:lib/lcd/src/lcd.c ****     //LCD_Write_Bus(((int)dat)+(1<<8));
 2210              		.loc 1 91 2
 2211 06e6 2945     		li	a0,10
 2212 06e8 97000000 		call	LCD_Writ_Bus
 2212      E7800000 
 2213              	.LVL249:
 2214              	.LBE363:
 2215              	.LBE362:
 293:lib/lcd/src/lcd.c **** 	LCD_WR_DATA8(0x26);
 2216              		.loc 1 293 2
 2217              	.LBB364:
 2218              	.LBB365:
  90:lib/lcd/src/lcd.c **** 	LCD_Writ_Bus(dat);
 2219              		.loc 1 90 2
 2220 06f0 A165     		li	a1,32768
 2221 06f2 37150140 		li	a0,1073811456
 2222 06f6 97000000 		call	gpio_bit_set
 2222      E7800000 
 2223              	.LVL250:
  91:lib/lcd/src/lcd.c ****     //LCD_Write_Bus(((int)dat)+(1<<8));
GAS LISTING C:\Users\Kalle\AppData\Local\Temp\cc2hNkGN.s 			page 59


 2224              		.loc 1 91 2
 2225 06fe 4D45     		li	a0,19
 2226 0700 97000000 		call	LCD_Writ_Bus
 2226      E7800000 
 2227              	.LVL251:
 2228              	.LBE365:
 2229              	.LBE364:
 294:lib/lcd/src/lcd.c **** 	LCD_WR_DATA8(0x36);
 2230              		.loc 1 294 2
 2231              	.LBB366:
 2232              	.LBB367:
  90:lib/lcd/src/lcd.c **** 	LCD_Writ_Bus(dat);
 2233              		.loc 1 90 2
 2234 0708 A165     		li	a1,32768
 2235 070a 37150140 		li	a0,1073811456
 2236 070e 97000000 		call	gpio_bit_set
 2236      E7800000 
 2237              	.LVL252:
  91:lib/lcd/src/lcd.c ****     //LCD_Write_Bus(((int)dat)+(1<<8));
 2238              		.loc 1 91 2
 2239 0716 13056002 		li	a0,38
 2240 071a 97000000 		call	LCD_Writ_Bus
 2240      E7800000 
 2241              	.LVL253:
 2242              	.LBE367:
 2243              	.LBE366:
 295:lib/lcd/src/lcd.c **** 	LCD_WR_DATA8(0x00);
 2244              		.loc 1 295 2
 2245              	.LBB368:
 2246              	.LBB369:
  90:lib/lcd/src/lcd.c **** 	LCD_Writ_Bus(dat);
 2247              		.loc 1 90 2
 2248 0722 A165     		li	a1,32768
 2249 0724 37150140 		li	a0,1073811456
 2250 0728 97000000 		call	gpio_bit_set
 2250      E7800000 
 2251              	.LVL254:
  91:lib/lcd/src/lcd.c ****     //LCD_Write_Bus(((int)dat)+(1<<8));
 2252              		.loc 1 91 2
 2253 0730 13056003 		li	a0,54
 2254 0734 97000000 		call	LCD_Writ_Bus
 2254      E7800000 
 2255              	.LVL255:
 2256              	.LBE369:
 2257              	.LBE368:
 296:lib/lcd/src/lcd.c **** 	LCD_WR_DATA8(0x0D);
 2258              		.loc 1 296 2
 2259              	.LBB370:
 2260              	.LBB371:
  90:lib/lcd/src/lcd.c **** 	LCD_Writ_Bus(dat);
 2261              		.loc 1 90 2
 2262 073c A165     		li	a1,32768
 2263 073e 37150140 		li	a0,1073811456
 2264 0742 97000000 		call	gpio_bit_set
 2264      E7800000 
 2265              	.LVL256:
  91:lib/lcd/src/lcd.c ****     //LCD_Write_Bus(((int)dat)+(1<<8));
GAS LISTING C:\Users\Kalle\AppData\Local\Temp\cc2hNkGN.s 			page 60


 2266              		.loc 1 91 2
 2267 074a 0145     		li	a0,0
 2268 074c 97000000 		call	LCD_Writ_Bus
 2268      E7800000 
 2269              	.LVL257:
 2270              	.LBE371:
 2271              	.LBE370:
 297:lib/lcd/src/lcd.c **** 	LCD_WR_DATA8(0x0E);
 2272              		.loc 1 297 2
 2273              	.LBB372:
 2274              	.LBB373:
  90:lib/lcd/src/lcd.c **** 	LCD_Writ_Bus(dat);
 2275              		.loc 1 90 2
 2276 0754 A165     		li	a1,32768
 2277 0756 37150140 		li	a0,1073811456
 2278 075a 97000000 		call	gpio_bit_set
 2278      E7800000 
 2279              	.LVL258:
  91:lib/lcd/src/lcd.c ****     //LCD_Write_Bus(((int)dat)+(1<<8));
 2280              		.loc 1 91 2
 2281 0762 3545     		li	a0,13
 2282 0764 97000000 		call	LCD_Writ_Bus
 2282      E7800000 
 2283              	.LVL259:
 2284              	.LBE373:
 2285              	.LBE372:
 298:lib/lcd/src/lcd.c **** 	LCD_WR_DATA8(0x10);
 2286              		.loc 1 298 2
 2287              	.LBB374:
 2288              	.LBB375:
  90:lib/lcd/src/lcd.c **** 	LCD_Writ_Bus(dat);
 2289              		.loc 1 90 2
 2290 076c A165     		li	a1,32768
 2291 076e 37150140 		li	a0,1073811456
 2292 0772 97000000 		call	gpio_bit_set
 2292      E7800000 
 2293              	.LVL260:
  91:lib/lcd/src/lcd.c ****     //LCD_Write_Bus(((int)dat)+(1<<8));
 2294              		.loc 1 91 2
 2295 077a 3945     		li	a0,14
 2296 077c 97000000 		call	LCD_Writ_Bus
 2296      E7800000 
 2297              	.LVL261:
 2298              	.LBE375:
 2299              	.LBE374:
 299:lib/lcd/src/lcd.c **** 
 2300              		.loc 1 299 2
 2301              	.LBB376:
 2302              	.LBB377:
  90:lib/lcd/src/lcd.c **** 	LCD_Writ_Bus(dat);
 2303              		.loc 1 90 2
 2304 0784 A165     		li	a1,32768
 2305 0786 37150140 		li	a0,1073811456
 2306 078a 97000000 		call	gpio_bit_set
 2306      E7800000 
 2307              	.LVL262:
  91:lib/lcd/src/lcd.c ****     //LCD_Write_Bus(((int)dat)+(1<<8));
GAS LISTING C:\Users\Kalle\AppData\Local\Temp\cc2hNkGN.s 			page 61


 2308              		.loc 1 91 2
 2309 0792 4145     		li	a0,16
 2310 0794 97000000 		call	LCD_Writ_Bus
 2310      E7800000 
 2311              	.LVL263:
 2312              	.LBE377:
 2313              	.LBE376:
 301:lib/lcd/src/lcd.c **** 	LCD_WR_DATA8(0x05);//16 bit color
 2314              		.loc 1 301 2
 2315              	.LBB378:
 2316              	.LBB379:
 118:lib/lcd/src/lcd.c **** 	LCD_Writ_Bus(dat);
 2317              		.loc 1 118 2
 2318 079c A165     		li	a1,32768
 2319 079e 37150140 		li	a0,1073811456
 2320 07a2 97000000 		call	gpio_bit_reset
 2320      E7800000 
 2321              	.LVL264:
 119:lib/lcd/src/lcd.c ****     //LCD_Write_Bus((int)dat);
 2322              		.loc 1 119 2
 2323 07aa 1305A003 		li	a0,58
 2324 07ae 97000000 		call	LCD_Writ_Bus
 2324      E7800000 
 2325              	.LVL265:
 2326              	.LBE379:
 2327              	.LBE378:
 302:lib/lcd/src/lcd.c **** 
 2328              		.loc 1 302 2
 2329              	.LBB380:
 2330              	.LBB381:
  90:lib/lcd/src/lcd.c **** 	LCD_Writ_Bus(dat);
 2331              		.loc 1 90 2
 2332 07b6 A165     		li	a1,32768
 2333 07b8 37150140 		li	a0,1073811456
 2334 07bc 97000000 		call	gpio_bit_set
 2334      E7800000 
 2335              	.LVL266:
  91:lib/lcd/src/lcd.c ****     //LCD_Write_Bus(((int)dat)+(1<<8));
 2336              		.loc 1 91 2
 2337 07c4 1545     		li	a0,5
 2338 07c6 97000000 		call	LCD_Writ_Bus
 2338      E7800000 
 2339              	.LVL267:
 2340              	.LBE381:
 2341              	.LBE380:
 304:lib/lcd/src/lcd.c **** 	LCD_WR_DATA8(0x78);
 2342              		.loc 1 304 2
 2343              	.LBB382:
 2344              	.LBB383:
 118:lib/lcd/src/lcd.c **** 	LCD_Writ_Bus(dat);
 2345              		.loc 1 118 2
 2346 07ce A165     		li	a1,32768
 2347 07d0 37150140 		li	a0,1073811456
 2348 07d4 97000000 		call	gpio_bit_reset
 2348      E7800000 
 2349              	.LVL268:
 119:lib/lcd/src/lcd.c ****     //LCD_Write_Bus((int)dat);
GAS LISTING C:\Users\Kalle\AppData\Local\Temp\cc2hNkGN.s 			page 62


 2350              		.loc 1 119 2
 2351 07dc 13056003 		li	a0,54
 2352 07e0 97000000 		call	LCD_Writ_Bus
 2352      E7800000 
 2353              	.LVL269:
 2354              	.LBE383:
 2355              	.LBE382:
 305:lib/lcd/src/lcd.c **** 	LCD_WR_REG(0x29); 
 2356              		.loc 1 305 2
 2357              	.LBB384:
 2358              	.LBB385:
  90:lib/lcd/src/lcd.c **** 	LCD_Writ_Bus(dat);
 2359              		.loc 1 90 2
 2360 07e8 A165     		li	a1,32768
 2361 07ea 37150140 		li	a0,1073811456
 2362 07ee 97000000 		call	gpio_bit_set
 2362      E7800000 
 2363              	.LVL270:
  91:lib/lcd/src/lcd.c ****     //LCD_Write_Bus(((int)dat)+(1<<8));
 2364              		.loc 1 91 2
 2365 07f6 13058007 		li	a0,120
 2366 07fa 97000000 		call	LCD_Writ_Bus
 2366      E7800000 
 2367              	.LVL271:
 2368              	.LBE385:
 2369              	.LBE384:
 306:lib/lcd/src/lcd.c **** } 
 2370              		.loc 1 306 2
 2371              	.LBB386:
 2372              	.LBB387:
 118:lib/lcd/src/lcd.c **** 	LCD_Writ_Bus(dat);
 2373              		.loc 1 118 2
 2374 0802 37150140 		li	a0,1073811456
 2375 0806 A165     		li	a1,32768
 2376 0808 97000000 		call	gpio_bit_reset
 2376      E7800000 
 2377              	.LVL272:
 119:lib/lcd/src/lcd.c ****     //LCD_Write_Bus((int)dat);
 2378              		.loc 1 119 2
 2379              	.LBE387:
 2380              	.LBE386:
 307:lib/lcd/src/lcd.c **** 
 2381              		.loc 1 307 1 is_stmt 0
 2382 0810 2244     		lw	s0,8(sp)
 2383              		.cfi_remember_state
 2384              		.cfi_restore 8
 2385 0812 B240     		lw	ra,12(sp)
 2386              		.cfi_restore 1
 2387              	.LBB390:
 2388              	.LBB388:
 119:lib/lcd/src/lcd.c ****     //LCD_Write_Bus((int)dat);
 2389              		.loc 1 119 2
 2390 0814 13059002 		li	a0,41
 2391              	.LBE388:
 2392              	.LBE390:
 307:lib/lcd/src/lcd.c **** 
 2393              		.loc 1 307 1
GAS LISTING C:\Users\Kalle\AppData\Local\Temp\cc2hNkGN.s 			page 63


 2394 0818 4101     		addi	sp,sp,16
 2395              	.LCFI29:
 2396              		.cfi_def_cfa_offset 0
 2397              	.LBB391:
 2398              	.LBB389:
 119:lib/lcd/src/lcd.c ****     //LCD_Write_Bus((int)dat);
 2399              		.loc 1 119 2
 2400 081a 17030000 		tail	LCD_Writ_Bus
 2400      67000300 
 2401              	.LVL273:
 2402              	.L72:
 2403              	.LCFI30:
 2404              		.cfi_restore_state
 2405              	.LBE389:
 2406              	.LBE391:
 219:lib/lcd/src/lcd.c **** 
 2407              		.loc 1 219 12 is_stmt 1
 2408              	.LBB392:
 2409              	.LBB393:
 118:lib/lcd/src/lcd.c **** 	LCD_Writ_Bus(dat);
 2410              		.loc 1 118 2
 2411 0822 37150140 		li	a0,1073811456
 2412 0826 A165     		li	a1,32768
 2413 0828 97000000 		call	gpio_bit_reset
 2413      E7800000 
 2414              	.LVL274:
 119:lib/lcd/src/lcd.c ****     //LCD_Write_Bus((int)dat);
 2415              		.loc 1 119 2
 2416 0830 13051002 		li	a0,33
 2417 0834 97000000 		call	LCD_Writ_Bus
 2417      E7800000 
 2418              	.LVL275:
 2419 083c D1B0     		j	.L73
 2420              	.LBE393:
 2421              	.LBE392:
 2422              		.cfi_endproc
 2423              	.LFE13:
 2425              		.section	.text.LCD_Clear,"ax",@progbits
 2426              		.align	1
 2427              		.globl	LCD_Clear
 2429              	LCD_Clear:
 2430              	.LFB14:
 316:lib/lcd/src/lcd.c **** 	u16 i,j;  	
 2431              		.loc 1 316 1
 2432              		.cfi_startproc
 2433              	.LVL276:
 317:lib/lcd/src/lcd.c **** 	LCD_Address_Set(0,0,LCD_W-1,LCD_H-1);
 2434              		.loc 1 317 2
 318:lib/lcd/src/lcd.c ****     for(i=0;i<LCD_W;i++)
 2435              		.loc 1 318 2
 316:lib/lcd/src/lcd.c **** 	u16 i,j;  	
 2436              		.loc 1 316 1 is_stmt 0
 2437 0000 4111     		addi	sp,sp,-16
 2438              	.LCFI31:
 2439              		.cfi_def_cfa_offset 16
 2440 0002 26C2     		sw	s1,4(sp)
 318:lib/lcd/src/lcd.c ****     for(i=0;i<LCD_W;i++)
GAS LISTING C:\Users\Kalle\AppData\Local\Temp\cc2hNkGN.s 			page 64


 2441              		.loc 1 318 2
 2442 0004 9306F004 		li	a3,79
 2443              		.cfi_offset 9, -12
 316:lib/lcd/src/lcd.c **** 	u16 i,j;  	
 2444              		.loc 1 316 1
 2445 0008 AA84     		mv	s1,a0
 318:lib/lcd/src/lcd.c ****     for(i=0;i<LCD_W;i++)
 2446              		.loc 1 318 2
 2447 000a 1306F009 		li	a2,159
 2448 000e 8145     		li	a1,0
 2449 0010 0145     		li	a0,0
 2450              	.LVL277:
 316:lib/lcd/src/lcd.c **** 	u16 i,j;  	
 2451              		.loc 1 316 1
 2452 0012 4AC0     		sw	s2,0(sp)
 2453 0014 06C6     		sw	ra,12(sp)
 2454 0016 22C4     		sw	s0,8(sp)
 2455              		.cfi_offset 18, -16
 2456              		.cfi_offset 1, -4
 2457              		.cfi_offset 8, -8
 318:lib/lcd/src/lcd.c ****     for(i=0;i<LCD_W;i++)
 2458              		.loc 1 318 2
 2459 0018 1309000A 		li	s2,160
 2460 001c 97000000 		call	LCD_Address_Set
 2460      E7800000 
 2461              	.LVL278:
 319:lib/lcd/src/lcd.c **** 	  {
 2462              		.loc 1 319 5 is_stmt 1
 2463              	.L76:
 316:lib/lcd/src/lcd.c **** 	u16 i,j;  	
 2464              		.loc 1 316 1 is_stmt 0
 2465 0024 13040005 		li	s0,80
 2466              	.LVL279:
 2467              	.L77:
 323:lib/lcd/src/lcd.c **** 				}
 2468              		.loc 1 323 6 is_stmt 1 discriminator 3
 2469 0028 7D14     		addi	s0,s0,-1
 2470              	.LVL280:
 2471 002a 2685     		mv	a0,s1
 2472 002c 97000000 		call	LCD_WR_DATA
 2472      E7800000 
 2473              	.LVL281:
 321:lib/lcd/src/lcd.c **** 				{
 2474              		.loc 1 321 4 is_stmt 0 discriminator 3
 2475 0034 75F8     		bne	s0,zero,.L77
 2476              	.LVL282:
 2477 0036 7D19     		addi	s2,s2,-1
 2478              	.LVL283:
 319:lib/lcd/src/lcd.c **** 	  {
 2479              		.loc 1 319 5 discriminator 2
 2480 0038 E31609FE 		bne	s2,zero,.L76
 326:lib/lcd/src/lcd.c **** 
 2481              		.loc 1 326 1
 2482 003c B240     		lw	ra,12(sp)
 2483              		.cfi_restore 1
 2484 003e 2244     		lw	s0,8(sp)
 2485              		.cfi_restore 8
GAS LISTING C:\Users\Kalle\AppData\Local\Temp\cc2hNkGN.s 			page 65


 2486 0040 9244     		lw	s1,4(sp)
 2487              		.cfi_restore 9
 2488              	.LVL284:
 2489 0042 0249     		lw	s2,0(sp)
 2490              		.cfi_restore 18
 2491              	.LVL285:
 2492 0044 4101     		addi	sp,sp,16
 2493              	.LCFI32:
 2494              		.cfi_def_cfa_offset 0
 2495 0046 8280     		jr	ra
 2496              		.cfi_endproc
 2497              	.LFE14:
 2499              		.section	.text.LCD_ShowChinese,"ax",@progbits
 2500              		.align	1
 2501              		.globl	LCD_ShowChinese
 2503              	LCD_ShowChinese:
 2504              	.LFB15:
 337:lib/lcd/src/lcd.c **** 	u8 i,j;
 2505              		.loc 1 337 1 is_stmt 1
 2506              		.cfi_startproc
 2507              	.LVL286:
 338:lib/lcd/src/lcd.c **** 	u8 *temp,size1;
 2508              		.loc 1 338 2
 339:lib/lcd/src/lcd.c **** 	if(size==16){temp=Hzk16;}               // Choose a font size
 2509              		.loc 1 339 2
 340:lib/lcd/src/lcd.c **** 	if(size==32){temp=Hzk32;}
 2510              		.loc 1 340 2
 341:lib/lcd/src/lcd.c ****     LCD_Address_Set(x,y,x+size-1,y+size-1); // Set a region of Chinese characters
 2511              		.loc 1 341 2
 337:lib/lcd/src/lcd.c **** 	u8 i,j;
 2512              		.loc 1 337 1 is_stmt 0
 2513 0000 0111     		addi	sp,sp,-32
 2514              	.LCFI33:
 2515              		.cfi_def_cfa_offset 32
 2516 0002 5AC0     		sw	s6,0(sp)
 2517              		.cfi_offset 22, -32
 2518 0004 338BD602 		mul	s6,a3,a3
 2519 0008 B687     		mv	a5,a3
 2520 000a 9306F5FF 		addi	a3,a0,-1
 2521              	.LVL287:
 2522 000e 26CA     		sw	s1,20(sp)
 2523 0010 4AC8     		sw	s2,16(sp)
 2524 0012 1388F5FF 		addi	a6,a1,-1
 2525              		.cfi_offset 9, -12
 2526              		.cfi_offset 18, -16
 2527 0016 3A89     		mv	s2,a4
 2528 0018 06CE     		sw	ra,28(sp)
 2529 001a 3387F600 		add	a4,a3,a5
 2530              	.LVL288:
 2531 001e 22CC     		sw	s0,24(sp)
 2532 0020 135B3B40 		srai	s6,s6,3
 2533 0024 9374FB0F 		andi	s1,s6,255
 2534 0028 4EC6     		sw	s3,12(sp)
 2535 002a 52C4     		sw	s4,8(sp)
 2536 002c 56C2     		sw	s5,4(sp)
 2537              		.cfi_offset 1, -4
 2538              		.cfi_offset 8, -8
GAS LISTING C:\Users\Kalle\AppData\Local\Temp\cc2hNkGN.s 			page 66


 2539              		.cfi_offset 19, -20
 2540              		.cfi_offset 20, -24
 2541              		.cfi_offset 21, -28
 341:lib/lcd/src/lcd.c ****     LCD_Address_Set(x,y,x+size-1,y+size-1); // Set a region of Chinese characters
 2542              		.loc 1 341 4
 2543 002e 93080002 		li	a7,32
 2544 0032 B384C402 		mul	s1,s1,a2
 2545 0036 B306F800 		add	a3,a6,a5
 2546 003a 137BFB0F 		andi	s6,s6,0xff
 342:lib/lcd/src/lcd.c ****     size1=size*size/8;                      // The bytes occupied by a Chinese character
 2547              		.loc 1 342 5
 2548 003e 3A86     		mv	a2,a4
 2549              	.LVL289:
 341:lib/lcd/src/lcd.c ****     LCD_Address_Set(x,y,x+size-1,y+size-1); // Set a region of Chinese characters
 2550              		.loc 1 341 4
 2551 0040 63821707 		beq	a5,a7,.L82
 342:lib/lcd/src/lcd.c ****     size1=size*size/8;                      // The bytes occupied by a Chinese character
 2552              		.loc 1 342 5 is_stmt 1
 2553 0044 97000000 		call	LCD_Address_Set
 2553      E7800000 
 2554              	.LVL290:
 343:lib/lcd/src/lcd.c **** 	temp+=index*size1;                      // Start of writing
 2555              		.loc 1 343 5
 344:lib/lcd/src/lcd.c **** 	for(j=0;j<size1;j++)
 2556              		.loc 1 344 2
 344:lib/lcd/src/lcd.c **** 	for(j=0;j<size1;j++)
 2557              		.loc 1 344 6 is_stmt 0
 2558 004c B7070000 		lui	a5,%hi(.LANCHOR5)
 2559 0050 93870700 		addi	a5,a5,%lo(.LANCHOR5)
 2560 0054 BE94     		add	s1,a5,s1
 2561              	.LVL291:
 345:lib/lcd/src/lcd.c **** 	{
 2562              		.loc 1 345 2 is_stmt 1
 2563 0056 630D0B02 		beq	s6,zero,.L81
 2564              	.L83:
 337:lib/lcd/src/lcd.c **** 	u8 i,j;
 2565              		.loc 1 337 1 is_stmt 0
 2566 005a 014A     		li	s4,0
 354:lib/lcd/src/lcd.c **** 			}
 2567              		.loc 1 354 5
 2568 005c B70A0000 		lui	s5,%hi(BACK_COLOR)
 347:lib/lcd/src/lcd.c **** 		{
 2569              		.loc 1 347 3
 2570 0060 A149     		li	s3,8
 2571              	.LVL292:
 2572              	.L87:
 337:lib/lcd/src/lcd.c **** 	u8 i,j;
 2573              		.loc 1 337 1
 2574 0062 0144     		li	s0,0
 2575              	.L86:
 2576              	.LVL293:
 349:lib/lcd/src/lcd.c **** 				LCD_WR_DATA(color);         // set dot color
 2577              		.loc 1 349 5 is_stmt 1
 350:lib/lcd/src/lcd.c **** 			}
 2578              		.loc 1 350 5
 354:lib/lcd/src/lcd.c **** 			}
 2579              		.loc 1 354 5
GAS LISTING C:\Users\Kalle\AppData\Local\Temp\cc2hNkGN.s 			page 67


 349:lib/lcd/src/lcd.c **** 				LCD_WR_DATA(color);         // set dot color
 2580              		.loc 1 349 9 is_stmt 0
 2581 0064 83C70400 		lbu	a5,0(s1)
 350:lib/lcd/src/lcd.c **** 			}
 2582              		.loc 1 350 5
 2583 0068 4A85     		mv	a0,s2
 349:lib/lcd/src/lcd.c **** 				LCD_WR_DATA(color);         // set dot color
 2584              		.loc 1 349 22
 2585 006a B3D78740 		sra	a5,a5,s0
 2586 006e 858B     		andi	a5,a5,1
 349:lib/lcd/src/lcd.c **** 				LCD_WR_DATA(color);         // set dot color
 2587              		.loc 1 349 7
 2588 0070 99E3     		bne	a5,zero,.L92
 2589              	.LVL294:
 354:lib/lcd/src/lcd.c **** 			}
 2590              		.loc 1 354 5
 2591 0072 03A50A00 		lw	a0,%lo(BACK_COLOR)(s5)
 2592              	.LVL295:
 2593              	.L92:
 2594 0076 0504     		addi	s0,s0,1
 2595              	.LVL296:
 2596 0078 97000000 		call	LCD_WR_DATA
 2596      E7800000 
 2597              	.LVL297:
 347:lib/lcd/src/lcd.c **** 		{
 2598              		.loc 1 347 3
 2599 0080 E31234FF 		bne	s0,s3,.L86
 357:lib/lcd/src/lcd.c **** 	 }
 2600              		.loc 1 357 3 is_stmt 1 discriminator 2
 345:lib/lcd/src/lcd.c **** 	{
 2601              		.loc 1 345 19 is_stmt 0 discriminator 2
 2602 0084 050A     		addi	s4,s4,1
 2603              	.LVL298:
 2604 0086 137AFA0F 		andi	s4,s4,0xff
 357:lib/lcd/src/lcd.c **** 	 }
 2605              		.loc 1 357 7 discriminator 2
 2606 008a 8504     		addi	s1,s1,1
 2607              	.LVL299:
 345:lib/lcd/src/lcd.c **** 	{
 2608              		.loc 1 345 2 discriminator 2
 2609 008c E36B6AFD 		bltu	s4,s6,.L87
 2610              	.LVL300:
 2611              	.L81:
 359:lib/lcd/src/lcd.c **** 
 2612              		.loc 1 359 1
 2613 0090 F240     		lw	ra,28(sp)
 2614              		.cfi_remember_state
 2615              		.cfi_restore 1
 2616 0092 6244     		lw	s0,24(sp)
 2617              		.cfi_restore 8
 2618 0094 D244     		lw	s1,20(sp)
 2619              		.cfi_restore 9
 2620              	.LVL301:
 2621 0096 4249     		lw	s2,16(sp)
 2622              		.cfi_restore 18
 2623              	.LVL302:
 2624 0098 B249     		lw	s3,12(sp)
GAS LISTING C:\Users\Kalle\AppData\Local\Temp\cc2hNkGN.s 			page 68


 2625              		.cfi_restore 19
 2626 009a 224A     		lw	s4,8(sp)
 2627              		.cfi_restore 20
 2628 009c 924A     		lw	s5,4(sp)
 2629              		.cfi_restore 21
 2630 009e 024B     		lw	s6,0(sp)
 2631              		.cfi_restore 22
 2632 00a0 0561     		addi	sp,sp,32
 2633              	.LCFI34:
 2634              		.cfi_def_cfa_offset 0
 2635 00a2 8280     		jr	ra
 2636              	.LVL303:
 2637              	.L82:
 2638              	.LCFI35:
 2639              		.cfi_restore_state
 342:lib/lcd/src/lcd.c ****     size1=size*size/8;                      // The bytes occupied by a Chinese character
 2640              		.loc 1 342 5 is_stmt 1
 2641 00a4 97000000 		call	LCD_Address_Set
 2641      E7800000 
 2642              	.LVL304:
 343:lib/lcd/src/lcd.c **** 	temp+=index*size1;                      // Start of writing
 2643              		.loc 1 343 5
 344:lib/lcd/src/lcd.c **** 	for(j=0;j<size1;j++)
 2644              		.loc 1 344 2
 344:lib/lcd/src/lcd.c **** 	for(j=0;j<size1;j++)
 2645              		.loc 1 344 6 is_stmt 0
 2646 00ac B7070000 		lui	a5,%hi(.LANCHOR6)
 2647 00b0 93870700 		addi	a5,a5,%lo(.LANCHOR6)
 2648 00b4 BE94     		add	s1,a5,s1
 2649              	.LVL305:
 345:lib/lcd/src/lcd.c **** 	{
 2650              		.loc 1 345 2 is_stmt 1
 2651 00b6 55B7     		j	.L83
 2652              		.cfi_endproc
 2653              	.LFE15:
 2655              		.section	.text.LCD_DrawPoint,"ax",@progbits
 2656              		.align	1
 2657              		.globl	LCD_DrawPoint
 2659              	LCD_DrawPoint:
 2660              	.LFB16:
 368:lib/lcd/src/lcd.c **** 	LCD_Address_Set(x,y,x,y); // Set cursor position
 2661              		.loc 1 368 1
 2662              		.cfi_startproc
 2663              	.LVL306:
 369:lib/lcd/src/lcd.c **** 	LCD_WR_DATA(color);
 2664              		.loc 1 369 2
 368:lib/lcd/src/lcd.c **** 	LCD_Address_Set(x,y,x,y); // Set cursor position
 2665              		.loc 1 368 1 is_stmt 0
 2666 0000 4111     		addi	sp,sp,-16
 2667              	.LCFI36:
 2668              		.cfi_def_cfa_offset 16
 2669 0002 22C4     		sw	s0,8(sp)
 369:lib/lcd/src/lcd.c **** 	LCD_WR_DATA(color);
 2670              		.loc 1 369 2
 2671 0004 AE86     		mv	a3,a1
 2672              		.cfi_offset 8, -8
 368:lib/lcd/src/lcd.c **** 	LCD_Address_Set(x,y,x,y); // Set cursor position
GAS LISTING C:\Users\Kalle\AppData\Local\Temp\cc2hNkGN.s 			page 69


 2673              		.loc 1 368 1
 2674 0006 3284     		mv	s0,a2
 369:lib/lcd/src/lcd.c **** 	LCD_WR_DATA(color);
 2675              		.loc 1 369 2
 2676 0008 2A86     		mv	a2,a0
 2677              	.LVL307:
 368:lib/lcd/src/lcd.c **** 	LCD_Address_Set(x,y,x,y); // Set cursor position
 2678              		.loc 1 368 1
 2679 000a 06C6     		sw	ra,12(sp)
 2680              		.cfi_offset 1, -4
 369:lib/lcd/src/lcd.c **** 	LCD_WR_DATA(color);
 2681              		.loc 1 369 2
 2682 000c 97000000 		call	LCD_Address_Set
 2682      E7800000 
 2683              	.LVL308:
 370:lib/lcd/src/lcd.c **** } 
 2684              		.loc 1 370 2 is_stmt 1
 2685 0014 2285     		mv	a0,s0
 371:lib/lcd/src/lcd.c **** 
 2686              		.loc 1 371 1 is_stmt 0
 2687 0016 2244     		lw	s0,8(sp)
 2688              		.cfi_restore 8
 2689              	.LVL309:
 2690 0018 B240     		lw	ra,12(sp)
 2691              		.cfi_restore 1
 2692 001a 4101     		addi	sp,sp,16
 2693              	.LCFI37:
 2694              		.cfi_def_cfa_offset 0
 370:lib/lcd/src/lcd.c **** } 
 2695              		.loc 1 370 2
 2696 001c 17030000 		tail	LCD_WR_DATA
 2696      67000300 
 2697              	.LVL310:
 2698              		.cfi_endproc
 2699              	.LFE16:
 2701              		.section	.text.LCD_Fill,"ax",@progbits
 2702              		.align	1
 2703              		.globl	LCD_Fill
 2705              	LCD_Fill:
 2706              	.LFB18:
 392:lib/lcd/src/lcd.c **** 	u16 i,j; 
 2707              		.loc 1 392 1 is_stmt 1
 2708              		.cfi_startproc
 2709              	.LVL311:
 393:lib/lcd/src/lcd.c **** 	LCD_Address_Set(xsta,ysta,xend,yend);          //Set cursor position
 2710              		.loc 1 393 2
 394:lib/lcd/src/lcd.c **** 	for(i=ysta;i<=yend;i++)
 2711              		.loc 1 394 2
 392:lib/lcd/src/lcd.c **** 	u16 i,j; 
 2712              		.loc 1 392 1 is_stmt 0
 2713 0000 0111     		addi	sp,sp,-32
 2714              	.LCFI38:
 2715              		.cfi_def_cfa_offset 32
 2716 0002 4EC6     		sw	s3,12(sp)
 2717 0004 56C2     		sw	s5,4(sp)
 2718              		.cfi_offset 19, -20
 2719              		.cfi_offset 21, -28
GAS LISTING C:\Users\Kalle\AppData\Local\Temp\cc2hNkGN.s 			page 70


 2720 0006 AE89     		mv	s3,a1
 2721 0008 B68A     		mv	s5,a3
 2722 000a 26CA     		sw	s1,20(sp)
 2723 000c 4AC8     		sw	s2,16(sp)
 2724 000e 52C4     		sw	s4,8(sp)
 2725 0010 06CE     		sw	ra,28(sp)
 2726 0012 22CC     		sw	s0,24(sp)
 2727              		.cfi_offset 9, -12
 2728              		.cfi_offset 18, -16
 2729              		.cfi_offset 20, -24
 2730              		.cfi_offset 1, -4
 2731              		.cfi_offset 8, -8
 392:lib/lcd/src/lcd.c **** 	u16 i,j; 
 2732              		.loc 1 392 1
 2733 0014 2A8A     		mv	s4,a0
 2734 0016 B284     		mv	s1,a2
 2735 0018 3A89     		mv	s2,a4
 394:lib/lcd/src/lcd.c **** 	for(i=ysta;i<=yend;i++)
 2736              		.loc 1 394 2
 2737 001a 97000000 		call	LCD_Address_Set
 2737      E7800000 
 2738              	.LVL312:
 395:lib/lcd/src/lcd.c **** 	{													   	 	
 2739              		.loc 1 395 2 is_stmt 1
 2740 0022 63E03A03 		bgtu	s3,s5,.L95
 2741              	.LVL313:
 2742              	.L96:
 397:lib/lcd/src/lcd.c **** 	} 					  	    
 2743              		.loc 1 397 3 is_stmt 0
 2744 0026 5284     		mv	s0,s4
 2745 0028 63EA4401 		bgtu	s4,s1,.L99
 2746              	.LVL314:
 2747              	.L98:
 397:lib/lcd/src/lcd.c **** 	} 					  	    
 2748              		.loc 1 397 26 is_stmt 1 discriminator 3
 397:lib/lcd/src/lcd.c **** 	} 					  	    
 2749              		.loc 1 397 23 is_stmt 0 discriminator 3
 2750 002c 0504     		addi	s0,s0,1
 2751              	.LVL315:
 397:lib/lcd/src/lcd.c **** 	} 					  	    
 2752              		.loc 1 397 26 discriminator 3
 2753 002e 4A85     		mv	a0,s2
 2754 0030 97000000 		call	LCD_WR_DATA
 2754      E7800000 
 2755              	.LVL316:
 397:lib/lcd/src/lcd.c **** 	} 					  	    
 2756              		.loc 1 397 3 discriminator 3
 2757 0038 E3FA84FE 		bgeu	s1,s0,.L98
 2758              	.L99:
 395:lib/lcd/src/lcd.c **** 	{													   	 	
 2759              		.loc 1 395 22
 2760 003c 8509     		addi	s3,s3,1
 2761              	.LVL317:
 395:lib/lcd/src/lcd.c **** 	{													   	 	
 2762              		.loc 1 395 2
 2763 003e E3F43AFF 		bgeu	s5,s3,.L96
 2764              	.LVL318:
GAS LISTING C:\Users\Kalle\AppData\Local\Temp\cc2hNkGN.s 			page 71


 2765              	.L95:
 399:lib/lcd/src/lcd.c **** 
 2766              		.loc 1 399 1
 2767 0042 F240     		lw	ra,28(sp)
 2768              		.cfi_restore 1
 2769 0044 6244     		lw	s0,24(sp)
 2770              		.cfi_restore 8
 2771 0046 D244     		lw	s1,20(sp)
 2772              		.cfi_restore 9
 2773              	.LVL319:
 2774 0048 4249     		lw	s2,16(sp)
 2775              		.cfi_restore 18
 2776              	.LVL320:
 2777 004a B249     		lw	s3,12(sp)
 2778              		.cfi_restore 19
 2779              	.LVL321:
 2780 004c 224A     		lw	s4,8(sp)
 2781              		.cfi_restore 20
 2782              	.LVL322:
 2783 004e 924A     		lw	s5,4(sp)
 2784              		.cfi_restore 21
 2785              	.LVL323:
 2786 0050 0561     		addi	sp,sp,32
 2787              	.LCFI39:
 2788              		.cfi_def_cfa_offset 0
 2789 0052 8280     		jr	ra
 2790              		.cfi_endproc
 2791              	.LFE18:
 2793              		.section	.text.LCD_DrawPoint_big,"ax",@progbits
 2794              		.align	1
 2795              		.globl	LCD_DrawPoint_big
 2797              	LCD_DrawPoint_big:
 2798              	.LFB17:
 380:lib/lcd/src/lcd.c **** 	LCD_Fill(x-1,y-1,x+1,y+1,color);
 2799              		.loc 1 380 1 is_stmt 1
 2800              		.cfi_startproc
 2801              	.LVL324:
 381:lib/lcd/src/lcd.c **** } 
 2802              		.loc 1 381 2
 2803 0000 3287     		mv	a4,a2
 2804 0002 93861500 		addi	a3,a1,1
 2805 0006 13061500 		addi	a2,a0,1
 2806              	.LVL325:
 2807 000a FD15     		addi	a1,a1,-1
 2808              	.LVL326:
 2809 000c 7D15     		addi	a0,a0,-1
 2810              	.LVL327:
 2811 000e 17030000 		tail	LCD_Fill
 2811      67000300 
 2812              	.LVL328:
 2813              		.cfi_endproc
 2814              	.LFE17:
 2816              		.section	.text.LCD_DrawLine,"ax",@progbits
 2817              		.align	1
 2818              		.globl	LCD_DrawLine
 2820              	LCD_DrawLine:
 2821              	.LFB19:
GAS LISTING C:\Users\Kalle\AppData\Local\Temp\cc2hNkGN.s 			page 72


 409:lib/lcd/src/lcd.c **** 	u16 t; 
 2822              		.loc 1 409 1
 2823              		.cfi_startproc
 2824              	.LVL329:
 410:lib/lcd/src/lcd.c **** 	int xerr=0,yerr=0,delta_x,delta_y,distance;
 2825              		.loc 1 410 2
 411:lib/lcd/src/lcd.c **** 	int incx,incy,uRow,uCol;
 2826              		.loc 1 411 2
 412:lib/lcd/src/lcd.c **** 	delta_x=x2-x1;                       // Calculate coordinate increments
 2827              		.loc 1 412 2
 413:lib/lcd/src/lcd.c **** 	delta_y=y2-y1;
 2828              		.loc 1 413 2
 409:lib/lcd/src/lcd.c **** 	u16 t; 
 2829              		.loc 1 409 1 is_stmt 0
 2830 0000 7971     		addi	sp,sp,-48
 2831              	.LCFI40:
 2832              		.cfi_def_cfa_offset 48
 2833 0002 4ECE     		sw	s3,28(sp)
 2834 0004 52CC     		sw	s4,24(sp)
 2835 0006 5AC8     		sw	s6,16(sp)
 2836 0008 5EC6     		sw	s7,12(sp)
 2837 000a 62C4     		sw	s8,8(sp)
 2838 000c 66C2     		sw	s9,4(sp)
 2839 000e 06D6     		sw	ra,44(sp)
 2840 0010 22D4     		sw	s0,40(sp)
 2841 0012 26D2     		sw	s1,36(sp)
 2842 0014 4AD0     		sw	s2,32(sp)
 2843 0016 56CA     		sw	s5,20(sp)
 2844 0018 6AC0     		sw	s10,0(sp)
 2845              		.cfi_offset 19, -20
 2846              		.cfi_offset 20, -24
 2847              		.cfi_offset 22, -32
 2848              		.cfi_offset 23, -36
 2849              		.cfi_offset 24, -40
 2850              		.cfi_offset 25, -44
 2851              		.cfi_offset 1, -4
 2852              		.cfi_offset 8, -8
 2853              		.cfi_offset 9, -12
 2854              		.cfi_offset 18, -16
 2855              		.cfi_offset 21, -28
 2856              		.cfi_offset 26, -48
 413:lib/lcd/src/lcd.c **** 	delta_y=y2-y1;
 2857              		.loc 1 413 12
 2858 001a 330BA640 		sub	s6,a2,a0
 2859              	.LVL330:
 414:lib/lcd/src/lcd.c **** 	uRow=x1;                             // Coordinates of starting point of drawing
 2860              		.loc 1 414 2 is_stmt 1
 409:lib/lcd/src/lcd.c **** 	u16 t; 
 2861              		.loc 1 409 1 is_stmt 0
 2862 001e 3A8C     		mv	s8,a4
 414:lib/lcd/src/lcd.c **** 	uRow=x1;                             // Coordinates of starting point of drawing
 2863              		.loc 1 414 12
 2864 0020 B38BB640 		sub	s7,a3,a1
 2865              	.LVL331:
 415:lib/lcd/src/lcd.c **** 	uCol=y1;
 2866              		.loc 1 415 2 is_stmt 1
 415:lib/lcd/src/lcd.c **** 	uCol=y1;
GAS LISTING C:\Users\Kalle\AppData\Local\Temp\cc2hNkGN.s 			page 73


 2867              		.loc 1 415 6 is_stmt 0
 2868 0024 AA89     		mv	s3,a0
 2869              	.LVL332:
 416:lib/lcd/src/lcd.c **** 	if(delta_x>0)incx=1;                 // Set single step direction
 2870              		.loc 1 416 2 is_stmt 1
 416:lib/lcd/src/lcd.c **** 	if(delta_x>0)incx=1;                 // Set single step direction
 2871              		.loc 1 416 6 is_stmt 0
 2872 0026 2E8A     		mv	s4,a1
 2873              	.LVL333:
 417:lib/lcd/src/lcd.c **** 	else if (delta_x==0)incx=0;          // Vertical line
 2874              		.loc 1 417 2 is_stmt 1
 417:lib/lcd/src/lcd.c **** 	else if (delta_x==0)incx=0;          // Vertical line
 2875              		.loc 1 417 19 is_stmt 0
 2876 0028 854C     		li	s9,1
 417:lib/lcd/src/lcd.c **** 	else if (delta_x==0)incx=0;          // Vertical line
 2877              		.loc 1 417 4
 2878 002a 63586007 		ble	s6,zero,.L121
 2879              	.L107:
 2880              	.LVL334:
 420:lib/lcd/src/lcd.c **** 	else if (delta_y==0)incy=0;          // Horizontal line
 2881              		.loc 1 420 2 is_stmt 1
 420:lib/lcd/src/lcd.c **** 	else if (delta_y==0)incy=0;          // Horizontal line
 2882              		.loc 1 420 19 is_stmt 0
 2883 002e 054D     		li	s10,1
 420:lib/lcd/src/lcd.c **** 	else if (delta_y==0)incy=0;          // Horizontal line
 2884              		.loc 1 420 4
 2885 0030 635E7007 		ble	s7,zero,.L122
 2886              	.L108:
 2887              	.LVL335:
 423:lib/lcd/src/lcd.c **** 	else distance=delta_y;
 2888              		.loc 1 423 2 is_stmt 1
 2889 0034 5A84     		mv	s0,s6
 2890 0036 63537B01 		bge	s6,s7,.L109
 2891              	.LVL336:
 2892 003a 5E84     		mv	s0,s7
 2893              	.LVL337:
 2894              	.L109:
 425:lib/lcd/src/lcd.c **** 	{
 2895              		.loc 1 425 2
 411:lib/lcd/src/lcd.c **** 	int incx,incy,uRow,uCol;
 2896              		.loc 1 411 13 is_stmt 0
 2897 003c 0149     		li	s2,0
 411:lib/lcd/src/lcd.c **** 	int incx,incy,uRow,uCol;
 2898              		.loc 1 411 6
 2899 003e 8144     		li	s1,0
 425:lib/lcd/src/lcd.c **** 	{
 2900              		.loc 1 425 7
 2901 0040 814A     		li	s5,0
 2902              	.LVL338:
 2903              	.L112:
 427:lib/lcd/src/lcd.c **** 		xerr+=delta_x;
 2904              		.loc 1 427 3 is_stmt 1
 2905              	.LBB394:
 2906              	.LBB395:
 369:lib/lcd/src/lcd.c **** 	LCD_WR_DATA(color);
 2907              		.loc 1 369 2
 2908 0042 D286     		mv	a3,s4
GAS LISTING C:\Users\Kalle\AppData\Local\Temp\cc2hNkGN.s 			page 74


 2909 0044 4E86     		mv	a2,s3
 2910 0046 D285     		mv	a1,s4
 2911 0048 4E85     		mv	a0,s3
 2912 004a 97000000 		call	LCD_Address_Set
 2912      E7800000 
 2913              	.LVL339:
 370:lib/lcd/src/lcd.c **** } 
 2914              		.loc 1 370 2
 2915 0052 6285     		mv	a0,s8
 2916              	.LBE395:
 2917              	.LBE394:
 428:lib/lcd/src/lcd.c **** 		yerr+=delta_y;
 2918              		.loc 1 428 7 is_stmt 0
 2919 0054 DA94     		add	s1,s1,s6
 2920              	.LVL340:
 2921              	.LBB397:
 2922              	.LBB396:
 370:lib/lcd/src/lcd.c **** } 
 2923              		.loc 1 370 2
 2924 0056 97000000 		call	LCD_WR_DATA
 2924      E7800000 
 2925              	.LVL341:
 2926              	.LBE396:
 2927              	.LBE397:
 428:lib/lcd/src/lcd.c **** 		yerr+=delta_y;
 2928              		.loc 1 428 3 is_stmt 1
 429:lib/lcd/src/lcd.c **** 		if(xerr>distance)
 2929              		.loc 1 429 3
 432:lib/lcd/src/lcd.c **** 			uRow+=incx;
 2930              		.loc 1 432 4
 437:lib/lcd/src/lcd.c **** 			uCol+=incy;
 2931              		.loc 1 437 4
 429:lib/lcd/src/lcd.c **** 		if(xerr>distance)
 2932              		.loc 1 429 7 is_stmt 0
 2933 005e 5E99     		add	s2,s2,s7
 2934              	.LVL342:
 430:lib/lcd/src/lcd.c **** 		{
 2935              		.loc 1 430 3 is_stmt 1
 430:lib/lcd/src/lcd.c **** 		{
 2936              		.loc 1 430 5 is_stmt 0
 2937 0060 63549400 		ble	s1,s0,.L110
 432:lib/lcd/src/lcd.c **** 			uRow+=incx;
 2938              		.loc 1 432 8
 2939 0064 818C     		sub	s1,s1,s0
 2940              	.LVL343:
 433:lib/lcd/src/lcd.c **** 		}
 2941              		.loc 1 433 4 is_stmt 1
 433:lib/lcd/src/lcd.c **** 		}
 2942              		.loc 1 433 8 is_stmt 0
 2943 0066 E699     		add	s3,s3,s9
 2944              	.LVL344:
 2945              	.L110:
 435:lib/lcd/src/lcd.c **** 		{
 2946              		.loc 1 435 3 is_stmt 1
 435:lib/lcd/src/lcd.c **** 		{
 2947              		.loc 1 435 5 is_stmt 0
 2948 0068 63552401 		ble	s2,s0,.L111
GAS LISTING C:\Users\Kalle\AppData\Local\Temp\cc2hNkGN.s 			page 75


 437:lib/lcd/src/lcd.c **** 			uCol+=incy;
 2949              		.loc 1 437 8
 2950 006c 33098940 		sub	s2,s2,s0
 2951              	.LVL345:
 438:lib/lcd/src/lcd.c **** 		}
 2952              		.loc 1 438 4 is_stmt 1
 438:lib/lcd/src/lcd.c **** 		}
 2953              		.loc 1 438 8 is_stmt 0
 2954 0070 6A9A     		add	s4,s4,s10
 2955              	.LVL346:
 2956              	.L111:
 425:lib/lcd/src/lcd.c **** 	{
 2957              		.loc 1 425 24 discriminator 2
 2958 0072 93871A00 		addi	a5,s5,1
 2959              	.LVL347:
 425:lib/lcd/src/lcd.c **** 	{
 2960              		.loc 1 425 2 discriminator 2
 2961 0076 63848A00 		beq	s5,s0,.L123
 2962 007a BE8A     		mv	s5,a5
 2963 007c D9B7     		j	.L112
 2964              	.L123:
 441:lib/lcd/src/lcd.c **** 
 2965              		.loc 1 441 1
 2966 007e B250     		lw	ra,44(sp)
 2967              		.cfi_remember_state
 2968              		.cfi_restore 1
 2969 0080 2254     		lw	s0,40(sp)
 2970              		.cfi_restore 8
 2971              	.LVL348:
 2972 0082 9254     		lw	s1,36(sp)
 2973              		.cfi_restore 9
 2974              	.LVL349:
 2975 0084 0259     		lw	s2,32(sp)
 2976              		.cfi_restore 18
 2977              	.LVL350:
 2978 0086 F249     		lw	s3,28(sp)
 2979              		.cfi_restore 19
 2980              	.LVL351:
 2981 0088 624A     		lw	s4,24(sp)
 2982              		.cfi_restore 20
 2983              	.LVL352:
 2984 008a D24A     		lw	s5,20(sp)
 2985              		.cfi_restore 21
 2986 008c 424B     		lw	s6,16(sp)
 2987              		.cfi_restore 22
 2988              	.LVL353:
 2989 008e B24B     		lw	s7,12(sp)
 2990              		.cfi_restore 23
 2991              	.LVL354:
 2992 0090 224C     		lw	s8,8(sp)
 2993              		.cfi_restore 24
 2994              	.LVL355:
 2995 0092 924C     		lw	s9,4(sp)
 2996              		.cfi_restore 25
 2997              	.LVL356:
 2998 0094 024D     		lw	s10,0(sp)
 2999              		.cfi_restore 26
GAS LISTING C:\Users\Kalle\AppData\Local\Temp\cc2hNkGN.s 			page 76


 3000              	.LVL357:
 3001 0096 4561     		addi	sp,sp,48
 3002              	.LCFI41:
 3003              		.cfi_def_cfa_offset 0
 3004 0098 8280     		jr	ra
 3005              	.LVL358:
 3006              	.L121:
 3007              	.LCFI42:
 3008              		.cfi_restore_state
 418:lib/lcd/src/lcd.c **** 	else {incx=-1;delta_x=-delta_x;}
 3009              		.loc 1 418 7 is_stmt 1
 418:lib/lcd/src/lcd.c **** 	else {incx=-1;delta_x=-delta_x;}
 3010              		.loc 1 418 26 is_stmt 0
 3011 009a 814C     		li	s9,0
 418:lib/lcd/src/lcd.c **** 	else {incx=-1;delta_x=-delta_x;}
 3012              		.loc 1 418 10
 3013 009c E3090BF8 		beq	s6,zero,.L107
 419:lib/lcd/src/lcd.c **** 	if(delta_y>0)incy=1;
 3014              		.loc 1 419 8 is_stmt 1
 3015              	.LVL359:
 419:lib/lcd/src/lcd.c **** 	if(delta_y>0)incy=1;
 3016              		.loc 1 419 16
 419:lib/lcd/src/lcd.c **** 	if(delta_y>0)incy=1;
 3017              		.loc 1 419 23 is_stmt 0
 3018 00a0 330B6041 		neg	s6,s6
 3019              	.LVL360:
 419:lib/lcd/src/lcd.c **** 	if(delta_y>0)incy=1;
 3020              		.loc 1 419 12
 3021 00a4 FD5C     		li	s9,-1
 3022              	.LVL361:
 420:lib/lcd/src/lcd.c **** 	else if (delta_y==0)incy=0;          // Horizontal line
 3023              		.loc 1 420 2 is_stmt 1
 420:lib/lcd/src/lcd.c **** 	else if (delta_y==0)incy=0;          // Horizontal line
 3024              		.loc 1 420 19 is_stmt 0
 3025 00a6 054D     		li	s10,1
 420:lib/lcd/src/lcd.c **** 	else if (delta_y==0)incy=0;          // Horizontal line
 3026              		.loc 1 420 4
 3027 00a8 E34670F9 		bgt	s7,zero,.L108
 3028              	.L122:
 421:lib/lcd/src/lcd.c **** 	else {incy=-1;delta_y=-delta_y;}
 3029              		.loc 1 421 7 is_stmt 1
 421:lib/lcd/src/lcd.c **** 	else {incy=-1;delta_y=-delta_y;}
 3030              		.loc 1 421 26 is_stmt 0
 3031 00ac 014D     		li	s10,0
 421:lib/lcd/src/lcd.c **** 	else {incy=-1;delta_y=-delta_y;}
 3032              		.loc 1 421 10
 3033 00ae E3830BF8 		beq	s7,zero,.L108
 422:lib/lcd/src/lcd.c **** 	if(delta_x>delta_y)distance=delta_x; // Pick basic incremental axis
 3034              		.loc 1 422 8 is_stmt 1
 3035              	.LVL362:
 422:lib/lcd/src/lcd.c **** 	if(delta_x>delta_y)distance=delta_x; // Pick basic incremental axis
 3036              		.loc 1 422 16
 422:lib/lcd/src/lcd.c **** 	if(delta_x>delta_y)distance=delta_x; // Pick basic incremental axis
 3037              		.loc 1 422 23 is_stmt 0
 3038 00b2 B30B7041 		neg	s7,s7
 3039              	.LVL363:
 422:lib/lcd/src/lcd.c **** 	if(delta_x>delta_y)distance=delta_x; // Pick basic incremental axis
GAS LISTING C:\Users\Kalle\AppData\Local\Temp\cc2hNkGN.s 			page 77


 3040              		.loc 1 422 12
 3041 00b6 7D5D     		li	s10,-1
 3042 00b8 B5BF     		j	.L108
 3043              		.cfi_endproc
 3044              	.LFE19:
 3046              		.section	.text.LCD_DrawRectangle,"ax",@progbits
 3047              		.align	1
 3048              		.globl	LCD_DrawRectangle
 3050              	LCD_DrawRectangle:
 3051              	.LFB20:
 451:lib/lcd/src/lcd.c **** 	LCD_DrawLine(x1,y1,x2,y1,color);
 3052              		.loc 1 451 1 is_stmt 1
 3053              		.cfi_startproc
 3054              	.LVL364:
 452:lib/lcd/src/lcd.c **** 	LCD_DrawLine(x1,y1,x1,y2,color);
 3055              		.loc 1 452 2
 451:lib/lcd/src/lcd.c **** 	LCD_DrawLine(x1,y1,x2,y1,color);
 3056              		.loc 1 451 1 is_stmt 0
 3057 0000 0111     		addi	sp,sp,-32
 3058              	.LCFI43:
 3059              		.cfi_def_cfa_offset 32
 3060 0002 22CC     		sw	s0,24(sp)
 3061              		.cfi_offset 8, -8
 3062 0004 3684     		mv	s0,a3
 452:lib/lcd/src/lcd.c **** 	LCD_DrawLine(x1,y1,x1,y2,color);
 3063              		.loc 1 452 2
 3064 0006 AE86     		mv	a3,a1
 3065              	.LVL365:
 451:lib/lcd/src/lcd.c **** 	LCD_DrawLine(x1,y1,x2,y1,color);
 3066              		.loc 1 451 1
 3067 0008 06CE     		sw	ra,28(sp)
 3068 000a 26CA     		sw	s1,20(sp)
 3069 000c 4AC8     		sw	s2,16(sp)
 3070 000e 4EC6     		sw	s3,12(sp)
 3071 0010 52C4     		sw	s4,8(sp)
 3072              		.cfi_offset 1, -4
 3073              		.cfi_offset 9, -12
 3074              		.cfi_offset 18, -16
 3075              		.cfi_offset 19, -20
 3076              		.cfi_offset 20, -24
 451:lib/lcd/src/lcd.c **** 	LCD_DrawLine(x1,y1,x2,y1,color);
 3077              		.loc 1 451 1
 3078 0012 3A89     		mv	s2,a4
 3079 0014 328A     		mv	s4,a2
 3080 0016 AA89     		mv	s3,a0
 3081 0018 AE84     		mv	s1,a1
 452:lib/lcd/src/lcd.c **** 	LCD_DrawLine(x1,y1,x1,y2,color);
 3082              		.loc 1 452 2
 3083 001a 97000000 		call	LCD_DrawLine
 3083      E7800000 
 3084              	.LVL366:
 453:lib/lcd/src/lcd.c **** 	LCD_DrawLine(x1,y2,x2,y2,color);
 3085              		.loc 1 453 2 is_stmt 1
 3086 0022 4A87     		mv	a4,s2
 3087 0024 A286     		mv	a3,s0
 3088 0026 4E86     		mv	a2,s3
 3089 0028 A685     		mv	a1,s1
GAS LISTING C:\Users\Kalle\AppData\Local\Temp\cc2hNkGN.s 			page 78


 3090 002a 4E85     		mv	a0,s3
 3091 002c 97000000 		call	LCD_DrawLine
 3091      E7800000 
 3092              	.LVL367:
 454:lib/lcd/src/lcd.c **** 	LCD_DrawLine(x2,y1,x2,y2,color);
 3093              		.loc 1 454 2
 3094 0034 4A87     		mv	a4,s2
 3095 0036 A286     		mv	a3,s0
 3096 0038 5286     		mv	a2,s4
 3097 003a A285     		mv	a1,s0
 3098 003c 4E85     		mv	a0,s3
 3099 003e 97000000 		call	LCD_DrawLine
 3099      E7800000 
 3100              	.LVL368:
 455:lib/lcd/src/lcd.c **** }
 3101              		.loc 1 455 2
 3102 0046 A286     		mv	a3,s0
 456:lib/lcd/src/lcd.c **** 
 3103              		.loc 1 456 1 is_stmt 0
 3104 0048 6244     		lw	s0,24(sp)
 3105              		.cfi_restore 8
 3106              	.LVL369:
 3107 004a F240     		lw	ra,28(sp)
 3108              		.cfi_restore 1
 3109 004c B249     		lw	s3,12(sp)
 3110              		.cfi_restore 19
 3111              	.LVL370:
 455:lib/lcd/src/lcd.c **** }
 3112              		.loc 1 455 2
 3113 004e 4A87     		mv	a4,s2
 3114 0050 5286     		mv	a2,s4
 456:lib/lcd/src/lcd.c **** 
 3115              		.loc 1 456 1
 3116 0052 4249     		lw	s2,16(sp)
 3117              		.cfi_restore 18
 3118              	.LVL371:
 455:lib/lcd/src/lcd.c **** }
 3119              		.loc 1 455 2
 3120 0054 A685     		mv	a1,s1
 3121 0056 5285     		mv	a0,s4
 456:lib/lcd/src/lcd.c **** 
 3122              		.loc 1 456 1
 3123 0058 D244     		lw	s1,20(sp)
 3124              		.cfi_restore 9
 3125              	.LVL372:
 3126 005a 224A     		lw	s4,8(sp)
 3127              		.cfi_restore 20
 3128              	.LVL373:
 3129 005c 0561     		addi	sp,sp,32
 3130              	.LCFI44:
 3131              		.cfi_def_cfa_offset 0
 455:lib/lcd/src/lcd.c **** }
 3132              		.loc 1 455 2
 3133 005e 17030000 		tail	LCD_DrawLine
 3133      67000300 
 3134              	.LVL374:
 3135              		.cfi_endproc
GAS LISTING C:\Users\Kalle\AppData\Local\Temp\cc2hNkGN.s 			page 79


 3136              	.LFE20:
 3138              		.section	.text.Draw_Circle,"ax",@progbits
 3139              		.align	1
 3140              		.globl	Draw_Circle
 3142              	Draw_Circle:
 3143              	.LFB21:
 466:lib/lcd/src/lcd.c **** 	int a,b;
 3144              		.loc 1 466 1 is_stmt 1
 3145              		.cfi_startproc
 3146              	.LVL375:
 467:lib/lcd/src/lcd.c **** 	// int di;
 3147              		.loc 1 467 2
 469:lib/lcd/src/lcd.c **** 	while(a<=b)
 3148              		.loc 1 469 2
 469:lib/lcd/src/lcd.c **** 	while(a<=b)
 3149              		.loc 1 469 6
 481:lib/lcd/src/lcd.c **** 		{
 3150              		.loc 1 481 18 is_stmt 0
 3151 0000 B307C602 		mul	a5,a2,a2
 466:lib/lcd/src/lcd.c **** 	int a,b;
 3152              		.loc 1 466 1
 3153 0004 5D71     		addi	sp,sp,-80
 3154              	.LCFI45:
 3155              		.cfi_def_cfa_offset 80
 3156 0006 CAC0     		sw	s2,64(sp)
 3157 0008 4EDE     		sw	s3,60(sp)
 3158 000a 52DC     		sw	s4,56(sp)
 3159 000c 56DA     		sw	s5,52(sp)
 3160 000e 5AD8     		sw	s6,48(sp)
 3161 0010 86C6     		sw	ra,76(sp)
 3162 0012 A2C4     		sw	s0,72(sp)
 3163 0014 A6C2     		sw	s1,68(sp)
 3164 0016 5ED6     		sw	s7,44(sp)
 3165 0018 62D4     		sw	s8,40(sp)
 3166 001a 66D2     		sw	s9,36(sp)
 3167 001c 6AD0     		sw	s10,32(sp)
 3168 001e 6ECE     		sw	s11,28(sp)
 3169              		.cfi_offset 18, -16
 3170              		.cfi_offset 19, -20
 3171              		.cfi_offset 20, -24
 3172              		.cfi_offset 21, -28
 3173              		.cfi_offset 22, -32
 3174              		.cfi_offset 1, -4
 3175              		.cfi_offset 8, -8
 3176              		.cfi_offset 9, -12
 3177              		.cfi_offset 23, -36
 3178              		.cfi_offset 24, -40
 3179              		.cfi_offset 25, -44
 3180              		.cfi_offset 26, -48
 3181              		.cfi_offset 27, -52
 469:lib/lcd/src/lcd.c **** 	while(a<=b)
 3182              		.loc 1 469 7
 3183 0020 3289     		mv	s2,a2
 3184              	.LVL376:
 470:lib/lcd/src/lcd.c **** 	{
 3185              		.loc 1 470 2 is_stmt 1
 481:lib/lcd/src/lcd.c **** 		{
GAS LISTING C:\Users\Kalle\AppData\Local\Temp\cc2hNkGN.s 			page 80


 3186              		.loc 1 481 18 is_stmt 0
 3187 0022 3EC6     		sw	a5,12(sp)
 466:lib/lcd/src/lcd.c **** 	int a,b;
 3188              		.loc 1 466 1
 3189 0024 2A8B     		mv	s6,a0
 3190 0026 AE8A     		mv	s5,a1
 3191 0028 368A     		mv	s4,a3
 469:lib/lcd/src/lcd.c **** 	while(a<=b)
 3192              		.loc 1 469 3
 3193 002a 8149     		li	s3,0
 3194              	.LVL377:
 3195              	.L128:
 472:lib/lcd/src/lcd.c **** 		LCD_DrawPoint(x0+b,y0-a,color);  //0           
 3196              		.loc 1 472 3 is_stmt 1
 3197 002c 33843A41 		sub	s0,s5,s3
 3198 0030 330C2B41 		sub	s8,s6,s2
 3199              	.LVL378:
 3200              	.LBB398:
 3201              	.LBB399:
 369:lib/lcd/src/lcd.c **** 	LCD_WR_DATA(color);
 3202              		.loc 1 369 2
 3203 0034 A286     		mv	a3,s0
 3204 0036 A285     		mv	a1,s0
 3205 0038 6286     		mv	a2,s8
 3206 003a 6285     		mv	a0,s8
 3207 003c 97000000 		call	LCD_Address_Set
 3207      E7800000 
 3208              	.LVL379:
 370:lib/lcd/src/lcd.c **** } 
 3209              		.loc 1 370 2
 3210 0044 5285     		mv	a0,s4
 3211 0046 97000000 		call	LCD_WR_DATA
 3211      E7800000 
 3212              	.LVL380:
 3213              	.LBE399:
 3214              	.LBE398:
 473:lib/lcd/src/lcd.c **** 		LCD_DrawPoint(x0-a,y0+b,color);  //1                
 3215              		.loc 1 473 3
 3216 004e B30B6901 		add	s7,s2,s6
 3217              	.LVL381:
 3218              	.LBB400:
 3219              	.LBB401:
 369:lib/lcd/src/lcd.c **** 	LCD_WR_DATA(color);
 3220              		.loc 1 369 2
 3221 0052 A286     		mv	a3,s0
 3222 0054 A285     		mv	a1,s0
 3223 0056 5E86     		mv	a2,s7
 3224 0058 5E85     		mv	a0,s7
 3225 005a 97000000 		call	LCD_Address_Set
 3225      E7800000 
 3226              	.LVL382:
 370:lib/lcd/src/lcd.c **** } 
 3227              		.loc 1 370 2
 3228 0062 5285     		mv	a0,s4
 3229 0064 97000000 		call	LCD_WR_DATA
 3229      E7800000 
 3230              	.LVL383:
GAS LISTING C:\Users\Kalle\AppData\Local\Temp\cc2hNkGN.s 			page 81


 3231              	.LBE401:
 3232              	.LBE400:
 474:lib/lcd/src/lcd.c **** 		LCD_DrawPoint(x0-a,y0-b,color);  //2             
 3233              		.loc 1 474 3
 3234 006c B3043B41 		sub	s1,s6,s3
 3235 0070 B30C5901 		add	s9,s2,s5
 3236              	.LVL384:
 3237              	.LBB402:
 3238              	.LBB403:
 369:lib/lcd/src/lcd.c **** 	LCD_WR_DATA(color);
 3239              		.loc 1 369 2
 3240 0074 2686     		mv	a2,s1
 3241 0076 E686     		mv	a3,s9
 3242 0078 E685     		mv	a1,s9
 3243 007a 2685     		mv	a0,s1
 3244 007c 97000000 		call	LCD_Address_Set
 3244      E7800000 
 3245              	.LVL385:
 370:lib/lcd/src/lcd.c **** } 
 3246              		.loc 1 370 2
 3247 0084 5285     		mv	a0,s4
 3248 0086 97000000 		call	LCD_WR_DATA
 3248      E7800000 
 3249              	.LVL386:
 3250              	.LBE403:
 3251              	.LBE402:
 475:lib/lcd/src/lcd.c **** 		LCD_DrawPoint(x0+b,y0+a,color);  //4               
 3252              		.loc 1 475 3
 3253 008e B38D2A41 		sub	s11,s5,s2
 3254              	.LVL387:
 3255              	.LBB404:
 3256              	.LBB405:
 369:lib/lcd/src/lcd.c **** 	LCD_WR_DATA(color);
 3257              		.loc 1 369 2
 3258 0092 2686     		mv	a2,s1
 3259 0094 EE86     		mv	a3,s11
 3260 0096 EE85     		mv	a1,s11
 3261 0098 2685     		mv	a0,s1
 3262 009a 97000000 		call	LCD_Address_Set
 3262      E7800000 
 3263              	.LVL388:
 370:lib/lcd/src/lcd.c **** } 
 3264              		.loc 1 370 2
 3265 00a2 139D1900 		slli	s10,s3,1
 3266 00a6 5285     		mv	a0,s4
 3267 00a8 97000000 		call	LCD_WR_DATA
 3267      E7800000 
 3268              	.LVL389:
 3269              	.LBE405:
 3270              	.LBE404:
 476:lib/lcd/src/lcd.c **** 		LCD_DrawPoint(x0+a,y0-b,color);  //5
 3271              		.loc 1 476 3
 3272 00b0 6A94     		add	s0,s0,s10
 3273              	.LVL390:
 3274              	.LBB406:
 3275              	.LBB407:
 369:lib/lcd/src/lcd.c **** 	LCD_WR_DATA(color);
GAS LISTING C:\Users\Kalle\AppData\Local\Temp\cc2hNkGN.s 			page 82


 3276              		.loc 1 369 2
 3277 00b2 A286     		mv	a3,s0
 3278 00b4 5E86     		mv	a2,s7
 3279 00b6 A285     		mv	a1,s0
 3280 00b8 5E85     		mv	a0,s7
 3281 00ba 97000000 		call	LCD_Address_Set
 3281      E7800000 
 3282              	.LVL391:
 370:lib/lcd/src/lcd.c **** } 
 3283              		.loc 1 370 2
 3284 00c2 5285     		mv	a0,s4
 3285 00c4 97000000 		call	LCD_WR_DATA
 3285      E7800000 
 3286              	.LVL392:
 3287              	.LBE407:
 3288              	.LBE406:
 477:lib/lcd/src/lcd.c **** 		LCD_DrawPoint(x0+a,y0+b,color);             //6 
 3289              		.loc 1 477 3
 3290 00cc EA94     		add	s1,s1,s10
 3291              	.LVL393:
 3292              	.LBB408:
 3293              	.LBB409:
 369:lib/lcd/src/lcd.c **** 	LCD_WR_DATA(color);
 3294              		.loc 1 369 2
 3295 00ce EE86     		mv	a3,s11
 3296 00d0 2686     		mv	a2,s1
 3297 00d2 EE85     		mv	a1,s11
 3298 00d4 2685     		mv	a0,s1
 3299 00d6 97000000 		call	LCD_Address_Set
 3299      E7800000 
 3300              	.LVL394:
 370:lib/lcd/src/lcd.c **** } 
 3301              		.loc 1 370 2
 3302 00de 5285     		mv	a0,s4
 3303 00e0 97000000 		call	LCD_WR_DATA
 3303      E7800000 
 3304              	.LVL395:
 3305              	.LBE409:
 3306              	.LBE408:
 478:lib/lcd/src/lcd.c **** 		LCD_DrawPoint(x0-b,y0+a,color);             //7
 3307              		.loc 1 478 3
 3308              	.LBB410:
 3309              	.LBB411:
 369:lib/lcd/src/lcd.c **** 	LCD_WR_DATA(color);
 3310              		.loc 1 369 2
 3311 00e8 E686     		mv	a3,s9
 3312 00ea 2686     		mv	a2,s1
 3313 00ec E685     		mv	a1,s9
 3314 00ee 2685     		mv	a0,s1
 3315 00f0 97000000 		call	LCD_Address_Set
 3315      E7800000 
 3316              	.LVL396:
 370:lib/lcd/src/lcd.c **** } 
 3317              		.loc 1 370 2
 3318 00f8 5285     		mv	a0,s4
 3319 00fa 97000000 		call	LCD_WR_DATA
 3319      E7800000 
GAS LISTING C:\Users\Kalle\AppData\Local\Temp\cc2hNkGN.s 			page 83


 3320              	.LVL397:
 3321              	.LBE411:
 3322              	.LBE410:
 479:lib/lcd/src/lcd.c **** 		a++;
 3323              		.loc 1 479 3
 3324              	.LBB412:
 3325              	.LBB413:
 369:lib/lcd/src/lcd.c **** 	LCD_WR_DATA(color);
 3326              		.loc 1 369 2
 3327 0102 A286     		mv	a3,s0
 3328 0104 6286     		mv	a2,s8
 3329 0106 A285     		mv	a1,s0
 3330 0108 6285     		mv	a0,s8
 3331 010a 97000000 		call	LCD_Address_Set
 3331      E7800000 
 3332              	.LVL398:
 370:lib/lcd/src/lcd.c **** } 
 3333              		.loc 1 370 2
 3334 0112 5285     		mv	a0,s4
 3335 0114 97000000 		call	LCD_WR_DATA
 3335      E7800000 
 3336              	.LVL399:
 3337              	.LBE413:
 3338              	.LBE412:
 480:lib/lcd/src/lcd.c **** 		if((a*a+b*b)>(r*r)) // Determine whether the points to be drawn are too far away
 3339              		.loc 1 480 3
 480:lib/lcd/src/lcd.c **** 		if((a*a+b*b)>(r*r)) // Determine whether the points to be drawn are too far away
 3340              		.loc 1 480 4 is_stmt 0
 3341 011c 8509     		addi	s3,s3,1
 3342              	.LVL400:
 481:lib/lcd/src/lcd.c **** 		{
 3343              		.loc 1 481 3 is_stmt 1
 481:lib/lcd/src/lcd.c **** 		{
 3344              		.loc 1 481 12 is_stmt 0
 3345 011e 33072903 		mul	a4,s2,s2
 481:lib/lcd/src/lcd.c **** 		{
 3346              		.loc 1 481 8
 3347 0122 B3873903 		mul	a5,s3,s3
 481:lib/lcd/src/lcd.c **** 		{
 3348              		.loc 1 481 10
 3349 0126 BA97     		add	a5,a5,a4
 483:lib/lcd/src/lcd.c **** 		}
 3350              		.loc 1 483 5
 3351 0128 3247     		lw	a4,12(sp)
 3352 012a B327F700 		sgt	a5,a5,a4
 3353 012e 3309F940 		sub	s2,s2,a5
 3354              	.LVL401:
 470:lib/lcd/src/lcd.c **** 	{
 3355              		.loc 1 470 7
 3356 0132 E35D39EF 		bge	s2,s3,.L128
 486:lib/lcd/src/lcd.c **** 
 3357              		.loc 1 486 1
 3358 0136 B640     		lw	ra,76(sp)
 3359              		.cfi_restore 1
 3360 0138 2644     		lw	s0,72(sp)
 3361              		.cfi_restore 8
 3362 013a 9644     		lw	s1,68(sp)
GAS LISTING C:\Users\Kalle\AppData\Local\Temp\cc2hNkGN.s 			page 84


 3363              		.cfi_restore 9
 3364 013c 0649     		lw	s2,64(sp)
 3365              		.cfi_restore 18
 3366              	.LVL402:
 3367 013e F259     		lw	s3,60(sp)
 3368              		.cfi_restore 19
 3369              	.LVL403:
 3370 0140 625A     		lw	s4,56(sp)
 3371              		.cfi_restore 20
 3372              	.LVL404:
 3373 0142 D25A     		lw	s5,52(sp)
 3374              		.cfi_restore 21
 3375              	.LVL405:
 3376 0144 425B     		lw	s6,48(sp)
 3377              		.cfi_restore 22
 3378              	.LVL406:
 3379 0146 B25B     		lw	s7,44(sp)
 3380              		.cfi_restore 23
 3381 0148 225C     		lw	s8,40(sp)
 3382              		.cfi_restore 24
 3383 014a 925C     		lw	s9,36(sp)
 3384              		.cfi_restore 25
 3385 014c 025D     		lw	s10,32(sp)
 3386              		.cfi_restore 26
 3387 014e F24D     		lw	s11,28(sp)
 3388              		.cfi_restore 27
 3389 0150 6161     		addi	sp,sp,80
 3390              	.LCFI46:
 3391              		.cfi_def_cfa_offset 0
 3392 0152 8280     		jr	ra
 3393              		.cfi_endproc
 3394              	.LFE21:
 3396              		.section	.text.LCD_ShowChar,"ax",@progbits
 3397              		.align	1
 3398              		.globl	LCD_ShowChar
 3400              	LCD_ShowChar:
 3401              	.LFB22:
 498:lib/lcd/src/lcd.c ****     u8 temp;
 3402              		.loc 1 498 1 is_stmt 1
 3403              		.cfi_startproc
 3404              	.LVL407:
 499:lib/lcd/src/lcd.c ****     u8 pos,t;
 3405              		.loc 1 499 5
 500:lib/lcd/src/lcd.c **** 	  u16 x0=x;    
 3406              		.loc 1 500 5
 501:lib/lcd/src/lcd.c ****     if(x>LCD_W-8 || y>LCD_H-16)return;	// Outside of display area
 3407              		.loc 1 501 4
 502:lib/lcd/src/lcd.c **** 	num=num-' ';                        // Get offset value
 3408              		.loc 1 502 5
 502:lib/lcd/src/lcd.c **** 	num=num-' ';                        // Get offset value
 3409              		.loc 1 502 7 is_stmt 0
 3410 0000 93078009 		li	a5,152
 3411 0004 63E6A700 		bgtu	a0,a5,.L131
 502:lib/lcd/src/lcd.c **** 	num=num-' ';                        // Get offset value
 3412              		.loc 1 502 18 discriminator 2
 3413 0008 93070004 		li	a5,64
 3414 000c 63F3B700 		bleu	a1,a5,.L133
GAS LISTING C:\Users\Kalle\AppData\Local\Temp\cc2hNkGN.s 			page 85


 3415              	.L131:
 3416              		.loc 1 534 1
 3417 0010 8280     		ret
 3418              	.L133:
 3419 0012 17030000 		tail	LCD_ShowChar.part.2
 3419      67000300 
 3420              	.LVL408:
 3421              		.cfi_endproc
 3422              	.LFE22:
 3424              		.section	.text.LCD_ShowString,"ax",@progbits
 3425              		.align	1
 3426              		.globl	LCD_ShowString
 3428              	LCD_ShowString:
 3429              	.LFB23:
 535:lib/lcd/src/lcd.c **** 
 536:lib/lcd/src/lcd.c **** 
 537:lib/lcd/src/lcd.c **** /*
 538:lib/lcd/src/lcd.c ****   Function description: display string
 539:lib/lcd/src/lcd.c ****   Entry data: x, y:  start point coordinates
 540:lib/lcd/src/lcd.c ****                 *p:  string start address
 541:lib/lcd/src/lcd.c ****   Return value: None
 542:lib/lcd/src/lcd.c ****   Note: If character position is outside the display area
 543:lib/lcd/src/lcd.c ****         display is cleared in red color and the character
 544:lib/lcd/src/lcd.c **** 		position is set to (0,0)
 545:lib/lcd/src/lcd.c **** */
 546:lib/lcd/src/lcd.c **** void LCD_ShowString(u16 x,u16 y,const u8 *p,u16 color)
 547:lib/lcd/src/lcd.c **** {         
 3430              		.loc 1 547 1 is_stmt 1
 3431              		.cfi_startproc
 3432              	.LVL409:
 548:lib/lcd/src/lcd.c ****     while(*p!='\0')
 3433              		.loc 1 548 5
 3434              		.loc 1 548 10 is_stmt 0
 3435 0000 83470600 		lbu	a5,0(a2)
 3436 0004 C9C7     		beq	a5,zero,.L144
 547:lib/lcd/src/lcd.c ****     while(*p!='\0')
 3437              		.loc 1 547 1
 3438 0006 0111     		addi	sp,sp,-32
 3439              	.LCFI47:
 3440              		.cfi_def_cfa_offset 32
 3441 0008 5AC0     		sw	s6,0(sp)
 3442              		.cfi_offset 22, -32
 549:lib/lcd/src/lcd.c ****     {       
 550:lib/lcd/src/lcd.c ****         if(x>LCD_W-8){x=0;y+=16;}
 551:lib/lcd/src/lcd.c ****         if(y>LCD_H-16){y=x=0;LCD_Clear(RED);}
 3443              		.loc 1 551 30
 3444 000a 416B     		li	s6,65536
 547:lib/lcd/src/lcd.c ****     while(*p!='\0')
 3445              		.loc 1 547 1
 3446 000c 22CC     		sw	s0,24(sp)
 3447 000e 26CA     		sw	s1,20(sp)
 3448 0010 4AC8     		sw	s2,16(sp)
 3449 0012 4EC6     		sw	s3,12(sp)
 3450 0014 52C4     		sw	s4,8(sp)
 3451 0016 56C2     		sw	s5,4(sp)
 3452 0018 06CE     		sw	ra,28(sp)
 3453              		.cfi_offset 8, -8
GAS LISTING C:\Users\Kalle\AppData\Local\Temp\cc2hNkGN.s 			page 86


 3454              		.cfi_offset 9, -12
 3455              		.cfi_offset 18, -16
 3456              		.cfi_offset 19, -20
 3457              		.cfi_offset 20, -24
 3458              		.cfi_offset 21, -28
 3459              		.cfi_offset 1, -4
 3460 001a 3284     		mv	s0,a2
 3461 001c 2A89     		mv	s2,a0
 3462 001e AE84     		mv	s1,a1
 3463 0020 B689     		mv	s3,a3
 550:lib/lcd/src/lcd.c ****         if(y>LCD_H-16){y=x=0;LCD_Clear(RED);}
 3464              		.loc 1 550 11
 3465 0022 930A8009 		li	s5,152
 3466              		.loc 1 551 30
 3467 0026 130B0B80 		addi	s6,s6,-2048
 3468              		.loc 1 551 11
 3469 002a 130A0004 		li	s4,64
 3470              	.LVL410:
 3471              	.L135:
 550:lib/lcd/src/lcd.c ****         if(y>LCD_H-16){y=x=0;LCD_Clear(RED);}
 3472              		.loc 1 550 9 is_stmt 1
 550:lib/lcd/src/lcd.c ****         if(y>LCD_H-16){y=x=0;LCD_Clear(RED);}
 3473              		.loc 1 550 23
 550:lib/lcd/src/lcd.c ****         if(y>LCD_H-16){y=x=0;LCD_Clear(RED);}
 3474              		.loc 1 550 27
 3475              		.loc 1 551 9
 550:lib/lcd/src/lcd.c ****         if(y>LCD_H-16){y=x=0;LCD_Clear(RED);}
 3476              		.loc 1 550 11 is_stmt 0
 3477 002e 63FE2A03 		bleu	s2,s5,.L136
 550:lib/lcd/src/lcd.c ****         if(y>LCD_H-16){y=x=0;LCD_Clear(RED);}
 3478              		.loc 1 550 28 discriminator 1
 3479 0032 C104     		addi	s1,s1,16
 3480              	.LVL411:
 3481              		.loc 1 551 9 is_stmt 1 discriminator 1
 552:lib/lcd/src/lcd.c ****         LCD_ShowChar(x,y,*p,0,color);
 3482              		.loc 1 552 9 discriminator 1
 551:lib/lcd/src/lcd.c ****         LCD_ShowChar(x,y,*p,0,color);
 3483              		.loc 1 551 11 is_stmt 0 discriminator 1
 3484 0034 63629A04 		bgtu	s1,s4,.L137
 3485              		.loc 1 552 9
 3486 0038 03460400 		lbu	a2,0(s0)
 3487              	.LVL412:
 3488              	.LBB414:
 3489              	.LBB415:
 499:lib/lcd/src/lcd.c ****     u8 pos,t;
 3490              		.loc 1 499 5 is_stmt 1
 500:lib/lcd/src/lcd.c **** 	  u16 x0=x;    
 3491              		.loc 1 500 5
 501:lib/lcd/src/lcd.c ****     if(x>LCD_W-8 || y>LCD_H-16)return;	// Outside of display area
 3492              		.loc 1 501 4
 502:lib/lcd/src/lcd.c **** 	num=num-' ';                        // Get offset value
 3493              		.loc 1 502 5
 3494              	.LBE415:
 3495              	.LBE414:
 3496              		.loc 1 552 9 is_stmt 0
 3497 003c 2149     		li	s2,8
 550:lib/lcd/src/lcd.c ****         if(y>LCD_H-16){y=x=0;LCD_Clear(RED);}
GAS LISTING C:\Users\Kalle\AppData\Local\Temp\cc2hNkGN.s 			page 87


 3498              		.loc 1 550 24
 3499 003e 0145     		li	a0,0
 3500              	.LVL413:
 3501              	.L138:
 3502              	.LBB420:
 3503              	.LBB416:
 3504 0040 4E87     		mv	a4,s3
 3505 0042 8146     		li	a3,0
 3506 0044 A685     		mv	a1,s1
 3507              	.LBE416:
 3508              	.LBE420:
 553:lib/lcd/src/lcd.c ****         x+=8;
 554:lib/lcd/src/lcd.c ****         p++;
 3509              		.loc 1 554 10
 3510 0046 0504     		addi	s0,s0,1
 3511              	.LVL414:
 3512              	.LBB421:
 3513              	.LBB417:
 3514 0048 97000000 		call	LCD_ShowChar.part.2
 3514      E7800000 
 3515              	.LVL415:
 3516              	.LBE417:
 3517              	.LBE421:
 553:lib/lcd/src/lcd.c ****         x+=8;
 3518              		.loc 1 553 9 is_stmt 1
 3519              		.loc 1 554 9
 548:lib/lcd/src/lcd.c ****     {       
 3520              		.loc 1 548 10 is_stmt 0
 3521 0050 83470400 		lbu	a5,0(s0)
 3522 0054 E9FF     		bne	a5,zero,.L135
 555:lib/lcd/src/lcd.c ****     }  
 556:lib/lcd/src/lcd.c **** }
 3523              		.loc 1 556 1
 3524 0056 F240     		lw	ra,28(sp)
 3525              		.cfi_remember_state
 3526              		.cfi_restore 1
 3527 0058 6244     		lw	s0,24(sp)
 3528              		.cfi_restore 8
 3529              	.LVL416:
 3530 005a D244     		lw	s1,20(sp)
 3531              		.cfi_restore 9
 3532              	.LVL417:
 3533 005c 4249     		lw	s2,16(sp)
 3534              		.cfi_restore 18
 3535 005e B249     		lw	s3,12(sp)
 3536              		.cfi_restore 19
 3537              	.LVL418:
 3538 0060 224A     		lw	s4,8(sp)
 3539              		.cfi_restore 20
 3540 0062 924A     		lw	s5,4(sp)
 3541              		.cfi_restore 21
 3542 0064 024B     		lw	s6,0(sp)
 3543              		.cfi_restore 22
 3544 0066 0561     		addi	sp,sp,32
 3545              	.LCFI48:
 3546              		.cfi_def_cfa_offset 0
 3547 0068 8280     		jr	ra
GAS LISTING C:\Users\Kalle\AppData\Local\Temp\cc2hNkGN.s 			page 88


 3548              	.LVL419:
 3549              	.L136:
 3550              	.LCFI49:
 3551              		.cfi_restore_state
 552:lib/lcd/src/lcd.c ****         x+=8;
 3552              		.loc 1 552 9 is_stmt 1
 551:lib/lcd/src/lcd.c ****         LCD_ShowChar(x,y,*p,0,color);
 3553              		.loc 1 551 11 is_stmt 0
 3554 006a 63679A00 		bgtu	s1,s4,.L137
 552:lib/lcd/src/lcd.c ****         x+=8;
 3555              		.loc 1 552 9
 3556 006e 4A85     		mv	a0,s2
 3557 0070 03460400 		lbu	a2,0(s0)
 3558              	.LVL420:
 3559              	.LBB422:
 3560              	.LBB418:
 499:lib/lcd/src/lcd.c ****     u8 pos,t;
 3561              		.loc 1 499 5 is_stmt 1
 500:lib/lcd/src/lcd.c **** 	  u16 x0=x;    
 3562              		.loc 1 500 5
 501:lib/lcd/src/lcd.c ****     if(x>LCD_W-8 || y>LCD_H-16)return;	// Outside of display area
 3563              		.loc 1 501 4
 502:lib/lcd/src/lcd.c **** 	num=num-' ';                        // Get offset value
 3564              		.loc 1 502 5
 3565              	.LBE418:
 3566              	.LBE422:
 552:lib/lcd/src/lcd.c ****         x+=8;
 3567              		.loc 1 552 9 is_stmt 0
 3568 0074 2109     		addi	s2,s2,8
 3569              	.LVL421:
 3570 0076 E9B7     		j	.L138
 3571              	.LVL422:
 3572              	.L137:
 551:lib/lcd/src/lcd.c ****         LCD_ShowChar(x,y,*p,0,color);
 3573              		.loc 1 551 24 is_stmt 1 discriminator 1
 551:lib/lcd/src/lcd.c ****         LCD_ShowChar(x,y,*p,0,color);
 3574              		.loc 1 551 30 discriminator 1
 3575 0078 5A85     		mv	a0,s6
 3576 007a 97000000 		call	LCD_Clear
 3576      E7800000 
 3577              	.LVL423:
 552:lib/lcd/src/lcd.c ****         x+=8;
 3578              		.loc 1 552 9 discriminator 1
 3579 0082 2149     		li	s2,8
 3580 0084 03460400 		lbu	a2,0(s0)
 3581              	.LVL424:
 3582              	.LBB423:
 3583              	.LBB419:
 499:lib/lcd/src/lcd.c ****     u8 pos,t;
 3584              		.loc 1 499 5 discriminator 1
 500:lib/lcd/src/lcd.c **** 	  u16 x0=x;    
 3585              		.loc 1 500 5 discriminator 1
 501:lib/lcd/src/lcd.c ****     if(x>LCD_W-8 || y>LCD_H-16)return;	// Outside of display area
 3586              		.loc 1 501 4 discriminator 1
 502:lib/lcd/src/lcd.c **** 	num=num-' ';                        // Get offset value
 3587              		.loc 1 502 5 discriminator 1
 3588              	.LBE419:
GAS LISTING C:\Users\Kalle\AppData\Local\Temp\cc2hNkGN.s 			page 89


 3589              	.LBE423:
 551:lib/lcd/src/lcd.c ****         LCD_ShowChar(x,y,*p,0,color);
 3590              		.loc 1 551 25 is_stmt 0 discriminator 1
 3591 0088 8144     		li	s1,0
 552:lib/lcd/src/lcd.c ****         x+=8;
 3592              		.loc 1 552 9 discriminator 1
 3593 008a 0145     		li	a0,0
 3594 008c 55BF     		j	.L138
 3595              	.LVL425:
 3596              	.L144:
 3597              	.LCFI50:
 3598              		.cfi_def_cfa_offset 0
 3599              		.cfi_restore 1
 3600              		.cfi_restore 8
 3601              		.cfi_restore 9
 3602              		.cfi_restore 18
 3603              		.cfi_restore 19
 3604              		.cfi_restore 20
 3605              		.cfi_restore 21
 3606              		.cfi_restore 22
 3607 008e 8280     		ret
 3608              		.cfi_endproc
 3609              	.LFE23:
 3611              		.section	.text.LCD_ShowStr,"ax",@progbits
 3612              		.align	1
 3613              		.globl	LCD_ShowStr
 3615              	LCD_ShowStr:
 3616              	.LFB24:
 557:lib/lcd/src/lcd.c **** 
 558:lib/lcd/src/lcd.c **** 
 559:lib/lcd/src/lcd.c **** /*
 560:lib/lcd/src/lcd.c ****   Function description: display string
 561:lib/lcd/src/lcd.c ****   Entry data: x, y:  start point coordinates
 562:lib/lcd/src/lcd.c ****                 *p:  string start address
 563:lib/lcd/src/lcd.c ****               mode:  1: transparent mode
 564:lib/lcd/src/lcd.c ****                      0: non-transparent mode
 565:lib/lcd/src/lcd.c ****   Return value: None
 566:lib/lcd/src/lcd.c ****   Note: If character position is outside the display area
 567:lib/lcd/src/lcd.c ****         the character is not displayed
 568:lib/lcd/src/lcd.c **** */
 569:lib/lcd/src/lcd.c **** void LCD_ShowStr(u16 x,u16 y,const u8 *p,u16 color, u8 mode)
 570:lib/lcd/src/lcd.c **** {         
 3617              		.loc 1 570 1 is_stmt 1
 3618              		.cfi_startproc
 3619              	.LVL426:
 571:lib/lcd/src/lcd.c ****     while(*p!='\0')
 3620              		.loc 1 571 5
 570:lib/lcd/src/lcd.c ****     while(*p!='\0')
 3621              		.loc 1 570 1 is_stmt 0
 3622 0000 0111     		addi	sp,sp,-32
 3623              	.LCFI51:
 3624              		.cfi_def_cfa_offset 32
 3625 0002 22CC     		sw	s0,24(sp)
 3626 0004 06CE     		sw	ra,28(sp)
 3627 0006 26CA     		sw	s1,20(sp)
 3628 0008 4AC8     		sw	s2,16(sp)
 3629 000a 4EC6     		sw	s3,12(sp)
GAS LISTING C:\Users\Kalle\AppData\Local\Temp\cc2hNkGN.s 			page 90


 3630 000c 52C4     		sw	s4,8(sp)
 3631 000e 56C2     		sw	s5,4(sp)
 3632 0010 5AC0     		sw	s6,0(sp)
 3633              		.cfi_offset 8, -8
 3634              		.cfi_offset 1, -4
 3635              		.cfi_offset 9, -12
 3636              		.cfi_offset 18, -16
 3637              		.cfi_offset 19, -20
 3638              		.cfi_offset 20, -24
 3639              		.cfi_offset 21, -28
 3640              		.cfi_offset 22, -32
 570:lib/lcd/src/lcd.c ****     while(*p!='\0')
 3641              		.loc 1 570 1
 3642 0012 3284     		mv	s0,a2
 3643              		.loc 1 571 11
 3644 0014 03460600 		lbu	a2,0(a2)
 3645              	.LVL427:
 3646              		.loc 1 571 10
 3647 0018 1DCA     		beq	a2,zero,.L147
 3648 001a 2A89     		mv	s2,a0
 3649 001c AE84     		mv	s1,a1
 3650 001e 368B     		mv	s6,a3
 3651 0020 BA8A     		mv	s5,a4
 3652 0022 93098009 		li	s3,152
 3653 0026 130A0004 		li	s4,64
 3654              	.LVL428:
 3655              	.L148:
 572:lib/lcd/src/lcd.c ****     {       
 573:lib/lcd/src/lcd.c ****         if(x>LCD_W-8){x=0;y+=16;}
 3656              		.loc 1 573 9 is_stmt 1
 3657              		.loc 1 573 23
 3658              		.loc 1 573 27
 574:lib/lcd/src/lcd.c ****         if(y>LCD_H-16) break;
 3659              		.loc 1 574 9
 573:lib/lcd/src/lcd.c ****         if(y>LCD_H-16) break;
 3660              		.loc 1 573 11 is_stmt 0
 3661 002a 63FC2903 		bleu	s2,s3,.L149
 573:lib/lcd/src/lcd.c ****         if(y>LCD_H-16) break;
 3662              		.loc 1 573 28 discriminator 1
 3663 002e C104     		addi	s1,s1,16
 3664              	.LVL429:
 3665              		.loc 1 574 9 is_stmt 1 discriminator 1
 3666              		.loc 1 574 11 is_stmt 0 discriminator 1
 3667 0030 636F9A00 		bgtu	s1,s4,.L147
 3668              		.loc 1 574 11
 3669 0034 2149     		li	s2,8
 573:lib/lcd/src/lcd.c ****         if(y>LCD_H-16) break;
 3670              		.loc 1 573 24
 3671 0036 0145     		li	a0,0
 3672              	.LVL430:
 3673              	.L151:
 3674              	.LBB424:
 3675              	.LBB425:
 3676 0038 5A87     		mv	a4,s6
 3677 003a D686     		mv	a3,s5
 3678 003c A685     		mv	a1,s1
 3679              	.LBE425:
GAS LISTING C:\Users\Kalle\AppData\Local\Temp\cc2hNkGN.s 			page 91


 3680              	.LBE424:
 575:lib/lcd/src/lcd.c ****         LCD_ShowChar(x,y,*p,mode,color);
 576:lib/lcd/src/lcd.c ****         x+=8;
 577:lib/lcd/src/lcd.c ****         p++;
 3681              		.loc 1 577 10
 3682 003e 0504     		addi	s0,s0,1
 3683              	.LVL431:
 3684              	.LBB427:
 3685              	.LBB426:
 3686 0040 97000000 		call	LCD_ShowChar.part.2
 3686      E7800000 
 3687              	.LVL432:
 3688              	.LBE426:
 3689              	.LBE427:
 576:lib/lcd/src/lcd.c ****         p++;
 3690              		.loc 1 576 9 is_stmt 1
 3691              		.loc 1 577 9
 571:lib/lcd/src/lcd.c ****     {       
 3692              		.loc 1 571 11 is_stmt 0
 3693 0048 03460400 		lbu	a2,0(s0)
 571:lib/lcd/src/lcd.c ****     {       
 3694              		.loc 1 571 10
 3695 004c 79FE     		bne	a2,zero,.L148
 3696              	.LVL433:
 3697              	.L147:
 578:lib/lcd/src/lcd.c ****     }  
 579:lib/lcd/src/lcd.c **** }
 3698              		.loc 1 579 1
 3699 004e F240     		lw	ra,28(sp)
 3700              		.cfi_remember_state
 3701              		.cfi_restore 1
 3702 0050 6244     		lw	s0,24(sp)
 3703              		.cfi_restore 8
 3704              	.LVL434:
 3705 0052 D244     		lw	s1,20(sp)
 3706              		.cfi_restore 9
 3707 0054 4249     		lw	s2,16(sp)
 3708              		.cfi_restore 18
 3709 0056 B249     		lw	s3,12(sp)
 3710              		.cfi_restore 19
 3711 0058 224A     		lw	s4,8(sp)
 3712              		.cfi_restore 20
 3713 005a 924A     		lw	s5,4(sp)
 3714              		.cfi_restore 21
 3715 005c 024B     		lw	s6,0(sp)
 3716              		.cfi_restore 22
 3717 005e 0561     		addi	sp,sp,32
 3718              	.LCFI52:
 3719              		.cfi_def_cfa_offset 0
 3720 0060 8280     		jr	ra
 3721              	.LVL435:
 3722              	.L149:
 3723              	.LCFI53:
 3724              		.cfi_restore_state
 574:lib/lcd/src/lcd.c ****         LCD_ShowChar(x,y,*p,mode,color);
 3725              		.loc 1 574 11
 3726 0062 E3669AFE 		bgtu	s1,s4,.L147
GAS LISTING C:\Users\Kalle\AppData\Local\Temp\cc2hNkGN.s 			page 92


 3727 0066 4A85     		mv	a0,s2
 3728 0068 2109     		addi	s2,s2,8
 3729              	.LVL436:
 3730 006a F9B7     		j	.L151
 3731              		.cfi_endproc
 3732              	.LFE24:
 3734              		.section	.text.mypow,"ax",@progbits
 3735              		.align	1
 3736              		.globl	mypow
 3738              	mypow:
 3739              	.LFB25:
 580:lib/lcd/src/lcd.c **** 
 581:lib/lcd/src/lcd.c **** 
 582:lib/lcd/src/lcd.c **** /*
 583:lib/lcd/src/lcd.c ****   Function description: Calculate m^n
 584:lib/lcd/src/lcd.c ****   Entry data: m: base
 585:lib/lcd/src/lcd.c ****               n: exponent
 586:lib/lcd/src/lcd.c ****   Return value: m^n
 587:lib/lcd/src/lcd.c **** */
 588:lib/lcd/src/lcd.c **** u32 mypow(u8 m,u8 n)
 589:lib/lcd/src/lcd.c **** {
 3740              		.loc 1 589 1 is_stmt 1
 3741              		.cfi_startproc
 3742              	.LVL437:
 590:lib/lcd/src/lcd.c **** 	u32 result=1;	 
 3743              		.loc 1 590 2
 591:lib/lcd/src/lcd.c **** 	while(n--)result*=m;    
 3744              		.loc 1 591 2
 3745              		.loc 1 591 9 is_stmt 0
 3746 0000 9387F5FF 		addi	a5,a1,-1
 3747 0004 93F7F70F 		andi	a5,a5,0xff
 3748              	.LVL438:
 590:lib/lcd/src/lcd.c **** 	u32 result=1;	 
 3749              		.loc 1 590 6
 3750 0008 0547     		li	a4,1
 3751              		.loc 1 591 7
 3752 000a 91C9     		beq	a1,zero,.L155
 3753 000c 9306F00F 		li	a3,255
 3754              	.LVL439:
 3755              	.L157:
 3756              		.loc 1 591 12 is_stmt 1 discriminator 2
 3757              		.loc 1 591 9 is_stmt 0 discriminator 2
 3758 0010 FD17     		addi	a5,a5,-1
 3759              	.LVL440:
 3760 0012 93F7F70F 		andi	a5,a5,0xff
 3761              		.loc 1 591 18 discriminator 2
 3762 0016 3307A702 		mul	a4,a4,a0
 3763              	.LVL441:
 3764              		.loc 1 591 7 discriminator 2
 3765 001a E39BD7FE 		bne	a5,a3,.L157
 3766              	.LVL442:
 3767              	.L155:
 592:lib/lcd/src/lcd.c **** 	return result;
 593:lib/lcd/src/lcd.c **** }
 3768              		.loc 1 593 1
 3769 001e 3A85     		mv	a0,a4
 3770              	.LVL443:
GAS LISTING C:\Users\Kalle\AppData\Local\Temp\cc2hNkGN.s 			page 93


 3771 0020 8280     		ret
 3772              		.cfi_endproc
 3773              	.LFE25:
 3775              		.section	.text.LCD_ShowNum,"ax",@progbits
 3776              		.align	1
 3777              		.globl	LCD_ShowNum
 3779              	LCD_ShowNum:
 3780              	.LFB26:
 594:lib/lcd/src/lcd.c **** 
 595:lib/lcd/src/lcd.c **** 
 596:lib/lcd/src/lcd.c **** /*
 597:lib/lcd/src/lcd.c ****   Function description: display 16-bit integer numbers
 598:lib/lcd/src/lcd.c ****   Entry data: x, y:  start point coordinates
 599:lib/lcd/src/lcd.c ****                num:  number to display
 600:lib/lcd/src/lcd.c ****                len:  number of digits to display
 601:lib/lcd/src/lcd.c ****   Return value: None
 602:lib/lcd/src/lcd.c **** */
 603:lib/lcd/src/lcd.c **** void LCD_ShowNum(u16 x,u16 y,u16 num,u8 len,u16 color)
 604:lib/lcd/src/lcd.c **** {         	
 3781              		.loc 1 604 1 is_stmt 1
 3782              		.cfi_startproc
 3783              	.LVL444:
 605:lib/lcd/src/lcd.c **** 	u8 t,temp;
 3784              		.loc 1 605 2
 606:lib/lcd/src/lcd.c **** 	u8 enshow=0;
 3785              		.loc 1 606 2
 607:lib/lcd/src/lcd.c **** 	for(t=0;t<len;t++)
 3786              		.loc 1 607 2
 604:lib/lcd/src/lcd.c **** 	u8 t,temp;
 3787              		.loc 1 604 1 is_stmt 0
 3788 0000 5D71     		addi	sp,sp,-80
 3789              	.LCFI54:
 3790              		.cfi_def_cfa_offset 80
 3791 0002 86C6     		sw	ra,76(sp)
 3792 0004 A2C4     		sw	s0,72(sp)
 3793 0006 A6C2     		sw	s1,68(sp)
 3794 0008 CAC0     		sw	s2,64(sp)
 3795 000a 4EDE     		sw	s3,60(sp)
 3796 000c 52DC     		sw	s4,56(sp)
 3797 000e 56DA     		sw	s5,52(sp)
 3798 0010 5AD8     		sw	s6,48(sp)
 3799 0012 5ED6     		sw	s7,44(sp)
 3800 0014 62D4     		sw	s8,40(sp)
 3801 0016 66D2     		sw	s9,36(sp)
 3802 0018 6AD0     		sw	s10,32(sp)
 3803 001a 6ECE     		sw	s11,28(sp)
 3804              		.cfi_offset 1, -4
 3805              		.cfi_offset 8, -8
 3806              		.cfi_offset 9, -12
 3807              		.cfi_offset 18, -16
 3808              		.cfi_offset 19, -20
 3809              		.cfi_offset 20, -24
 3810              		.cfi_offset 21, -28
 3811              		.cfi_offset 22, -32
 3812              		.cfi_offset 23, -36
 3813              		.cfi_offset 24, -40
 3814              		.cfi_offset 25, -44
GAS LISTING C:\Users\Kalle\AppData\Local\Temp\cc2hNkGN.s 			page 94


 3815              		.cfi_offset 26, -48
 3816              		.cfi_offset 27, -52
 604:lib/lcd/src/lcd.c **** 	u8 t,temp;
 3817              		.loc 1 604 1
 3818 001c 3AC6     		sw	a4,12(sp)
 3819              		.loc 1 607 2
 3820 001e C9C2     		beq	a3,zero,.L160
 3821 0020 9384E6FF 		addi	s1,a3,-2
 3822 0024 2A8A     		mv	s4,a0
 3823 0026 AE8D     		mv	s11,a1
 3824 0028 B28C     		mv	s9,a2
 3825 002a 93F4F40F 		andi	s1,s1,0xff
 3826 002e 814A     		li	s5,0
 606:lib/lcd/src/lcd.c **** 	u8 enshow=0;
 3827              		.loc 1 606 5
 3828 0030 014B     		li	s6,0
 3829              	.LBB428:
 3830              	.LBB429:
 591:lib/lcd/src/lcd.c **** 	return result;
 3831              		.loc 1 591 7
 3832 0032 1304F00F 		li	s0,255
 3833              	.LBE429:
 3834              	.LBE428:
 608:lib/lcd/src/lcd.c **** 	{
 609:lib/lcd/src/lcd.c **** 		temp=(num/mypow(10,len-t-1))%10;
 3835              		.loc 1 609 31
 3836 0036 294C     		li	s8,10
 3837              	.LBB432:
 3838              	.LBB433:
 502:lib/lcd/src/lcd.c **** 	num=num-' ';                        // Get offset value
 3839              		.loc 1 502 7
 3840 0038 130D8009 		li	s10,152
 502:lib/lcd/src/lcd.c **** 	num=num-' ';                        // Get offset value
 3841              		.loc 1 502 18
 3842 003c 13090004 		li	s2,64
 3843              	.LBE433:
 3844              	.LBE432:
 610:lib/lcd/src/lcd.c **** 		if(enshow==0&&t<(len-1))
 3845              		.loc 1 610 23
 3846 0040 9389F6FF 		addi	s3,a3,-1
 607:lib/lcd/src/lcd.c **** 	{
 3847              		.loc 1 607 2
 3848 0044 930BE00F 		li	s7,254
 3849              	.LVL445:
 3850              	.L166:
 609:lib/lcd/src/lcd.c **** 		if(enshow==0&&t<(len-1))
 3851              		.loc 1 609 3 is_stmt 1
 3852              	.LBB435:
 3853              	.LBB430:
 590:lib/lcd/src/lcd.c **** 	while(n--)result*=m;    
 3854              		.loc 1 590 2
 591:lib/lcd/src/lcd.c **** 	return result;
 3855              		.loc 1 591 2
 591:lib/lcd/src/lcd.c **** 	return result;
 3856              		.loc 1 591 7 is_stmt 0
 3857 0048 638B8406 		beq	s1,s0,.L168
 3858 004c A687     		mv	a5,s1
GAS LISTING C:\Users\Kalle\AppData\Local\Temp\cc2hNkGN.s 			page 95


 590:lib/lcd/src/lcd.c **** 	while(n--)result*=m;    
 3859              		.loc 1 590 6
 3860 004e 0546     		li	a2,1
 3861              	.LVL446:
 3862              	.L163:
 591:lib/lcd/src/lcd.c **** 	return result;
 3863              		.loc 1 591 12 is_stmt 1
 591:lib/lcd/src/lcd.c **** 	return result;
 3864              		.loc 1 591 18 is_stmt 0
 3865 0050 13172600 		slli	a4,a2,2
 591:lib/lcd/src/lcd.c **** 	return result;
 3866              		.loc 1 591 9
 3867 0054 FD17     		addi	a5,a5,-1
 3868              	.LVL447:
 591:lib/lcd/src/lcd.c **** 	return result;
 3869              		.loc 1 591 18
 3870 0056 3A96     		add	a2,a4,a2
 3871              	.LVL448:
 591:lib/lcd/src/lcd.c **** 	return result;
 3872              		.loc 1 591 9
 3873 0058 93F7F70F 		andi	a5,a5,0xff
 591:lib/lcd/src/lcd.c **** 	return result;
 3874              		.loc 1 591 18
 3875 005c 0606     		slli	a2,a2,1
 3876              	.LVL449:
 591:lib/lcd/src/lcd.c **** 	return result;
 3877              		.loc 1 591 7
 3878 005e E39987FE 		bne	a5,s0,.L163
 3879 0062 33D6CC02 		divu	a2,s9,a2
 3880              	.LVL450:
 3881              	.L162:
 592:lib/lcd/src/lcd.c **** }
 3882              		.loc 1 592 2 is_stmt 1
 3883              	.LBE430:
 3884              	.LBE435:
 609:lib/lcd/src/lcd.c **** 		if(enshow==0&&t<(len-1))
 3885              		.loc 1 609 31 is_stmt 0
 3886 0066 33768603 		remu	a2,a2,s8
 3887              	.LVL451:
 3888              		.loc 1 610 3 is_stmt 1
 3889              		.loc 1 610 5 is_stmt 0
 3890 006a 63160B00 		bne	s6,zero,.L164
 3891              		.loc 1 610 15 discriminator 1
 3892 006e 63D43A01 		ble	s3,s5,.L164
 611:lib/lcd/src/lcd.c **** 		{
 612:lib/lcd/src/lcd.c **** 			if(temp==0)
 3893              		.loc 1 612 4 is_stmt 1
 3894              		.loc 1 612 6 is_stmt 0
 3895 0072 21CA     		beq	a2,zero,.L173
 3896 0074 054B     		li	s6,1
 3897              	.LVL452:
 3898              	.L164:
 613:lib/lcd/src/lcd.c **** 			{
 614:lib/lcd/src/lcd.c **** 				LCD_ShowChar(x+8*t,y,' ',0,color);
 615:lib/lcd/src/lcd.c **** 				continue;
 616:lib/lcd/src/lcd.c **** 			}else enshow=1; 
 617:lib/lcd/src/lcd.c **** 		 	 
GAS LISTING C:\Users\Kalle\AppData\Local\Temp\cc2hNkGN.s 			page 96


 618:lib/lcd/src/lcd.c **** 		}
 619:lib/lcd/src/lcd.c **** 	 	LCD_ShowChar(x+8*t,y,temp+48,0,color); 
 3899              		.loc 1 619 4 is_stmt 1
 3900              	.LBB436:
 3901              	.LBB434:
 499:lib/lcd/src/lcd.c ****     u8 pos,t;
 3902              		.loc 1 499 5
 500:lib/lcd/src/lcd.c **** 	  u16 x0=x;    
 3903              		.loc 1 500 5
 501:lib/lcd/src/lcd.c ****     if(x>LCD_W-8 || y>LCD_H-16)return;	// Outside of display area
 3904              		.loc 1 501 4
 502:lib/lcd/src/lcd.c **** 	num=num-' ';                        // Get offset value
 3905              		.loc 1 502 5
 502:lib/lcd/src/lcd.c **** 	num=num-' ';                        // Get offset value
 3906              		.loc 1 502 7 is_stmt 0
 3907 0076 636E4D01 		bgtu	s4,s10,.L165
 502:lib/lcd/src/lcd.c **** 	num=num-' ';                        // Get offset value
 3908              		.loc 1 502 18
 3909 007a 636CB901 		bgtu	s11,s2,.L165
 3910 007e 3247     		lw	a4,12(sp)
 3911 0080 8146     		li	a3,0
 3912 0082 13060603 		addi	a2,a2,48
 3913              	.LVL453:
 3914 0086 EE85     		mv	a1,s11
 3915 0088 5285     		mv	a0,s4
 3916 008a 97000000 		call	LCD_ShowChar.part.2
 3916      E7800000 
 3917              	.LVL454:
 3918              	.L165:
 3919 0092 FD14     		addi	s1,s1,-1
 3920 0094 93F4F40F 		andi	s1,s1,0xff
 3921 0098 850A     		addi	s5,s5,1
 3922              	.LVL455:
 3923 009a 210A     		addi	s4,s4,8
 3924              	.LBE434:
 3925              	.LBE436:
 607:lib/lcd/src/lcd.c **** 	{
 3926              		.loc 1 607 2 discriminator 2
 3927 009c E39674FB 		bne	s1,s7,.L166
 3928              	.LVL456:
 3929              	.L160:
 620:lib/lcd/src/lcd.c **** 	}
 621:lib/lcd/src/lcd.c **** } 
 3930              		.loc 1 621 1
 3931 00a0 B640     		lw	ra,76(sp)
 3932              		.cfi_remember_state
 3933              		.cfi_restore 1
 3934 00a2 2644     		lw	s0,72(sp)
 3935              		.cfi_restore 8
 3936 00a4 9644     		lw	s1,68(sp)
 3937              		.cfi_restore 9
 3938 00a6 0649     		lw	s2,64(sp)
 3939              		.cfi_restore 18
 3940 00a8 F259     		lw	s3,60(sp)
 3941              		.cfi_restore 19
 3942 00aa 625A     		lw	s4,56(sp)
 3943              		.cfi_restore 20
GAS LISTING C:\Users\Kalle\AppData\Local\Temp\cc2hNkGN.s 			page 97


 3944 00ac D25A     		lw	s5,52(sp)
 3945              		.cfi_restore 21
 3946 00ae 425B     		lw	s6,48(sp)
 3947              		.cfi_restore 22
 3948 00b0 B25B     		lw	s7,44(sp)
 3949              		.cfi_restore 23
 3950 00b2 225C     		lw	s8,40(sp)
 3951              		.cfi_restore 24
 3952 00b4 925C     		lw	s9,36(sp)
 3953              		.cfi_restore 25
 3954 00b6 025D     		lw	s10,32(sp)
 3955              		.cfi_restore 26
 3956 00b8 F24D     		lw	s11,28(sp)
 3957              		.cfi_restore 27
 3958 00ba 6161     		addi	sp,sp,80
 3959              	.LCFI55:
 3960              		.cfi_def_cfa_offset 0
 3961              	.LVL457:
 3962 00bc 8280     		jr	ra
 3963              	.LVL458:
 3964              	.L168:
 3965              	.LCFI56:
 3966              		.cfi_restore_state
 3967              	.LBB437:
 3968              	.LBB431:
 591:lib/lcd/src/lcd.c **** 	return result;
 3969              		.loc 1 591 7
 3970 00be 6686     		mv	a2,s9
 3971 00c0 5DB7     		j	.L162
 3972              	.LVL459:
 3973              	.L173:
 3974              	.LBE431:
 3975              	.LBE437:
 614:lib/lcd/src/lcd.c **** 				continue;
 3976              		.loc 1 614 5 is_stmt 1
 3977              	.LBB438:
 3978              	.LBB439:
 499:lib/lcd/src/lcd.c ****     u8 pos,t;
 3979              		.loc 1 499 5
 500:lib/lcd/src/lcd.c **** 	  u16 x0=x;    
 3980              		.loc 1 500 5
 501:lib/lcd/src/lcd.c ****     if(x>LCD_W-8 || y>LCD_H-16)return;	// Outside of display area
 3981              		.loc 1 501 4
 502:lib/lcd/src/lcd.c **** 	num=num-' ';                        // Get offset value
 3982              		.loc 1 502 5
 502:lib/lcd/src/lcd.c **** 	num=num-' ';                        // Get offset value
 3983              		.loc 1 502 7 is_stmt 0
 3984 00c2 E3684DFD 		bgtu	s4,s10,.L165
 502:lib/lcd/src/lcd.c **** 	num=num-' ';                        // Get offset value
 3985              		.loc 1 502 18
 3986 00c6 E366B9FD 		bgtu	s11,s2,.L165
 3987 00ca 3247     		lw	a4,12(sp)
 3988 00cc 8146     		li	a3,0
 3989 00ce 13060002 		li	a2,32
 3990              	.LVL460:
 3991 00d2 EE85     		mv	a1,s11
 3992 00d4 5285     		mv	a0,s4
GAS LISTING C:\Users\Kalle\AppData\Local\Temp\cc2hNkGN.s 			page 98


 3993 00d6 97000000 		call	LCD_ShowChar.part.2
 3993      E7800000 
 3994              	.LVL461:
 3995 00de 55BF     		j	.L165
 3996              	.LBE439:
 3997              	.LBE438:
 3998              		.cfi_endproc
 3999              	.LFE26:
 4001              		.globl	__mulsf3
 4002              		.globl	__fixunssfsi
 4003              		.section	.text.LCD_ShowNum1,"ax",@progbits
 4004              		.align	1
 4005              		.globl	LCD_ShowNum1
 4007              	LCD_ShowNum1:
 4008              	.LFB27:
 622:lib/lcd/src/lcd.c **** 
 623:lib/lcd/src/lcd.c **** 
 624:lib/lcd/src/lcd.c **** /*
 625:lib/lcd/src/lcd.c ****   Function description: display float number with 2 decimal places
 626:lib/lcd/src/lcd.c ****   Entry data: x, y:  start point coordinates
 627:lib/lcd/src/lcd.c ****                num:  float number to display
 628:lib/lcd/src/lcd.c ****                len:  number of digits to display
 629:lib/lcd/src/lcd.c ****   Return value: None
 630:lib/lcd/src/lcd.c **** */
 631:lib/lcd/src/lcd.c **** void LCD_ShowNum1(u16 x,u16 y,float num,u8 len,u16 color)
 632:lib/lcd/src/lcd.c **** {         	
 4009              		.loc 1 632 1 is_stmt 1
 4010              		.cfi_startproc
 4011              	.LVL462:
 633:lib/lcd/src/lcd.c **** 	u8 t,temp;
 4012              		.loc 1 633 2
 634:lib/lcd/src/lcd.c **** 	// u8 enshow=0;
 635:lib/lcd/src/lcd.c **** 	u16 num1;
 4013              		.loc 1 635 2
 636:lib/lcd/src/lcd.c **** 	num1=num*100;
 4014              		.loc 1 636 2
 632:lib/lcd/src/lcd.c **** 	u8 t,temp;
 4015              		.loc 1 632 1 is_stmt 0
 4016 0000 7971     		addi	sp,sp,-48
 4017              	.LCFI57:
 4018              		.cfi_def_cfa_offset 48
 4019              		.loc 1 636 10
 4020 0002 B7070000 		lui	a5,%hi(.LC1)
 632:lib/lcd/src/lcd.c **** 	u8 t,temp;
 4021              		.loc 1 632 1
 4022 0006 62C4     		sw	s8,8(sp)
 4023              		.cfi_offset 24, -40
 4024 0008 2E8C     		mv	s8,a1
 4025              		.loc 1 636 10
 4026 000a 83A50700 		lw	a1,%lo(.LC1)(a5)
 4027              	.LVL463:
 632:lib/lcd/src/lcd.c **** 	u8 t,temp;
 4028              		.loc 1 632 1
 4029 000e 5AC8     		sw	s6,16(sp)
 4030              		.cfi_offset 22, -32
 4031 0010 2A8B     		mv	s6,a0
 4032              		.loc 1 636 10
GAS LISTING C:\Users\Kalle\AppData\Local\Temp\cc2hNkGN.s 			page 99


 4033 0012 3285     		mv	a0,a2
 4034              	.LVL464:
 632:lib/lcd/src/lcd.c **** 	u8 t,temp;
 4035              		.loc 1 632 1
 4036 0014 06D6     		sw	ra,44(sp)
 4037 0016 4ECE     		sw	s3,28(sp)
 4038 0018 56CA     		sw	s5,20(sp)
 4039 001a 22D4     		sw	s0,40(sp)
 4040              		.cfi_offset 1, -4
 4041              		.cfi_offset 19, -20
 4042              		.cfi_offset 21, -28
 4043              		.cfi_offset 8, -8
 4044 001c B68A     		mv	s5,a3
 4045 001e 26D2     		sw	s1,36(sp)
 4046 0020 4AD0     		sw	s2,32(sp)
 4047 0022 52CC     		sw	s4,24(sp)
 4048 0024 5EC6     		sw	s7,12(sp)
 4049 0026 66C2     		sw	s9,4(sp)
 4050 0028 6AC0     		sw	s10,0(sp)
 4051              		.cfi_offset 9, -12
 4052              		.cfi_offset 18, -16
 4053              		.cfi_offset 20, -24
 4054              		.cfi_offset 23, -36
 4055              		.cfi_offset 25, -44
 4056              		.cfi_offset 26, -48
 632:lib/lcd/src/lcd.c **** 	u8 t,temp;
 4057              		.loc 1 632 1
 4058 002a BA89     		mv	s3,a4
 4059              		.loc 1 636 10
 4060 002c 97000000 		call	__mulsf3
 4060      E7800000 
 4061              	.LVL465:
 4062              		.loc 1 636 6
 4063 0034 97000000 		call	__fixunssfsi
 4063      E7800000 
 4064              	.LVL466:
 637:lib/lcd/src/lcd.c **** 	for(t=0;t<len;t++)
 4065              		.loc 1 637 2 is_stmt 1
 4066 003c 638C0A06 		beq	s5,zero,.L174
 4067 0040 AA8C     		mv	s9,a0
 4068 0042 8144     		li	s1,0
 4069              	.LBB440:
 4070              	.LBB441:
 591:lib/lcd/src/lcd.c **** 	return result;
 4071              		.loc 1 591 7 is_stmt 0
 4072 0044 1309F00F 		li	s2,255
 4073              	.LBE441:
 4074              	.LBE440:
 4075              	.LBB444:
 4076              	.LBB445:
 502:lib/lcd/src/lcd.c **** 	num=num-' ';                        // Get offset value
 4077              		.loc 1 502 7
 4078 0048 930B8009 		li	s7,152
 502:lib/lcd/src/lcd.c **** 	num=num-' ';                        // Get offset value
 4079              		.loc 1 502 18
 4080 004c 130D0004 		li	s10,64
 4081              	.LBE445:
GAS LISTING C:\Users\Kalle\AppData\Local\Temp\cc2hNkGN.s 			page 100


 4082              	.LBE444:
 638:lib/lcd/src/lcd.c **** 	{
 639:lib/lcd/src/lcd.c **** 		temp=(num1/mypow(10,len-t-1))%10;
 4083              		.loc 1 639 32
 4084 0050 294A     		li	s4,10
 4085              	.LVL467:
 4086              	.L175:
 4087              		.loc 1 639 3 is_stmt 1
 4088              		.loc 1 639 14 is_stmt 0
 4089 0052 1387FAFF 		addi	a4,s5,-1
 4090 0056 058F     		sub	a4,a4,s1
 4091 0058 1377F70F 		andi	a4,a4,0xff
 4092              	.LVL468:
 4093              	.LBB447:
 4094              	.LBB442:
 590:lib/lcd/src/lcd.c **** 	while(n--)result*=m;    
 4095              		.loc 1 590 2 is_stmt 1
 591:lib/lcd/src/lcd.c **** 	return result;
 4096              		.loc 1 591 2
 591:lib/lcd/src/lcd.c **** 	return result;
 4097              		.loc 1 591 9 is_stmt 0
 4098 005c 9307F7FF 		addi	a5,a4,-1
 4099 0060 93F7F70F 		andi	a5,a5,0xff
 4100              	.LVL469:
 591:lib/lcd/src/lcd.c **** 	return result;
 4101              		.loc 1 591 7
 4102 0064 49CF     		beq	a4,zero,.L183
 590:lib/lcd/src/lcd.c **** 	while(n--)result*=m;    
 4103              		.loc 1 590 6
 4104 0066 0546     		li	a2,1
 4105              	.LVL470:
 4106              	.L177:
 591:lib/lcd/src/lcd.c **** 	return result;
 4107              		.loc 1 591 12 is_stmt 1
 591:lib/lcd/src/lcd.c **** 	return result;
 4108              		.loc 1 591 18 is_stmt 0
 4109 0068 13172600 		slli	a4,a2,2
 591:lib/lcd/src/lcd.c **** 	return result;
 4110              		.loc 1 591 9
 4111 006c FD17     		addi	a5,a5,-1
 4112              	.LVL471:
 591:lib/lcd/src/lcd.c **** 	return result;
 4113              		.loc 1 591 18
 4114 006e 3A96     		add	a2,a4,a2
 4115              	.LVL472:
 591:lib/lcd/src/lcd.c **** 	return result;
 4116              		.loc 1 591 9
 4117 0070 93F7F70F 		andi	a5,a5,0xff
 591:lib/lcd/src/lcd.c **** 	return result;
 4118              		.loc 1 591 18
 4119 0074 0606     		slli	a2,a2,1
 4120              	.LVL473:
 591:lib/lcd/src/lcd.c **** 	return result;
 4121              		.loc 1 591 7
 4122 0076 E39927FF 		bne	a5,s2,.L177
 4123 007a 33D4CC02 		divu	s0,s9,a2
 4124              	.LVL474:
GAS LISTING C:\Users\Kalle\AppData\Local\Temp\cc2hNkGN.s 			page 101


 4125              	.L176:
 592:lib/lcd/src/lcd.c **** }
 4126              		.loc 1 592 2 is_stmt 1
 4127              	.LBE442:
 4128              	.LBE447:
 640:lib/lcd/src/lcd.c **** 		if(t==(len-2))
 4129              		.loc 1 640 3
 4130              		.loc 1 640 13 is_stmt 0
 4131 007e 9387EAFF 		addi	a5,s5,-2
 4132              		.loc 1 640 5
 4133 0082 6387F404 		beq	s1,a5,.L188
 4134              	.L178:
 641:lib/lcd/src/lcd.c **** 		{
 642:lib/lcd/src/lcd.c **** 			LCD_ShowChar(x+8*(len-2),y,'.',0,color);
 643:lib/lcd/src/lcd.c **** 			t++;
 644:lib/lcd/src/lcd.c **** 			len+=1;
 645:lib/lcd/src/lcd.c **** 		}
 646:lib/lcd/src/lcd.c **** 	 	LCD_ShowChar(x+8*t,y,temp+48,0,color);
 4135              		.loc 1 646 4 is_stmt 1 discriminator 2
 4136              		.loc 1 646 20 is_stmt 0 discriminator 2
 4137 0086 13953400 		slli	a0,s1,3
 4138              		.loc 1 646 4 discriminator 2
 4139 008a 5A95     		add	a0,a0,s6
 4140              	.LVL475:
 4141              	.LBB448:
 4142              	.LBB449:
 499:lib/lcd/src/lcd.c ****     u8 pos,t;
 4143              		.loc 1 499 5 is_stmt 1 discriminator 2
 500:lib/lcd/src/lcd.c **** 	  u16 x0=x;    
 4144              		.loc 1 500 5 discriminator 2
 501:lib/lcd/src/lcd.c ****     if(x>LCD_W-8 || y>LCD_H-16)return;	// Outside of display area
 4145              		.loc 1 501 4 discriminator 2
 502:lib/lcd/src/lcd.c **** 	num=num-' ';                        // Get offset value
 4146              		.loc 1 502 5 discriminator 2
 502:lib/lcd/src/lcd.c **** 	num=num-' ';                        // Get offset value
 4147              		.loc 1 502 7 is_stmt 0 discriminator 2
 4148 008c 63EFAB00 		bgtu	a0,s7,.L180
 502:lib/lcd/src/lcd.c **** 	num=num-' ';                        // Get offset value
 4149              		.loc 1 502 18
 4150 0090 636D8D01 		bgtu	s8,s10,.L180
 4151 0094 4E87     		mv	a4,s3
 4152 0096 8146     		li	a3,0
 4153 0098 E285     		mv	a1,s8
 4154              	.LBE449:
 4155              	.LBE448:
 639:lib/lcd/src/lcd.c **** 		if(t==(len-2))
 4156              		.loc 1 639 32
 4157 009a 33764403 		remu	a2,s0,s4
 4158              	.LBB451:
 4159              	.LBB450:
 4160 009e 13060603 		addi	a2,a2,48
 4161 00a2 97000000 		call	LCD_ShowChar.part.2
 4161      E7800000 
 4162              	.LVL476:
 4163              	.L180:
 4164              	.LBE450:
 4165              	.LBE451:
GAS LISTING C:\Users\Kalle\AppData\Local\Temp\cc2hNkGN.s 			page 102


 637:lib/lcd/src/lcd.c **** 	{
 4166              		.loc 1 637 17 discriminator 2
 4167 00aa 8504     		addi	s1,s1,1
 4168              	.LVL477:
 4169 00ac 93F4F40F 		andi	s1,s1,0xff
 4170              	.LVL478:
 637:lib/lcd/src/lcd.c **** 	{
 4171              		.loc 1 637 2 discriminator 2
 4172 00b0 E3E154FB 		bgtu	s5,s1,.L175
 4173              	.LVL479:
 4174              	.L174:
 647:lib/lcd/src/lcd.c **** 	}
 648:lib/lcd/src/lcd.c **** }
 4175              		.loc 1 648 1
 4176 00b4 B250     		lw	ra,44(sp)
 4177              		.cfi_remember_state
 4178              		.cfi_restore 1
 4179 00b6 2254     		lw	s0,40(sp)
 4180              		.cfi_restore 8
 4181 00b8 9254     		lw	s1,36(sp)
 4182              		.cfi_restore 9
 4183 00ba 0259     		lw	s2,32(sp)
 4184              		.cfi_restore 18
 4185 00bc F249     		lw	s3,28(sp)
 4186              		.cfi_restore 19
 4187              	.LVL480:
 4188 00be 624A     		lw	s4,24(sp)
 4189              		.cfi_restore 20
 4190 00c0 D24A     		lw	s5,20(sp)
 4191              		.cfi_restore 21
 4192              	.LVL481:
 4193 00c2 424B     		lw	s6,16(sp)
 4194              		.cfi_restore 22
 4195              	.LVL482:
 4196 00c4 B24B     		lw	s7,12(sp)
 4197              		.cfi_restore 23
 4198 00c6 224C     		lw	s8,8(sp)
 4199              		.cfi_restore 24
 4200              	.LVL483:
 4201 00c8 924C     		lw	s9,4(sp)
 4202              		.cfi_restore 25
 4203 00ca 024D     		lw	s10,0(sp)
 4204              		.cfi_restore 26
 4205 00cc 4561     		addi	sp,sp,48
 4206              	.LCFI58:
 4207              		.cfi_def_cfa_offset 0
 4208 00ce 8280     		jr	ra
 4209              	.LVL484:
 4210              	.L188:
 4211              	.LCFI59:
 4212              		.cfi_restore_state
 642:lib/lcd/src/lcd.c **** 			t++;
 4213              		.loc 1 642 4 is_stmt 1
 642:lib/lcd/src/lcd.c **** 			t++;
 4214              		.loc 1 642 20 is_stmt 0
 4215 00d0 13953400 		slli	a0,s1,3
 642:lib/lcd/src/lcd.c **** 			t++;
GAS LISTING C:\Users\Kalle\AppData\Local\Temp\cc2hNkGN.s 			page 103


 4216              		.loc 1 642 4
 4217 00d4 5A95     		add	a0,a0,s6
 4218              	.LVL485:
 4219              	.LBB452:
 4220              	.LBB446:
 499:lib/lcd/src/lcd.c ****     u8 pos,t;
 4221              		.loc 1 499 5 is_stmt 1
 500:lib/lcd/src/lcd.c **** 	  u16 x0=x;    
 4222              		.loc 1 500 5
 501:lib/lcd/src/lcd.c ****     if(x>LCD_W-8 || y>LCD_H-16)return;	// Outside of display area
 4223              		.loc 1 501 4
 502:lib/lcd/src/lcd.c **** 	num=num-' ';                        // Get offset value
 4224              		.loc 1 502 5
 502:lib/lcd/src/lcd.c **** 	num=num-' ';                        // Get offset value
 4225              		.loc 1 502 7 is_stmt 0
 4226 00d6 63EDAB00 		bgtu	a0,s7,.L179
 502:lib/lcd/src/lcd.c **** 	num=num-' ';                        // Get offset value
 4227              		.loc 1 502 18
 4228 00da 636B8D01 		bgtu	s8,s10,.L179
 4229 00de 4E87     		mv	a4,s3
 4230 00e0 8146     		li	a3,0
 4231 00e2 1306E002 		li	a2,46
 4232 00e6 E285     		mv	a1,s8
 4233 00e8 97000000 		call	LCD_ShowChar.part.2
 4233      E7800000 
 4234              	.LVL486:
 4235              	.L179:
 4236              	.LBE446:
 4237              	.LBE452:
 643:lib/lcd/src/lcd.c **** 			len+=1;
 4238              		.loc 1 643 4 is_stmt 1
 643:lib/lcd/src/lcd.c **** 			len+=1;
 4239              		.loc 1 643 5 is_stmt 0
 4240 00f0 8504     		addi	s1,s1,1
 4241              	.LVL487:
 644:lib/lcd/src/lcd.c **** 		}
 4242              		.loc 1 644 7
 4243 00f2 850A     		addi	s5,s5,1
 4244              	.LVL488:
 643:lib/lcd/src/lcd.c **** 			len+=1;
 4245              		.loc 1 643 5
 4246 00f4 93F4F40F 		andi	s1,s1,0xff
 4247              	.LVL489:
 644:lib/lcd/src/lcd.c **** 		}
 4248              		.loc 1 644 4 is_stmt 1
 644:lib/lcd/src/lcd.c **** 		}
 4249              		.loc 1 644 7 is_stmt 0
 4250 00f8 93FAFA0F 		andi	s5,s5,0xff
 4251              	.LVL490:
 4252 00fc 69B7     		j	.L178
 4253              	.LVL491:
 4254              	.L183:
 4255              	.LBB453:
 4256              	.LBB443:
 591:lib/lcd/src/lcd.c **** 	return result;
 4257              		.loc 1 591 7
 4258 00fe 6684     		mv	s0,s9
GAS LISTING C:\Users\Kalle\AppData\Local\Temp\cc2hNkGN.s 			page 104


 4259 0100 BDBF     		j	.L176
 4260              	.LBE443:
 4261              	.LBE453:
 4262              		.cfi_endproc
 4263              	.LFE27:
 4265              		.section	.text.LCD_ShowPicture,"ax",@progbits
 4266              		.align	1
 4267              		.globl	LCD_ShowPicture
 4269              	LCD_ShowPicture:
 4270              	.LFB28:
 649:lib/lcd/src/lcd.c **** 
 650:lib/lcd/src/lcd.c **** 
 651:lib/lcd/src/lcd.c **** /*
 652:lib/lcd/src/lcd.c ****   Function description: display the image 
 653:lib/lcd/src/lcd.c ****   Entry data: x1, y1:  start coordinates
 654:lib/lcd/src/lcd.c ****               x2, y2:  end coordinates
 655:lib/lcd/src/lcd.c ****               *image:  pointer to image buffer
 656:lib/lcd/src/lcd.c ****   Return value: None
 657:lib/lcd/src/lcd.c ****   Note: image buffere contains 16-bit pixel colors
 658:lib/lcd/src/lcd.c ****         and its size must be (x2-x1+1) * (y2-y1+1) * 2
 659:lib/lcd/src/lcd.c ****   */
 660:lib/lcd/src/lcd.c **** void LCD_ShowPicture(u16 x1, u16 y1, u16 x2, u16 y2, u8 *image)
 661:lib/lcd/src/lcd.c **** {
 4271              		.loc 1 661 1 is_stmt 1
 4272              		.cfi_startproc
 4273              	.LVL492:
 662:lib/lcd/src/lcd.c **** 	int i;
 4274              		.loc 1 662 2
 663:lib/lcd/src/lcd.c **** 	int size = (x2-x1+1) * (y2-y1+1) * 2;
 4275              		.loc 1 663 2
 661:lib/lcd/src/lcd.c **** 	int i;
 4276              		.loc 1 661 1 is_stmt 0
 4277 0000 4111     		addi	sp,sp,-16
 4278              	.LCFI60:
 4279              		.cfi_def_cfa_offset 16
 4280 0002 26C2     		sw	s1,4(sp)
 4281              		.loc 1 663 28
 4282 0004 B387B640 		sub	a5,a3,a1
 4283              		.cfi_offset 9, -12
 4284              		.loc 1 663 16
 4285 0008 B304A640 		sub	s1,a2,a0
 4286              		.loc 1 663 35
 4287 000c 8504     		addi	s1,s1,1
 4288              		.loc 1 663 31
 4289 000e 8507     		addi	a5,a5,1
 4290              		.loc 1 663 35
 4291 0010 B384F402 		mul	s1,s1,a5
 661:lib/lcd/src/lcd.c **** 	int i;
 4292              		.loc 1 661 1
 4293 0014 22C4     		sw	s0,8(sp)
 4294 0016 06C6     		sw	ra,12(sp)
 4295 0018 4AC0     		sw	s2,0(sp)
 4296              		.cfi_offset 8, -8
 4297              		.cfi_offset 1, -4
 4298              		.cfi_offset 18, -16
 661:lib/lcd/src/lcd.c **** 	int i;
 4299              		.loc 1 661 1
GAS LISTING C:\Users\Kalle\AppData\Local\Temp\cc2hNkGN.s 			page 105


 4300 001a 3A84     		mv	s0,a4
 4301              		.loc 1 663 35
 4302 001c 8604     		slli	s1,s1,1
 4303              	.LVL493:
 664:lib/lcd/src/lcd.c **** 	LCD_Address_Set(x1,y1,x2,y2);
 4304              		.loc 1 664 2 is_stmt 1
 4305 001e 97000000 		call	LCD_Address_Set
 4305      E7800000 
 4306              	.LVL494:
 665:lib/lcd/src/lcd.c **** 	for(i=0;i<size;i++)
 4307              		.loc 1 665 2
 4308 0026 63549002 		ble	s1,zero,.L189
 4309 002a A294     		add	s1,s0,s1
 4310              	.LVL495:
 4311              	.L191:
 666:lib/lcd/src/lcd.c **** 	{ 	
 667:lib/lcd/src/lcd.c **** 		LCD_WR_DATA8(image[i]);
 4312              		.loc 1 667 3 discriminator 3
 4313 002c 03490400 		lbu	s2,0(s0)
 4314              	.LVL496:
 4315              	.LBB454:
 4316              	.LBB455:
  90:lib/lcd/src/lcd.c **** 	LCD_Writ_Bus(dat);
 4317              		.loc 1 90 2 discriminator 3
 4318 0030 37150140 		li	a0,1073811456
 4319 0034 A165     		li	a1,32768
 4320 0036 97000000 		call	gpio_bit_set
 4320      E7800000 
 4321              	.LVL497:
  91:lib/lcd/src/lcd.c ****     //LCD_Write_Bus(((int)dat)+(1<<8));
 4322              		.loc 1 91 2 discriminator 3
 4323 003e 0504     		addi	s0,s0,1
 4324              	.LVL498:
 4325 0040 4A85     		mv	a0,s2
 4326 0042 97000000 		call	LCD_Writ_Bus
 4326      E7800000 
 4327              	.LVL499:
 4328              	.LBE455:
 4329              	.LBE454:
 665:lib/lcd/src/lcd.c **** 	{ 	
 4330              		.loc 1 665 2 is_stmt 0 discriminator 3
 4331 004a E39184FE 		bne	s1,s0,.L191
 4332              	.L189:
 668:lib/lcd/src/lcd.c **** 	}			
 669:lib/lcd/src/lcd.c **** }
 4333              		.loc 1 669 1
 4334 004e B240     		lw	ra,12(sp)
 4335              		.cfi_restore 1
 4336 0050 2244     		lw	s0,8(sp)
 4337              		.cfi_restore 8
 4338 0052 9244     		lw	s1,4(sp)
 4339              		.cfi_restore 9
 4340 0054 0249     		lw	s2,0(sp)
 4341              		.cfi_restore 18
 4342 0056 4101     		addi	sp,sp,16
 4343              	.LCFI61:
 4344              		.cfi_def_cfa_offset 0
GAS LISTING C:\Users\Kalle\AppData\Local\Temp\cc2hNkGN.s 			page 106


 4345 0058 8280     		jr	ra
 4346              		.cfi_endproc
 4347              	.LFE28:
 4349              		.globl	queue
 4350              		.globl	w
 4351              		.globl	r
 4352              		.globl	lcd_conf
 4353              		.comm	BACK_COLOR,4,4
 4354              		.globl	Hzk16
 4355              		.globl	asc2_1608
 4356              		.globl	Hzk32
 4357              		.section	.bss.queue,"aw",@nobits
 4358              		.align	2
 4359              		.set	.LANCHOR2,. + 0
 4362              	queue:
 4363 0000 00000000 		.zero	1024
 4363      00000000 
 4363      00000000 
 4363      00000000 
 4363      00000000 
 4364              		.section	.data.Hzk16,"aw"
 4365              		.align	2
 4366              		.set	.LANCHOR5,. + 0
 4369              	Hzk16:
 4370 0000 80       		.byte	-128
 4371 0001 00       		.byte	0
 4372 0002 80       		.byte	-128
 4373 0003 00       		.byte	0
 4374 0004 80       		.byte	-128
 4375 0005 00       		.byte	0
 4376 0006 80       		.byte	-128
 4377 0007 00       		.byte	0
 4378 0008 FC       		.byte	-4
 4379 0009 1F       		.byte	31
 4380 000a 84       		.byte	-124
 4381 000b 10       		.byte	16
 4382 000c 84       		.byte	-124
 4383 000d 10       		.byte	16
 4384 000e 84       		.byte	-124
 4385 000f 10       		.byte	16
 4386 0010 84       		.byte	-124
 4387 0011 10       		.byte	16
 4388 0012 84       		.byte	-124
 4389 0013 10       		.byte	16
 4390 0014 FC       		.byte	-4
 4391 0015 1F       		.byte	31
 4392 0016 84       		.byte	-124
 4393 0017 10       		.byte	16
 4394 0018 80       		.byte	-128
 4395 0019 00       		.byte	0
 4396 001a 80       		.byte	-128
 4397 001b 00       		.byte	0
 4398 001c 80       		.byte	-128
 4399 001d 00       		.byte	0
 4400 001e 80       		.byte	-128
 4401 001f 00       		.byte	0
 4402 0020 F8       		.byte	-8
GAS LISTING C:\Users\Kalle\AppData\Local\Temp\cc2hNkGN.s 			page 107


 4403 0021 0F       		.byte	15
 4404 0022 08       		.byte	8
 4405 0023 08       		.byte	8
 4406 0024 F8       		.byte	-8
 4407 0025 0F       		.byte	15
 4408 0026 08       		.byte	8
 4409 0027 08       		.byte	8
 4410 0028 F8       		.byte	-8
 4411 0029 0F       		.byte	15
 4412 002a 80       		.byte	-128
 4413 002b 00       		.byte	0
 4414 002c FF       		.byte	-1
 4415 002d 7F       		.byte	127
 4416 002e 00       		.byte	0
 4417 002f 00       		.byte	0
 4418 0030 F8       		.byte	-8
 4419 0031 0F       		.byte	15
 4420 0032 08       		.byte	8
 4421 0033 08       		.byte	8
 4422 0034 08       		.byte	8
 4423 0035 08       		.byte	8
 4424 0036 F8       		.byte	-8
 4425 0037 0F       		.byte	15
 4426 0038 80       		.byte	-128
 4427 0039 00       		.byte	0
 4428 003a 84       		.byte	-124
 4429 003b 10       		.byte	16
 4430 003c A2       		.byte	-94
 4431 003d 20       		.byte	32
 4432 003e 40       		.byte	64
 4433 003f 00       		.byte	0
 4434 0040 00       		.byte	0
 4435 0041 00       		.byte	0
 4436 0042 FE       		.byte	-2
 4437 0043 3F       		.byte	63
 4438 0044 02       		.byte	2
 4439 0045 20       		.byte	32
 4440 0046 F2       		.byte	-14
 4441 0047 27       		.byte	39
 4442 0048 02       		.byte	2
 4443 0049 20       		.byte	32
 4444 004a 02       		.byte	2
 4445 004b 20       		.byte	32
 4446 004c FA       		.byte	-6
 4447 004d 2F       		.byte	47
 4448 004e 22       		.byte	34
 4449 004f 21       		.byte	33
 4450 0050 22       		.byte	34
 4451 0051 21       		.byte	33
 4452 0052 22       		.byte	34
 4453 0053 21       		.byte	33
 4454 0054 12       		.byte	18
 4455 0055 29       		.byte	41
 4456 0056 12       		.byte	18
 4457 0057 29       		.byte	41
 4458 0058 0A       		.byte	10
 4459 0059 2E       		.byte	46
GAS LISTING C:\Users\Kalle\AppData\Local\Temp\cc2hNkGN.s 			page 108


 4460 005a 02       		.byte	2
 4461 005b 20       		.byte	32
 4462 005c FE       		.byte	-2
 4463 005d 3F       		.byte	63
 4464 005e 02       		.byte	2
 4465 005f 20       		.byte	32
 4466 0060 80       		.byte	-128
 4467 0061 00       		.byte	0
 4468 0062 80       		.byte	-128
 4469 0063 00       		.byte	0
 4470 0064 80       		.byte	-128
 4471 0065 00       		.byte	0
 4472 0066 FC       		.byte	-4
 4473 0067 1F       		.byte	31
 4474 0068 84       		.byte	-124
 4475 0069 10       		.byte	16
 4476 006a 84       		.byte	-124
 4477 006b 10       		.byte	16
 4478 006c 84       		.byte	-124
 4479 006d 10       		.byte	16
 4480 006e FC       		.byte	-4
 4481 006f 1F       		.byte	31
 4482 0070 84       		.byte	-124
 4483 0071 10       		.byte	16
 4484 0072 84       		.byte	-124
 4485 0073 10       		.byte	16
 4486 0074 84       		.byte	-124
 4487 0075 10       		.byte	16
 4488 0076 FC       		.byte	-4
 4489 0077 1F       		.byte	31
 4490 0078 84       		.byte	-124
 4491 0079 50       		.byte	80
 4492 007a 80       		.byte	-128
 4493 007b 40       		.byte	64
 4494 007c 80       		.byte	-128
 4495 007d 40       		.byte	64
 4496 007e 00       		.byte	0
 4497 007f 7F       		.byte	127
 4498 0080 00       		.byte	0
 4499 0081 00       		.byte	0
 4500 0082 FE       		.byte	-2
 4501 0083 1F       		.byte	31
 4502 0084 00       		.byte	0
 4503 0085 08       		.byte	8
 4504 0086 00       		.byte	0
 4505 0087 04       		.byte	4
 4506 0088 00       		.byte	0
 4507 0089 02       		.byte	2
 4508 008a 80       		.byte	-128
 4509 008b 01       		.byte	1
 4510 008c 80       		.byte	-128
 4511 008d 00       		.byte	0
 4512 008e FF       		.byte	-1
 4513 008f 7F       		.byte	127
 4514 0090 80       		.byte	-128
 4515 0091 00       		.byte	0
 4516 0092 80       		.byte	-128
GAS LISTING C:\Users\Kalle\AppData\Local\Temp\cc2hNkGN.s 			page 109


 4517 0093 00       		.byte	0
 4518 0094 80       		.byte	-128
 4519 0095 00       		.byte	0
 4520 0096 80       		.byte	-128
 4521 0097 00       		.byte	0
 4522 0098 80       		.byte	-128
 4523 0099 00       		.byte	0
 4524 009a 80       		.byte	-128
 4525 009b 00       		.byte	0
 4526 009c A0       		.byte	-96
 4527 009d 00       		.byte	0
 4528 009e 40       		.byte	64
 4529 009f 00       		.byte	0
 4530 00a0 10       		.byte	16
 4531 00a1 08       		.byte	8
 4532 00a2 B8       		.byte	-72
 4533 00a3 08       		.byte	8
 4534 00a4 0F       		.byte	15
 4535 00a5 09       		.byte	9
 4536 00a6 08       		.byte	8
 4537 00a7 09       		.byte	9
 4538 00a8 08       		.byte	8
 4539 00a9 08       		.byte	8
 4540 00aa BF       		.byte	-65
 4541 00ab 08       		.byte	8
 4542 00ac 08       		.byte	8
 4543 00ad 09       		.byte	9
 4544 00ae 1C       		.byte	28
 4545 00af 09       		.byte	9
 4546 00b0 2C       		.byte	44
 4547 00b1 08       		.byte	8
 4548 00b2 0A       		.byte	10
 4549 00b3 78       		.byte	120
 4550 00b4 CA       		.byte	-54
 4551 00b5 0F       		.byte	15
 4552 00b6 09       		.byte	9
 4553 00b7 08       		.byte	8
 4554 00b8 08       		.byte	8
 4555 00b9 08       		.byte	8
 4556 00ba 08       		.byte	8
 4557 00bb 08       		.byte	8
 4558 00bc 08       		.byte	8
 4559 00bd 08       		.byte	8
 4560 00be 08       		.byte	8
 4561 00bf 08       		.byte	8
 4562 00c0 08       		.byte	8
 4563 00c1 04       		.byte	4
 4564 00c2 08       		.byte	8
 4565 00c3 04       		.byte	4
 4566 00c4 08       		.byte	8
 4567 00c5 04       		.byte	4
 4568 00c6 C8       		.byte	-56
 4569 00c7 7F       		.byte	127
 4570 00c8 3F       		.byte	63
 4571 00c9 04       		.byte	4
 4572 00ca 08       		.byte	8
 4573 00cb 04       		.byte	4
GAS LISTING C:\Users\Kalle\AppData\Local\Temp\cc2hNkGN.s 			page 110


 4574 00cc 08       		.byte	8
 4575 00cd 04       		.byte	4
 4576 00ce A8       		.byte	-88
 4577 00cf 3F       		.byte	63
 4578 00d0 18       		.byte	24
 4579 00d1 21       		.byte	33
 4580 00d2 0C       		.byte	12
 4581 00d3 11       		.byte	17
 4582 00d4 0B       		.byte	11
 4583 00d5 12       		.byte	18
 4584 00d6 08       		.byte	8
 4585 00d7 0A       		.byte	10
 4586 00d8 08       		.byte	8
 4587 00d9 04       		.byte	4
 4588 00da 08       		.byte	8
 4589 00db 0A       		.byte	10
 4590 00dc 8A       		.byte	-118
 4591 00dd 11       		.byte	17
 4592 00de 64       		.byte	100
 4593 00df 60       		.byte	96
 4594              		.section	.data.Hzk32,"aw"
 4595              		.align	2
 4596              		.set	.LANCHOR6,. + 0
 4599              	Hzk32:
 4600 0000 00       		.byte	0
 4601 0001 00       		.byte	0
 4602 0002 00       		.byte	0
 4603 0003 00       		.byte	0
 4604 0004 00       		.byte	0
 4605 0005 00       		.byte	0
 4606 0006 00       		.byte	0
 4607 0007 00       		.byte	0
 4608 0008 00       		.byte	0
 4609 0009 80       		.byte	-128
 4610 000a 00       		.byte	0
 4611 000b 00       		.byte	0
 4612 000c 00       		.byte	0
 4613 000d 80       		.byte	-128
 4614 000e 01       		.byte	1
 4615 000f 00       		.byte	0
 4616 0010 00       		.byte	0
 4617 0011 80       		.byte	-128
 4618 0012 01       		.byte	1
 4619 0013 00       		.byte	0
 4620 0014 00       		.byte	0
 4621 0015 80       		.byte	-128
 4622 0016 01       		.byte	1
 4623 0017 00       		.byte	0
 4624 0018 00       		.byte	0
 4625 0019 80       		.byte	-128
 4626 001a 01       		.byte	1
 4627 001b 00       		.byte	0
 4628 001c 00       		.byte	0
 4629 001d 80       		.byte	-128
 4630 001e 01       		.byte	1
 4631 001f 00       		.byte	0
 4632 0020 10       		.byte	16
GAS LISTING C:\Users\Kalle\AppData\Local\Temp\cc2hNkGN.s 			page 111


 4633 0021 80       		.byte	-128
 4634 0022 01       		.byte	1
 4635 0023 0C       		.byte	12
 4636 0024 F0       		.byte	-16
 4637 0025 FF       		.byte	-1
 4638 0026 FF       		.byte	-1
 4639 0027 0F       		.byte	15
 4640 0028 30       		.byte	48
 4641 0029 80       		.byte	-128
 4642 002a 01       		.byte	1
 4643 002b 04       		.byte	4
 4644 002c 30       		.byte	48
 4645 002d 80       		.byte	-128
 4646 002e 01       		.byte	1
 4647 002f 04       		.byte	4
 4648 0030 30       		.byte	48
 4649 0031 80       		.byte	-128
 4650 0032 01       		.byte	1
 4651 0033 04       		.byte	4
 4652 0034 30       		.byte	48
 4653 0035 80       		.byte	-128
 4654 0036 01       		.byte	1
 4655 0037 04       		.byte	4
 4656 0038 30       		.byte	48
 4657 0039 80       		.byte	-128
 4658 003a 01       		.byte	1
 4659 003b 04       		.byte	4
 4660 003c 30       		.byte	48
 4661 003d 80       		.byte	-128
 4662 003e 01       		.byte	1
 4663 003f 04       		.byte	4
 4664 0040 30       		.byte	48
 4665 0041 80       		.byte	-128
 4666 0042 01       		.byte	1
 4667 0043 04       		.byte	4
 4668 0044 30       		.byte	48
 4669 0045 80       		.byte	-128
 4670 0046 01       		.byte	1
 4671 0047 04       		.byte	4
 4672 0048 F0       		.byte	-16
 4673 0049 FF       		.byte	-1
 4674 004a FF       		.byte	-1
 4675 004b 07       		.byte	7
 4676 004c 30       		.byte	48
 4677 004d 80       		.byte	-128
 4678 004e 01       		.byte	1
 4679 004f 04       		.byte	4
 4680 0050 30       		.byte	48
 4681 0051 80       		.byte	-128
 4682 0052 01       		.byte	1
 4683 0053 04       		.byte	4
 4684 0054 00       		.byte	0
 4685 0055 80       		.byte	-128
 4686 0056 01       		.byte	1
 4687 0057 00       		.byte	0
 4688 0058 00       		.byte	0
 4689 0059 80       		.byte	-128
GAS LISTING C:\Users\Kalle\AppData\Local\Temp\cc2hNkGN.s 			page 112


 4690 005a 01       		.byte	1
 4691 005b 00       		.byte	0
 4692 005c 00       		.byte	0
 4693 005d 80       		.byte	-128
 4694 005e 01       		.byte	1
 4695 005f 00       		.byte	0
 4696 0060 00       		.byte	0
 4697 0061 80       		.byte	-128
 4698 0062 01       		.byte	1
 4699 0063 00       		.byte	0
 4700 0064 00       		.byte	0
 4701 0065 80       		.byte	-128
 4702 0066 01       		.byte	1
 4703 0067 00       		.byte	0
 4704 0068 00       		.byte	0
 4705 0069 80       		.byte	-128
 4706 006a 01       		.byte	1
 4707 006b 00       		.byte	0
 4708 006c 00       		.byte	0
 4709 006d 80       		.byte	-128
 4710 006e 01       		.byte	1
 4711 006f 00       		.byte	0
 4712 0070 00       		.byte	0
 4713 0071 80       		.byte	-128
 4714 0072 01       		.byte	1
 4715 0073 00       		.byte	0
 4716 0074 00       		.byte	0
