GAS LISTING C:\Users\Kalle\AppData\Local\Temp\cc0gUAqU.s 			page 1


   1              		.file	"main.c"
   2              		.option nopic
   3              		.attribute arch, "rv32i2p0_m2p0_a2p0_c2p0"
   4              		.attribute unaligned_access, 0
   5              		.attribute stack_align, 16
   6              		.text
   7              	.Ltext0:
   8              		.cfi_sections	.debug_frame
   9              		.section	.text.Initialize_Project,"ax",@progbits
  10              		.align	1
  11              		.globl	Initialize_Project
  13              	Initialize_Project:
  14              	.LFB7:
  15              		.file 1 "main.c"
   1:main.c        **** #include "gd32vf103.h"
   2:main.c        **** #include "lcd.h"
   3:main.c        **** #include "delay.h"
   4:main.c        **** #include "gd32v_mpu6500_if.h"
   5:main.c        **** #include "gd32vf103v_eval.h"
   6:main.c        **** #include "stdio.h"
   7:main.c        **** #include "string.h"
   8:main.c        **** #include "gd32v_tf_card_if.h"
   9:main.c        **** #include "pwm.h"
  10:main.c        **** 
  11:main.c        **** ////////////////////////// Define functions /////////////////////////////////////////
  12:main.c        **** void Initialize_Project();
  13:main.c        **** 
  14:main.c        **** void SendToSD(int data);
  15:main.c        **** 
  16:main.c        **** ///////////////////////////// Main function /////////////////////////////////////////
  17:main.c        **** int main(void) {   
  18:main.c        ****     Initialize_Project();
  19:main.c        **** 	///////////////////////// Acc & Gyro variables ///////////////////////////////////
  20:main.c        **** 
  21:main.c        **** 	/* The related data structure for the IMU, contains a vector of x, y, z floats*/
  22:main.c        ****     mpu_vector_t Acc;
  23:main.c        ****     float y;
  24:main.c        ****     int on = 0;
  25:main.c        ****     int G=0, R=0, S=0;         // States
  26:main.c        ****     uint16_t _color;
  27:main.c        **** 
  28:main.c        ****     /////////////////////////////////// SD-Card variables /////////////////////////////////////////
  29:main.c        ****     
  30:main.c        ****     /* Create an int for transmiting data to SD-Card & Clock to see when we should send it */
  31:main.c        ****     int redReps = 0;
  32:main.c        ****     int period = 7200000;
  33:main.c        ****     int hepticPeriod = 2000;
  34:main.c        ****     int testFreq = 200;
  35:main.c        ****     uint64_t start_mtime, delta_mtime;
  36:main.c        ****     uint64_t startH_mtime, deltaH_mtime;
  37:main.c        ****     uint64_t test_time_start, test_time_delta;
  38:main.c        ****     
  39:main.c        ****     test_time_start = get_timer_value();
  40:main.c        **** 	while(1) {
  41:main.c        ****         // Try multiplying y with 10 or 100 to get a better number to compare with, maybe use conve
  42:main.c        **** 
  43:main.c        ****         ///////////////////////////////////////////////// Accel & Gyro ////////////////////////////
GAS LISTING C:\Users\Kalle\AppData\Local\Temp\cc0gUAqU.s 			page 2


  44:main.c        **** 		
  45:main.c        ****         // Read button pressed (GPIO-pin)
  46:main.c        ****         if(gpio_input_bit_get(GPIOA, GPIO_PIN_6) == SET) {          // if Button is pressed        
  47:main.c        ****             if(on == 0) {
  48:main.c        ****                 on = 1; 
  49:main.c        ****             } else {
  50:main.c        ****                 on = 0;
  51:main.c        ****             }
  52:main.c        ****             while(gpio_input_bit_get(GPIOA, GPIO_PIN_6) == SET);    // while Button is pressed
  53:main.c        ****         }
  54:main.c        **** 
  55:main.c        ****         if(on == 0) {
  56:main.c        ****             // On a break 
  57:main.c        ****             start_mtime = get_timer_value();
  58:main.c        ****             if(S == 0){
  59:main.c        ****                 //LCD_Clear(1);
  60:main.c        ****                 SendToSD(redReps);                                  // Send redReps to SD-Card
  61:main.c        ****                 S=1;
  62:main.c        ****                 G=0;
  63:main.c        ****                 R=0;
  64:main.c        ****             }
  65:main.c        ****             /* Blink diod */
  66:main.c        ****             T1setPWMmotorB(1);
  67:main.c        ****             delay_1ms(200);
  68:main.c        ****             T1setPWMmotorB(0);
  69:main.c        ****             delay_1ms(200);
  70:main.c        ****         } else {
  71:main.c        ****             mpu6500_getAccel(&Acc);                     // Get accelleration data (Note: Blocking r
  72:main.c        ****             y = Acc.y / 16384;                          // Scale to G values   
  73:main.c        **** 
  74:main.c        ****             test_time_delta = get_timer_value() - test_time_start;
  75:main.c        **** 
  76:main.c        ****             if (test_time_delta >(SystemCoreClock/4000.0 *testFreq)){
  77:main.c        ****                 if(y>0.80) {
  78:main.c        ****                     _color = GREEN;
  79:main.c        ****                     if(G==0) {
  80:main.c        ****                         T1setPWMmotorB(0);
  81:main.c        ****                         // LCD_ShowNum1(10,10,y,8,_color);
  82:main.c        ****                         // LCD_ShowNum1(50,50,redReps,8,WHITE);
  83:main.c        ****                     }
  84:main.c        ****                     G=1;
  85:main.c        ****                     R=0;
  86:main.c        ****                 } else if(y<0.55) {
  87:main.c        ****                     _color = RED;
  88:main.c        ****                     if(R==0) {
  89:main.c        ****                         redReps++;
  90:main.c        ****                         T1setPWMmotorB(1);
  91:main.c        ****                         // LCD_ShowNum1(10,10,y,8,_color);
  92:main.c        ****                         // if((redReps%10)==0 && (redReps>0)) {
  93:main.c        ****                         //     startH_mtime = get_timer_value();
  94:main.c        ****                         // }
  95:main.c        ****                     }
  96:main.c        ****                     G=0;
  97:main.c        ****                     R=1;
  98:main.c        ****                 } else {
  99:main.c        ****                     T1setPWMmotorB(0);
 100:main.c        ****                 }
GAS LISTING C:\Users\Kalle\AppData\Local\Temp\cc0gUAqU.s 			page 3


 101:main.c        ****                 test_time_start = get_timer_value();
 102:main.c        ****             }
 103:main.c        ****             // deltaH_mtime = get_timer_value() - startH_mtime;
 104:main.c        ****             // if (deltaH_mtime < (SystemCoreClock/4000.0 *hepticPeriod)){
 105:main.c        ****             //     T1setPWMmotorB(1);
 106:main.c        ****             // } else T1setPWMmotorB(0);
 107:main.c        ****             
 108:main.c        ****             S = 0;    
 109:main.c        ****         }
 110:main.c        ****             
 111:main.c        ****         /////////////////////////////////////////////////// SD-Card ///////////////////////////////
 112:main.c        ****         // Count up the time passed in ms
 113:main.c        ****         delta_mtime = get_timer_value() - start_mtime;
 114:main.c        **** 
 115:main.c        ****         // Send to SD-Card after 2 hours of work
 116:main.c        ****         if (delta_mtime >(SystemCoreClock/4000.0 *period)){
 117:main.c        ****             SendToSD(redReps);      // Send redReps to SD-Card
 118:main.c        ****         }
 119:main.c        ****     };
 120:main.c        ****     
 121:main.c        **** }
 122:main.c        **** 
 123:main.c        **** ////////////////////////// Write functions /////////////////////////////////////////
 124:main.c        **** 
 125:main.c        **** void Initialize_Project(){
  16              		.loc 1 125 26
  17              		.cfi_startproc
 126:main.c        ****     ////////////////////////////////// Initialize  heptic feedback ////////////////////////////////
 127:main.c        ****     T1powerUpInitPWM(0x3);                  //Starts A0 and A1.
  18              		.loc 1 127 5
 125:main.c        ****     ////////////////////////////////// Initialize  heptic feedback ////////////////////////////////
  19              		.loc 1 125 26 is_stmt 0
  20 0000 4111     		addi	sp,sp,-16
  21              	.LCFI0:
  22              		.cfi_def_cfa_offset 16
  23              		.loc 1 127 5
  24 0002 0D45     		li	a0,3
 125:main.c        ****     ////////////////////////////////// Initialize  heptic feedback ////////////////////////////////
  25              		.loc 1 125 26
  26 0004 06C6     		sw	ra,12(sp)
  27 0006 22C4     		sw	s0,8(sp)
  28              		.cfi_offset 1, -4
  29              		.cfi_offset 8, -8
  30              		.loc 1 127 5
  31 0008 97000000 		call	T1powerUpInitPWM
  31      E7800000 
  32              	.LVL0:
 128:main.c        ****     ////////////////////////////////////// Initialize LCD /////////////////////////////////////////
 129:main.c        ****     // Lcd_SetType(LCD_INVERTED);
 130:main.c        ****     // Lcd_Init();
 131:main.c        ****     // LCD_Clear(1);
 132:main.c        ****     // LCD_DrawPoint(1,1,1);
 133:main.c        ****     // delay_1ms(100);
 134:main.c        **** 	//////////////////////////////////// Initialize Acc  ///////////////////////////////////////////
 135:main.c        **** 	/* Initialize pins for I2C */
 136:main.c        ****     rcu_periph_clock_enable(RCU_GPIOB);
  33              		.loc 1 136 5 is_stmt 1
GAS LISTING C:\Users\Kalle\AppData\Local\Temp\cc0gUAqU.s 			page 4


  34 0010 13053060 		li	a0,1539
  35 0014 97000000 		call	rcu_periph_clock_enable
  35      E7800000 
  36              	.LVL1:
 137:main.c        ****     rcu_periph_clock_enable(RCU_I2C0);
  37              		.loc 1 137 5
  38 001c 13055071 		li	a0,1813
  39 0020 97000000 		call	rcu_periph_clock_enable
  39      E7800000 
  40              	.LVL2:
 138:main.c        ****     gpio_init(GPIOB, GPIO_MODE_AF_OD, GPIO_OSPEED_50MHZ, GPIO_PIN_6 | GPIO_PIN_7);
  41              		.loc 1 138 5
  42 0028 37140140 		li	s0,1073811456
  43 002c 9306000C 		li	a3,192
  44 0030 0D46     		li	a2,3
  45 0032 F145     		li	a1,28
  46 0034 130504C0 		addi	a0,s0,-1024
  47 0038 97000000 		call	gpio_init
  47      E7800000 
  48              	.LVL3:
 139:main.c        ****     /* Initialize the IMU (Notice that MPU6500 is referenced, this is due to the fact that ICM-2060
 140:main.c        ****        ICM-20600 is mostly register compatible with MPU6500, if MPU6500 is used only thing that nee
 141:main.c        ****        to change is MPU6500_WHO_AM_I_ID from 0x11 to 0x70. */
 142:main.c        **** 
 143:main.c        ****     mpu6500_install(I2C0);
  49              		.loc 1 143 5
  50 0040 37550040 		li	a0,1073762304
  51 0044 13050540 		addi	a0,a0,1024
  52 0048 97000000 		call	mpu6500_install
  52      E7800000 
  53              	.LVL4:
 144:main.c        ****     //////////////////////////////////// Initialize Button  ///////////////////////////////////////
 145:main.c        ****     rcu_periph_clock_enable(RCU_GPIOA);
  54              		.loc 1 145 5
  55 0050 13052060 		li	a0,1538
  56 0054 97000000 		call	rcu_periph_clock_enable
  56      E7800000 
  57              	.LVL5:
 146:main.c        ****     /* This configures the A3 and A4 pins as inputs with internal pull ups enabled */
 147:main.c        ****     gpio_init(GPIOA, GPIO_MODE_IN_FLOATING, GPIO_OSPEED_50MHZ, GPIO_PIN_6);
  58              		.loc 1 147 5
  59 005c 93060004 		li	a3,64
  60 0060 0D46     		li	a2,3
  61 0062 9145     		li	a1,4
  62 0064 13050480 		addi	a0,s0,-2048
  63 0068 97000000 		call	gpio_init
  63      E7800000 
  64              	.LVL6:
 148:main.c        ****     
 149:main.c        ****     /* Blink diod */
 150:main.c        ****     T1setPWMmotorB(1);
  65              		.loc 1 150 5
  66 0070 0545     		li	a0,1
  67 0072 97000000 		call	T1setPWMmotorB
  67      E7800000 
  68              	.LVL7:
 151:main.c        ****     delay_1ms(1000);
GAS LISTING C:\Users\Kalle\AppData\Local\Temp\cc0gUAqU.s 			page 5


  69              		.loc 1 151 5
  70 007a 1305803E 		li	a0,1000
  71 007e 97000000 		call	delay_1ms
  71      E7800000 
  72              	.LVL8:
 152:main.c        ****     T1setPWMmotorB(0);
  73              		.loc 1 152 5
  74 0086 0145     		li	a0,0
  75 0088 97000000 		call	T1setPWMmotorB
  75      E7800000 
  76              	.LVL9:
 153:main.c        ****     delay_1ms(1000);
  77              		.loc 1 153 5
 154:main.c        **** }
  78              		.loc 1 154 1 is_stmt 0
  79 0090 2244     		lw	s0,8(sp)
  80              		.cfi_restore 8
  81 0092 B240     		lw	ra,12(sp)
  82              		.cfi_restore 1
 153:main.c        ****     delay_1ms(1000);
  83              		.loc 1 153 5
  84 0094 1305803E 		li	a0,1000
  85              		.loc 1 154 1
  86 0098 4101     		addi	sp,sp,16
  87              	.LCFI1:
  88              		.cfi_def_cfa_offset 0
 153:main.c        ****     delay_1ms(1000);
  89              		.loc 1 153 5
  90 009a 17030000 		tail	delay_1ms
  90      67000300 
  91              	.LVL10:
  92              		.cfi_endproc
  93              	.LFE7:
  95              		.section	.text.SendToSD,"ax",@progbits
  96              		.align	1
  97              		.globl	SendToSD
  99              	SendToSD:
 100              	.LFB8:
 155:main.c        **** 
 156:main.c        **** void SendToSD(int data){
 101              		.loc 1 156 24 is_stmt 1
 102              		.cfi_startproc
 103              	.LVL11:
 157:main.c        ****     FATFS fs;
 104              		.loc 1 157 5
 158:main.c        ****     volatile FRESULT fr;
 105              		.loc 1 158 5
 159:main.c        ****     FIL file;
 106              		.loc 1 159 5
 160:main.c        **** 
 161:main.c        ****     UINT bw = 0;
 107              		.loc 1 161 5
 156:main.c        ****     FATFS fs;
 108              		.loc 1 156 24 is_stmt 0
 109 0000 130101B1 		addi	sp,sp,-1264
 110              	.LCFI2:
 111              		.cfi_def_cfa_offset 1264
GAS LISTING C:\Users\Kalle\AppData\Local\Temp\cc0gUAqU.s 			page 6


 162:main.c        **** 
 163:main.c        ****     char information[128];
 164:main.c        ****     
 165:main.c        ****     set_fattime(2022,12,6,12,0,0);
 112              		.loc 1 165 5
 113 0004 0147     		li	a4,0
 114 0006 B146     		li	a3,12
 115 0008 8147     		li	a5,0
 156:main.c        ****     FATFS fs;
 116              		.loc 1 156 24
 117 000a 2324814E 		sw	s0,1256(sp)
 118              		.loc 1 165 5
 119 000e 1946     		li	a2,6
 120 0010 B145     		li	a1,12
 121              		.cfi_offset 8, -8
 156:main.c        ****     FATFS fs;
 122              		.loc 1 156 24
 123 0012 2A84     		mv	s0,a0
 124              		.loc 1 165 5
 125 0014 1305607E 		li	a0,2022
 126              	.LVL12:
 156:main.c        ****     FATFS fs;
 127              		.loc 1 156 24
 128 0018 2326114E 		sw	ra,1260(sp)
 129              		.cfi_offset 1, -4
 161:main.c        **** 
 130              		.loc 1 161 10
 131 001c 02C2     		sw	zero,4(sp)
 163:main.c        ****     
 132              		.loc 1 163 5 is_stmt 1
 133              		.loc 1 165 5
 134 001e 97000000 		call	set_fattime
 134      E7800000 
 135              	.LVL13:
 166:main.c        ****     delay_1ms(100);
 136              		.loc 1 166 5
 137 0026 13054006 		li	a0,100
 138 002a 97000000 		call	delay_1ms
 138      E7800000 
 139              	.LVL14:
 167:main.c        ****     
 168:main.c        ****     strcpy(information,"");
 140              		.loc 1 168 5
 169:main.c        ****     sprintf(&information[strlen(information)], "%d", data);
 141              		.loc 1 169 5 is_stmt 0
 142 0032 B7050000 		lui	a1,%hi(.LC0)
 143 0036 2286     		mv	a2,s0
 144 0038 93850500 		addi	a1,a1,%lo(.LC0)
 145 003c 2800     		addi	a0,sp,8
 168:main.c        ****     sprintf(&information[strlen(information)], "%d", data);
 146              		.loc 1 168 5
 147 003e 23040100 		sb	zero,8(sp)
 148              		.loc 1 169 5 is_stmt 1
 149 0042 97000000 		call	sprintf
 149      E7800000 
 150              	.LVL15:
 170:main.c        ****     strcat(information,"");
GAS LISTING C:\Users\Kalle\AppData\Local\Temp\cc0gUAqU.s 			page 7


 151              		.loc 1 170 5
 171:main.c        ****     
 172:main.c        ****     f_mount(&fs,"",1);
 152              		.loc 1 172 5
 153 004a B7050000 		lui	a1,%hi(.LC1)
 154 004e 0546     		li	a2,1
 155 0050 93850500 		addi	a1,a1,%lo(.LC1)
 156 0054 081D     		addi	a0,sp,688
 157 0056 97000000 		call	f_mount
 157      E7800000 
 158              	.LVL16:
 173:main.c        ****     f_sync(&file);
 159              		.loc 1 173 5
 160 005e 2801     		addi	a0,sp,136
 161 0060 97000000 		call	f_sync
 161      E7800000 
 162              	.LVL17:
 174:main.c        **** 
 175:main.c        ****     fr = f_open(&file, "DATA.TXT", FA_WRITE | FA_CREATE_ALWAYS);
 163              		.loc 1 175 5
 164              		.loc 1 175 10 is_stmt 0
 165 0068 B7050000 		lui	a1,%hi(.LC2)
 166 006c 2946     		li	a2,10
 167 006e 93850500 		addi	a1,a1,%lo(.LC2)
 168 0072 2801     		addi	a0,sp,136
 169 0074 97000000 		call	f_open
 169      E7800000 
 170              	.LVL18:
 171 007c AA87     		mv	a5,a0
 176:main.c        ****     fr = f_write(&file, information, strlen(information), &bw);
 172              		.loc 1 176 10
 173 007e 2800     		addi	a0,sp,8
 175:main.c        ****     fr = f_write(&file, information, strlen(information), &bw);
 174              		.loc 1 175 8
 175 0080 3EC0     		sw	a5,0(sp)
 176              		.loc 1 176 5 is_stmt 1
 177              		.loc 1 176 10 is_stmt 0
 178 0082 97000000 		call	strlen
 178      E7800000 
 179              	.LVL19:
 180 008a 2A86     		mv	a2,a0
 181 008c 5400     		addi	a3,sp,4
 182 008e 2C00     		addi	a1,sp,8
 183 0090 2801     		addi	a0,sp,136
 184 0092 97000000 		call	f_write
 184      E7800000 
 185              	.LVL20:
 186 009a AA87     		mv	a5,a0
 177:main.c        ****     delay_1ms(400);
 187              		.loc 1 177 5
 188 009c 13050019 		li	a0,400
 176:main.c        ****     fr = f_write(&file, information, strlen(information), &bw);
 189              		.loc 1 176 8
 190 00a0 3EC0     		sw	a5,0(sp)
 191              		.loc 1 177 5 is_stmt 1
 192 00a2 97000000 		call	delay_1ms
 192      E7800000 
GAS LISTING C:\Users\Kalle\AppData\Local\Temp\cc0gUAqU.s 			page 8


 193              	.LVL21:
 178:main.c        **** 
 179:main.c        ****     f_sync(&file);
 194              		.loc 1 179 5
 195 00aa 2801     		addi	a0,sp,136
 196 00ac 97000000 		call	f_sync
 196      E7800000 
 197              	.LVL22:
 180:main.c        **** 
 181:main.c        ****     f_close(&file);
 198              		.loc 1 181 5
 199 00b4 2801     		addi	a0,sp,136
 200 00b6 97000000 		call	f_close
 200      E7800000 
 201              	.LVL23:
 182:main.c        ****     delay_1ms(100);
 202              		.loc 1 182 5
 203 00be 13054006 		li	a0,100
 204 00c2 97000000 		call	delay_1ms
 204      E7800000 
 205              	.LVL24:
 183:main.c        **** 
 184:main.c        **** }
 206              		.loc 1 184 1 is_stmt 0
 207 00ca 8320C14E 		lw	ra,1260(sp)
 208              		.cfi_restore 1
 209 00ce 0324814E 		lw	s0,1256(sp)
 210              		.cfi_restore 8
 211              	.LVL25:
 212 00d2 1301014F 		addi	sp,sp,1264
 213              	.LCFI3:
 214              		.cfi_def_cfa_offset 0
 215 00d6 8280     		jr	ra
 216              		.cfi_endproc
 217              	.LFE8:
 219              		.globl	__floatundidf
 220              		.globl	__floatunsidf
 221              		.globl	__divdf3
 222              		.globl	__muldf3
 223              		.globl	__gtdf2
 224              		.globl	__mulsf3
 225              		.globl	__extendsfdf2
 226              		.globl	__ltdf2
 227              		.section	.text.startup.main,"ax",@progbits
 228              		.align	1
 229              		.globl	main
 231              	main:
 232              	.LFB6:
  17:main.c        ****     Initialize_Project();
 233              		.loc 1 17 16 is_stmt 1
 234              		.cfi_startproc
  18:main.c        **** 	///////////////////////// Acc & Gyro variables ///////////////////////////////////
 235              		.loc 1 18 5
  17:main.c        ****     Initialize_Project();
 236              		.loc 1 17 16 is_stmt 0
 237 0000 7571     		addi	sp,sp,-144
 238              	.LCFI4:
GAS LISTING C:\Users\Kalle\AppData\Local\Temp\cc0gUAqU.s 			page 9


 239              		.cfi_def_cfa_offset 144
 240 0002 06C7     		sw	ra,140(sp)
 241 0004 22C5     		sw	s0,136(sp)
 242 0006 4AC1     		sw	s2,128(sp)
 243 0008 D6DA     		sw	s5,116(sp)
 244 000a DAD8     		sw	s6,112(sp)
 245 000c DED6     		sw	s7,108(sp)
 246 000e EAD0     		sw	s10,96(sp)
 247 0010 EECE     		sw	s11,92(sp)
 248 0012 26C3     		sw	s1,132(sp)
 249 0014 CEDE     		sw	s3,124(sp)
 250 0016 D2DC     		sw	s4,120(sp)
 251 0018 E2D4     		sw	s8,104(sp)
 252 001a E6D2     		sw	s9,100(sp)
 253              		.cfi_offset 1, -4
 254              		.cfi_offset 8, -8
 255              		.cfi_offset 18, -16
 256              		.cfi_offset 21, -28
 257              		.cfi_offset 22, -32
 258              		.cfi_offset 23, -36
 259              		.cfi_offset 26, -48
 260              		.cfi_offset 27, -52
 261              		.cfi_offset 9, -12
 262              		.cfi_offset 19, -20
 263              		.cfi_offset 20, -24
 264              		.cfi_offset 24, -40
 265              		.cfi_offset 25, -44
  18:main.c        **** 	///////////////////////// Acc & Gyro variables ///////////////////////////////////
 266              		.loc 1 18 5
 267 001c 97000000 		call	Initialize_Project
 267      E7800000 
 268              	.LVL26:
  22:main.c        ****     float y;
 269              		.loc 1 22 5 is_stmt 1
  23:main.c        ****     int on = 0;
 270              		.loc 1 23 5
  24:main.c        ****     int G=0, R=0, S=0;         // States
 271              		.loc 1 24 5
  25:main.c        ****     uint16_t _color;
 272              		.loc 1 25 5
  26:main.c        **** 
 273              		.loc 1 26 5
  31:main.c        ****     int period = 7200000;
 274              		.loc 1 31 5
  32:main.c        ****     int hepticPeriod = 2000;
 275              		.loc 1 32 5
  33:main.c        ****     int testFreq = 200;
 276              		.loc 1 33 5
  34:main.c        ****     uint64_t start_mtime, delta_mtime;
 277              		.loc 1 34 5
  35:main.c        ****     uint64_t startH_mtime, deltaH_mtime;
 278              		.loc 1 35 5
  36:main.c        ****     uint64_t test_time_start, test_time_delta;
 279              		.loc 1 36 5
  37:main.c        ****     
 280              		.loc 1 37 5
  39:main.c        **** 	while(1) {
GAS LISTING C:\Users\Kalle\AppData\Local\Temp\cc0gUAqU.s 			page 10


 281              		.loc 1 39 5
  39:main.c        **** 	while(1) {
 282              		.loc 1 39 23 is_stmt 0
 283 0024 97000000 		call	get_timer_value
 283      E7800000 
 284              	.LVL27:
 285 002c B7070000 		lui	a5,%hi(.LC3)
  76:main.c        ****                 if(y>0.80) {
 286              		.loc 1 76 50
 287 0030 03AD0700 		lw	s10,%lo(.LC3)(a5)
 288 0034 83AB4700 		lw	s7,%lo(.LC3+4)(a5)
  76:main.c        ****                 if(y>0.80) {
 289              		.loc 1 76 58
 290 0038 B7070000 		lui	a5,%hi(.LC4)
 291 003c 03A84700 		lw	a6,%lo(.LC4+4)(a5)
 292 0040 83A70700 		lw	a5,%lo(.LC4)(a5)
  46:main.c        ****             if(on == 0) {
 293              		.loc 1 46 12
 294 0044 37140140 		li	s0,1073811456
  76:main.c        ****                 if(y>0.80) {
 295              		.loc 1 76 58
 296 0048 42CA     		sw	a6,20(sp)
 297 004a 3EC8     		sw	a5,16(sp)
  72:main.c        **** 
 298              		.loc 1 72 15
 299 004c B7070000 		lui	a5,%hi(.LC5)
 300 0050 83A70700 		lw	a5,%lo(.LC5)(a5)
  39:main.c        **** 	while(1) {
 301              		.loc 1 39 23
 302 0054 2AC6     		sw	a0,12(sp)
 303 0056 2ECC     		sw	a1,24(sp)
 304              	.LVL28:
  72:main.c        **** 
 305              		.loc 1 72 15
 306 0058 3ED6     		sw	a5,44(sp)
  77:main.c        ****                     _color = GREEN;
 307              		.loc 1 77 19
 308 005a B7070000 		lui	a5,%hi(.LC6)
 309 005e 03A84700 		lw	a6,%lo(.LC6+4)(a5)
 310 0062 83A70700 		lw	a5,%lo(.LC6)(a5)
  76:main.c        ****                 if(y>0.80) {
 311              		.loc 1 76 50
 312 0066 6ACE     		sw	s10,28(sp)
  77:main.c        ****                     _color = GREEN;
 313              		.loc 1 77 19
 314 0068 42DA     		sw	a6,52(sp)
 315 006a 3ED8     		sw	a5,48(sp)
  86:main.c        ****                     _color = RED;
 316              		.loc 1 86 26
 317 006c B7070000 		lui	a5,%hi(.LC7)
 318 0070 03A84700 		lw	a6,%lo(.LC7+4)(a5)
 319 0074 83A70700 		lw	a5,%lo(.LC7)(a5)
  76:main.c        ****                 if(y>0.80) {
 320              		.loc 1 76 50
 321 0078 5ED0     		sw	s7,32(sp)
  86:main.c        ****                     _color = RED;
 322              		.loc 1 86 26
GAS LISTING C:\Users\Kalle\AppData\Local\Temp\cc0gUAqU.s 			page 11


 323 007a 42DE     		sw	a6,60(sp)
 324 007c 3EDC     		sw	a5,56(sp)
 116:main.c        ****             SendToSD(redReps);      // Send redReps to SD-Card
 325              		.loc 1 116 50
 326 007e B7070000 		lui	a5,%hi(.LC8)
 327 0082 03A84700 		lw	a6,%lo(.LC8+4)(a5)
 328 0086 83A70700 		lw	a5,%lo(.LC8)(a5)
  31:main.c        ****     int period = 7200000;
 329              		.loc 1 31 9
 330 008a 814D     		li	s11,0
 116:main.c        ****             SendToSD(redReps);      // Send redReps to SD-Card
 331              		.loc 1 116 50
 332 008c 42C2     		sw	a6,4(sp)
 333 008e 3EC0     		sw	a5,0(sp)
  25:main.c        ****     uint16_t _color;
 334              		.loc 1 25 19
 335 0090 814A     		li	s5,0
  25:main.c        ****     uint16_t _color;
 336              		.loc 1 25 14
 337 0092 02D4     		sw	zero,40(sp)
  25:main.c        ****     uint16_t _color;
 338              		.loc 1 25 9
 339 0094 02D2     		sw	zero,36(sp)
  24:main.c        ****     int G=0, R=0, S=0;         // States
 340              		.loc 1 24 9
 341 0096 014B     		li	s6,0
 342 0098 37090000 		lui	s2,%hi(SystemCoreClock)
  46:main.c        ****             if(on == 0) {
 343              		.loc 1 46 12
 344 009c 13040480 		addi	s0,s0,-2048
 345              	.LVL29:
 346              	.L7:
  40:main.c        ****         // Try multiplying y with 10 or 100 to get a better number to compare with, maybe use conve
 347              		.loc 1 40 2 is_stmt 1
  46:main.c        ****             if(on == 0) {
 348              		.loc 1 46 9
  46:main.c        ****             if(on == 0) {
 349              		.loc 1 46 12 is_stmt 0
 350 00a0 93050004 		li	a1,64
 351 00a4 2285     		mv	a0,s0
 352 00a6 97000000 		call	gpio_input_bit_get
 352      E7800000 
 353              	.LVL30:
  46:main.c        ****             if(on == 0) {
 354              		.loc 1 46 11
 355 00ae 8547     		li	a5,1
 356 00b0 6300F50C 		beq	a0,a5,.L33
 357              	.LVL31:
 358              	.L8:
  55:main.c        ****             // On a break 
 359              		.loc 1 55 9 is_stmt 1
  55:main.c        ****             // On a break 
 360              		.loc 1 55 11 is_stmt 0
 361 00b4 631C0B0C 		bne	s6,zero,.L10
 362              	.L35:
 363              	.LVL32:
  57:main.c        ****             if(S == 0){
GAS LISTING C:\Users\Kalle\AppData\Local\Temp\cc0gUAqU.s 			page 12


 364              		.loc 1 57 13 is_stmt 1
  57:main.c        ****             if(S == 0){
 365              		.loc 1 57 27 is_stmt 0
 366 00b8 97000000 		call	get_timer_value
 366      E7800000 
 367              	.LVL33:
 368 00c0 AA89     		mv	s3,a0
 369 00c2 2E8A     		mv	s4,a1
 370              	.LVL34:
  58:main.c        ****                 //LCD_Clear(1);
 371              		.loc 1 58 13 is_stmt 1
  58:main.c        ****                 //LCD_Clear(1);
 372              		.loc 1 58 15 is_stmt 0
 373 00c4 63880A16 		beq	s5,zero,.L34
 374              	.LVL35:
 375              	.L11:
  66:main.c        ****             delay_1ms(200);
 376              		.loc 1 66 13 is_stmt 1
 377 00c8 0545     		li	a0,1
 378 00ca 97000000 		call	T1setPWMmotorB
 378      E7800000 
 379              	.LVL36:
  67:main.c        ****             T1setPWMmotorB(0);
 380              		.loc 1 67 13
 381 00d2 1305800C 		li	a0,200
 382 00d6 97000000 		call	delay_1ms
 382      E7800000 
 383              	.LVL37:
  68:main.c        ****             delay_1ms(200);
 384              		.loc 1 68 13
 385 00de 0145     		li	a0,0
 386 00e0 97000000 		call	T1setPWMmotorB
 386      E7800000 
 387              	.LVL38:
  69:main.c        ****         } else {
 388              		.loc 1 69 13
 389 00e8 1305800C 		li	a0,200
 390 00ec 97000000 		call	delay_1ms
 390      E7800000 
 391              	.LVL39:
 392 00f4 854A     		li	s5,1
 393              	.LVL40:
 394              	.L12:
 113:main.c        **** 
 395              		.loc 1 113 9
 113:main.c        **** 
 396              		.loc 1 113 23 is_stmt 0
 397 00f6 97000000 		call	get_timer_value
 397      E7800000 
 398              	.LVL41:
 399 00fe AA87     		mv	a5,a0
 400              	.LVL42:
 116:main.c        ****             SendToSD(redReps);      // Send redReps to SD-Card
 401              		.loc 1 116 9 is_stmt 1
 113:main.c        **** 
 402              		.loc 1 113 21 is_stmt 0
 403 0100 33053541 		sub	a0,a0,s3
GAS LISTING C:\Users\Kalle\AppData\Local\Temp\cc0gUAqU.s 			page 13


 404              	.LVL43:
 405 0104 B3B7A700 		sgtu	a5,a0,a5
 406              	.LVL44:
 407 0108 B3854541 		sub	a1,a1,s4
 116:main.c        ****             SendToSD(redReps);      // Send redReps to SD-Card
 408              		.loc 1 116 25
 409 010c 9D8D     		sub	a1,a1,a5
 410 010e 97000000 		call	__floatundidf
 410      E7800000 
 411              	.LVL45:
 412 0116 2A8C     		mv	s8,a0
 116:main.c        ****             SendToSD(redReps);      // Send redReps to SD-Card
 413              		.loc 1 116 42
 414 0118 03250900 		lw	a0,%lo(SystemCoreClock)(s2)
 116:main.c        ****             SendToSD(redReps);      // Send redReps to SD-Card
 415              		.loc 1 116 25
 416 011c AE8C     		mv	s9,a1
 116:main.c        ****             SendToSD(redReps);      // Send redReps to SD-Card
 417              		.loc 1 116 42
 418 011e 97000000 		call	__floatunsidf
 418      E7800000 
 419              	.LVL46:
 420 0126 6A86     		mv	a2,s10
 421 0128 DE86     		mv	a3,s7
 422 012a 97000000 		call	__divdf3
 422      E7800000 
 423              	.LVL47:
 116:main.c        ****             SendToSD(redReps);      // Send redReps to SD-Card
 424              		.loc 1 116 50
 425 0132 0246     		lw	a2,0(sp)
 426 0134 9246     		lw	a3,4(sp)
 427 0136 97000000 		call	__muldf3
 427      E7800000 
 428              	.LVL48:
 116:main.c        ****             SendToSD(redReps);      // Send redReps to SD-Card
 429              		.loc 1 116 12
 430 013e 2A86     		mv	a2,a0
 431 0140 AE86     		mv	a3,a1
 432 0142 6285     		mv	a0,s8
 433 0144 E685     		mv	a1,s9
 434 0146 97000000 		call	__gtdf2
 434      E7800000 
 435              	.LVL49:
 436 014e E359A0F4 		ble	a0,zero,.L7
 117:main.c        ****         }
 437              		.loc 1 117 13 is_stmt 1
 438 0152 6E85     		mv	a0,s11
 439 0154 97000000 		call	SendToSD
 439      E7800000 
 440              	.LVL50:
  40:main.c        ****         // Try multiplying y with 10 or 100 to get a better number to compare with, maybe use conve
 441              		.loc 1 40 2
  46:main.c        ****             if(on == 0) {
 442              		.loc 1 46 9
  46:main.c        ****             if(on == 0) {
 443              		.loc 1 46 12 is_stmt 0
 444 015c 93050004 		li	a1,64
GAS LISTING C:\Users\Kalle\AppData\Local\Temp\cc0gUAqU.s 			page 14


 445 0160 2285     		mv	a0,s0
 446 0162 97000000 		call	gpio_input_bit_get
 446      E7800000 
 447              	.LVL51:
  46:main.c        ****             if(on == 0) {
 448              		.loc 1 46 11
 449 016a 8547     		li	a5,1
 450 016c E314F5F4 		bne	a0,a5,.L8
 451              	.LVL52:
 452              	.L33:
  47:main.c        ****                 on = 1; 
 453              		.loc 1 47 13 is_stmt 1
 454 0170 134B1B00 		xori	s6,s6,1
 455              	.LVL53:
  52:main.c        ****         }
 456              		.loc 1 52 18 is_stmt 0
 457 0174 8544     		li	s1,1
 458              	.LVL54:
 459              	.L9:
  52:main.c        ****         }
 460              		.loc 1 52 64 is_stmt 1 discriminator 1
  52:main.c        ****         }
 461              		.loc 1 52 19 is_stmt 0 discriminator 1
 462 0176 93050004 		li	a1,64
 463 017a 2285     		mv	a0,s0
 464 017c 97000000 		call	gpio_input_bit_get
 464      E7800000 
 465              	.LVL55:
  52:main.c        ****         }
 466              		.loc 1 52 18 discriminator 1
 467 0184 E30995FE 		beq	a0,s1,.L9
  55:main.c        ****             // On a break 
 468              		.loc 1 55 9 is_stmt 1
  55:main.c        ****             // On a break 
 469              		.loc 1 55 11 is_stmt 0
 470 0188 E3080BF2 		beq	s6,zero,.L35
 471              	.L10:
  71:main.c        ****             y = Acc.y / 16384;                          // Scale to G values   
 472              		.loc 1 71 13 is_stmt 1
 473 018c C800     		addi	a0,sp,68
 474 018e 97000000 		call	mpu6500_getAccel
 474      E7800000 
 475              	.LVL56:
  72:main.c        **** 
 476              		.loc 1 72 13
  72:main.c        **** 
 477              		.loc 1 72 20 is_stmt 0
 478 0196 A644     		lw	s1,72(sp)
 479              	.LVL57:
  74:main.c        **** 
 480              		.loc 1 74 13 is_stmt 1
  74:main.c        **** 
 481              		.loc 1 74 31 is_stmt 0
 482 0198 97000000 		call	get_timer_value
 482      E7800000 
 483              	.LVL58:
  74:main.c        **** 
GAS LISTING C:\Users\Kalle\AppData\Local\Temp\cc0gUAqU.s 			page 15


 484              		.loc 1 74 29
 485 01a0 3247     		lw	a4,12(sp)
  74:main.c        **** 
 486              		.loc 1 74 31
 487 01a2 AA87     		mv	a5,a0
 488              	.LVL59:
  76:main.c        ****                 if(y>0.80) {
 489              		.loc 1 76 13 is_stmt 1
 108:main.c        ****         }
 490              		.loc 1 108 15 is_stmt 0
 491 01a4 814A     		li	s5,0
 492              	.LVL60:
  74:main.c        **** 
 493              		.loc 1 74 29
 494 01a6 198D     		sub	a0,a0,a4
 495              	.LVL61:
 496 01a8 6247     		lw	a4,24(sp)
 497              	.LVL62:
 498 01aa B3B7A700 		sgtu	a5,a0,a5
 499              	.LVL63:
 500 01ae 998D     		sub	a1,a1,a4
  76:main.c        ****                 if(y>0.80) {
 501              		.loc 1 76 33
 502 01b0 9D8D     		sub	a1,a1,a5
 503 01b2 97000000 		call	__floatundidf
 503      E7800000 
 504              	.LVL64:
 505 01ba 2A8C     		mv	s8,a0
  76:main.c        ****                 if(y>0.80) {
 506              		.loc 1 76 50
 507 01bc 03250900 		lw	a0,%lo(SystemCoreClock)(s2)
  76:main.c        ****                 if(y>0.80) {
 508              		.loc 1 76 33
 509 01c0 AE8C     		mv	s9,a1
  76:main.c        ****                 if(y>0.80) {
 510              		.loc 1 76 50
 511 01c2 97000000 		call	__floatunsidf
 511      E7800000 
 512              	.LVL65:
 513 01ca 7246     		lw	a2,28(sp)
 514 01cc 8256     		lw	a3,32(sp)
 515 01ce 97000000 		call	__divdf3
 515      E7800000 
 516              	.LVL66:
  76:main.c        ****                 if(y>0.80) {
 517              		.loc 1 76 58
 518 01d6 4246     		lw	a2,16(sp)
 519 01d8 D246     		lw	a3,20(sp)
 520 01da 97000000 		call	__muldf3
 520      E7800000 
 521              	.LVL67:
  76:main.c        ****                 if(y>0.80) {
 522              		.loc 1 76 16
 523 01e2 2A86     		mv	a2,a0
 524 01e4 AE86     		mv	a3,a1
 525 01e6 6285     		mv	a0,s8
 526 01e8 E685     		mv	a1,s9
GAS LISTING C:\Users\Kalle\AppData\Local\Temp\cc0gUAqU.s 			page 16


 527 01ea 97000000 		call	__gtdf2
 527      E7800000 
 528              	.LVL68:
 529 01f2 E352A0F0 		ble	a0,zero,.L12
  77:main.c        ****                     _color = GREEN;
 530              		.loc 1 77 17 is_stmt 1
  72:main.c        **** 
 531              		.loc 1 72 15 is_stmt 0
 532 01f6 B255     		lw	a1,44(sp)
 533 01f8 2685     		mv	a0,s1
 534 01fa 97000000 		call	__mulsf3
 534      E7800000 
 535              	.LVL69:
  77:main.c        ****                     _color = GREEN;
 536              		.loc 1 77 21
 537 0202 97000000 		call	__extendsfdf2
 537      E7800000 
 538              	.LVL70:
  77:main.c        ****                     _color = GREEN;
 539              		.loc 1 77 19
 540 020a 4256     		lw	a2,48(sp)
 541 020c D256     		lw	a3,52(sp)
  77:main.c        ****                     _color = GREEN;
 542              		.loc 1 77 21
 543 020e 2A8C     		mv	s8,a0
 544 0210 AE8C     		mv	s9,a1
  77:main.c        ****                     _color = GREEN;
 545              		.loc 1 77 19
 546 0212 97000000 		call	__gtdf2
 546      E7800000 
 547              	.LVL71:
 548 021a 6355A002 		ble	a0,zero,.L30
  78:main.c        ****                     if(G==0) {
 549              		.loc 1 78 21 is_stmt 1
 550              	.LVL72:
  79:main.c        ****                         T1setPWMmotorB(0);
 551              		.loc 1 79 21
  79:main.c        ****                         T1setPWMmotorB(0);
 552              		.loc 1 79 23 is_stmt 0
 553 021e 9257     		lw	a5,36(sp)
  85:main.c        ****                 } else if(y<0.55) {
 554              		.loc 1 85 22
 555 0220 02D4     		sw	zero,40(sp)
 556              	.LVL73:
  79:main.c        ****                         T1setPWMmotorB(0);
 557              		.loc 1 79 23
 558 0222 A9CF     		beq	a5,zero,.L36
 559              	.LVL74:
 560              	.L16:
 101:main.c        ****             }
 561              		.loc 1 101 17 is_stmt 1
 101:main.c        ****             }
 562              		.loc 1 101 35 is_stmt 0
 563 0224 97000000 		call	get_timer_value
 563      E7800000 
 564              	.LVL75:
 565 022c 2AC6     		sw	a0,12(sp)
GAS LISTING C:\Users\Kalle\AppData\Local\Temp\cc0gUAqU.s 			page 17


 566 022e 2ECC     		sw	a1,24(sp)
 567              	.LVL76:
 108:main.c        ****         }
 568              		.loc 1 108 15
 569 0230 814A     		li	s5,0
 570 0232 D1B5     		j	.L12
 571              	.LVL77:
 572              	.L34:
  60:main.c        ****                 S=1;
 573              		.loc 1 60 17 is_stmt 1
 574 0234 6E85     		mv	a0,s11
 575              	.LVL78:
 576 0236 97000000 		call	SendToSD
 576      E7800000 
 577              	.LVL79:
  61:main.c        ****                 G=0;
 578              		.loc 1 61 17
  62:main.c        ****                 R=0;
 579              		.loc 1 62 17
  63:main.c        ****             }
 580              		.loc 1 63 17
  63:main.c        ****             }
 581              		.loc 1 63 18 is_stmt 0
 582 023e 02D4     		sw	zero,40(sp)
  62:main.c        ****                 R=0;
 583              		.loc 1 62 18
 584 0240 02D2     		sw	zero,36(sp)
 585 0242 59B5     		j	.L11
 586              	.LVL80:
 587              	.L30:
  86:main.c        ****                     _color = RED;
 588              		.loc 1 86 24 is_stmt 1
  86:main.c        ****                     _color = RED;
 589              		.loc 1 86 26 is_stmt 0
 590 0244 6256     		lw	a2,56(sp)
 591 0246 F256     		lw	a3,60(sp)
 592 0248 6285     		mv	a0,s8
 593 024a E685     		mv	a1,s9
 594 024c 97000000 		call	__ltdf2
 594      E7800000 
 595              	.LVL81:
 596 0254 635E0500 		bge	a0,zero,.L31
  87:main.c        ****                     if(R==0) {
 597              		.loc 1 87 21 is_stmt 1
 598              	.LVL82:
  88:main.c        ****                         redReps++;
 599              		.loc 1 88 21
  88:main.c        ****                         redReps++;
 600              		.loc 1 88 23 is_stmt 0
 601 0258 A257     		lw	a5,40(sp)
  96:main.c        ****                     R=1;
 602              		.loc 1 96 22
 603 025a 02D2     		sw	zero,36(sp)
 604              	.LVL83:
  88:main.c        ****                         redReps++;
 605              		.loc 1 88 23
 606 025c E1F7     		bne	a5,zero,.L16
GAS LISTING C:\Users\Kalle\AppData\Local\Temp\cc0gUAqU.s 			page 18


  89:main.c        ****                         T1setPWMmotorB(1);
 607              		.loc 1 89 25 is_stmt 1
  90:main.c        ****                         // LCD_ShowNum1(10,10,y,8,_color);
 608              		.loc 1 90 25 is_stmt 0
 609 025e 0545     		li	a0,1
  96:main.c        ****                     R=1;
 610              		.loc 1 96 22
 611 0260 3ED2     		sw	a5,36(sp)
  89:main.c        ****                         T1setPWMmotorB(1);
 612              		.loc 1 89 32
 613 0262 850D     		addi	s11,s11,1
 614              	.LVL84:
  90:main.c        ****                         // LCD_ShowNum1(10,10,y,8,_color);
 615              		.loc 1 90 25 is_stmt 1
 616 0264 97000000 		call	T1setPWMmotorB
 616      E7800000 
 617              	.LVL85:
  97:main.c        ****                 } else {
 618              		.loc 1 97 22 is_stmt 0
 619 026c 5AD4     		sw	s6,40(sp)
 620              	.LVL86:
 621 026e 5DBF     		j	.L16
 622              	.LVL87:
 623              	.L31:
  99:main.c        ****                 }
 624              		.loc 1 99 21 is_stmt 1
 625 0270 0145     		li	a0,0
 626 0272 97000000 		call	T1setPWMmotorB
 626      E7800000 
 627              	.LVL88:
 628 027a 6DB7     		j	.L16
 629              	.LVL89:
 630              	.L36:
  80:main.c        ****                         // LCD_ShowNum1(10,10,y,8,_color);
 631              		.loc 1 80 25
 632 027c 0145     		li	a0,0
  85:main.c        ****                 } else if(y<0.55) {
 633              		.loc 1 85 22 is_stmt 0
 634 027e 3ED4     		sw	a5,40(sp)
  80:main.c        ****                         // LCD_ShowNum1(10,10,y,8,_color);
 635              		.loc 1 80 25
 636 0280 97000000 		call	T1setPWMmotorB
 636      E7800000 
 637              	.LVL90:
  84:main.c        ****                     R=0;
 638              		.loc 1 84 22
 639 0288 5AD2     		sw	s6,36(sp)
 640              	.LVL91:
 641 028a 69BF     		j	.L16
 642              		.cfi_endproc
 643              	.LFE6:
 645              		.section	.rodata.SendToSD.str1.4,"aMS",@progbits,1
 646              		.align	2
 647              	.LC0:
 648 0000 256400   		.string	"%d"
 649 0003 00       		.zero	1
 650              	.LC1:
GAS LISTING C:\Users\Kalle\AppData\Local\Temp\cc0gUAqU.s 			page 19


 651 0004 00       		.string	""
 652 0005 000000   		.zero	3
 653              	.LC2:
 654 0008 44415441 		.string	"DATA.TXT"
 654      2E545854 
 654      00
 655              		.section	.rodata.main.cst4,"aM",@progbits,4
 656              		.align	2
 657              	.LC5:
 658 0000 00008038 		.word	947912704
 659              		.section	.rodata.main.cst8,"aM",@progbits,8
 660              		.align	3
 661              	.LC3:
 662 0000 00000000 		.word	0
 663 0004 0040AF40 		.word	1085227008
 664              	.LC4:
 665 0008 00000000 		.word	0
 666 000c 00006940 		.word	1080623104
 667              	.LC6:
 668 0010 9A999999 		.word	-1717986918
 669 0014 9999E93F 		.word	1072273817
 670              	.LC7:
 671 0018 9A999999 		.word	-1717986918
 672 001c 9999E13F 		.word	1071749529
 673              	.LC8:
 674 0020 00000000 		.word	0
 675 0024 40775B41 		.word	1096513344
 676              		.text
 677              	.Letext0:
 678              		.file 2 "c:\\idrotttek-kurs\\toolchain-gd32v-win\\compiler\\riscv64-unknown-elf\\include\\machine\
 679              		.file 3 "c:\\idrotttek-kurs\\toolchain-gd32v-win\\compiler\\riscv64-unknown-elf\\include\\sys\\_st
 680              		.file 4 "../../firmware/GD32VF103_standard_peripheral/gd32vf103.h"
 681              		.file 5 "../../firmware/GD32VF103_standard_peripheral/Include/gd32vf103_rcu.h"
 682              		.file 6 "c:\\idrotttek-kurs\\toolchain-gd32v-win\\compiler\\lib\\gcc\\riscv64-unknown-elf\\8.3.0\\
 683              		.file 7 "c:\\idrotttek-kurs\\toolchain-gd32v-win\\compiler\\riscv64-unknown-elf\\include\\sys\\_ty
 684              		.file 8 "c:\\idrotttek-kurs\\toolchain-gd32v-win\\compiler\\riscv64-unknown-elf\\include\\sys\\ree
 685              		.file 9 "c:\\idrotttek-kurs\\toolchain-gd32v-win\\compiler\\riscv64-unknown-elf\\include\\sys\\loc
 686              		.file 10 "../../firmware/GD32VF103_standard_peripheral/system_gd32vf103.h"
 687              		.file 11 "c:\\idrotttek-kurs\\toolchain-gd32v-win\\compiler\\riscv64-unknown-elf\\include\\stdlib.
 688              		.file 12 "lib/lcd/include/lcd.h"
 689              		.file 13 "lib/mpu6500/include/mpu6500_driver.h"
 690              		.file 14 "lib/fatfs/include/ff.h"
 691              		.file 15 "lib/fatfs/include/gd32v_tf_card_if.h"
 692              		.file 16 "lib/delay/include/delay.h"
 693              		.file 17 "c:\\idrotttek-kurs\\toolchain-gd32v-win\\compiler\\riscv64-unknown-elf\\include\\stdio.h
 694              		.file 18 "c:\\idrotttek-kurs\\toolchain-gd32v-win\\compiler\\riscv64-unknown-elf\\include\\string.
 695              		.file 19 "lib/pwm/include/pwm.h"
 696              		.file 20 "../../firmware/GD32VF103_standard_peripheral/Include/gd32vf103_gpio.h"
 697              		.file 21 "lib/mpu6500/include/gd32v_mpu6500_if.h"
 698              		.file 22 "../../firmware/RISCV/drivers/n200_func.h"
GAS LISTING C:\Users\Kalle\AppData\Local\Temp\cc0gUAqU.s 			page 20

