GAS LISTING C:\Users\Kalle\AppData\Local\Temp\cctneNSz.s 			page 1


   1              		.file	"mpu6500_driver.c"
   2              		.option nopic
   3              		.attribute arch, "rv32i2p0_m2p0_a2p0_c2p0"
   4              		.attribute unaligned_access, 0
   5              		.attribute stack_align, 16
   6              		.text
   7              	.Ltext0:
   8              		.cfi_sections	.debug_frame
   9              		.section	.text.read_mpu,"ax",@progbits
  10              		.align	1
  11              		.globl	read_mpu
  13              	read_mpu:
  14              	.LFB3:
  15              		.file 1 "lib/mpu6500/src/mpu6500_driver.c"
   1:lib/mpu6500/src/mpu6500_driver.c **** #include "mpu6500_driver.h"
   2:lib/mpu6500/src/mpu6500_driver.c **** #include "stdint.h"
   3:lib/mpu6500/src/mpu6500_driver.c **** 
   4:lib/mpu6500/src/mpu6500_driver.c **** typedef struct{
   5:lib/mpu6500/src/mpu6500_driver.c **** 	void (*read)(void* pHandle, uint8_t addr, uint8_t reg, uint8_t size, uint8_t* pData);
   6:lib/mpu6500/src/mpu6500_driver.c **** 	void (*write)(void* pHandle, uint8_t addr, uint8_t reg, uint8_t size, uint8_t* pData);
   7:lib/mpu6500/src/mpu6500_driver.c **** 	void (*delay)(int millis);
   8:lib/mpu6500/src/mpu6500_driver.c **** 	void* pHandle;
   9:lib/mpu6500/src/mpu6500_driver.c **** }mpu6500_comms_t;
  10:lib/mpu6500/src/mpu6500_driver.c **** 
  11:lib/mpu6500/src/mpu6500_driver.c **** mpu6500_comms_t cb;
  12:lib/mpu6500/src/mpu6500_driver.c **** 
  13:lib/mpu6500/src/mpu6500_driver.c **** void read_mpu(uint8_t reg, uint8_t size, uint8_t* data){
  16              		.loc 1 13 56
  17              		.cfi_startproc
  18              	.LVL0:
  14:lib/mpu6500/src/mpu6500_driver.c **** 	cb.read(cb.pHandle, MPU6500_ADDR, reg, size, data);
  19              		.loc 1 14 2
  20 0000 B7070000 		lui	a5,%hi(cb)
  21 0004 93870700 		addi	a5,a5,%lo(cb)
  22 0008 3287     		mv	a4,a2
  23 000a 03A30700 		lw	t1,0(a5)
  24 000e 2A86     		mv	a2,a0
  25              	.LVL1:
  26 0010 C847     		lw	a0,12(a5)
  27              	.LVL2:
  28 0012 AE86     		mv	a3,a1
  29 0014 93058006 		li	a1,104
  30              	.LVL3:
  31 0018 0283     		jr	t1
  32              	.LVL4:
  33              		.cfi_endproc
  34              	.LFE3:
  36              		.section	.text.write_mpu,"ax",@progbits
  37              		.align	1
  38              		.globl	write_mpu
  40              	write_mpu:
  41              	.LFB4:
  15:lib/mpu6500/src/mpu6500_driver.c **** }
  16:lib/mpu6500/src/mpu6500_driver.c **** 
  17:lib/mpu6500/src/mpu6500_driver.c **** void write_mpu(uint8_t reg, uint8_t size, uint8_t* data){
  42              		.loc 1 17 57
  43              		.cfi_startproc
GAS LISTING C:\Users\Kalle\AppData\Local\Temp\cctneNSz.s 			page 2


  44              	.LVL5:
  18:lib/mpu6500/src/mpu6500_driver.c **** 	cb.write(cb.pHandle, MPU6500_ADDR, reg, size, data);
  45              		.loc 1 18 2
  46 0000 B7070000 		lui	a5,%hi(cb)
  47 0004 93870700 		addi	a5,a5,%lo(cb)
  48 0008 3287     		mv	a4,a2
  49 000a 03A34700 		lw	t1,4(a5)
  50 000e 2A86     		mv	a2,a0
  51              	.LVL6:
  52 0010 C847     		lw	a0,12(a5)
  53              	.LVL7:
  54 0012 AE86     		mv	a3,a1
  55 0014 93058006 		li	a1,104
  56              	.LVL8:
  57 0018 0283     		jr	t1
  58              	.LVL9:
  59              		.cfi_endproc
  60              	.LFE4:
  62              		.section	.text.flip_bytes,"ax",@progbits
  63              		.align	1
  64              		.globl	flip_bytes
  66              	flip_bytes:
  67              	.LFB5:
  19:lib/mpu6500/src/mpu6500_driver.c **** }
  20:lib/mpu6500/src/mpu6500_driver.c **** 
  21:lib/mpu6500/src/mpu6500_driver.c **** int16_t flip_bytes(int16_t bt){
  68              		.loc 1 21 31
  69              		.cfi_startproc
  70              	.LVL10:
  22:lib/mpu6500/src/mpu6500_driver.c **** 	uint8_t* pByte = (uint8_t*)&bt;
  71              		.loc 1 22 2
  23:lib/mpu6500/src/mpu6500_driver.c **** 	uint8_t temp = pByte[1];
  24:lib/mpu6500/src/mpu6500_driver.c **** 	pByte[1] = pByte[0];
  25:lib/mpu6500/src/mpu6500_driver.c **** 	pByte[0] = temp;
  72              		.loc 1 25 11 is_stmt 0
  73 0000 93170501 		slli	a5,a0,16
  74 0004 C183     		srli	a5,a5,16
  75 0006 2205     		slli	a0,a0,8
  76              	.LVL11:
  77 0008 A183     		srli	a5,a5,8
  78 000a 5D8D     		or	a0,a0,a5
  21:lib/mpu6500/src/mpu6500_driver.c **** 	uint8_t* pByte = (uint8_t*)&bt;
  79              		.loc 1 21 31
  80 000c 4111     		addi	sp,sp,-16
  81              	.LCFI0:
  82              		.cfi_def_cfa_offset 16
  83              	.LVL12:
  23:lib/mpu6500/src/mpu6500_driver.c **** 	uint8_t temp = pByte[1];
  84              		.loc 1 23 2 is_stmt 1
  24:lib/mpu6500/src/mpu6500_driver.c **** 	pByte[0] = temp;
  85              		.loc 1 24 2
  86              		.loc 1 25 2
  26:lib/mpu6500/src/mpu6500_driver.c **** 	return bt; 
  87              		.loc 1 26 2
  27:lib/mpu6500/src/mpu6500_driver.c **** }
  88              		.loc 1 27 1 is_stmt 0
  89 000e 4205     		slli	a0,a0,16
GAS LISTING C:\Users\Kalle\AppData\Local\Temp\cctneNSz.s 			page 3


  90 0010 4185     		srai	a0,a0,16
  91 0012 4101     		addi	sp,sp,16
  92              	.LCFI1:
  93              		.cfi_def_cfa_offset 0
  94              	.LVL13:
  95 0014 8280     		jr	ra
  96              		.cfi_endproc
  97              	.LFE5:
  99              		.section	.text.mpu6500_init,"ax",@progbits
 100              		.align	1
 101              		.globl	mpu6500_init
 103              	mpu6500_init:
 104              	.LFB6:
  28:lib/mpu6500/src/mpu6500_driver.c **** 
  29:lib/mpu6500/src/mpu6500_driver.c **** int mpu6500_init(void (*read_cb)(void* pHandle, uint8_t addr, uint8_t reg, uint8_t size, uint8_t* p
  30:lib/mpu6500/src/mpu6500_driver.c **** 				 void (*write_cb)(void* pHandle, uint8_t addr, uint8_t reg, uint8_t size, uint8_t* pData),
  31:lib/mpu6500/src/mpu6500_driver.c **** 				 void (*delay_cb)(int millis),
  32:lib/mpu6500/src/mpu6500_driver.c **** 				 void* pHandle){
 105              		.loc 1 32 20 is_stmt 1
 106              		.cfi_startproc
 107              	.LVL14:
  33:lib/mpu6500/src/mpu6500_driver.c **** 	uint8_t read_buffer[4];
 108              		.loc 1 33 2
  34:lib/mpu6500/src/mpu6500_driver.c **** 	uint8_t write_buffer[4];
 109              		.loc 1 34 2
  35:lib/mpu6500/src/mpu6500_driver.c **** 	cb.read = read_cb;
 110              		.loc 1 35 2
  32:lib/mpu6500/src/mpu6500_driver.c **** 	uint8_t read_buffer[4];
 111              		.loc 1 32 20 is_stmt 0
 112 0000 0111     		addi	sp,sp,-32
 113              	.LCFI2:
 114              		.cfi_def_cfa_offset 32
 115 0002 22CC     		sw	s0,24(sp)
 116              		.cfi_offset 8, -8
 117              		.loc 1 35 10
 118 0004 37040000 		lui	s0,%hi(cb)
 119 0008 13040400 		addi	s0,s0,%lo(cb)
  32:lib/mpu6500/src/mpu6500_driver.c **** 	uint8_t read_buffer[4];
 120              		.loc 1 32 20
 121 000c AA87     		mv	a5,a0
  36:lib/mpu6500/src/mpu6500_driver.c **** 	cb.write = write_cb;
 122              		.loc 1 36 11
 123 000e 4CC0     		sw	a1,4(s0)
  32:lib/mpu6500/src/mpu6500_driver.c **** 	uint8_t read_buffer[4];
 124              		.loc 1 32 20
 125 0010 3685     		mv	a0,a3
 126              	.LVL15:
  37:lib/mpu6500/src/mpu6500_driver.c **** 	cb.delay = delay_cb;
 127              		.loc 1 37 11
 128 0012 10C4     		sw	a2,8(s0)
  35:lib/mpu6500/src/mpu6500_driver.c **** 	cb.write = write_cb;
 129              		.loc 1 35 10
 130 0014 1CC0     		sw	a5,0(s0)
  36:lib/mpu6500/src/mpu6500_driver.c **** 	cb.write = write_cb;
 131              		.loc 1 36 2 is_stmt 1
 132              		.loc 1 37 2
  38:lib/mpu6500/src/mpu6500_driver.c **** 	cb.pHandle = pHandle;
GAS LISTING C:\Users\Kalle\AppData\Local\Temp\cctneNSz.s 			page 4


 133              		.loc 1 38 2
 134              		.loc 1 38 13 is_stmt 0
 135 0016 54C4     		sw	a3,12(s0)
  39:lib/mpu6500/src/mpu6500_driver.c **** 
  40:lib/mpu6500/src/mpu6500_driver.c **** 
  41:lib/mpu6500/src/mpu6500_driver.c **** 
  42:lib/mpu6500/src/mpu6500_driver.c **** 	read_mpu(MPU6500_WHO_AM_I, 1, read_buffer);
 136              		.loc 1 42 2 is_stmt 1
 137              	.LVL16:
 138              	.LBB40:
 139              	.LBB41:
  14:lib/mpu6500/src/mpu6500_driver.c **** }
 140              		.loc 1 14 2
 141 0018 3800     		addi	a4,sp,8
 142              	.LVL17:
 143              	.LBE41:
 144              	.LBE40:
  32:lib/mpu6500/src/mpu6500_driver.c **** 	uint8_t read_buffer[4];
 145              		.loc 1 32 20 is_stmt 0
 146 001a 06CE     		sw	ra,28(sp)
 147 001c 26CA     		sw	s1,20(sp)
 148              		.cfi_offset 1, -4
 149              		.cfi_offset 9, -12
 150              	.LBB43:
 151              	.LBB42:
  14:lib/mpu6500/src/mpu6500_driver.c **** }
 152              		.loc 1 14 2
 153 001e 8546     		li	a3,1
 154              	.LVL18:
 155 0020 13065007 		li	a2,117
 156              	.LVL19:
 157 0024 93058006 		li	a1,104
 158              	.LVL20:
 159 0028 8297     		jalr	a5
 160              	.LVL21:
 161              	.LBE42:
 162              	.LBE43:
  43:lib/mpu6500/src/mpu6500_driver.c **** 	if(read_buffer[0] != MPU6500_WHO_AM_I_ID) return -1;
 163              		.loc 1 43 2 is_stmt 1
 164              		.loc 1 43 4 is_stmt 0
 165 002a 03478100 		lbu	a4,8(sp)
 166 002e D947     		li	a5,22
 167              		.loc 1 43 51
 168 0030 7D55     		li	a0,-1
 169              		.loc 1 43 4
 170 0032 6312F710 		bne	a4,a5,.L6
  44:lib/mpu6500/src/mpu6500_driver.c **** 
  45:lib/mpu6500/src/mpu6500_driver.c **** 	write_buffer[0] = MPU6500_DEVICE_RESET;
 171              		.loc 1 45 2 is_stmt 1
 172              	.LBB44:
 173              	.LBB45:
  18:lib/mpu6500/src/mpu6500_driver.c **** }
 174              		.loc 1 18 2 is_stmt 0
 175 0036 4844     		lw	a0,12(s0)
 176 0038 5C40     		lw	a5,4(s0)
 177              	.LBE45:
 178              	.LBE44:
GAS LISTING C:\Users\Kalle\AppData\Local\Temp\cctneNSz.s 			page 5


 179              		.loc 1 45 18
 180 003a 130800F8 		li	a6,-128
 181              	.LBB48:
 182              	.LBB46:
  18:lib/mpu6500/src/mpu6500_driver.c **** }
 183              		.loc 1 18 2
 184 003e 7800     		addi	a4,sp,12
 185 0040 8546     		li	a3,1
 186 0042 1306B006 		li	a2,107
 187 0046 93058006 		li	a1,104
 188              	.LBE46:
 189              	.LBE48:
 190              		.loc 1 45 18
 191 004a 23060101 		sb	a6,12(sp)
  46:lib/mpu6500/src/mpu6500_driver.c **** 	write_mpu(MPU6500_PWR_MGMT_1, 1, write_buffer);
 192              		.loc 1 46 2 is_stmt 1
 193              	.LVL22:
 194              	.LBB49:
 195              	.LBB47:
  18:lib/mpu6500/src/mpu6500_driver.c **** }
 196              		.loc 1 18 2
 197 004e 8297     		jalr	a5
 198              	.LVL23:
 199              	.LBE47:
 200              	.LBE49:
  47:lib/mpu6500/src/mpu6500_driver.c **** 
  48:lib/mpu6500/src/mpu6500_driver.c **** 	cb.delay(100);
 201              		.loc 1 48 2
 202 0050 1C44     		lw	a5,8(s0)
 203 0052 13054006 		li	a0,100
 204 0056 8297     		jalr	a5
 205              	.LVL24:
  49:lib/mpu6500/src/mpu6500_driver.c **** 
  50:lib/mpu6500/src/mpu6500_driver.c **** 	while(read_buffer[0] & MPU6500_DEVICE_RESET) read_mpu(MPU6500_PWR_MGMT_1, 1, read_buffer);
 206              		.loc 1 50 2
 207              		.loc 1 50 7 is_stmt 0
 208 0058 83078100 		lb	a5,8(sp)
 209 005c 63DF0700 		bge	a5,zero,.L8
 210              	.L9:
 211              		.loc 1 50 47 is_stmt 1
 212              	.LVL25:
 213              	.LBB50:
 214              	.LBB51:
  14:lib/mpu6500/src/mpu6500_driver.c **** }
 215              		.loc 1 14 2
 216 0060 1C40     		lw	a5,0(s0)
 217 0062 4844     		lw	a0,12(s0)
 218 0064 3800     		addi	a4,sp,8
 219              	.LVL26:
 220 0066 8546     		li	a3,1
 221 0068 1306B006 		li	a2,107
 222 006c 93058006 		li	a1,104
 223 0070 8297     		jalr	a5
 224              	.LVL27:
 225              	.LBE51:
 226              	.LBE50:
 227              		.loc 1 50 7 is_stmt 0
GAS LISTING C:\Users\Kalle\AppData\Local\Temp\cctneNSz.s 			page 6


 228 0072 83078100 		lb	a5,8(sp)
 229 0076 E3C507FE 		blt	a5,zero,.L9
 230              	.LVL28:
 231              	.L8:
  51:lib/mpu6500/src/mpu6500_driver.c **** 
  52:lib/mpu6500/src/mpu6500_driver.c **** 	cb.delay(100);
 232              		.loc 1 52 2 is_stmt 1
 233 007a 1C44     		lw	a5,8(s0)
 234 007c 13054006 		li	a0,100
  53:lib/mpu6500/src/mpu6500_driver.c **** 
  54:lib/mpu6500/src/mpu6500_driver.c **** 	write_buffer[0] = MPU6500_TEMP_DIS | 0x01; //select PLL
  55:lib/mpu6500/src/mpu6500_driver.c **** 	write_mpu(MPU6500_PWR_MGMT_1, 1, write_buffer);
  56:lib/mpu6500/src/mpu6500_driver.c **** 
  57:lib/mpu6500/src/mpu6500_driver.c **** 	write_buffer[0] = 0x00;
  58:lib/mpu6500/src/mpu6500_driver.c **** 	write_mpu(MPU6500_SMPLRT_DIV, 1, write_buffer);
  59:lib/mpu6500/src/mpu6500_driver.c **** 
  60:lib/mpu6500/src/mpu6500_driver.c **** 	write_buffer[0] = MPU6500_G_DLPF_92HZ;				// Frekvensen vi vill configurera med, förmodligen vill
 235              		.loc 1 60 18 is_stmt 0
 236 0080 8944     		li	s1,2
  52:lib/mpu6500/src/mpu6500_driver.c **** 
 237              		.loc 1 52 2
 238 0082 8297     		jalr	a5
 239              	.LVL29:
  54:lib/mpu6500/src/mpu6500_driver.c **** 	write_mpu(MPU6500_PWR_MGMT_1, 1, write_buffer);
 240              		.loc 1 54 2 is_stmt 1
 241              	.LBB52:
 242              	.LBB53:
  18:lib/mpu6500/src/mpu6500_driver.c **** }
 243              		.loc 1 18 2 is_stmt 0
 244 0084 4844     		lw	a0,12(s0)
 245 0086 5C40     		lw	a5,4(s0)
 246              	.LBE53:
 247              	.LBE52:
  54:lib/mpu6500/src/mpu6500_driver.c **** 	write_mpu(MPU6500_PWR_MGMT_1, 1, write_buffer);
 248              		.loc 1 54 18
 249 0088 2548     		li	a6,9
 250 008a 23060101 		sb	a6,12(sp)
  55:lib/mpu6500/src/mpu6500_driver.c **** 
 251              		.loc 1 55 2 is_stmt 1
 252              	.LVL30:
 253              	.LBB55:
 254              	.LBB54:
  18:lib/mpu6500/src/mpu6500_driver.c **** }
 255              		.loc 1 18 2
 256 008e 7800     		addi	a4,sp,12
 257              	.LVL31:
 258 0090 8546     		li	a3,1
 259 0092 1306B006 		li	a2,107
 260 0096 93058006 		li	a1,104
 261 009a 8297     		jalr	a5
 262              	.LVL32:
 263              	.LBE54:
 264              	.LBE55:
  57:lib/mpu6500/src/mpu6500_driver.c **** 	write_mpu(MPU6500_SMPLRT_DIV, 1, write_buffer);
 265              		.loc 1 57 2
 266              	.LBB56:
 267              	.LBB57:
GAS LISTING C:\Users\Kalle\AppData\Local\Temp\cctneNSz.s 			page 7


  18:lib/mpu6500/src/mpu6500_driver.c **** }
 268              		.loc 1 18 2 is_stmt 0
 269 009c 4844     		lw	a0,12(s0)
 270 009e 5C40     		lw	a5,4(s0)
 271 00a0 7800     		addi	a4,sp,12
 272 00a2 8546     		li	a3,1
 273 00a4 6546     		li	a2,25
 274 00a6 93058006 		li	a1,104
 275              	.LBE57:
 276              	.LBE56:
  57:lib/mpu6500/src/mpu6500_driver.c **** 	write_mpu(MPU6500_SMPLRT_DIV, 1, write_buffer);
 277              		.loc 1 57 18
 278 00aa 23060100 		sb	zero,12(sp)
  58:lib/mpu6500/src/mpu6500_driver.c **** 
 279              		.loc 1 58 2 is_stmt 1
 280              	.LVL33:
 281              	.LBB59:
 282              	.LBB58:
  18:lib/mpu6500/src/mpu6500_driver.c **** }
 283              		.loc 1 18 2
 284 00ae 8297     		jalr	a5
 285              	.LVL34:
 286              	.LBE58:
 287              	.LBE59:
 288              		.loc 1 60 2
 289              	.LBB60:
 290              	.LBB61:
  18:lib/mpu6500/src/mpu6500_driver.c **** }
 291              		.loc 1 18 2 is_stmt 0
 292 00b0 4844     		lw	a0,12(s0)
 293 00b2 5C40     		lw	a5,4(s0)
 294 00b4 7800     		addi	a4,sp,12
 295 00b6 8546     		li	a3,1
 296 00b8 6946     		li	a2,26
 297 00ba 93058006 		li	a1,104
 298              	.LBE61:
 299              	.LBE60:
 300              		.loc 1 60 18
 301 00be 23069100 		sb	s1,12(sp)
  61:lib/mpu6500/src/mpu6500_driver.c **** 	write_mpu(MPU6500_CONFIG, 1, write_buffer);
 302              		.loc 1 61 2 is_stmt 1
 303              	.LVL35:
 304              	.LBB63:
 305              	.LBB62:
  18:lib/mpu6500/src/mpu6500_driver.c **** }
 306              		.loc 1 18 2
 307 00c2 8297     		jalr	a5
 308              	.LVL36:
 309              	.LBE62:
 310              	.LBE63:
  62:lib/mpu6500/src/mpu6500_driver.c **** 
  63:lib/mpu6500/src/mpu6500_driver.c **** 	write_buffer[0] = MPU6500_GYRO_FS_2000DPS;			// Inställd skala för att läsa av från Gyron, kan
 311              		.loc 1 63 2
 312              	.LBB64:
 313              	.LBB65:
  18:lib/mpu6500/src/mpu6500_driver.c **** }
 314              		.loc 1 18 2 is_stmt 0
GAS LISTING C:\Users\Kalle\AppData\Local\Temp\cctneNSz.s 			page 8


 315 00c4 4844     		lw	a0,12(s0)
 316 00c6 5C40     		lw	a5,4(s0)
 317              	.LBE65:
 318              	.LBE64:
 319              		.loc 1 63 18
 320 00c8 6148     		li	a6,24
 321 00ca 23060101 		sb	a6,12(sp)
  64:lib/mpu6500/src/mpu6500_driver.c **** 	write_mpu(MPU6500_GYRO_CONFIG, 1, write_buffer);
 322              		.loc 1 64 2 is_stmt 1
 323              	.LVL37:
 324              	.LBB67:
 325              	.LBB66:
  18:lib/mpu6500/src/mpu6500_driver.c **** }
 326              		.loc 1 18 2
 327 00ce 7800     		addi	a4,sp,12
 328              	.LVL38:
 329 00d0 8546     		li	a3,1
 330 00d2 6D46     		li	a2,27
 331 00d4 93058006 		li	a1,104
 332 00d8 8297     		jalr	a5
 333              	.LVL39:
 334              	.LBE66:
 335              	.LBE67:
  65:lib/mpu6500/src/mpu6500_driver.c **** 
  66:lib/mpu6500/src/mpu6500_driver.c **** 	write_buffer[0] = MPU6500_ACCEL_FS_2G;				// Inställd skala för att läsa av från Gyron, kan ä
 336              		.loc 1 66 2
 337              	.LBB68:
 338              	.LBB69:
  18:lib/mpu6500/src/mpu6500_driver.c **** }
 339              		.loc 1 18 2 is_stmt 0
 340 00da 4844     		lw	a0,12(s0)
 341 00dc 5C40     		lw	a5,4(s0)
 342 00de 7800     		addi	a4,sp,12
 343 00e0 8546     		li	a3,1
 344 00e2 7146     		li	a2,28
 345 00e4 93058006 		li	a1,104
 346              	.LBE69:
 347              	.LBE68:
 348              		.loc 1 66 18
 349 00e8 23060100 		sb	zero,12(sp)
  67:lib/mpu6500/src/mpu6500_driver.c **** 	write_mpu(MPU6500_ACCEL_CONFIG, 1, write_buffer);
 350              		.loc 1 67 2 is_stmt 1
 351              	.LVL40:
 352              	.LBB71:
 353              	.LBB70:
  18:lib/mpu6500/src/mpu6500_driver.c **** }
 354              		.loc 1 18 2
 355 00ec 8297     		jalr	a5
 356              	.LVL41:
 357              	.LBE70:
 358              	.LBE71:
  68:lib/mpu6500/src/mpu6500_driver.c **** 	
  69:lib/mpu6500/src/mpu6500_driver.c **** 	write_buffer[0] = MPU6500_A_DPLF_92HZ;				// Frekvensen vi vill configurera med, förmodligen vill
 359              		.loc 1 69 2
 360              	.LBB72:
 361              	.LBB73:
  18:lib/mpu6500/src/mpu6500_driver.c **** }
GAS LISTING C:\Users\Kalle\AppData\Local\Temp\cctneNSz.s 			page 9


 362              		.loc 1 18 2 is_stmt 0
 363 00ee 4844     		lw	a0,12(s0)
 364 00f0 5C40     		lw	a5,4(s0)
 365 00f2 7800     		addi	a4,sp,12
 366 00f4 8546     		li	a3,1
 367 00f6 7546     		li	a2,29
 368 00f8 93058006 		li	a1,104
 369              	.LBE73:
 370              	.LBE72:
 371              		.loc 1 69 18
 372 00fc 23069100 		sb	s1,12(sp)
  70:lib/mpu6500/src/mpu6500_driver.c **** 	write_mpu(MPU6500_ACCEL_CONFIG2, 1, write_buffer);
 373              		.loc 1 70 2 is_stmt 1
 374              	.LVL42:
 375              	.LBB75:
 376              	.LBB74:
  18:lib/mpu6500/src/mpu6500_driver.c **** }
 377              		.loc 1 18 2
 378 0100 8297     		jalr	a5
 379              	.LVL43:
 380              	.LBE74:
 381              	.LBE75:
  71:lib/mpu6500/src/mpu6500_driver.c **** 
  72:lib/mpu6500/src/mpu6500_driver.c **** 	write_buffer[0] = MPU6500_LATCH_INT_EN | MPU6500_INT_ANYRD_2CLEAR | MPU6500_INT_BYPASS_EN;
 382              		.loc 1 72 2
 383              	.LBB76:
 384              	.LBB77:
  18:lib/mpu6500/src/mpu6500_driver.c **** }
 385              		.loc 1 18 2 is_stmt 0
 386 0102 4844     		lw	a0,12(s0)
 387 0104 5C40     		lw	a5,4(s0)
 388              	.LBE77:
 389              	.LBE76:
 390              		.loc 1 72 18
 391 0106 13082003 		li	a6,50
 392              	.LBB80:
 393              	.LBB78:
  18:lib/mpu6500/src/mpu6500_driver.c **** }
 394              		.loc 1 18 2
 395 010a 7800     		addi	a4,sp,12
 396 010c 8546     		li	a3,1
 397 010e 13067003 		li	a2,55
 398 0112 93058006 		li	a1,104
 399              	.LBE78:
 400              	.LBE80:
 401              		.loc 1 72 18
 402 0116 23060101 		sb	a6,12(sp)
  73:lib/mpu6500/src/mpu6500_driver.c **** 	write_mpu(MPU6500_INT_PIN_CFG, 1, write_buffer);
 403              		.loc 1 73 2 is_stmt 1
 404              	.LVL44:
 405              	.LBB81:
 406              	.LBB79:
  18:lib/mpu6500/src/mpu6500_driver.c **** }
 407              		.loc 1 18 2
 408 011a 8297     		jalr	a5
 409              	.LVL45:
 410              	.LBE79:
GAS LISTING C:\Users\Kalle\AppData\Local\Temp\cctneNSz.s 			page 10


 411              	.LBE81:
  74:lib/mpu6500/src/mpu6500_driver.c **** 
  75:lib/mpu6500/src/mpu6500_driver.c **** 	write_buffer[0] = MPU6500_INT_RAW_RDY_EN;
 412              		.loc 1 75 2
 413              	.LBB82:
 414              	.LBB83:
  18:lib/mpu6500/src/mpu6500_driver.c **** }
 415              		.loc 1 18 2 is_stmt 0
 416 011c 4844     		lw	a0,12(s0)
 417 011e 5C40     		lw	a5,4(s0)
 418              	.LBE83:
 419              	.LBE82:
 420              		.loc 1 75 18
 421 0120 0547     		li	a4,1
 422 0122 2306E100 		sb	a4,12(sp)
  76:lib/mpu6500/src/mpu6500_driver.c **** 	write_mpu(MPU6500_INT_ENABLE, 1, write_buffer);
 423              		.loc 1 76 2 is_stmt 1
 424              	.LVL46:
 425              	.LBB85:
 426              	.LBB84:
  18:lib/mpu6500/src/mpu6500_driver.c **** }
 427              		.loc 1 18 2
 428 0126 8546     		li	a3,1
 429 0128 7800     		addi	a4,sp,12
 430              	.LVL47:
 431 012a 13068003 		li	a2,56
 432 012e 93058006 		li	a1,104
 433 0132 8297     		jalr	a5
 434              	.LVL48:
 435              	.LBE84:
 436              	.LBE85:
  77:lib/mpu6500/src/mpu6500_driver.c **** 
  78:lib/mpu6500/src/mpu6500_driver.c **** 	return 1;
 437              		.loc 1 78 2
 438              		.loc 1 78 9 is_stmt 0
 439 0134 0545     		li	a0,1
 440              	.L6:
  79:lib/mpu6500/src/mpu6500_driver.c **** 
  80:lib/mpu6500/src/mpu6500_driver.c **** }
 441              		.loc 1 80 1
 442 0136 F240     		lw	ra,28(sp)
 443              		.cfi_restore 1
 444 0138 6244     		lw	s0,24(sp)
 445              		.cfi_restore 8
 446 013a D244     		lw	s1,20(sp)
 447              		.cfi_restore 9
 448 013c 0561     		addi	sp,sp,32
 449              	.LCFI3:
 450              		.cfi_def_cfa_offset 0
 451 013e 8280     		jr	ra
 452              		.cfi_endproc
 453              	.LFE6:
 455              		.globl	__floatsisf
 456              		.section	.text.mpu6500_getAccel,"ax",@progbits
 457              		.align	1
 458              		.globl	mpu6500_getAccel
 460              	mpu6500_getAccel:
GAS LISTING C:\Users\Kalle\AppData\Local\Temp\cctneNSz.s 			page 11


 461              	.LFB7:
  81:lib/mpu6500/src/mpu6500_driver.c **** 
  82:lib/mpu6500/src/mpu6500_driver.c **** // MPU 6500 DataSheet: http://invensense.wpenginepowered.com/wp-content/uploads/2020/06/PS-MPU-6500
  83:lib/mpu6500/src/mpu6500_driver.c **** 
  84:lib/mpu6500/src/mpu6500_driver.c **** int mpu6500_getAccel(mpu_vector_t* pAccel){
 462              		.loc 1 84 43 is_stmt 1
 463              		.cfi_startproc
 464              	.LVL49:
  85:lib/mpu6500/src/mpu6500_driver.c **** 	mpu_raw_vector_t accel;
 465              		.loc 1 85 2
  86:lib/mpu6500/src/mpu6500_driver.c **** 	read_mpu(MPU6500_ACCEL_XOUT_H, 6, (uint8_t*) &accel); 	// Skickar rådata som måste skalas i main
 466              		.loc 1 86 2
 467              	.LBB86:
 468              	.LBB87:
  14:lib/mpu6500/src/mpu6500_driver.c **** }
 469              		.loc 1 14 2 is_stmt 0
 470 0000 B7070000 		lui	a5,%hi(cb)
 471              	.LBE87:
 472              	.LBE86:
  84:lib/mpu6500/src/mpu6500_driver.c **** 	mpu_raw_vector_t accel;
 473              		.loc 1 84 43
 474 0004 0111     		addi	sp,sp,-32
 475              	.LCFI4:
 476              		.cfi_def_cfa_offset 32
 477              	.LVL50:
 478              	.LBB92:
 479              	.LBB88:
  14:lib/mpu6500/src/mpu6500_driver.c **** }
 480              		.loc 1 14 2 is_stmt 1
 481 0006 93870700 		addi	a5,a5,%lo(cb)
 482              	.LBE88:
 483              	.LBE92:
  84:lib/mpu6500/src/mpu6500_driver.c **** 	mpu_raw_vector_t accel;
 484              		.loc 1 84 43 is_stmt 0
 485 000a 22CC     		sw	s0,24(sp)
 486              	.LBB93:
 487              	.LBB89:
  14:lib/mpu6500/src/mpu6500_driver.c **** }
 488              		.loc 1 14 2
 489 000c 03A80700 		lw	a6,0(a5)
 490              		.cfi_offset 8, -8
 491              	.LBE89:
 492              	.LBE93:
  84:lib/mpu6500/src/mpu6500_driver.c **** 	mpu_raw_vector_t accel;
 493              		.loc 1 84 43
 494 0010 2A84     		mv	s0,a0
 495              	.LBB94:
 496              	.LBB90:
  14:lib/mpu6500/src/mpu6500_driver.c **** }
 497              		.loc 1 14 2
 498 0012 C847     		lw	a0,12(a5)
 499              	.LVL51:
 500              	.LBE90:
 501              	.LBE94:
  84:lib/mpu6500/src/mpu6500_driver.c **** 	mpu_raw_vector_t accel;
 502              		.loc 1 84 43
 503 0014 06CE     		sw	ra,28(sp)
GAS LISTING C:\Users\Kalle\AppData\Local\Temp\cctneNSz.s 			page 12


 504              		.cfi_offset 1, -4
 505              	.LBB95:
 506              	.LBB91:
  14:lib/mpu6500/src/mpu6500_driver.c **** }
 507              		.loc 1 14 2
 508 0016 9946     		li	a3,6
 509 0018 1306B003 		li	a2,59
 510 001c 93058006 		li	a1,104
 511 0020 3800     		addi	a4,sp,8
 512              	.LVL52:
 513 0022 0298     		jalr	a6
 514              	.LVL53:
 515              	.LBE91:
 516              	.LBE95:
  87:lib/mpu6500/src/mpu6500_driver.c **** 	pAccel->x = (float) flip_bytes(accel.x);
 517              		.loc 1 87 2 is_stmt 1
 518              		.loc 1 87 22 is_stmt 0
 519 0024 83178100 		lh	a5,8(sp)
 520              	.LVL54:
 521              	.LBB96:
 522              	.LBB97:
  22:lib/mpu6500/src/mpu6500_driver.c **** 	uint8_t temp = pByte[1];
 523              		.loc 1 22 2 is_stmt 1
  23:lib/mpu6500/src/mpu6500_driver.c **** 	pByte[1] = pByte[0];
 524              		.loc 1 23 2
  24:lib/mpu6500/src/mpu6500_driver.c **** 	pByte[0] = temp;
 525              		.loc 1 24 2
  25:lib/mpu6500/src/mpu6500_driver.c **** 	return bt; 
 526              		.loc 1 25 11 is_stmt 0
 527 0028 13D78700 		srli	a4,a5,8
  24:lib/mpu6500/src/mpu6500_driver.c **** 	pByte[0] = temp;
 528              		.loc 1 24 11
 529 002c A303F100 		sb	a5,7(sp)
 530              	.LVL55:
  25:lib/mpu6500/src/mpu6500_driver.c **** 	return bt; 
 531              		.loc 1 25 2 is_stmt 1
  25:lib/mpu6500/src/mpu6500_driver.c **** 	return bt; 
 532              		.loc 1 25 11 is_stmt 0
 533 0030 2303E100 		sb	a4,6(sp)
  26:lib/mpu6500/src/mpu6500_driver.c **** }
 534              		.loc 1 26 2 is_stmt 1
 535              	.LVL56:
 536              	.LBE97:
 537              	.LBE96:
 538              		.loc 1 87 14 is_stmt 0
 539 0034 03156100 		lh	a0,6(sp)
 540 0038 97000000 		call	__floatsisf
 540      E7800000 
 541              	.LVL57:
  88:lib/mpu6500/src/mpu6500_driver.c **** 	pAccel->y = (float) flip_bytes(accel.y);
 542              		.loc 1 88 22
 543 0040 8317A100 		lh	a5,10(sp)
  87:lib/mpu6500/src/mpu6500_driver.c **** 	pAccel->y = (float) flip_bytes(accel.y);
 544              		.loc 1 87 14
 545 0044 08C0     		sw	a0,0(s0)
 546              		.loc 1 88 2 is_stmt 1
 547              	.LVL58:
GAS LISTING C:\Users\Kalle\AppData\Local\Temp\cctneNSz.s 			page 13


 548              	.LBB98:
 549              	.LBB99:
  22:lib/mpu6500/src/mpu6500_driver.c **** 	uint8_t temp = pByte[1];
 550              		.loc 1 22 2
  23:lib/mpu6500/src/mpu6500_driver.c **** 	pByte[1] = pByte[0];
 551              		.loc 1 23 2
  24:lib/mpu6500/src/mpu6500_driver.c **** 	pByte[0] = temp;
 552              		.loc 1 24 2
  25:lib/mpu6500/src/mpu6500_driver.c **** 	return bt; 
 553              		.loc 1 25 11 is_stmt 0
 554 0046 13D78700 		srli	a4,a5,8
  24:lib/mpu6500/src/mpu6500_driver.c **** 	pByte[0] = temp;
 555              		.loc 1 24 11
 556 004a A303F100 		sb	a5,7(sp)
  25:lib/mpu6500/src/mpu6500_driver.c **** 	return bt; 
 557              		.loc 1 25 2 is_stmt 1
  25:lib/mpu6500/src/mpu6500_driver.c **** 	return bt; 
 558              		.loc 1 25 11 is_stmt 0
 559 004e 2303E100 		sb	a4,6(sp)
  26:lib/mpu6500/src/mpu6500_driver.c **** }
 560              		.loc 1 26 2 is_stmt 1
 561              	.LVL59:
 562              	.LBE99:
 563              	.LBE98:
 564              		.loc 1 88 14 is_stmt 0
 565 0052 03156100 		lh	a0,6(sp)
 566 0056 97000000 		call	__floatsisf
 566      E7800000 
 567              	.LVL60:
  89:lib/mpu6500/src/mpu6500_driver.c **** 	pAccel->z = (float) flip_bytes(accel.z);
 568              		.loc 1 89 22
 569 005e 8317C100 		lh	a5,12(sp)
  88:lib/mpu6500/src/mpu6500_driver.c **** 	pAccel->z = (float) flip_bytes(accel.z);
 570              		.loc 1 88 14
 571 0062 48C0     		sw	a0,4(s0)
 572              		.loc 1 89 2 is_stmt 1
 573              	.LVL61:
 574              	.LBB100:
 575              	.LBB101:
  22:lib/mpu6500/src/mpu6500_driver.c **** 	uint8_t temp = pByte[1];
 576              		.loc 1 22 2
  23:lib/mpu6500/src/mpu6500_driver.c **** 	pByte[1] = pByte[0];
 577              		.loc 1 23 2
  24:lib/mpu6500/src/mpu6500_driver.c **** 	pByte[0] = temp;
 578              		.loc 1 24 2
  25:lib/mpu6500/src/mpu6500_driver.c **** 	return bt; 
 579              		.loc 1 25 11 is_stmt 0
 580 0064 13D78700 		srli	a4,a5,8
  24:lib/mpu6500/src/mpu6500_driver.c **** 	pByte[0] = temp;
 581              		.loc 1 24 11
 582 0068 A303F100 		sb	a5,7(sp)
  25:lib/mpu6500/src/mpu6500_driver.c **** 	return bt; 
 583              		.loc 1 25 2 is_stmt 1
  25:lib/mpu6500/src/mpu6500_driver.c **** 	return bt; 
 584              		.loc 1 25 11 is_stmt 0
 585 006c 2303E100 		sb	a4,6(sp)
  26:lib/mpu6500/src/mpu6500_driver.c **** }
GAS LISTING C:\Users\Kalle\AppData\Local\Temp\cctneNSz.s 			page 14


 586              		.loc 1 26 2 is_stmt 1
 587              	.LVL62:
 588              	.LBE101:
 589              	.LBE100:
 590              		.loc 1 89 14 is_stmt 0
 591 0070 03156100 		lh	a0,6(sp)
 592 0074 97000000 		call	__floatsisf
 592      E7800000 
 593              	.LVL63:
 594 007c 08C4     		sw	a0,8(s0)
  90:lib/mpu6500/src/mpu6500_driver.c **** 	return 1;
 595              		.loc 1 90 2 is_stmt 1
  91:lib/mpu6500/src/mpu6500_driver.c **** }
 596              		.loc 1 91 1 is_stmt 0
 597 007e F240     		lw	ra,28(sp)
 598              		.cfi_restore 1
 599 0080 6244     		lw	s0,24(sp)
 600              		.cfi_restore 8
 601              	.LVL64:
 602 0082 0545     		li	a0,1
 603 0084 0561     		addi	sp,sp,32
 604              	.LCFI5:
 605              		.cfi_def_cfa_offset 0
 606              	.LVL65:
 607 0086 8280     		jr	ra
 608              		.cfi_endproc
 609              	.LFE7:
 611              		.section	.text.mpu6500_getGyro,"ax",@progbits
 612              		.align	1
 613              		.globl	mpu6500_getGyro
 615              	mpu6500_getGyro:
 616              	.LFB8:
  92:lib/mpu6500/src/mpu6500_driver.c **** 
  93:lib/mpu6500/src/mpu6500_driver.c **** int mpu6500_getGyro(mpu_vector_t* pGyro){
 617              		.loc 1 93 41 is_stmt 1
 618              		.cfi_startproc
 619              	.LVL66:
  94:lib/mpu6500/src/mpu6500_driver.c **** 	mpu_raw_vector_t gyro;
 620              		.loc 1 94 2
  95:lib/mpu6500/src/mpu6500_driver.c **** 	read_mpu(MPU6500_GYRO_XOUT_H, 6, (uint8_t*) &gyro); 	// Skickar rådata som måste skalas i main. 
 621              		.loc 1 95 2
 622              	.LBB102:
 623              	.LBB103:
  14:lib/mpu6500/src/mpu6500_driver.c **** }
 624              		.loc 1 14 2 is_stmt 0
 625 0000 B7070000 		lui	a5,%hi(cb)
 626              	.LBE103:
 627              	.LBE102:
  93:lib/mpu6500/src/mpu6500_driver.c **** 	mpu_raw_vector_t gyro;
 628              		.loc 1 93 41
 629 0004 0111     		addi	sp,sp,-32
 630              	.LCFI6:
 631              		.cfi_def_cfa_offset 32
 632              	.LVL67:
 633              	.LBB108:
 634              	.LBB104:
  14:lib/mpu6500/src/mpu6500_driver.c **** }
GAS LISTING C:\Users\Kalle\AppData\Local\Temp\cctneNSz.s 			page 15


 635              		.loc 1 14 2 is_stmt 1
 636 0006 93870700 		addi	a5,a5,%lo(cb)
 637              	.LBE104:
 638              	.LBE108:
  93:lib/mpu6500/src/mpu6500_driver.c **** 	mpu_raw_vector_t gyro;
 639              		.loc 1 93 41 is_stmt 0
 640 000a 22CC     		sw	s0,24(sp)
 641              	.LBB109:
 642              	.LBB105:
  14:lib/mpu6500/src/mpu6500_driver.c **** }
 643              		.loc 1 14 2
 644 000c 03A80700 		lw	a6,0(a5)
 645              		.cfi_offset 8, -8
 646              	.LBE105:
 647              	.LBE109:
  93:lib/mpu6500/src/mpu6500_driver.c **** 	mpu_raw_vector_t gyro;
 648              		.loc 1 93 41
 649 0010 2A84     		mv	s0,a0
 650              	.LBB110:
 651              	.LBB106:
  14:lib/mpu6500/src/mpu6500_driver.c **** }
 652              		.loc 1 14 2
 653 0012 C847     		lw	a0,12(a5)
 654              	.LVL68:
 655              	.LBE106:
 656              	.LBE110:
  93:lib/mpu6500/src/mpu6500_driver.c **** 	mpu_raw_vector_t gyro;
 657              		.loc 1 93 41
 658 0014 06CE     		sw	ra,28(sp)
 659              		.cfi_offset 1, -4
 660              	.LBB111:
 661              	.LBB107:
  14:lib/mpu6500/src/mpu6500_driver.c **** }
 662              		.loc 1 14 2
 663 0016 9946     		li	a3,6
 664 0018 13063004 		li	a2,67
 665 001c 93058006 		li	a1,104
 666 0020 3800     		addi	a4,sp,8
 667              	.LVL69:
 668 0022 0298     		jalr	a6
 669              	.LVL70:
 670              	.LBE107:
 671              	.LBE111:
  96:lib/mpu6500/src/mpu6500_driver.c **** 	pGyro->x = (float) flip_bytes(gyro.x);
 672              		.loc 1 96 2 is_stmt 1
 673              		.loc 1 96 21 is_stmt 0
 674 0024 83178100 		lh	a5,8(sp)
 675              	.LVL71:
 676              	.LBB112:
 677              	.LBB113:
  22:lib/mpu6500/src/mpu6500_driver.c **** 	uint8_t temp = pByte[1];
 678              		.loc 1 22 2 is_stmt 1
  23:lib/mpu6500/src/mpu6500_driver.c **** 	pByte[1] = pByte[0];
 679              		.loc 1 23 2
  24:lib/mpu6500/src/mpu6500_driver.c **** 	pByte[0] = temp;
 680              		.loc 1 24 2
  25:lib/mpu6500/src/mpu6500_driver.c **** 	return bt; 
GAS LISTING C:\Users\Kalle\AppData\Local\Temp\cctneNSz.s 			page 16


 681              		.loc 1 25 11 is_stmt 0
 682 0028 13D78700 		srli	a4,a5,8
  24:lib/mpu6500/src/mpu6500_driver.c **** 	pByte[0] = temp;
 683              		.loc 1 24 11
 684 002c A303F100 		sb	a5,7(sp)
 685              	.LVL72:
  25:lib/mpu6500/src/mpu6500_driver.c **** 	return bt; 
 686              		.loc 1 25 2 is_stmt 1
  25:lib/mpu6500/src/mpu6500_driver.c **** 	return bt; 
 687              		.loc 1 25 11 is_stmt 0
 688 0030 2303E100 		sb	a4,6(sp)
  26:lib/mpu6500/src/mpu6500_driver.c **** }
 689              		.loc 1 26 2 is_stmt 1
 690              	.LVL73:
 691              	.LBE113:
 692              	.LBE112:
 693              		.loc 1 96 13 is_stmt 0
 694 0034 03156100 		lh	a0,6(sp)
 695 0038 97000000 		call	__floatsisf
 695      E7800000 
 696              	.LVL74:
  97:lib/mpu6500/src/mpu6500_driver.c **** 	pGyro->y = (float) flip_bytes(gyro.y);
 697              		.loc 1 97 21
 698 0040 8317A100 		lh	a5,10(sp)
  96:lib/mpu6500/src/mpu6500_driver.c **** 	pGyro->y = (float) flip_bytes(gyro.y);
 699              		.loc 1 96 13
 700 0044 08C0     		sw	a0,0(s0)
 701              		.loc 1 97 2 is_stmt 1
 702              	.LVL75:
 703              	.LBB114:
 704              	.LBB115:
  22:lib/mpu6500/src/mpu6500_driver.c **** 	uint8_t temp = pByte[1];
 705              		.loc 1 22 2
  23:lib/mpu6500/src/mpu6500_driver.c **** 	pByte[1] = pByte[0];
 706              		.loc 1 23 2
  24:lib/mpu6500/src/mpu6500_driver.c **** 	pByte[0] = temp;
 707              		.loc 1 24 2
  25:lib/mpu6500/src/mpu6500_driver.c **** 	return bt; 
 708              		.loc 1 25 11 is_stmt 0
 709 0046 13D78700 		srli	a4,a5,8
  24:lib/mpu6500/src/mpu6500_driver.c **** 	pByte[0] = temp;
 710              		.loc 1 24 11
 711 004a A303F100 		sb	a5,7(sp)
  25:lib/mpu6500/src/mpu6500_driver.c **** 	return bt; 
 712              		.loc 1 25 2 is_stmt 1
  25:lib/mpu6500/src/mpu6500_driver.c **** 	return bt; 
 713              		.loc 1 25 11 is_stmt 0
 714 004e 2303E100 		sb	a4,6(sp)
  26:lib/mpu6500/src/mpu6500_driver.c **** }
 715              		.loc 1 26 2 is_stmt 1
 716              	.LVL76:
 717              	.LBE115:
 718              	.LBE114:
 719              		.loc 1 97 13 is_stmt 0
 720 0052 03156100 		lh	a0,6(sp)
 721 0056 97000000 		call	__floatsisf
 721      E7800000 
GAS LISTING C:\Users\Kalle\AppData\Local\Temp\cctneNSz.s 			page 17


 722              	.LVL77:
  98:lib/mpu6500/src/mpu6500_driver.c **** 	pGyro->z = (float) flip_bytes(gyro.z);
 723              		.loc 1 98 21
 724 005e 8317C100 		lh	a5,12(sp)
  97:lib/mpu6500/src/mpu6500_driver.c **** 	pGyro->z = (float) flip_bytes(gyro.z);
 725              		.loc 1 97 13
 726 0062 48C0     		sw	a0,4(s0)
 727              		.loc 1 98 2 is_stmt 1
 728              	.LVL78:
 729              	.LBB116:
 730              	.LBB117:
  22:lib/mpu6500/src/mpu6500_driver.c **** 	uint8_t temp = pByte[1];
 731              		.loc 1 22 2
  23:lib/mpu6500/src/mpu6500_driver.c **** 	pByte[1] = pByte[0];
 732              		.loc 1 23 2
  24:lib/mpu6500/src/mpu6500_driver.c **** 	pByte[0] = temp;
 733              		.loc 1 24 2
  25:lib/mpu6500/src/mpu6500_driver.c **** 	return bt; 
 734              		.loc 1 25 11 is_stmt 0
 735 0064 13D78700 		srli	a4,a5,8
  24:lib/mpu6500/src/mpu6500_driver.c **** 	pByte[0] = temp;
 736              		.loc 1 24 11
 737 0068 A303F100 		sb	a5,7(sp)
  25:lib/mpu6500/src/mpu6500_driver.c **** 	return bt; 
 738              		.loc 1 25 2 is_stmt 1
  25:lib/mpu6500/src/mpu6500_driver.c **** 	return bt; 
 739              		.loc 1 25 11 is_stmt 0
 740 006c 2303E100 		sb	a4,6(sp)
  26:lib/mpu6500/src/mpu6500_driver.c **** }
 741              		.loc 1 26 2 is_stmt 1
 742              	.LVL79:
 743              	.LBE117:
 744              	.LBE116:
 745              		.loc 1 98 13 is_stmt 0
 746 0070 03156100 		lh	a0,6(sp)
 747 0074 97000000 		call	__floatsisf
 747      E7800000 
 748              	.LVL80:
 749 007c 08C4     		sw	a0,8(s0)
  99:lib/mpu6500/src/mpu6500_driver.c **** 	return 1;
 750              		.loc 1 99 2 is_stmt 1
 100:lib/mpu6500/src/mpu6500_driver.c **** }
 751              		.loc 1 100 1 is_stmt 0
 752 007e F240     		lw	ra,28(sp)
 753              		.cfi_restore 1
 754 0080 6244     		lw	s0,24(sp)
 755              		.cfi_restore 8
 756              	.LVL81:
 757 0082 0545     		li	a0,1
 758 0084 0561     		addi	sp,sp,32
 759              	.LCFI7:
 760              		.cfi_def_cfa_offset 0
 761              	.LVL82:
 762 0086 8280     		jr	ra
 763              		.cfi_endproc
 764              	.LFE8:
 766              		.section	.text.mpu6500_getGyroAccel,"ax",@progbits
GAS LISTING C:\Users\Kalle\AppData\Local\Temp\cctneNSz.s 			page 18


 767              		.align	1
 768              		.globl	mpu6500_getGyroAccel
 770              	mpu6500_getGyroAccel:
 771              	.LFB9:
 101:lib/mpu6500/src/mpu6500_driver.c **** 
 102:lib/mpu6500/src/mpu6500_driver.c **** int mpu6500_getGyroAccel(mpu_vector_t* pGyro, mpu_vector_t* pAccel){
 772              		.loc 1 102 68 is_stmt 1
 773              		.cfi_startproc
 774              	.LVL83:
 103:lib/mpu6500/src/mpu6500_driver.c **** 	mpu6500_getAccel(pAccel);
 775              		.loc 1 103 2
 102:lib/mpu6500/src/mpu6500_driver.c **** 	mpu6500_getAccel(pAccel);
 776              		.loc 1 102 68 is_stmt 0
 777 0000 4111     		addi	sp,sp,-16
 778              	.LCFI8:
 779              		.cfi_def_cfa_offset 16
 780 0002 22C4     		sw	s0,8(sp)
 781              		.cfi_offset 8, -8
 782 0004 2A84     		mv	s0,a0
 783              		.loc 1 103 2
 784 0006 2E85     		mv	a0,a1
 785              	.LVL84:
 102:lib/mpu6500/src/mpu6500_driver.c **** 	mpu6500_getAccel(pAccel);
 786              		.loc 1 102 68
 787 0008 06C6     		sw	ra,12(sp)
 788              		.cfi_offset 1, -4
 789              		.loc 1 103 2
 790 000a 97000000 		call	mpu6500_getAccel
 790      E7800000 
 791              	.LVL85:
 104:lib/mpu6500/src/mpu6500_driver.c **** 	mpu6500_getGyro(pGyro);
 792              		.loc 1 104 2 is_stmt 1
 793 0012 2285     		mv	a0,s0
 794 0014 97000000 		call	mpu6500_getGyro
 794      E7800000 
 795              	.LVL86:
 105:lib/mpu6500/src/mpu6500_driver.c **** 	return 1;
 796              		.loc 1 105 2
 106:lib/mpu6500/src/mpu6500_driver.c **** }
 797              		.loc 1 106 1 is_stmt 0
 798 001c B240     		lw	ra,12(sp)
 799              		.cfi_restore 1
 800 001e 2244     		lw	s0,8(sp)
 801              		.cfi_restore 8
 802              	.LVL87:
 803 0020 0545     		li	a0,1
 804 0022 4101     		addi	sp,sp,16
 805              	.LCFI9:
 806              		.cfi_def_cfa_offset 0
 807 0024 8280     		jr	ra
 808              		.cfi_endproc
 809              	.LFE9:
 811              		.comm	cb,16,4
 812              		.text
 813              	.Letext0:
 814              		.file 2 "c:\\idrotttek-kurs\\toolchain-gd32v-win\\compiler\\riscv64-unknown-elf\\include\\machine\
 815              		.file 3 "c:\\idrotttek-kurs\\toolchain-gd32v-win\\compiler\\lib\\gcc\\riscv64-unknown-elf\\8.3.0\\
GAS LISTING C:\Users\Kalle\AppData\Local\Temp\cctneNSz.s 			page 19


 816              		.file 4 "c:\\idrotttek-kurs\\toolchain-gd32v-win\\compiler\\riscv64-unknown-elf\\include\\sys\\_ty
 817              		.file 5 "c:\\idrotttek-kurs\\toolchain-gd32v-win\\compiler\\riscv64-unknown-elf\\include\\sys\\ree
 818              		.file 6 "c:\\idrotttek-kurs\\toolchain-gd32v-win\\compiler\\riscv64-unknown-elf\\include\\sys\\loc
 819              		.file 7 "c:\\idrotttek-kurs\\toolchain-gd32v-win\\compiler\\riscv64-unknown-elf\\include\\sys\\_st
 820              		.file 8 "lib/mpu6500/include/mpu6500_driver.h"
GAS LISTING C:\Users\Kalle\AppData\Local\Temp\cctneNSz.s 			page 20

