GAS LISTING C:\Users\Kalle\AppData\Local\Temp\ccDEgUS4.s 			page 1


   1              		.file	"pwm.c"
   2              		.option nopic
   3              		.attribute arch, "rv32i2p0_m2p0_a2p0_c2p0"
   4              		.attribute unaligned_access, 0
   5              		.attribute stack_align, 16
   6              		.text
   7              	.Ltext0:
   8              		.cfi_sections	.debug_frame
   9              		.section	.text.T1powerUpInitPWM,"ax",@progbits
  10              		.align	1
  11              		.globl	T1powerUpInitPWM
  13              	T1powerUpInitPWM:
  14              	.LFB2:
  15              		.file 1 "lib/pwm/src/pwm.c"
   1:lib/pwm/src/pwm.c **** #include "pwm.h"
   2:lib/pwm/src/pwm.c **** 
   3:lib/pwm/src/pwm.c **** void T1powerUpInitPWM(uint16_t ch){
  16              		.loc 1 3 35
  17              		.cfi_startproc
  18              	.LVL0:
   4:lib/pwm/src/pwm.c ****     timer_oc_parameter_struct timer_ocinitpara;
  19              		.loc 1 4 5
   5:lib/pwm/src/pwm.c ****     timer_parameter_struct timer_initpara;
  20              		.loc 1 5 5
   6:lib/pwm/src/pwm.c ****     rcu_periph_clock_enable(RCU_GPIOA);
  21              		.loc 1 6 5
   3:lib/pwm/src/pwm.c ****     timer_oc_parameter_struct timer_ocinitpara;
  22              		.loc 1 3 35 is_stmt 0
  23 0000 3971     		addi	sp,sp,-64
  24              	.LCFI0:
  25              		.cfi_def_cfa_offset 64
  26 0002 22DC     		sw	s0,56(sp)
  27              		.cfi_offset 8, -8
  28 0004 2A84     		mv	s0,a0
  29              		.loc 1 6 5
  30 0006 13052060 		li	a0,1538
  31              	.LVL1:
   3:lib/pwm/src/pwm.c ****     timer_oc_parameter_struct timer_ocinitpara;
  32              		.loc 1 3 35
  33 000a 4ED6     		sw	s3,44(sp)
  34 000c 06DE     		sw	ra,60(sp)
  35 000e 26DA     		sw	s1,52(sp)
  36 0010 4AD8     		sw	s2,48(sp)
  37              		.cfi_offset 19, -20
  38              		.cfi_offset 1, -4
  39              		.cfi_offset 9, -12
  40              		.cfi_offset 18, -16
  41              		.loc 1 6 5
  42 0012 97000000 		call	rcu_periph_clock_enable
  42      E7800000 
  43              	.LVL2:
   7:lib/pwm/src/pwm.c ****     rcu_periph_clock_enable(RCU_AF);
  44              		.loc 1 7 5 is_stmt 1
  45 001a 93791400 		andi	s3,s0,1
  46 001e 13050060 		li	a0,1536
  47 0022 97000000 		call	rcu_periph_clock_enable
  47      E7800000 
GAS LISTING C:\Users\Kalle\AppData\Local\Temp\ccDEgUS4.s 			page 2


  48              	.LVL3:
   8:lib/pwm/src/pwm.c ****     if (ch&0x1) gpio_init(GPIOA, GPIO_MODE_AF_PP, GPIO_OSPEED_50MHZ, GPIO_PIN_0);
  49              		.loc 1 8 5
  50              		.loc 1 8 8 is_stmt 0
  51 002a 63900924 		bne	s3,zero,.L52
  52              	.L2:
   9:lib/pwm/src/pwm.c ****     if (ch&0x2) gpio_init(GPIOA, GPIO_MODE_AF_PP, GPIO_OSPEED_50MHZ, GPIO_PIN_1);
  53              		.loc 1 9 5 is_stmt 1
  54 002e 13792400 		andi	s2,s0,2
  55              		.loc 1 9 8 is_stmt 0
  56 0032 63100922 		bne	s2,zero,.L53
  57              	.L3:
  10:lib/pwm/src/pwm.c ****     if (ch&0x4) gpio_init(GPIOA, GPIO_MODE_AF_PP, GPIO_OSPEED_50MHZ, GPIO_PIN_2);
  58              		.loc 1 10 5 is_stmt 1
  59 0036 93744400 		andi	s1,s0,4
  60              		.loc 1 10 8 is_stmt 0
  61 003a 63900420 		bne	s1,zero,.L54
  62              	.L4:
  11:lib/pwm/src/pwm.c ****     if (ch&0x8) gpio_init(GPIOA, GPIO_MODE_AF_PP, GPIO_OSPEED_50MHZ, GPIO_PIN_3);
  63              		.loc 1 11 5 is_stmt 1
  64 003e 2188     		andi	s0,s0,8
  65              		.loc 1 11 8 is_stmt 0
  66 0040 6311041E 		bne	s0,zero,.L55
  67              	.L5:
  12:lib/pwm/src/pwm.c ****     rcu_periph_clock_enable(RCU_TIMER1);
  68              		.loc 1 12 5 is_stmt 1
  69 0044 13050070 		li	a0,1792
  70 0048 97000000 		call	rcu_periph_clock_enable
  70      E7800000 
  71              	.LVL4:
  13:lib/pwm/src/pwm.c **** 
  14:lib/pwm/src/pwm.c ****     timer_deinit(TIMER1);
  72              		.loc 1 14 5
  73 0050 37050040 		li	a0,1073741824
  74 0054 97000000 		call	timer_deinit
  74      E7800000 
  75              	.LVL5:
  15:lib/pwm/src/pwm.c ****     timer_struct_para_init(&timer_initpara);
  76              		.loc 1 15 5
  77 005c 0808     		addi	a0,sp,16
  78 005e 97000000 		call	timer_struct_para_init
  78      E7800000 
  79              	.LVL6:
  16:lib/pwm/src/pwm.c ****     timer_initpara.prescaler            = 10;
  80              		.loc 1 16 5
  17:lib/pwm/src/pwm.c ****     timer_initpara.alignedmode          = TIMER_COUNTER_EDGE;
  81              		.loc 1 17 5
  18:lib/pwm/src/pwm.c ****     timer_initpara.counterdirection     = TIMER_COUNTER_UP;
  82              		.loc 1 18 5
  16:lib/pwm/src/pwm.c ****     timer_initpara.prescaler            = 10;
  83              		.loc 1 16 41 is_stmt 0
  84 0066 A947     		li	a5,10
  85 0068 3EC8     		sw	a5,16(sp)
  19:lib/pwm/src/pwm.c ****     timer_initpara.period               = 15999;
  86              		.loc 1 19 41
  87 006a 9167     		li	a5,16384
  88 006c 9387F7E7 		addi	a5,a5,-385
GAS LISTING C:\Users\Kalle\AppData\Local\Temp\ccDEgUS4.s 			page 3


  20:lib/pwm/src/pwm.c ****     timer_initpara.clockdivision        = TIMER_CKDIV_DIV1;
  21:lib/pwm/src/pwm.c ****     timer_initpara.repetitioncounter    = 0;
  22:lib/pwm/src/pwm.c ****     timer_init(TIMER1, &timer_initpara);
  89              		.loc 1 22 5
  90 0070 0C08     		addi	a1,sp,16
  91 0072 37050040 		li	a0,1073741824
  19:lib/pwm/src/pwm.c ****     timer_initpara.period               = 15999;
  92              		.loc 1 19 41
  93 0076 3ECC     		sw	a5,24(sp)
  18:lib/pwm/src/pwm.c ****     timer_initpara.period               = 15999;
  94              		.loc 1 18 41
  95 0078 231A0100 		sh	zero,20(sp)
  19:lib/pwm/src/pwm.c ****     timer_initpara.period               = 15999;
  96              		.loc 1 19 5 is_stmt 1
  20:lib/pwm/src/pwm.c ****     timer_initpara.clockdivision        = TIMER_CKDIV_DIV1;
  97              		.loc 1 20 5
  20:lib/pwm/src/pwm.c ****     timer_initpara.clockdivision        = TIMER_CKDIV_DIV1;
  98              		.loc 1 20 41 is_stmt 0
  99 007c 231E0100 		sh	zero,28(sp)
  21:lib/pwm/src/pwm.c ****     timer_init(TIMER1, &timer_initpara);
 100              		.loc 1 21 5 is_stmt 1
  21:lib/pwm/src/pwm.c ****     timer_init(TIMER1, &timer_initpara);
 101              		.loc 1 21 41 is_stmt 0
 102 0080 230F0100 		sb	zero,30(sp)
 103              		.loc 1 22 5 is_stmt 1
 104 0084 97000000 		call	timer_init
 104      E7800000 
 105              	.LVL7:
  23:lib/pwm/src/pwm.c **** 
  24:lib/pwm/src/pwm.c ****     timer_channel_output_struct_para_init(&timer_ocinitpara);
 106              		.loc 1 24 5
 107 008c 4800     		addi	a0,sp,4
 108 008e 97000000 		call	timer_channel_output_struct_para_init
 108      E7800000 
 109              	.LVL8:
  25:lib/pwm/src/pwm.c ****     timer_ocinitpara.outputstate    = TIMER_CCX_ENABLE;
 110              		.loc 1 25 5
  26:lib/pwm/src/pwm.c ****     timer_ocinitpara.outputnstate   = TIMER_CCXN_ENABLE;
 111              		.loc 1 26 5
  27:lib/pwm/src/pwm.c ****     timer_ocinitpara.ocpolarity     = TIMER_OC_POLARITY_HIGH;
 112              		.loc 1 27 5
  28:lib/pwm/src/pwm.c ****     timer_ocinitpara.ocnpolarity    = TIMER_OCN_POLARITY_HIGH;
 113              		.loc 1 28 5
  29:lib/pwm/src/pwm.c ****     timer_ocinitpara.ocidlestate    = TIMER_OC_IDLE_STATE_LOW;
 114              		.loc 1 29 5
  30:lib/pwm/src/pwm.c ****     timer_ocinitpara.ocnidlestate   = TIMER_OCN_IDLE_STATE_LOW;
 115              		.loc 1 30 5
  25:lib/pwm/src/pwm.c ****     timer_ocinitpara.outputnstate   = TIMER_CCXN_ENABLE;
 116              		.loc 1 25 37 is_stmt 0
 117 0096 B7070400 		li	a5,262144
 118 009a 8507     		addi	a5,a5,1
 119 009c 3EC2     		sw	a5,4(sp)
  27:lib/pwm/src/pwm.c ****     timer_ocinitpara.ocnpolarity    = TIMER_OCN_POLARITY_HIGH;
 120              		.loc 1 27 37
 121 009e 02C4     		sw	zero,8(sp)
  29:lib/pwm/src/pwm.c ****     timer_ocinitpara.ocnidlestate   = TIMER_OCN_IDLE_STATE_LOW;
 122              		.loc 1 29 37
GAS LISTING C:\Users\Kalle\AppData\Local\Temp\ccDEgUS4.s 			page 4


 123 00a0 02C6     		sw	zero,12(sp)
  31:lib/pwm/src/pwm.c ****     if (ch&0x1) timer_channel_output_config(TIMER1, TIMER_CH_0, &timer_ocinitpara);
 124              		.loc 1 31 5 is_stmt 1
 125              		.loc 1 31 8 is_stmt 0
 126 00a2 63950916 		bne	s3,zero,.L56
  32:lib/pwm/src/pwm.c ****     if (ch&0x2) timer_channel_output_config(TIMER1, TIMER_CH_1, &timer_ocinitpara);
 127              		.loc 1 32 5 is_stmt 1
 128              		.loc 1 32 8 is_stmt 0
 129 00a6 63180914 		bne	s2,zero,.L57
 130              	.L7:
  33:lib/pwm/src/pwm.c ****     if (ch&0x4) timer_channel_output_config(TIMER1, TIMER_CH_2, &timer_ocinitpara);
 131              		.loc 1 33 5 is_stmt 1
 132              		.loc 1 33 8 is_stmt 0
 133 00aa 639B0412 		bne	s1,zero,.L58
 134              	.L8:
  34:lib/pwm/src/pwm.c ****     if (ch&0x8) timer_channel_output_config(TIMER1, TIMER_CH_3, &timer_ocinitpara);
 135              		.loc 1 34 5 is_stmt 1
 136              		.loc 1 34 8 is_stmt 0
 137 00ae 631E0410 		bne	s0,zero,.L59
 138              	.L9:
  35:lib/pwm/src/pwm.c **** 
  36:lib/pwm/src/pwm.c ****     if (ch&0x1){
 139              		.loc 1 36 5 is_stmt 1
 140              		.loc 1 36 8 is_stmt 0
 141 00b2 639E090C 		bne	s3,zero,.L60
 142              	.L10:
  37:lib/pwm/src/pwm.c ****         timer_channel_output_pulse_value_config(TIMER1, TIMER_CH_0, 11999);
  38:lib/pwm/src/pwm.c ****         timer_channel_output_mode_config(TIMER1, TIMER_CH_0, TIMER_OC_MODE_PWM0);
  39:lib/pwm/src/pwm.c ****         timer_channel_output_shadow_config(TIMER1, TIMER_CH_0, TIMER_OC_SHADOW_DISABLE);
  40:lib/pwm/src/pwm.c ****     }
  41:lib/pwm/src/pwm.c ****     if (ch&0x2){
 143              		.loc 1 41 5 is_stmt 1
 144              		.loc 1 41 8 is_stmt 0
 145 00b6 631F0908 		bne	s2,zero,.L61
 146              	.L11:
  42:lib/pwm/src/pwm.c ****         timer_channel_output_pulse_value_config(TIMER1, TIMER_CH_1, 11999);
  43:lib/pwm/src/pwm.c ****         timer_channel_output_mode_config(TIMER1, TIMER_CH_1, TIMER_OC_MODE_PWM0);
  44:lib/pwm/src/pwm.c ****         timer_channel_output_shadow_config(TIMER1, TIMER_CH_1, TIMER_OC_SHADOW_DISABLE);
  45:lib/pwm/src/pwm.c ****     }
  46:lib/pwm/src/pwm.c ****     if (ch&0x4){
 147              		.loc 1 46 5 is_stmt 1
 148              		.loc 1 46 8 is_stmt 0
 149 00ba 8DE4     		bne	s1,zero,.L62
 150              	.L12:
  47:lib/pwm/src/pwm.c ****         timer_channel_output_pulse_value_config(TIMER1, TIMER_CH_2, 11999);
  48:lib/pwm/src/pwm.c ****         timer_channel_output_mode_config(TIMER1, TIMER_CH_2, TIMER_OC_MODE_PWM0);
  49:lib/pwm/src/pwm.c ****         timer_channel_output_shadow_config(TIMER1, TIMER_CH_2, TIMER_OC_SHADOW_DISABLE);
  50:lib/pwm/src/pwm.c ****     }
  51:lib/pwm/src/pwm.c ****     if (ch&0x8){
 151              		.loc 1 51 5 is_stmt 1
 152              		.loc 1 51 8 is_stmt 0
 153 00bc 25E0     		bne	s0,zero,.L63
 154              	.L13:
  52:lib/pwm/src/pwm.c ****         timer_channel_output_pulse_value_config(TIMER1, TIMER_CH_3, 11999);
  53:lib/pwm/src/pwm.c ****         timer_channel_output_mode_config(TIMER1, TIMER_CH_3, TIMER_OC_MODE_PWM0);
  54:lib/pwm/src/pwm.c ****         timer_channel_output_shadow_config(TIMER1, TIMER_CH_3, TIMER_OC_SHADOW_DISABLE);
  55:lib/pwm/src/pwm.c ****     }
GAS LISTING C:\Users\Kalle\AppData\Local\Temp\ccDEgUS4.s 			page 5


  56:lib/pwm/src/pwm.c **** 
  57:lib/pwm/src/pwm.c ****     timer_auto_reload_shadow_enable(TIMER1);
 155              		.loc 1 57 5 is_stmt 1
 156 00be 37050040 		li	a0,1073741824
 157 00c2 97000000 		call	timer_auto_reload_shadow_enable
 157      E7800000 
 158              	.LVL9:
  58:lib/pwm/src/pwm.c ****     timer_enable(TIMER1);
 159              		.loc 1 58 5
 160 00ca 37050040 		li	a0,1073741824
 161 00ce 97000000 		call	timer_enable
 161      E7800000 
 162              	.LVL10:
  59:lib/pwm/src/pwm.c **** }
 163              		.loc 1 59 1 is_stmt 0
 164 00d6 F250     		lw	ra,60(sp)
 165              		.cfi_remember_state
 166              		.cfi_restore 1
 167 00d8 6254     		lw	s0,56(sp)
 168              		.cfi_restore 8
 169 00da D254     		lw	s1,52(sp)
 170              		.cfi_restore 9
 171 00dc 4259     		lw	s2,48(sp)
 172              		.cfi_restore 18
 173 00de B259     		lw	s3,44(sp)
 174              		.cfi_restore 19
 175 00e0 2161     		addi	sp,sp,64
 176              	.LCFI1:
 177              		.cfi_def_cfa_offset 0
 178 00e2 8280     		jr	ra
 179              	.L62:
 180              	.LCFI2:
 181              		.cfi_restore_state
  47:lib/pwm/src/pwm.c ****         timer_channel_output_mode_config(TIMER1, TIMER_CH_2, TIMER_OC_MODE_PWM0);
 182              		.loc 1 47 9 is_stmt 1
 183 00e4 0D66     		li	a2,12288
 184 00e6 1306F6ED 		addi	a2,a2,-289
 185 00ea 8945     		li	a1,2
 186 00ec 37050040 		li	a0,1073741824
 187 00f0 97000000 		call	timer_channel_output_pulse_value_config
 187      E7800000 
 188              	.LVL11:
  48:lib/pwm/src/pwm.c ****         timer_channel_output_shadow_config(TIMER1, TIMER_CH_2, TIMER_OC_SHADOW_DISABLE);
 189              		.loc 1 48 9
 190 00f8 13060006 		li	a2,96
 191 00fc 8945     		li	a1,2
 192 00fe 37050040 		li	a0,1073741824
 193 0102 97000000 		call	timer_channel_output_mode_config
 193      E7800000 
 194              	.LVL12:
  49:lib/pwm/src/pwm.c ****     }
 195              		.loc 1 49 9
 196 010a 0146     		li	a2,0
 197 010c 8945     		li	a1,2
 198 010e 37050040 		li	a0,1073741824
 199 0112 97000000 		call	timer_channel_output_shadow_config
 199      E7800000 
GAS LISTING C:\Users\Kalle\AppData\Local\Temp\ccDEgUS4.s 			page 6


 200              	.LVL13:
  51:lib/pwm/src/pwm.c ****         timer_channel_output_pulse_value_config(TIMER1, TIMER_CH_3, 11999);
 201              		.loc 1 51 5
  51:lib/pwm/src/pwm.c ****         timer_channel_output_pulse_value_config(TIMER1, TIMER_CH_3, 11999);
 202              		.loc 1 51 8 is_stmt 0
 203 011a 55D0     		beq	s0,zero,.L13
 204              	.L63:
  52:lib/pwm/src/pwm.c ****         timer_channel_output_mode_config(TIMER1, TIMER_CH_3, TIMER_OC_MODE_PWM0);
 205              		.loc 1 52 9 is_stmt 1
 206 011c 0D66     		li	a2,12288
 207 011e 1306F6ED 		addi	a2,a2,-289
 208 0122 8D45     		li	a1,3
 209 0124 37050040 		li	a0,1073741824
 210 0128 97000000 		call	timer_channel_output_pulse_value_config
 210      E7800000 
 211              	.LVL14:
  53:lib/pwm/src/pwm.c ****         timer_channel_output_shadow_config(TIMER1, TIMER_CH_3, TIMER_OC_SHADOW_DISABLE);
 212              		.loc 1 53 9
 213 0130 13060006 		li	a2,96
 214 0134 8D45     		li	a1,3
 215 0136 37050040 		li	a0,1073741824
 216 013a 97000000 		call	timer_channel_output_mode_config
 216      E7800000 
 217              	.LVL15:
  54:lib/pwm/src/pwm.c ****     }
 218              		.loc 1 54 9
 219 0142 0146     		li	a2,0
 220 0144 8D45     		li	a1,3
 221 0146 37050040 		li	a0,1073741824
 222 014a 97000000 		call	timer_channel_output_shadow_config
 222      E7800000 
 223              	.LVL16:
 224 0152 B5B7     		j	.L13
 225              	.L61:
  42:lib/pwm/src/pwm.c ****         timer_channel_output_mode_config(TIMER1, TIMER_CH_1, TIMER_OC_MODE_PWM0);
 226              		.loc 1 42 9
 227 0154 0D66     		li	a2,12288
 228 0156 1306F6ED 		addi	a2,a2,-289
 229 015a 8545     		li	a1,1
 230 015c 37050040 		li	a0,1073741824
 231 0160 97000000 		call	timer_channel_output_pulse_value_config
 231      E7800000 
 232              	.LVL17:
  43:lib/pwm/src/pwm.c ****         timer_channel_output_shadow_config(TIMER1, TIMER_CH_1, TIMER_OC_SHADOW_DISABLE);
 233              		.loc 1 43 9
 234 0168 13060006 		li	a2,96
 235 016c 8545     		li	a1,1
 236 016e 37050040 		li	a0,1073741824
 237 0172 97000000 		call	timer_channel_output_mode_config
 237      E7800000 
 238              	.LVL18:
  44:lib/pwm/src/pwm.c ****     }
 239              		.loc 1 44 9
 240 017a 0146     		li	a2,0
 241 017c 8545     		li	a1,1
 242 017e 37050040 		li	a0,1073741824
 243 0182 97000000 		call	timer_channel_output_shadow_config
GAS LISTING C:\Users\Kalle\AppData\Local\Temp\ccDEgUS4.s 			page 7


 243      E7800000 
 244              	.LVL19:
  46:lib/pwm/src/pwm.c ****         timer_channel_output_pulse_value_config(TIMER1, TIMER_CH_2, 11999);
 245              		.loc 1 46 5
  46:lib/pwm/src/pwm.c ****         timer_channel_output_pulse_value_config(TIMER1, TIMER_CH_2, 11999);
 246              		.loc 1 46 8 is_stmt 0
 247 018a 8DD8     		beq	s1,zero,.L12
 248 018c A1BF     		j	.L62
 249              	.L60:
  37:lib/pwm/src/pwm.c ****         timer_channel_output_mode_config(TIMER1, TIMER_CH_0, TIMER_OC_MODE_PWM0);
 250              		.loc 1 37 9 is_stmt 1
 251 018e 0D66     		li	a2,12288
 252 0190 1306F6ED 		addi	a2,a2,-289
 253 0194 8145     		li	a1,0
 254 0196 37050040 		li	a0,1073741824
 255 019a 97000000 		call	timer_channel_output_pulse_value_config
 255      E7800000 
 256              	.LVL20:
  38:lib/pwm/src/pwm.c ****         timer_channel_output_shadow_config(TIMER1, TIMER_CH_0, TIMER_OC_SHADOW_DISABLE);
 257              		.loc 1 38 9
 258 01a2 13060006 		li	a2,96
 259 01a6 8145     		li	a1,0
 260 01a8 37050040 		li	a0,1073741824
 261 01ac 97000000 		call	timer_channel_output_mode_config
 261      E7800000 
 262              	.LVL21:
  39:lib/pwm/src/pwm.c ****     }
 263              		.loc 1 39 9
 264 01b4 0146     		li	a2,0
 265 01b6 8145     		li	a1,0
 266 01b8 37050040 		li	a0,1073741824
 267 01bc 97000000 		call	timer_channel_output_shadow_config
 267      E7800000 
 268              	.LVL22:
  41:lib/pwm/src/pwm.c ****         timer_channel_output_pulse_value_config(TIMER1, TIMER_CH_1, 11999);
 269              		.loc 1 41 5
  41:lib/pwm/src/pwm.c ****         timer_channel_output_pulse_value_config(TIMER1, TIMER_CH_1, 11999);
 270              		.loc 1 41 8 is_stmt 0
 271 01c4 E30B09EE 		beq	s2,zero,.L11
 272 01c8 71B7     		j	.L61
 273              	.L59:
  34:lib/pwm/src/pwm.c **** 
 274              		.loc 1 34 17 is_stmt 1 discriminator 1
 275 01ca 5000     		addi	a2,sp,4
 276 01cc 8D45     		li	a1,3
 277 01ce 37050040 		li	a0,1073741824
 278 01d2 97000000 		call	timer_channel_output_config
 278      E7800000 
 279              	.LVL23:
  36:lib/pwm/src/pwm.c ****         timer_channel_output_pulse_value_config(TIMER1, TIMER_CH_0, 11999);
 280              		.loc 1 36 5 discriminator 1
  36:lib/pwm/src/pwm.c ****         timer_channel_output_pulse_value_config(TIMER1, TIMER_CH_0, 11999);
 281              		.loc 1 36 8 is_stmt 0 discriminator 1
 282 01da E38E09EC 		beq	s3,zero,.L10
 283 01de 45BF     		j	.L60
 284              	.L58:
  33:lib/pwm/src/pwm.c ****     if (ch&0x8) timer_channel_output_config(TIMER1, TIMER_CH_3, &timer_ocinitpara);
GAS LISTING C:\Users\Kalle\AppData\Local\Temp\ccDEgUS4.s 			page 8


 285              		.loc 1 33 17 is_stmt 1 discriminator 1
 286 01e0 5000     		addi	a2,sp,4
 287 01e2 8945     		li	a1,2
 288 01e4 37050040 		li	a0,1073741824
 289 01e8 97000000 		call	timer_channel_output_config
 289      E7800000 
 290              	.LVL24:
  34:lib/pwm/src/pwm.c **** 
 291              		.loc 1 34 5 discriminator 1
  34:lib/pwm/src/pwm.c **** 
 292              		.loc 1 34 8 is_stmt 0 discriminator 1
 293 01f0 E30104EC 		beq	s0,zero,.L9
 294 01f4 D9BF     		j	.L59
 295              	.L57:
  32:lib/pwm/src/pwm.c ****     if (ch&0x4) timer_channel_output_config(TIMER1, TIMER_CH_2, &timer_ocinitpara);
 296              		.loc 1 32 17 is_stmt 1 discriminator 1
 297 01f6 5000     		addi	a2,sp,4
 298 01f8 8545     		li	a1,1
 299 01fa 37050040 		li	a0,1073741824
 300 01fe 97000000 		call	timer_channel_output_config
 300      E7800000 
 301              	.LVL25:
  33:lib/pwm/src/pwm.c ****     if (ch&0x8) timer_channel_output_config(TIMER1, TIMER_CH_3, &timer_ocinitpara);
 302              		.loc 1 33 5 discriminator 1
  33:lib/pwm/src/pwm.c ****     if (ch&0x8) timer_channel_output_config(TIMER1, TIMER_CH_3, &timer_ocinitpara);
 303              		.loc 1 33 8 is_stmt 0 discriminator 1
 304 0206 E38404EA 		beq	s1,zero,.L8
 305 020a D9BF     		j	.L58
 306              	.L56:
  31:lib/pwm/src/pwm.c ****     if (ch&0x2) timer_channel_output_config(TIMER1, TIMER_CH_1, &timer_ocinitpara);
 307              		.loc 1 31 17 is_stmt 1 discriminator 1
 308 020c 5000     		addi	a2,sp,4
 309 020e 8145     		li	a1,0
 310 0210 37050040 		li	a0,1073741824
 311 0214 97000000 		call	timer_channel_output_config
 311      E7800000 
 312              	.LVL26:
  32:lib/pwm/src/pwm.c ****     if (ch&0x4) timer_channel_output_config(TIMER1, TIMER_CH_2, &timer_ocinitpara);
 313              		.loc 1 32 5 discriminator 1
  32:lib/pwm/src/pwm.c ****     if (ch&0x4) timer_channel_output_config(TIMER1, TIMER_CH_2, &timer_ocinitpara);
 314              		.loc 1 32 8 is_stmt 0 discriminator 1
 315 021c E30709E8 		beq	s2,zero,.L7
 316 0220 D9BF     		j	.L57
 317              	.L55:
  11:lib/pwm/src/pwm.c ****     rcu_periph_clock_enable(RCU_TIMER1);
 318              		.loc 1 11 17 is_stmt 1 discriminator 1
 319 0222 37150140 		li	a0,1073811456
 320 0226 A146     		li	a3,8
 321 0228 0D46     		li	a2,3
 322 022a E145     		li	a1,24
 323 022c 13050580 		addi	a0,a0,-2048
 324 0230 97000000 		call	gpio_init
 324      E7800000 
 325              	.LVL27:
 326 0238 31B5     		j	.L5
 327              	.L54:
  10:lib/pwm/src/pwm.c ****     if (ch&0x8) gpio_init(GPIOA, GPIO_MODE_AF_PP, GPIO_OSPEED_50MHZ, GPIO_PIN_3);
GAS LISTING C:\Users\Kalle\AppData\Local\Temp\ccDEgUS4.s 			page 9


 328              		.loc 1 10 17 discriminator 1
 329 023a 37150140 		li	a0,1073811456
 330 023e 9146     		li	a3,4
 331 0240 0D46     		li	a2,3
 332 0242 E145     		li	a1,24
 333 0244 13050580 		addi	a0,a0,-2048
 334 0248 97000000 		call	gpio_init
 334      E7800000 
 335              	.LVL28:
 336 0250 FDB3     		j	.L4
 337              	.L53:
   9:lib/pwm/src/pwm.c ****     if (ch&0x4) gpio_init(GPIOA, GPIO_MODE_AF_PP, GPIO_OSPEED_50MHZ, GPIO_PIN_2);
 338              		.loc 1 9 17 discriminator 1
 339 0252 37150140 		li	a0,1073811456
 340 0256 8946     		li	a3,2
 341 0258 0D46     		li	a2,3
 342 025a E145     		li	a1,24
 343 025c 13050580 		addi	a0,a0,-2048
 344 0260 97000000 		call	gpio_init
 344      E7800000 
 345              	.LVL29:
 346 0268 F9B3     		j	.L3
 347              	.L52:
   8:lib/pwm/src/pwm.c ****     if (ch&0x2) gpio_init(GPIOA, GPIO_MODE_AF_PP, GPIO_OSPEED_50MHZ, GPIO_PIN_1);
 348              		.loc 1 8 17 discriminator 1
 349 026a 37150140 		li	a0,1073811456
 350 026e 8546     		li	a3,1
 351 0270 0D46     		li	a2,3
 352 0272 E145     		li	a1,24
 353 0274 13050580 		addi	a0,a0,-2048
 354 0278 97000000 		call	gpio_init
 354      E7800000 
 355              	.LVL30:
 356 0280 7DB3     		j	.L2
 357              		.cfi_endproc
 358              	.LFE2:
 360              		.section	.text.T1setPWMch2,"ax",@progbits
 361              		.align	1
 362              		.globl	T1setPWMch2
 364              	T1setPWMch2:
 365              	.LFB3:
  60:lib/pwm/src/pwm.c **** 
  61:lib/pwm/src/pwm.c **** void T1setPWMch2(int value){
 366              		.loc 1 61 28
 367              		.cfi_startproc
 368              	.LVL31:
  62:lib/pwm/src/pwm.c ****     timer_channel_output_pulse_value_config(TIMER1,TIMER_CH_2,value);
 369              		.loc 1 62 5
 370 0000 2A86     		mv	a2,a0
 371 0002 8945     		li	a1,2
 372 0004 37050040 		li	a0,1073741824
 373              	.LVL32:
 374 0008 17030000 		tail	timer_channel_output_pulse_value_config
 374      67000300 
 375              	.LVL33:
 376              		.cfi_endproc
 377              	.LFE3:
GAS LISTING C:\Users\Kalle\AppData\Local\Temp\ccDEgUS4.s 			page 10


 379              		.section	.text.T1setPWMmotorB,"ax",@progbits
 380              		.align	1
 381              		.globl	T1setPWMmotorB
 383              	T1setPWMmotorB:
 384              	.LFB4:
  63:lib/pwm/src/pwm.c **** }
  64:lib/pwm/src/pwm.c **** 
  65:lib/pwm/src/pwm.c **** void T1setPWMmotorB(int thrrottle){
 385              		.loc 1 65 35
 386              		.cfi_startproc
 387              	.LVL34:
  66:lib/pwm/src/pwm.c ****     timer_channel_output_pulse_value_config(TIMER1,TIMER_CH_1,thrrottle*8000);
 388              		.loc 1 66 5
 389              		.loc 1 66 72 is_stmt 0
 390 0000 0966     		li	a2,8192
 391 0002 130606F4 		addi	a2,a2,-192
 392              		.loc 1 66 5
 393 0006 3306C502 		mul	a2,a0,a2
  65:lib/pwm/src/pwm.c ****     timer_channel_output_pulse_value_config(TIMER1,TIMER_CH_1,thrrottle*8000);
 394              		.loc 1 65 35
 395 000a 4111     		addi	sp,sp,-16
 396              	.LCFI3:
 397              		.cfi_def_cfa_offset 16
 398              		.loc 1 66 5
 399 000c 8545     		li	a1,1
 400 000e 37050040 		li	a0,1073741824
 401              	.LVL35:
  65:lib/pwm/src/pwm.c ****     timer_channel_output_pulse_value_config(TIMER1,TIMER_CH_1,thrrottle*8000);
 402              		.loc 1 65 35
 403 0012 06C6     		sw	ra,12(sp)
 404              		.cfi_offset 1, -4
 405              		.loc 1 66 5
 406 0014 97000000 		call	timer_channel_output_pulse_value_config
 406      E7800000 
 407              	.LVL36:
  67:lib/pwm/src/pwm.c ****     timer_channel_output_pulse_value_config(TIMER1,TIMER_CH_0,0);
 408              		.loc 1 67 5 is_stmt 1
  68:lib/pwm/src/pwm.c **** }...
 409              		.loc 1 68 1 is_stmt 0
 410 001c B240     		lw	ra,12(sp)
 411              		.cfi_restore 1
  67:lib/pwm/src/pwm.c ****     timer_channel_output_pulse_value_config(TIMER1,TIMER_CH_0,0);
 412              		.loc 1 67 5
 413 001e 0146     		li	a2,0
 414              		.loc 1 68 1
  67:lib/pwm/src/pwm.c ****     timer_channel_output_pulse_value_config(TIMER1,TIMER_CH_0,0);
 415              		.loc 1 67 5
 416 0020 8145     		li	a1,0
 417 0022 37050040 		li	a0,1073741824
 418              		.loc 1 68 1
 419 0026 4101     		addi	sp,sp,16
 420              	.LCFI4:
 421              		.cfi_def_cfa_offset 0
  67:lib/pwm/src/pwm.c ****     timer_channel_output_pulse_value_config(TIMER1,TIMER_CH_0,0);
 422              		.loc 1 67 5
 423 0028 17030000 		tail	timer_channel_output_pulse_value_config
 423      67000300 
GAS LISTING C:\Users\Kalle\AppData\Local\Temp\ccDEgUS4.s 			page 11


 424              	.LVL37:
 425              		.cfi_endproc
 426              	.LFE4:
 428              		.text
 429              	.Letext0:
 430              		.file 2 "c:\\idrotttek-kurs\\toolchain-gd32v-win\\compiler\\riscv64-unknown-elf\\include\\machine\
 431              		.file 3 "c:\\idrotttek-kurs\\toolchain-gd32v-win\\compiler\\riscv64-unknown-elf\\include\\sys\\_st
 432              		.file 4 "../../firmware/GD32VF103_standard_peripheral/Include/gd32vf103_timer.h"
 433              		.file 5 "../../firmware/GD32VF103_standard_peripheral/Include/gd32vf103_rcu.h"
 434              		.file 6 "../../firmware/GD32VF103_standard_peripheral/Include/gd32vf103_gpio.h"
 435              		.file 7 "../../firmware/GD32VF103_standard_peripheral/system_gd32vf103.h"
GAS LISTING C:\Users\Kalle\AppData\Local\Temp\ccDEgUS4.s 			page 12

