GAS LISTING C:\Users\Kalle\AppData\Local\Temp\ccyOiGeb.s 			page 1


   1              		.file	"tf_card.c"
   2              		.option nopic
   3              		.attribute arch, "rv32i2p0_m2p0_a2p0_c2p0"
   4              		.attribute unaligned_access, 0
   5              		.attribute stack_align, 16
   6              		.text
   7              	.Ltext0:
   8              		.cfi_sections	.debug_frame
   9              		.section	.text.xchg_spi,"ax",@progbits
  10              		.align	1
  12              	xchg_spi:
  13              	.LFB6:
  14              		.file 1 "lib/fatfs/src/tf_card.c"
   1:lib/fatfs/src/tf_card.c **** #include "tf_card.h"
   2:lib/fatfs/src/tf_card.c **** #include "tf_delay.h"
   3:lib/fatfs/src/tf_card.c **** #include "delay.h"
   4:lib/fatfs/src/tf_card.c **** 
   5:lib/fatfs/src/tf_card.c **** #define FCLK_SLOW() { SPI_CTL0(SPI1) = (SPI_CTL0(SPI1) & ~0x38) | 0x28; }	/* Set SCLK = PCLK2 / 64 
   6:lib/fatfs/src/tf_card.c **** #define FCLK_FAST() { SPI_CTL0(SPI1) = (SPI_CTL0(SPI1) & ~0x38) | 0x00; }	/* Set SCLK = PCLK2 / 2 *
   7:lib/fatfs/src/tf_card.c **** 
   8:lib/fatfs/src/tf_card.c **** // #define FCLK_SLOW()
   9:lib/fatfs/src/tf_card.c **** // #define FCLK_FAST()
  10:lib/fatfs/src/tf_card.c **** 
  11:lib/fatfs/src/tf_card.c **** //#define CS_HIGH() PB_OUT(4,1)
  12:lib/fatfs/src/tf_card.c **** #define CS_HIGH() gpio_bit_set(GPIOC, GPIO_PIN_14)
  13:lib/fatfs/src/tf_card.c **** //#define CS_LOW() PB_OUT(4,0)
  14:lib/fatfs/src/tf_card.c **** #define CS_LOW() gpio_bit_reset(GPIOC, GPIO_PIN_14)
  15:lib/fatfs/src/tf_card.c **** 
  16:lib/fatfs/src/tf_card.c **** /*--------------------------------------------------------------------------
  17:lib/fatfs/src/tf_card.c **** 
  18:lib/fatfs/src/tf_card.c ****    Module Private Functions
  19:lib/fatfs/src/tf_card.c **** 
  20:lib/fatfs/src/tf_card.c **** ---------------------------------------------------------------------------*/
  21:lib/fatfs/src/tf_card.c **** 
  22:lib/fatfs/src/tf_card.c **** /* MMC/SD command */
  23:lib/fatfs/src/tf_card.c **** #define CMD0	(0)			/* GO_IDLE_STATE */
  24:lib/fatfs/src/tf_card.c **** #define CMD1	(1)			/* SEND_OP_COND (MMC) */
  25:lib/fatfs/src/tf_card.c **** #define	ACMD41	(0x80+41)	/* SEND_OP_COND (SDC) */
  26:lib/fatfs/src/tf_card.c **** #define CMD8	(8)			/* SEND_IF_COND */
  27:lib/fatfs/src/tf_card.c **** #define CMD9	(9)			/* SEND_CSD */
  28:lib/fatfs/src/tf_card.c **** #define CMD10	(10)		/* SEND_CID */
  29:lib/fatfs/src/tf_card.c **** #define CMD12	(12)		/* STOP_TRANSMISSION */
  30:lib/fatfs/src/tf_card.c **** #define ACMD13	(0x80+13)	/* SD_STATUS (SDC) */
  31:lib/fatfs/src/tf_card.c **** #define CMD16	(16)		/* SET_BLOCKLEN */
  32:lib/fatfs/src/tf_card.c **** #define CMD17	(17)		/* READ_SINGLE_BLOCK */
  33:lib/fatfs/src/tf_card.c **** #define CMD18	(18)		/* READ_MULTIPLE_BLOCK */
  34:lib/fatfs/src/tf_card.c **** #define CMD23	(23)		/* SET_BLOCK_COUNT (MMC) */
  35:lib/fatfs/src/tf_card.c **** #define	ACMD23	(0x80+23)	/* SET_WR_BLK_ERASE_COUNT (SDC) */
  36:lib/fatfs/src/tf_card.c **** #define CMD24	(24)		/* WRITE_BLOCK */
  37:lib/fatfs/src/tf_card.c **** #define CMD25	(25)		/* WRITE_MULTIPLE_BLOCK */
  38:lib/fatfs/src/tf_card.c **** #define CMD32	(32)		/* ERASE_ER_BLK_START */
  39:lib/fatfs/src/tf_card.c **** #define CMD33	(33)		/* ERASE_ER_BLK_END */
  40:lib/fatfs/src/tf_card.c **** #define CMD38	(38)		/* ERASE */
  41:lib/fatfs/src/tf_card.c **** #define CMD55	(55)		/* APP_CMD */
  42:lib/fatfs/src/tf_card.c **** #define CMD58	(58)		/* READ_OCR */
  43:lib/fatfs/src/tf_card.c **** 
  44:lib/fatfs/src/tf_card.c **** static volatile
GAS LISTING C:\Users\Kalle\AppData\Local\Temp\ccyOiGeb.s 			page 2


  45:lib/fatfs/src/tf_card.c **** DSTATUS Stat = STA_NOINIT;	/* Physical drive status */
  46:lib/fatfs/src/tf_card.c **** 
  47:lib/fatfs/src/tf_card.c **** // static volatile
  48:lib/fatfs/src/tf_card.c **** // UINT Timer1, Timer2;	/* 1kHz decrement timer stopped at zero (disk_timerproc()) */
  49:lib/fatfs/src/tf_card.c **** static volatile
  50:lib/fatfs/src/tf_card.c **** UINT delay_timer1, delay_timer2;        	/* 1kHz decrement timer stopped at zero (disk_timerproc())
  51:lib/fatfs/src/tf_card.c **** 
  52:lib/fatfs/src/tf_card.c **** static
  53:lib/fatfs/src/tf_card.c **** BYTE CardType;			/* Card type flags */
  54:lib/fatfs/src/tf_card.c **** 
  55:lib/fatfs/src/tf_card.c **** 
  56:lib/fatfs/src/tf_card.c **** /*-----------------------------------------------------------------------*/
  57:lib/fatfs/src/tf_card.c **** /* SPI controls (Platform dependent)                                     */
  58:lib/fatfs/src/tf_card.c **** /*-----------------------------------------------------------------------*/
  59:lib/fatfs/src/tf_card.c **** 
  60:lib/fatfs/src/tf_card.c **** /* Initialize MMC interface */
  61:lib/fatfs/src/tf_card.c **** static
  62:lib/fatfs/src/tf_card.c **** void init_spi(void)
  63:lib/fatfs/src/tf_card.c **** {
  64:lib/fatfs/src/tf_card.c ****     spi_parameter_struct spi_init_struct;
  65:lib/fatfs/src/tf_card.c **** 
  66:lib/fatfs/src/tf_card.c ****     rcu_periph_clock_enable(RCU_GPIOB);
  67:lib/fatfs/src/tf_card.c **** 	rcu_periph_clock_enable(RCU_GPIOC);
  68:lib/fatfs/src/tf_card.c ****     rcu_periph_clock_enable(RCU_SPI1);
  69:lib/fatfs/src/tf_card.c **** 
  70:lib/fatfs/src/tf_card.c ****     /* SPI1_SCK(PB13), SPI1_MISO(PB14) and SPI1_MOSI(PB15) GPIO pin configuration */
  71:lib/fatfs/src/tf_card.c ****     gpio_init(GPIOB, GPIO_MODE_AF_PP, GPIO_OSPEED_50MHZ, GPIO_PIN_13 | GPIO_PIN_15);
  72:lib/fatfs/src/tf_card.c ****     gpio_init(GPIOB, GPIO_MODE_IN_FLOATING, GPIO_OSPEED_50MHZ, GPIO_PIN_14);
  73:lib/fatfs/src/tf_card.c ****     /* SPI1_CS(PB12) GPIO pin configuration */
  74:lib/fatfs/src/tf_card.c ****     gpio_init(GPIOC, GPIO_MODE_OUT_PP, GPIO_OSPEED_50MHZ, GPIO_PIN_14);
  75:lib/fatfs/src/tf_card.c **** 
  76:lib/fatfs/src/tf_card.c ****     /* chip _select invalid*/
  77:lib/fatfs/src/tf_card.c ****     CS_HIGH();
  78:lib/fatfs/src/tf_card.c **** 
  79:lib/fatfs/src/tf_card.c ****     /* SPI1 parameter config */
  80:lib/fatfs/src/tf_card.c ****     spi_init_struct.trans_mode           = SPI_TRANSMODE_FULLDUPLEX;
  81:lib/fatfs/src/tf_card.c ****     spi_init_struct.device_mode          = SPI_MASTER;
  82:lib/fatfs/src/tf_card.c ****     spi_init_struct.frame_size           = SPI_FRAMESIZE_8BIT;
  83:lib/fatfs/src/tf_card.c ****     spi_init_struct.clock_polarity_phase = SPI_CK_PL_HIGH_PH_2EDGE;
  84:lib/fatfs/src/tf_card.c ****     spi_init_struct.nss                  = SPI_NSS_SOFT;
  85:lib/fatfs/src/tf_card.c ****     spi_init_struct.prescale             = SPI_PSC_32;
  86:lib/fatfs/src/tf_card.c ****     spi_init_struct.endian               = SPI_ENDIAN_MSB;
  87:lib/fatfs/src/tf_card.c ****     spi_init(SPI1, &spi_init_struct);
  88:lib/fatfs/src/tf_card.c **** 
  89:lib/fatfs/src/tf_card.c ****     /* set crc polynomial */
  90:lib/fatfs/src/tf_card.c ****     spi_crc_polynomial_set(SPI1,7);
  91:lib/fatfs/src/tf_card.c ****     /* enable SPI1 */
  92:lib/fatfs/src/tf_card.c ****     spi_enable(SPI1);
  93:lib/fatfs/src/tf_card.c **** 
  94:lib/fatfs/src/tf_card.c **** }
  95:lib/fatfs/src/tf_card.c **** 
  96:lib/fatfs/src/tf_card.c **** /* Exchange a byte */
  97:lib/fatfs/src/tf_card.c **** static
  98:lib/fatfs/src/tf_card.c **** BYTE xchg_spi (
  99:lib/fatfs/src/tf_card.c **** 	BYTE dat	/* Data to send */
 100:lib/fatfs/src/tf_card.c **** )
 101:lib/fatfs/src/tf_card.c **** {
GAS LISTING C:\Users\Kalle\AppData\Local\Temp\ccyOiGeb.s 			page 3


  15              		.loc 1 101 1
  16              		.cfi_startproc
  17              	.LVL0:
 102:lib/fatfs/src/tf_card.c **** 	while(RESET == spi_i2s_flag_get(SPI1, SPI_FLAG_TBE));
  18              		.loc 1 102 2
 101:lib/fatfs/src/tf_card.c **** 	while(RESET == spi_i2s_flag_get(SPI1, SPI_FLAG_TBE));
  19              		.loc 1 101 1 is_stmt 0
  20 0000 4111     		addi	sp,sp,-16
  21              	.LCFI0:
  22              		.cfi_def_cfa_offset 16
  23 0002 26C2     		sw	s1,4(sp)
  24              		.cfi_offset 9, -12
  25              		.loc 1 102 17
  26 0004 B7440040 		li	s1,1073758208
 101:lib/fatfs/src/tf_card.c **** 	while(RESET == spi_i2s_flag_get(SPI1, SPI_FLAG_TBE));
  27              		.loc 1 101 1
  28 0008 22C4     		sw	s0,8(sp)
  29 000a 4AC0     		sw	s2,0(sp)
  30 000c 06C6     		sw	ra,12(sp)
  31              		.cfi_offset 8, -8
  32              		.cfi_offset 18, -16
  33              		.cfi_offset 1, -4
 101:lib/fatfs/src/tf_card.c **** 	while(RESET == spi_i2s_flag_get(SPI1, SPI_FLAG_TBE));
  34              		.loc 1 101 1
  35 000e 2A89     		mv	s2,a0
  36              		.loc 1 102 17
  37 0010 13840480 		addi	s0,s1,-2048
  38              	.LVL1:
  39              	.L2:
  40              		.loc 1 102 54 is_stmt 1 discriminator 1
  41              		.loc 1 102 17 is_stmt 0 discriminator 1
  42 0014 8945     		li	a1,2
  43 0016 2285     		mv	a0,s0
  44 0018 97000000 		call	spi_i2s_flag_get
  44      E7800000 
  45              	.LVL2:
  46              		.loc 1 102 7 discriminator 1
  47 0020 75D9     		beq	a0,zero,.L2
 103:lib/fatfs/src/tf_card.c ****         spi_i2s_data_transmit(SPI1, dat);
  48              		.loc 1 103 9 is_stmt 1
  49 0022 13850480 		addi	a0,s1,-2048
  50 0026 CA85     		mv	a1,s2
 104:lib/fatfs/src/tf_card.c **** 	while(RESET == spi_i2s_flag_get(SPI1, SPI_FLAG_RBNE));
  51              		.loc 1 104 17 is_stmt 0
  52 0028 B7440040 		li	s1,1073758208
 103:lib/fatfs/src/tf_card.c ****         spi_i2s_data_transmit(SPI1, dat);
  53              		.loc 1 103 9
  54 002c 97000000 		call	spi_i2s_data_transmit
  54      E7800000 
  55              	.LVL3:
  56              		.loc 1 104 2 is_stmt 1
  57              		.loc 1 104 17 is_stmt 0
  58 0034 13840480 		addi	s0,s1,-2048
  59              	.L3:
  60              		.loc 1 104 55 is_stmt 1 discriminator 1
  61              		.loc 1 104 17 is_stmt 0 discriminator 1
  62 0038 8545     		li	a1,1
GAS LISTING C:\Users\Kalle\AppData\Local\Temp\ccyOiGeb.s 			page 4


  63 003a 2285     		mv	a0,s0
  64 003c 97000000 		call	spi_i2s_flag_get
  64      E7800000 
  65              	.LVL4:
  66              		.loc 1 104 7 discriminator 1
  67 0044 75D9     		beq	a0,zero,.L3
 105:lib/fatfs/src/tf_card.c ****         return(spi_i2s_data_receive(SPI1));     /* Return received byte */
  68              		.loc 1 105 9 is_stmt 1
  69              		.loc 1 105 16 is_stmt 0
  70 0046 13850480 		addi	a0,s1,-2048
  71 004a 97000000 		call	spi_i2s_data_receive
  71      E7800000 
  72              	.LVL5:
 106:lib/fatfs/src/tf_card.c **** }
  73              		.loc 1 106 1
  74 0052 B240     		lw	ra,12(sp)
  75              		.cfi_restore 1
  76 0054 2244     		lw	s0,8(sp)
  77              		.cfi_restore 8
  78 0056 9244     		lw	s1,4(sp)
  79              		.cfi_restore 9
  80 0058 0249     		lw	s2,0(sp)
  81              		.cfi_restore 18
  82 005a 1375F50F 		andi	a0,a0,0xff
  83 005e 4101     		addi	sp,sp,16
  84              	.LCFI1:
  85              		.cfi_def_cfa_offset 0
  86 0060 8280     		jr	ra
  87              		.cfi_endproc
  88              	.LFE6:
  90              		.globl	__floatundidf
  91              		.globl	__floatunsidf
  92              		.globl	__divdf3
  93              		.globl	__muldf3
  94              		.globl	__ltdf2
  95              		.section	.text.wait_ready,"ax",@progbits
  96              		.align	1
  98              	wait_ready:
  99              	.LFB9:
 107:lib/fatfs/src/tf_card.c **** 
 108:lib/fatfs/src/tf_card.c **** 
 109:lib/fatfs/src/tf_card.c **** /* Receive multiple byte */
 110:lib/fatfs/src/tf_card.c **** static
 111:lib/fatfs/src/tf_card.c **** void rcvr_spi_multi (
 112:lib/fatfs/src/tf_card.c **** 	BYTE *buff,		/* Pointer to data buffer */
 113:lib/fatfs/src/tf_card.c **** 	UINT btr		/* Number of bytes to receive (even number) */
 114:lib/fatfs/src/tf_card.c **** )
 115:lib/fatfs/src/tf_card.c **** {
 116:lib/fatfs/src/tf_card.c **** 	do
 117:lib/fatfs/src/tf_card.c **** 	{
 118:lib/fatfs/src/tf_card.c **** 		*buff = xchg_spi(0xff);
 119:lib/fatfs/src/tf_card.c **** 		buff++;
 120:lib/fatfs/src/tf_card.c **** 	} while (btr--);
 121:lib/fatfs/src/tf_card.c **** 
 122:lib/fatfs/src/tf_card.c **** }
 123:lib/fatfs/src/tf_card.c **** 
 124:lib/fatfs/src/tf_card.c **** /* Send multiple byte */
GAS LISTING C:\Users\Kalle\AppData\Local\Temp\ccyOiGeb.s 			page 5


 125:lib/fatfs/src/tf_card.c **** static
 126:lib/fatfs/src/tf_card.c **** void xmit_spi_multi (
 127:lib/fatfs/src/tf_card.c **** 	const BYTE *buff,	/* Pointer to the data */
 128:lib/fatfs/src/tf_card.c **** 	UINT btx			/* Number of bytes to send (even number) */
 129:lib/fatfs/src/tf_card.c **** )
 130:lib/fatfs/src/tf_card.c **** {
 131:lib/fatfs/src/tf_card.c **** 	for(UINT i=0; i<btx; i++) {
 132:lib/fatfs/src/tf_card.c **** 		xchg_spi(*(buff+i));
 133:lib/fatfs/src/tf_card.c **** 	}
 134:lib/fatfs/src/tf_card.c **** }
 135:lib/fatfs/src/tf_card.c **** 
 136:lib/fatfs/src/tf_card.c **** /*-----------------------------------------------------------------------*/
 137:lib/fatfs/src/tf_card.c **** /* Wait for card ready                                                   */
 138:lib/fatfs/src/tf_card.c **** /*-----------------------------------------------------------------------*/
 139:lib/fatfs/src/tf_card.c **** 
 140:lib/fatfs/src/tf_card.c **** static
 141:lib/fatfs/src/tf_card.c **** int wait_ready (	/* 1:Ready, 0:Timeout */
 142:lib/fatfs/src/tf_card.c **** 	UINT wt			/* Timeout [ms] */
 143:lib/fatfs/src/tf_card.c **** )
 144:lib/fatfs/src/tf_card.c **** {
 100              		.loc 1 144 1 is_stmt 1
 101              		.cfi_startproc
 102              	.LVL6:
 145:lib/fatfs/src/tf_card.c **** 	uint64_t start_mtime, delta_mtime;
 103              		.loc 1 145 2
 146:lib/fatfs/src/tf_card.c **** 	BYTE d;
 104              		.loc 1 146 2
 147:lib/fatfs/src/tf_card.c **** 	start_mtime = get_timer_value();
 105              		.loc 1 147 2
 144:lib/fatfs/src/tf_card.c **** 	uint64_t start_mtime, delta_mtime;
 106              		.loc 1 144 1 is_stmt 0
 107 0000 7971     		addi	sp,sp,-48
 108              	.LCFI2:
 109              		.cfi_def_cfa_offset 48
 110 0002 4AD0     		sw	s2,32(sp)
 111 0004 4ECE     		sw	s3,28(sp)
 112 0006 52CC     		sw	s4,24(sp)
 113 0008 56CA     		sw	s5,20(sp)
 114 000a 5AC8     		sw	s6,16(sp)
 115 000c 5EC6     		sw	s7,12(sp)
 116 000e 06D6     		sw	ra,44(sp)
 117 0010 22D4     		sw	s0,40(sp)
 118 0012 26D2     		sw	s1,36(sp)
 119 0014 62C4     		sw	s8,8(sp)
 120 0016 66C2     		sw	s9,4(sp)
 121              		.cfi_offset 18, -16
 122              		.cfi_offset 19, -20
 123              		.cfi_offset 20, -24
 124              		.cfi_offset 21, -28
 125              		.cfi_offset 22, -32
 126              		.cfi_offset 23, -36
 127              		.cfi_offset 1, -4
 128              		.cfi_offset 8, -8
 129              		.cfi_offset 9, -12
 130              		.cfi_offset 24, -40
 131              		.cfi_offset 25, -44
 144:lib/fatfs/src/tf_card.c **** 	uint64_t start_mtime, delta_mtime;
GAS LISTING C:\Users\Kalle\AppData\Local\Temp\ccyOiGeb.s 			page 6


 132              		.loc 1 144 1
 133 0018 AA8B     		mv	s7,a0
 134              		.loc 1 147 16
 135 001a 97000000 		call	get_timer_value
 135      E7800000 
 136              	.LVL7:
 148:lib/fatfs/src/tf_card.c **** 
 149:lib/fatfs/src/tf_card.c **** 	do {
 150:lib/fatfs/src/tf_card.c **** 		delta_mtime = get_timer_value();
 151:lib/fatfs/src/tf_card.c **** 		delta_mtime -=  start_mtime;
 152:lib/fatfs/src/tf_card.c **** 		d = xchg_spi(0xFF);
 153:lib/fatfs/src/tf_card.c **** 	}while((d != 0xFF) && (delta_mtime <(SystemCoreClock/4000.0 *wt )));
 137              		.loc 1 153 54
 138 0022 B7070000 		lui	a5,%hi(.LC0)
 147:lib/fatfs/src/tf_card.c **** 
 139              		.loc 1 147 16
 140 0026 AA8A     		mv	s5,a0
 141 0028 2E8A     		mv	s4,a1
 142              	.LVL8:
 143              		.loc 1 153 54
 144 002a 03A90700 		lw	s2,%lo(.LC0)(a5)
 145 002e 83A94700 		lw	s3,%lo(.LC0+4)(a5)
 146 0032 370B0000 		lui	s6,%hi(SystemCoreClock)
 147 0036 A9A8     		j	.L12
 148              	.LVL9:
 149              	.L17:
 150              		.loc 1 153 37 discriminator 1
 151 0038 2685     		mv	a0,s1
 152              	.LVL10:
 153 003a 97000000 		call	__floatundidf
 153      E7800000 
 154              	.LVL11:
 155 0042 2A84     		mv	s0,a0
 156              	.LVL12:
 157              		.loc 1 153 54 discriminator 1
 158 0044 03250B00 		lw	a0,%lo(SystemCoreClock)(s6)
 159              		.loc 1 153 37 discriminator 1
 160 0048 AE84     		mv	s1,a1
 161              		.loc 1 153 54 discriminator 1
 162 004a 97000000 		call	__floatunsidf
 162      E7800000 
 163              	.LVL13:
 164 0052 4A86     		mv	a2,s2
 165 0054 CE86     		mv	a3,s3
 166 0056 97000000 		call	__divdf3
 166      E7800000 
 167              	.LVL14:
 168 005e 2A8C     		mv	s8,a0
 169              		.loc 1 153 62 discriminator 1
 170 0060 5E85     		mv	a0,s7
 171              		.loc 1 153 54 discriminator 1
 172 0062 AE8C     		mv	s9,a1
 173              		.loc 1 153 62 discriminator 1
 174 0064 97000000 		call	__floatunsidf
 174      E7800000 
 175              	.LVL15:
 176 006c 2A86     		mv	a2,a0
GAS LISTING C:\Users\Kalle\AppData\Local\Temp\ccyOiGeb.s 			page 7


 177 006e AE86     		mv	a3,a1
 178 0070 6285     		mv	a0,s8
 179 0072 E685     		mv	a1,s9
 180 0074 97000000 		call	__muldf3
 180      E7800000 
 181              	.LVL16:
 182              		.loc 1 153 21 discriminator 1
 183 007c 2A86     		mv	a2,a0
 184 007e AE86     		mv	a3,a1
 185 0080 2285     		mv	a0,s0
 186 0082 A685     		mv	a1,s1
 187 0084 97000000 		call	__ltdf2
 187      E7800000 
 188              	.LVL17:
 189 008c 63570504 		bge	a0,zero,.L16
 190              	.L12:
 149:lib/fatfs/src/tf_card.c **** 		delta_mtime = get_timer_value();
 191              		.loc 1 149 2 is_stmt 1 discriminator 2
 150:lib/fatfs/src/tf_card.c **** 		delta_mtime -=  start_mtime;
 192              		.loc 1 150 3 discriminator 2
 150:lib/fatfs/src/tf_card.c **** 		delta_mtime -=  start_mtime;
 193              		.loc 1 150 17 is_stmt 0 discriminator 2
 194 0090 97000000 		call	get_timer_value
 194      E7800000 
 195              	.LVL18:
 151:lib/fatfs/src/tf_card.c **** 		d = xchg_spi(0xFF);
 196              		.loc 1 151 3 is_stmt 1 discriminator 2
 151:lib/fatfs/src/tf_card.c **** 		d = xchg_spi(0xFF);
 197              		.loc 1 151 15 is_stmt 0 discriminator 2
 198 0098 B3045541 		sub	s1,a0,s5
 199 009c B3379500 		sgtu	a5,s1,a0
 200 00a0 B3854541 		sub	a1,a1,s4
 201              	.LVL19:
 152:lib/fatfs/src/tf_card.c **** 	}while((d != 0xFF) && (delta_mtime <(SystemCoreClock/4000.0 *wt )));
 202              		.loc 1 152 7 discriminator 2
 203 00a4 1305F00F 		li	a0,255
 151:lib/fatfs/src/tf_card.c **** 		d = xchg_spi(0xFF);
 204              		.loc 1 151 15 discriminator 2
 205 00a8 3384F540 		sub	s0,a1,a5
 206              	.LVL20:
 152:lib/fatfs/src/tf_card.c **** 	}while((d != 0xFF) && (delta_mtime <(SystemCoreClock/4000.0 *wt )));
 207              		.loc 1 152 3 is_stmt 1 discriminator 2
 152:lib/fatfs/src/tf_card.c **** 	}while((d != 0xFF) && (delta_mtime <(SystemCoreClock/4000.0 *wt )));
 208              		.loc 1 152 7 is_stmt 0 discriminator 2
 209 00ac 97000000 		call	xchg_spi
 209      E7800000 
 210              	.LVL21:
 211              		.loc 1 153 2 discriminator 2
 212 00b4 9307F00F 		li	a5,255
 213              		.loc 1 153 37 discriminator 2
 214 00b8 A285     		mv	a1,s0
 215              		.loc 1 153 2 discriminator 2
 216 00ba E31FF5F6 		bne	a0,a5,.L17
 217 00be 0545     		li	a0,1
 218              	.LVL22:
 154:lib/fatfs/src/tf_card.c **** 	/*
 155:lib/fatfs/src/tf_card.c **** 	
GAS LISTING C:\Users\Kalle\AppData\Local\Temp\ccyOiGeb.s 			page 8


 156:lib/fatfs/src/tf_card.c **** 	BYTE d;
 157:lib/fatfs/src/tf_card.c **** 
 158:lib/fatfs/src/tf_card.c **** 	// Timer2 = wt;
 159:lib/fatfs/src/tf_card.c ****     delay_timer2 = wt;
 160:lib/fatfs/src/tf_card.c **** 	do {
 161:lib/fatfs/src/tf_card.c **** 		d = xchg_spi(0xFF);
 162:lib/fatfs/src/tf_card.c **** 		
 163:lib/fatfs/src/tf_card.c **** 	} while (d != 0xFF && delay_timer2);	
 164:lib/fatfs/src/tf_card.c **** */
 165:lib/fatfs/src/tf_card.c **** 	return (d == 0xFF) ? 1 : 0; 
 219              		.loc 1 165 2 is_stmt 1
 220              	.L10:
 166:lib/fatfs/src/tf_card.c **** }
 221              		.loc 1 166 1 is_stmt 0
 222 00c0 B250     		lw	ra,44(sp)
 223              		.cfi_remember_state
 224              		.cfi_restore 1
 225 00c2 2254     		lw	s0,40(sp)
 226              		.cfi_restore 8
 227 00c4 9254     		lw	s1,36(sp)
 228              		.cfi_restore 9
 229 00c6 0259     		lw	s2,32(sp)
 230              		.cfi_restore 18
 231 00c8 F249     		lw	s3,28(sp)
 232              		.cfi_restore 19
 233 00ca 624A     		lw	s4,24(sp)
 234              		.cfi_restore 20
 235              	.LVL23:
 236 00cc D24A     		lw	s5,20(sp)
 237              		.cfi_restore 21
 238 00ce 424B     		lw	s6,16(sp)
 239              		.cfi_restore 22
 240 00d0 B24B     		lw	s7,12(sp)
 241              		.cfi_restore 23
 242              	.LVL24:
 243 00d2 224C     		lw	s8,8(sp)
 244              		.cfi_restore 24
 245 00d4 924C     		lw	s9,4(sp)
 246              		.cfi_restore 25
 247 00d6 4561     		addi	sp,sp,48
 248              	.LCFI3:
 249              		.cfi_def_cfa_offset 0
 250 00d8 8280     		jr	ra
 251              	.LVL25:
 252              	.L16:
 253              	.LCFI4:
 254              		.cfi_restore_state
 255 00da 0145     		li	a0,0
 256 00dc D5B7     		j	.L10
 257              		.cfi_endproc
 258              	.LFE9:
 260              		.section	.text.rcvr_datablock,"ax",@progbits
 261              		.align	1
 263              	rcvr_datablock:
 264              	.LFB12:
 167:lib/fatfs/src/tf_card.c **** 
 168:lib/fatfs/src/tf_card.c **** 
GAS LISTING C:\Users\Kalle\AppData\Local\Temp\ccyOiGeb.s 			page 9


 169:lib/fatfs/src/tf_card.c **** 
 170:lib/fatfs/src/tf_card.c **** /*-----------------------------------------------------------------------*/
 171:lib/fatfs/src/tf_card.c **** /* Deselect card and release SPI                                         */
 172:lib/fatfs/src/tf_card.c **** /*-----------------------------------------------------------------------*/
 173:lib/fatfs/src/tf_card.c **** 
 174:lib/fatfs/src/tf_card.c **** static
 175:lib/fatfs/src/tf_card.c **** void deselect (void)
 176:lib/fatfs/src/tf_card.c **** {
 177:lib/fatfs/src/tf_card.c **** 	CS_HIGH();		/* Set CS# high */
 178:lib/fatfs/src/tf_card.c **** 	xchg_spi(0xFF);	/* Dummy clock (force DO hi-z for multiple slave SPI) */
 179:lib/fatfs/src/tf_card.c **** }
 180:lib/fatfs/src/tf_card.c **** 
 181:lib/fatfs/src/tf_card.c **** 
 182:lib/fatfs/src/tf_card.c **** 
 183:lib/fatfs/src/tf_card.c **** /*-----------------------------------------------------------------------*/
 184:lib/fatfs/src/tf_card.c **** /* Select card and wait for ready                                        */
 185:lib/fatfs/src/tf_card.c **** /*-----------------------------------------------------------------------*/
 186:lib/fatfs/src/tf_card.c **** 
 187:lib/fatfs/src/tf_card.c **** static
 188:lib/fatfs/src/tf_card.c **** int _select (void)	/* 1:OK, 0:Timeout */
 189:lib/fatfs/src/tf_card.c **** {
 190:lib/fatfs/src/tf_card.c **** 	CS_LOW();		/* Set CS# low */
 191:lib/fatfs/src/tf_card.c **** 	xchg_spi(0xFF);	/* Dummy clock (force DO enabled) */
 192:lib/fatfs/src/tf_card.c **** 	if (wait_ready(500)) return 1;	/* Wait for card ready */
 193:lib/fatfs/src/tf_card.c **** 
 194:lib/fatfs/src/tf_card.c **** 	deselect();
 195:lib/fatfs/src/tf_card.c **** 	return 0;	/* Timeout */
 196:lib/fatfs/src/tf_card.c **** }
 197:lib/fatfs/src/tf_card.c **** 
 198:lib/fatfs/src/tf_card.c **** 
 199:lib/fatfs/src/tf_card.c **** 
 200:lib/fatfs/src/tf_card.c **** /*-----------------------------------------------------------------------*/
 201:lib/fatfs/src/tf_card.c **** /* Receive a data packet from the MMC                                    */
 202:lib/fatfs/src/tf_card.c **** /*-----------------------------------------------------------------------*/
 203:lib/fatfs/src/tf_card.c **** 
 204:lib/fatfs/src/tf_card.c **** static
 205:lib/fatfs/src/tf_card.c **** int rcvr_datablock (	/* 1:OK, 0:Error */
 206:lib/fatfs/src/tf_card.c **** 	BYTE *buff,			/* Data buffer */
 207:lib/fatfs/src/tf_card.c **** 	UINT btr			/* Data block length (byte) */
 208:lib/fatfs/src/tf_card.c **** )
 209:lib/fatfs/src/tf_card.c **** {
 265              		.loc 1 209 1 is_stmt 1
 266              		.cfi_startproc
 267              	.LVL26:
 268 0000 4111     		addi	sp,sp,-16
 269              	.LCFI5:
 270              		.cfi_def_cfa_offset 16
 271 0002 22C4     		sw	s0,8(sp)
 272              		.cfi_offset 8, -8
 273 0004 2A84     		mv	s0,a0
 210:lib/fatfs/src/tf_card.c **** 	BYTE token;
 274              		.loc 1 210 2
 211:lib/fatfs/src/tf_card.c **** 
 212:lib/fatfs/src/tf_card.c **** 	tf_start_timer(200);
 275              		.loc 1 212 2
 276 0006 1305800C 		li	a0,200
 277              	.LVL27:
GAS LISTING C:\Users\Kalle\AppData\Local\Temp\ccyOiGeb.s 			page 10


 209:lib/fatfs/src/tf_card.c **** 	BYTE token;
 278              		.loc 1 209 1 is_stmt 0
 279 000a 26C2     		sw	s1,4(sp)
 280 000c 06C6     		sw	ra,12(sp)
 281              		.cfi_offset 9, -12
 282              		.cfi_offset 1, -4
 209:lib/fatfs/src/tf_card.c **** 	BYTE token;
 283              		.loc 1 209 1
 284 000e AE84     		mv	s1,a1
 285              		.loc 1 212 2
 286 0010 97000000 		call	tf_start_timer
 286      E7800000 
 287              	.LVL28:
 288 0018 31A0     		j	.L20
 289              	.LVL29:
 290              	.L27:
 213:lib/fatfs/src/tf_card.c **** 	do {							/* Wait for DataStart token in timeout of 200ms */
 214:lib/fatfs/src/tf_card.c **** 		token = xchg_spi(0xFF);
 215:lib/fatfs/src/tf_card.c **** 		/* This loop will take a time. Insert rot_rdq() here for multitask envilonment. */
 216:lib/fatfs/src/tf_card.c **** 	} while ((token == 0xFF) && tf_timer_done());
 291              		.loc 1 216 30 discriminator 1
 292 001a 97000000 		call	tf_timer_done
 292      E7800000 
 293              	.LVL30:
 294              		.loc 1 216 27 discriminator 1
 295 0022 31CD     		beq	a0,zero,.L22
 296              	.L20:
 213:lib/fatfs/src/tf_card.c **** 	do {							/* Wait for DataStart token in timeout of 200ms */
 297              		.loc 1 213 2 is_stmt 1 discriminator 2
 214:lib/fatfs/src/tf_card.c **** 		/* This loop will take a time. Insert rot_rdq() here for multitask envilonment. */
 298              		.loc 1 214 3 discriminator 2
 214:lib/fatfs/src/tf_card.c **** 		/* This loop will take a time. Insert rot_rdq() here for multitask envilonment. */
 299              		.loc 1 214 11 is_stmt 0 discriminator 2
 300 0024 1305F00F 		li	a0,255
 301 0028 97000000 		call	xchg_spi
 301      E7800000 
 302              	.LVL31:
 303              		.loc 1 216 2 discriminator 2
 304 0030 9307F00F 		li	a5,255
 305 0034 E303F5FE 		beq	a0,a5,.L27
 217:lib/fatfs/src/tf_card.c **** 	if(token != 0xFE) return 0;		/* Function fails if invalid DataStart token or timeout */
 306              		.loc 1 217 2 is_stmt 1
 307              		.loc 1 217 4 is_stmt 0
 308 0038 9307E00F 		li	a5,254
 309 003c 6311F504 		bne	a0,a5,.L22
 310 0040 8504     		addi	s1,s1,1
 311              	.LVL32:
 312 0042 A294     		add	s1,s0,s1
 313              	.LVL33:
 314              	.L23:
 315              	.LBB33:
 316              	.LBB34:
 116:lib/fatfs/src/tf_card.c **** 	{
 317              		.loc 1 116 2 is_stmt 1
 118:lib/fatfs/src/tf_card.c **** 		buff++;
 318              		.loc 1 118 3
 118:lib/fatfs/src/tf_card.c **** 		buff++;
GAS LISTING C:\Users\Kalle\AppData\Local\Temp\ccyOiGeb.s 			page 11


 319              		.loc 1 118 11 is_stmt 0
 320 0044 1305F00F 		li	a0,255
 321 0048 97000000 		call	xchg_spi
 321      E7800000 
 322              	.LVL34:
 118:lib/fatfs/src/tf_card.c **** 		buff++;
 323              		.loc 1 118 9
 324 0050 2300A400 		sb	a0,0(s0)
 119:lib/fatfs/src/tf_card.c **** 	} while (btr--);
 325              		.loc 1 119 3 is_stmt 1
 326              	.LVL35:
 119:lib/fatfs/src/tf_card.c **** 	} while (btr--);
 327              		.loc 1 119 7 is_stmt 0
 328 0054 0504     		addi	s0,s0,1
 329              	.LVL36:
 120:lib/fatfs/src/tf_card.c **** 
 330              		.loc 1 120 2
 331 0056 E39784FE 		bne	s1,s0,.L23
 332              	.LVL37:
 333              	.LBE34:
 334              	.LBE33:
 335              	.LBB35:
 336              	.LBB36:
 218:lib/fatfs/src/tf_card.c **** 
 219:lib/fatfs/src/tf_card.c **** 	rcvr_spi_multi(buff, btr);		/* Store trailing data to the buffer */
 220:lib/fatfs/src/tf_card.c **** 	xchg_spi(0xFF); xchg_spi(0xFF);			/* Discard CRC */
 337              		.loc 1 220 2 is_stmt 1
 338 005a 1305F00F 		li	a0,255
 339 005e 97000000 		call	xchg_spi
 339      E7800000 
 340              	.LVL38:
 341              		.loc 1 220 18
 342 0066 1305F00F 		li	a0,255
 343 006a 97000000 		call	xchg_spi
 343      E7800000 
 344              	.LVL39:
 221:lib/fatfs/src/tf_card.c **** 
 222:lib/fatfs/src/tf_card.c **** 	return 1;						/* Function succeeded */
 345              		.loc 1 222 2
 346              	.LBE36:
 347              	.LBE35:
 223:lib/fatfs/src/tf_card.c **** }
 348              		.loc 1 223 1 is_stmt 0
 349 0072 B240     		lw	ra,12(sp)
 350              		.cfi_remember_state
 351              		.cfi_restore 1
 352 0074 2244     		lw	s0,8(sp)
 353              		.cfi_restore 8
 354              	.LVL40:
 355 0076 9244     		lw	s1,4(sp)
 356              		.cfi_restore 9
 357              	.LBB38:
 358              	.LBB37:
 220:lib/fatfs/src/tf_card.c **** 
 359              		.loc 1 220 18
 360 0078 0545     		li	a0,1
 361              	.LBE37:
GAS LISTING C:\Users\Kalle\AppData\Local\Temp\ccyOiGeb.s 			page 12


 362              	.LBE38:
 363              		.loc 1 223 1
 364 007a 4101     		addi	sp,sp,16
 365              	.LCFI6:
 366              		.cfi_def_cfa_offset 0
 367 007c 8280     		jr	ra
 368              	.LVL41:
 369              	.L22:
 370              	.LCFI7:
 371              		.cfi_restore_state
 372 007e B240     		lw	ra,12(sp)
 373              		.cfi_restore 1
 374 0080 2244     		lw	s0,8(sp)
 375              		.cfi_restore 8
 376              	.LVL42:
 377 0082 9244     		lw	s1,4(sp)
 378              		.cfi_restore 9
 379              	.LVL43:
 217:lib/fatfs/src/tf_card.c **** 
 380              		.loc 1 217 27
 381 0084 0145     		li	a0,0
 382              		.loc 1 223 1
 383 0086 4101     		addi	sp,sp,16
 384              	.LCFI8:
 385              		.cfi_def_cfa_offset 0
 386 0088 8280     		jr	ra
 387              		.cfi_endproc
 388              	.LFE12:
 390              		.section	.text._select,"ax",@progbits
 391              		.align	1
 393              	_select:
 394              	.LFB11:
 189:lib/fatfs/src/tf_card.c **** 	CS_LOW();		/* Set CS# low */
 395              		.loc 1 189 1 is_stmt 1
 396              		.cfi_startproc
 190:lib/fatfs/src/tf_card.c **** 	xchg_spi(0xFF);	/* Dummy clock (force DO enabled) */
 397              		.loc 1 190 2
 189:lib/fatfs/src/tf_card.c **** 	CS_LOW();		/* Set CS# low */
 398              		.loc 1 189 1 is_stmt 0
 399 0000 4111     		addi	sp,sp,-16
 400              	.LCFI9:
 401              		.cfi_def_cfa_offset 16
 190:lib/fatfs/src/tf_card.c **** 	xchg_spi(0xFF);	/* Dummy clock (force DO enabled) */
 402              		.loc 1 190 2
 403 0002 9165     		li	a1,16384
 404 0004 37150140 		li	a0,1073811456
 189:lib/fatfs/src/tf_card.c **** 	CS_LOW();		/* Set CS# low */
 405              		.loc 1 189 1
 406 0008 06C6     		sw	ra,12(sp)
 407 000a 22C4     		sw	s0,8(sp)
 408              		.cfi_offset 1, -4
 409              		.cfi_offset 8, -8
 190:lib/fatfs/src/tf_card.c **** 	xchg_spi(0xFF);	/* Dummy clock (force DO enabled) */
 410              		.loc 1 190 2
 411 000c 97000000 		call	gpio_bit_reset
 411      E7800000 
 412              	.LVL44:
GAS LISTING C:\Users\Kalle\AppData\Local\Temp\ccyOiGeb.s 			page 13


 191:lib/fatfs/src/tf_card.c **** 	if (wait_ready(500)) return 1;	/* Wait for card ready */
 413              		.loc 1 191 2 is_stmt 1
 414 0014 1305F00F 		li	a0,255
 415 0018 97000000 		call	xchg_spi
 415      E7800000 
 416              	.LVL45:
 192:lib/fatfs/src/tf_card.c **** 
 417              		.loc 1 192 2
 192:lib/fatfs/src/tf_card.c **** 
 418              		.loc 1 192 6 is_stmt 0
 419 0020 1305401F 		li	a0,500
 420 0024 97000000 		call	wait_ready
 420      E7800000 
 421              	.LVL46:
 192:lib/fatfs/src/tf_card.c **** 
 422              		.loc 1 192 30
 423 002c 0544     		li	s0,1
 192:lib/fatfs/src/tf_card.c **** 
 424              		.loc 1 192 5
 425 002e 19ED     		bne	a0,zero,.L28
 426 0030 2A84     		mv	s0,a0
 194:lib/fatfs/src/tf_card.c **** 	return 0;	/* Timeout */
 427              		.loc 1 194 2 is_stmt 1
 428              	.LBB43:
 429              	.LBB44:
 430              	.LBB45:
 177:lib/fatfs/src/tf_card.c **** 	xchg_spi(0xFF);	/* Dummy clock (force DO hi-z for multiple slave SPI) */
 431              		.loc 1 177 2
 432 0032 9165     		li	a1,16384
 433 0034 37150140 		li	a0,1073811456
 434 0038 97000000 		call	gpio_bit_set
 434      E7800000 
 435              	.LVL47:
 178:lib/fatfs/src/tf_card.c **** }
 436              		.loc 1 178 2
 437 0040 1305F00F 		li	a0,255
 438 0044 97000000 		call	xchg_spi
 438      E7800000 
 439              	.LVL48:
 440              	.LBE45:
 441              	.LBE44:
 442              	.LBE43:
 195:lib/fatfs/src/tf_card.c **** }
 443              		.loc 1 195 2
 444              	.L28:
 196:lib/fatfs/src/tf_card.c **** 
 445              		.loc 1 196 1 is_stmt 0
 446 004c 2285     		mv	a0,s0
 447 004e B240     		lw	ra,12(sp)
 448              		.cfi_restore 1
 449 0050 2244     		lw	s0,8(sp)
 450              		.cfi_restore 8
 451 0052 4101     		addi	sp,sp,16
 452              	.LCFI10:
 453              		.cfi_def_cfa_offset 0
 454 0054 8280     		jr	ra
 455              		.cfi_endproc
GAS LISTING C:\Users\Kalle\AppData\Local\Temp\ccyOiGeb.s 			page 14


 456              	.LFE11:
 458              		.section	.text.send_cmd,"ax",@progbits
 459              		.align	1
 461              	send_cmd:
 462              	.LFB14:
 224:lib/fatfs/src/tf_card.c **** 
 225:lib/fatfs/src/tf_card.c **** static
 226:lib/fatfs/src/tf_card.c **** int xmit_datablock (	/* 1:OK, 0:Failed */
 227:lib/fatfs/src/tf_card.c **** 	const BYTE *buff,	/* Ponter to 512 byte data to be sent */
 228:lib/fatfs/src/tf_card.c **** 	BYTE token			/* Token */
 229:lib/fatfs/src/tf_card.c **** )
 230:lib/fatfs/src/tf_card.c **** {
 231:lib/fatfs/src/tf_card.c **** 	BYTE resp;
 232:lib/fatfs/src/tf_card.c **** 
 233:lib/fatfs/src/tf_card.c **** 
 234:lib/fatfs/src/tf_card.c **** 	if (!wait_ready(500)) return 0;		/* Wait for card ready */
 235:lib/fatfs/src/tf_card.c **** 
 236:lib/fatfs/src/tf_card.c **** 	xchg_spi(token);					/* Send token */
 237:lib/fatfs/src/tf_card.c **** 	if (token != 0xFD) {				/* Send data if token is other than StopTran */
 238:lib/fatfs/src/tf_card.c **** 		xmit_spi_multi(buff, 512);		/* Data */
 239:lib/fatfs/src/tf_card.c **** 		xchg_spi(0xFF); xchg_spi(0xFF);	/* Dummy CRC */
 240:lib/fatfs/src/tf_card.c **** 
 241:lib/fatfs/src/tf_card.c **** 		resp = xchg_spi(0xFF);				/* Receive data resp */
 242:lib/fatfs/src/tf_card.c **** 		if ((resp & 0x1F) != 0x05) return 0;	/* Function fails if the data packet was not accepted */
 243:lib/fatfs/src/tf_card.c **** 	}
 244:lib/fatfs/src/tf_card.c **** 	return 1;
 245:lib/fatfs/src/tf_card.c **** }
 246:lib/fatfs/src/tf_card.c **** 
 247:lib/fatfs/src/tf_card.c **** /*-----------------------------------------------------------------------*/
 248:lib/fatfs/src/tf_card.c **** /* Send a command packet to the MMC                                      */
 249:lib/fatfs/src/tf_card.c **** /*-----------------------------------------------------------------------*/
 250:lib/fatfs/src/tf_card.c **** 
 251:lib/fatfs/src/tf_card.c **** static
 252:lib/fatfs/src/tf_card.c **** BYTE send_cmd (		/* Return value: R1 resp (bit7==1:Failed to send) */
 253:lib/fatfs/src/tf_card.c **** 	BYTE cmd,		/* Command index */
 254:lib/fatfs/src/tf_card.c **** 	DWORD arg		/* Argument */
 255:lib/fatfs/src/tf_card.c **** )
 256:lib/fatfs/src/tf_card.c **** {
 463              		.loc 1 256 1 is_stmt 1
 464              		.cfi_startproc
 465              	.LVL49:
 257:lib/fatfs/src/tf_card.c **** 	BYTE n, res;
 466              		.loc 1 257 2
 258:lib/fatfs/src/tf_card.c **** 
 259:lib/fatfs/src/tf_card.c **** 
 260:lib/fatfs/src/tf_card.c **** 	if (cmd & 0x80) {	/* Send a CMD55 prior to ACMD<n> */
 467              		.loc 1 260 2
 256:lib/fatfs/src/tf_card.c **** 	BYTE n, res;
 468              		.loc 1 256 1 is_stmt 0
 469 0000 4111     		addi	sp,sp,-16
 470              	.LCFI11:
 471              		.cfi_def_cfa_offset 16
 472              		.loc 1 260 5
 473 0002 93178501 		slli	a5,a0,24
 256:lib/fatfs/src/tf_card.c **** 	BYTE n, res;
 474              		.loc 1 256 1
 475 0006 22C4     		sw	s0,8(sp)
GAS LISTING C:\Users\Kalle\AppData\Local\Temp\ccyOiGeb.s 			page 15


 476 0008 26C2     		sw	s1,4(sp)
 477 000a 06C6     		sw	ra,12(sp)
 478              		.cfi_offset 8, -8
 479              		.cfi_offset 9, -12
 480              		.cfi_offset 1, -4
 481              		.loc 1 260 5
 482 000c E187     		srai	a5,a5,24
 256:lib/fatfs/src/tf_card.c **** 	BYTE n, res;
 483              		.loc 1 256 1
 484 000e 2A84     		mv	s0,a0
 485 0010 AE84     		mv	s1,a1
 486              		.loc 1 260 5
 487 0012 63C70710 		blt	a5,zero,.L49
 488              	.LVL50:
 489              	.L33:
 261:lib/fatfs/src/tf_card.c **** 		cmd &= 0x7F;
 262:lib/fatfs/src/tf_card.c **** 		res = send_cmd(CMD55, 0);
 263:lib/fatfs/src/tf_card.c **** 		if (res > 1) return res;
 264:lib/fatfs/src/tf_card.c **** 	}
 265:lib/fatfs/src/tf_card.c **** 
 266:lib/fatfs/src/tf_card.c **** 	/* Select the card and wait for ready except to stop multiple block read */
 267:lib/fatfs/src/tf_card.c **** 	if (cmd != CMD12) {
 490              		.loc 1 267 2 is_stmt 1
 491              		.loc 1 267 5 is_stmt 0
 492 0016 B147     		li	a5,12
 493 0018 6306F40A 		beq	s0,a5,.L35
 268:lib/fatfs/src/tf_card.c **** 		deselect();
 494              		.loc 1 268 3 is_stmt 1
 495              	.LBB46:
 496              	.LBB47:
 177:lib/fatfs/src/tf_card.c **** 	xchg_spi(0xFF);	/* Dummy clock (force DO hi-z for multiple slave SPI) */
 497              		.loc 1 177 2
 498 001c 9165     		li	a1,16384
 499 001e 37150140 		li	a0,1073811456
 500 0022 97000000 		call	gpio_bit_set
 500      E7800000 
 501              	.LVL51:
 178:lib/fatfs/src/tf_card.c **** }
 502              		.loc 1 178 2
 503 002a 1305F00F 		li	a0,255
 504 002e 97000000 		call	xchg_spi
 504      E7800000 
 505              	.LVL52:
 506              	.LBE47:
 507              	.LBE46:
 269:lib/fatfs/src/tf_card.c **** 		if (!_select()) return 0xFF;
 508              		.loc 1 269 3
 509              		.loc 1 269 8 is_stmt 0
 510 0036 97000000 		call	_select
 510      E7800000 
 511              	.LVL53:
 512              		.loc 1 269 26
 513 003e 9307F00F 		li	a5,255
 514              		.loc 1 269 6
 515 0042 3DC9     		beq	a0,zero,.L43
 270:lib/fatfs/src/tf_card.c **** 	}
 271:lib/fatfs/src/tf_card.c **** 
GAS LISTING C:\Users\Kalle\AppData\Local\Temp\ccyOiGeb.s 			page 16


 272:lib/fatfs/src/tf_card.c **** 	/* Send command packet */
 273:lib/fatfs/src/tf_card.c **** 	xchg_spi(0x40 | cmd);				/* Start + command index */
 516              		.loc 1 273 2 is_stmt 1
 517 0044 13650404 		ori	a0,s0,64
 518 0048 97000000 		call	xchg_spi
 518      E7800000 
 519              	.LVL54:
 274:lib/fatfs/src/tf_card.c **** 	xchg_spi((BYTE)(arg >> 24));		/* Argument[31..24] */
 520              		.loc 1 274 2
 521 0050 13D58401 		srli	a0,s1,24
 522 0054 97000000 		call	xchg_spi
 522      E7800000 
 523              	.LVL55:
 275:lib/fatfs/src/tf_card.c **** 	xchg_spi((BYTE)(arg >> 16));		/* Argument[23..16] */
 524              		.loc 1 275 2
 525              		.loc 1 275 22 is_stmt 0
 526 005c 13D50401 		srli	a0,s1,16
 527              		.loc 1 275 2
 528 0060 1375F50F 		andi	a0,a0,0xff
 529 0064 97000000 		call	xchg_spi
 529      E7800000 
 530              	.LVL56:
 276:lib/fatfs/src/tf_card.c **** 	xchg_spi((BYTE)(arg >> 8));			/* Argument[15..8] */
 531              		.loc 1 276 2 is_stmt 1
 532              		.loc 1 276 22 is_stmt 0
 533 006c 13D58400 		srli	a0,s1,8
 534              		.loc 1 276 2
 535 0070 1375F50F 		andi	a0,a0,0xff
 536 0074 97000000 		call	xchg_spi
 536      E7800000 
 537              	.LVL57:
 277:lib/fatfs/src/tf_card.c **** 	xchg_spi((BYTE)arg);				/* Argument[7..0] */
 538              		.loc 1 277 2 is_stmt 1
 539 007c 13F5F40F 		andi	a0,s1,0xff
 540 0080 97000000 		call	xchg_spi
 540      E7800000 
 541              	.LVL58:
 278:lib/fatfs/src/tf_card.c **** 	n = 0x01;							/* Dummy CRC + Stop */
 542              		.loc 1 278 2
 279:lib/fatfs/src/tf_card.c **** 	if (cmd == CMD0) n = 0x95;			/* Valid CRC for CMD0(0) */
 543              		.loc 1 279 2
 544              		.loc 1 279 5 is_stmt 0
 545 0088 55E8     		bne	s0,zero,.L50
 546              	.LVL59:
 280:lib/fatfs/src/tf_card.c **** 	if (cmd == CMD8) n = 0x87;			/* Valid CRC for CMD8(0x1AA) */
 281:lib/fatfs/src/tf_card.c **** 	xchg_spi(n);
 547              		.loc 1 281 2 is_stmt 1
 548 008a 13055009 		li	a0,149
 549 008e 97000000 		call	xchg_spi
 549      E7800000 
 550              	.LVL60:
 282:lib/fatfs/src/tf_card.c **** 
 283:lib/fatfs/src/tf_card.c **** 	/* Receive command resp */
 284:lib/fatfs/src/tf_card.c **** 	if (cmd == CMD12) xchg_spi(0xFF);	/* Diacard following one byte when CMD12 */
 551              		.loc 1 284 2
 552              	.L39:
 256:lib/fatfs/src/tf_card.c **** 	BYTE n, res;
GAS LISTING C:\Users\Kalle\AppData\Local\Temp\ccyOiGeb.s 			page 17


 553              		.loc 1 256 1 is_stmt 0 discriminator 2
 554 0096 2944     		li	s0,10
 555              	.LVL61:
 556              	.L38:
 285:lib/fatfs/src/tf_card.c **** 	n = 10;								/* Wait for response (10 bytes max) */
 286:lib/fatfs/src/tf_card.c **** 	do {
 557              		.loc 1 286 2 is_stmt 1 discriminator 2
 287:lib/fatfs/src/tf_card.c **** 		res = xchg_spi(0xFF);
 558              		.loc 1 287 3 discriminator 2
 559              		.loc 1 287 9 is_stmt 0 discriminator 2
 560 0098 1305F00F 		li	a0,255
 561 009c 97000000 		call	xchg_spi
 561      E7800000 
 562              	.LVL62:
 288:lib/fatfs/src/tf_card.c **** 	} while ((res & 0x80) && --n);
 563              		.loc 1 288 2 discriminator 2
 564 00a4 13178501 		slli	a4,a0,24
 565 00a8 7D14     		addi	s0,s0,-1
 566              	.LVL63:
 567 00aa 6187     		srai	a4,a4,24
 287:lib/fatfs/src/tf_card.c **** 		res = xchg_spi(0xFF);
 568              		.loc 1 287 9 discriminator 2
 569 00ac AA87     		mv	a5,a0
 570              	.LVL64:
 571 00ae 1374F40F 		andi	s0,s0,0xff
 572              		.loc 1 288 2 discriminator 2
 573 00b2 63530700 		bge	a4,zero,.L43
 574              		.loc 1 288 24 discriminator 1
 575 00b6 6DF0     		bne	s0,zero,.L38
 576              	.LVL65:
 577              	.L43:
 289:lib/fatfs/src/tf_card.c **** 
 290:lib/fatfs/src/tf_card.c **** 	return res;							/* Return received response */
 291:lib/fatfs/src/tf_card.c **** }
 578              		.loc 1 291 1
 579 00b8 B240     		lw	ra,12(sp)
 580              		.cfi_remember_state
 581              		.cfi_restore 1
 582 00ba 2244     		lw	s0,8(sp)
 583              		.cfi_restore 8
 584 00bc 9244     		lw	s1,4(sp)
 585              		.cfi_restore 9
 586              	.LVL66:
 587 00be 3E85     		mv	a0,a5
 588 00c0 4101     		addi	sp,sp,16
 589              	.LCFI12:
 590              		.cfi_def_cfa_offset 0
 591 00c2 8280     		jr	ra
 592              	.LVL67:
 593              	.L35:
 594              	.LCFI13:
 595              		.cfi_restore_state
 273:lib/fatfs/src/tf_card.c **** 	xchg_spi((BYTE)(arg >> 24));		/* Argument[31..24] */
 596              		.loc 1 273 2 is_stmt 1
 597 00c4 1305C004 		li	a0,76
 598 00c8 97000000 		call	xchg_spi
 598      E7800000 
GAS LISTING C:\Users\Kalle\AppData\Local\Temp\ccyOiGeb.s 			page 18


 599              	.LVL68:
 274:lib/fatfs/src/tf_card.c **** 	xchg_spi((BYTE)(arg >> 16));		/* Argument[23..16] */
 600              		.loc 1 274 2
 601 00d0 13D58401 		srli	a0,s1,24
 602 00d4 97000000 		call	xchg_spi
 602      E7800000 
 603              	.LVL69:
 275:lib/fatfs/src/tf_card.c **** 	xchg_spi((BYTE)(arg >> 8));			/* Argument[15..8] */
 604              		.loc 1 275 2
 275:lib/fatfs/src/tf_card.c **** 	xchg_spi((BYTE)(arg >> 8));			/* Argument[15..8] */
 605              		.loc 1 275 22 is_stmt 0
 606 00dc 13D50401 		srli	a0,s1,16
 275:lib/fatfs/src/tf_card.c **** 	xchg_spi((BYTE)(arg >> 8));			/* Argument[15..8] */
 607              		.loc 1 275 2
 608 00e0 1375F50F 		andi	a0,a0,0xff
 609 00e4 97000000 		call	xchg_spi
 609      E7800000 
 610              	.LVL70:
 276:lib/fatfs/src/tf_card.c **** 	xchg_spi((BYTE)arg);				/* Argument[7..0] */
 611              		.loc 1 276 2 is_stmt 1
 276:lib/fatfs/src/tf_card.c **** 	xchg_spi((BYTE)arg);				/* Argument[7..0] */
 612              		.loc 1 276 22 is_stmt 0
 613 00ec 13D58400 		srli	a0,s1,8
 276:lib/fatfs/src/tf_card.c **** 	xchg_spi((BYTE)arg);				/* Argument[7..0] */
 614              		.loc 1 276 2
 615 00f0 1375F50F 		andi	a0,a0,0xff
 616 00f4 97000000 		call	xchg_spi
 616      E7800000 
 617              	.LVL71:
 277:lib/fatfs/src/tf_card.c **** 	n = 0x01;							/* Dummy CRC + Stop */
 618              		.loc 1 277 2 is_stmt 1
 619 00fc 13F5F40F 		andi	a0,s1,0xff
 620 0100 97000000 		call	xchg_spi
 620      E7800000 
 621              	.LVL72:
 278:lib/fatfs/src/tf_card.c **** 	if (cmd == CMD0) n = 0x95;			/* Valid CRC for CMD0(0) */
 622              		.loc 1 278 2
 279:lib/fatfs/src/tf_card.c **** 	if (cmd == CMD8) n = 0x87;			/* Valid CRC for CMD8(0x1AA) */
 623              		.loc 1 279 2
 280:lib/fatfs/src/tf_card.c **** 	xchg_spi(n);
 624              		.loc 1 280 2
 281:lib/fatfs/src/tf_card.c **** 
 625              		.loc 1 281 2
 626 0108 0545     		li	a0,1
 627 010a 97000000 		call	xchg_spi
 627      E7800000 
 628              	.LVL73:
 284:lib/fatfs/src/tf_card.c **** 	n = 10;								/* Wait for response (10 bytes max) */
 629              		.loc 1 284 2
 284:lib/fatfs/src/tf_card.c **** 	n = 10;								/* Wait for response (10 bytes max) */
 630              		.loc 1 284 20
 631 0112 1305F00F 		li	a0,255
 632 0116 97000000 		call	xchg_spi
 632      E7800000 
 633              	.LVL74:
 634 011e A5BF     		j	.L39
 635              	.LVL75:
GAS LISTING C:\Users\Kalle\AppData\Local\Temp\ccyOiGeb.s 			page 19


 636              	.L49:
 261:lib/fatfs/src/tf_card.c **** 		res = send_cmd(CMD55, 0);
 637              		.loc 1 261 3
 262:lib/fatfs/src/tf_card.c **** 		if (res > 1) return res;
 638              		.loc 1 262 3
 262:lib/fatfs/src/tf_card.c **** 		if (res > 1) return res;
 639              		.loc 1 262 9 is_stmt 0
 640 0120 8145     		li	a1,0
 641 0122 13057003 		li	a0,55
 642 0126 97000000 		call	send_cmd
 642      E7800000 
 643              	.LVL76:
 263:lib/fatfs/src/tf_card.c **** 	}
 644              		.loc 1 263 6
 645 012e 0547     		li	a4,1
 262:lib/fatfs/src/tf_card.c **** 		if (res > 1) return res;
 646              		.loc 1 262 9
 647 0130 AA87     		mv	a5,a0
 648              	.LVL77:
 263:lib/fatfs/src/tf_card.c **** 	}
 649              		.loc 1 263 3 is_stmt 1
 263:lib/fatfs/src/tf_card.c **** 	}
 650              		.loc 1 263 6 is_stmt 0
 651 0132 E363A7F8 		bgtu	a0,a4,.L43
 261:lib/fatfs/src/tf_card.c **** 		res = send_cmd(CMD55, 0);
 652              		.loc 1 261 7
 653 0136 1374F407 		andi	s0,s0,127
 654              	.LVL78:
 655 013a F1BD     		j	.L33
 656              	.LVL79:
 657              	.L50:
 280:lib/fatfs/src/tf_card.c **** 	xchg_spi(n);
 658              		.loc 1 280 2 is_stmt 1
 280:lib/fatfs/src/tf_card.c **** 	xchg_spi(n);
 659              		.loc 1 280 5 is_stmt 0
 660 013c A147     		li	a5,8
 661 013e 6319F400 		bne	s0,a5,.L51
 280:lib/fatfs/src/tf_card.c **** 	xchg_spi(n);
 662              		.loc 1 280 19 is_stmt 1
 663              	.LVL80:
 281:lib/fatfs/src/tf_card.c **** 
 664              		.loc 1 281 2
 665 0142 13057008 		li	a0,135
 666 0146 97000000 		call	xchg_spi
 666      E7800000 
 667              	.LVL81:
 284:lib/fatfs/src/tf_card.c **** 	n = 10;								/* Wait for response (10 bytes max) */
 668              		.loc 1 284 2
 669 014e A1B7     		j	.L39
 670              	.LVL82:
 671              	.L51:
 281:lib/fatfs/src/tf_card.c **** 
 672              		.loc 1 281 2
 673 0150 0545     		li	a0,1
 674 0152 97000000 		call	xchg_spi
 674      E7800000 
 675              	.LVL83:
GAS LISTING C:\Users\Kalle\AppData\Local\Temp\ccyOiGeb.s 			page 20


 284:lib/fatfs/src/tf_card.c **** 	n = 10;								/* Wait for response (10 bytes max) */
 676              		.loc 1 284 2
 677 015a 35BF     		j	.L39
 678              		.cfi_endproc
 679              	.LFE14:
 681              		.section	.text.xmit_datablock.part.2,"ax",@progbits
 682              		.align	1
 684              	xmit_datablock.part.2:
 685              	.LFB22:
 226:lib/fatfs/src/tf_card.c **** 	const BYTE *buff,	/* Ponter to 512 byte data to be sent */
 686              		.loc 1 226 5
 687              		.cfi_startproc
 688              	.LVL84:
 689 0000 4111     		addi	sp,sp,-16
 690              	.LCFI14:
 691              		.cfi_def_cfa_offset 16
 692 0002 22C4     		sw	s0,8(sp)
 693 0004 26C2     		sw	s1,4(sp)
 694 0006 06C6     		sw	ra,12(sp)
 695              		.cfi_offset 8, -8
 696              		.cfi_offset 9, -12
 697              		.cfi_offset 1, -4
 226:lib/fatfs/src/tf_card.c **** 	const BYTE *buff,	/* Ponter to 512 byte data to be sent */
 698              		.loc 1 226 5 is_stmt 0
 699 0008 2A84     		mv	s0,a0
 700 000a 93040520 		addi	s1,a0,512
 701              	.LVL85:
 702              	.L53:
 703              	.LBB48:
 704              	.LBB49:
 132:lib/fatfs/src/tf_card.c **** 	}
 705              		.loc 1 132 3 is_stmt 1
 706 000e 03450400 		lbu	a0,0(s0)
 707 0012 0504     		addi	s0,s0,1
 708              	.LVL86:
 709 0014 97000000 		call	xchg_spi
 709      E7800000 
 710              	.LVL87:
 131:lib/fatfs/src/tf_card.c **** 		xchg_spi(*(buff+i));
 711              		.loc 1 131 2 is_stmt 0
 712 001c E31994FE 		bne	s0,s1,.L53
 713              	.LBE49:
 714              	.LBE48:
 239:lib/fatfs/src/tf_card.c **** 
 715              		.loc 1 239 3 is_stmt 1
 716 0020 1305F00F 		li	a0,255
 717 0024 97000000 		call	xchg_spi
 717      E7800000 
 718              	.LVL88:
 239:lib/fatfs/src/tf_card.c **** 
 719              		.loc 1 239 19
 720 002c 1305F00F 		li	a0,255
 721 0030 97000000 		call	xchg_spi
 721      E7800000 
 722              	.LVL89:
 241:lib/fatfs/src/tf_card.c **** 		if ((resp & 0x1F) != 0x05) return 0;	/* Function fails if the data packet was not accepted */
 723              		.loc 1 241 3
GAS LISTING C:\Users\Kalle\AppData\Local\Temp\ccyOiGeb.s 			page 21


 241:lib/fatfs/src/tf_card.c **** 		if ((resp & 0x1F) != 0x05) return 0;	/* Function fails if the data packet was not accepted */
 724              		.loc 1 241 10 is_stmt 0
 725 0038 1305F00F 		li	a0,255
 726 003c 97000000 		call	xchg_spi
 726      E7800000 
 727              	.LVL90:
 242:lib/fatfs/src/tf_card.c **** 	}
 728              		.loc 1 242 3 is_stmt 1
 245:lib/fatfs/src/tf_card.c **** 
 729              		.loc 1 245 1 is_stmt 0
 730 0044 B240     		lw	ra,12(sp)
 731              		.cfi_restore 1
 732 0046 2244     		lw	s0,8(sp)
 733              		.cfi_restore 8
 242:lib/fatfs/src/tf_card.c **** 	}
 734              		.loc 1 242 6
 735 0048 7D89     		andi	a0,a0,31
 736              	.LVL91:
 737 004a 6D15     		addi	a0,a0,-5
 245:lib/fatfs/src/tf_card.c **** 
 738              		.loc 1 245 1
 739 004c 9244     		lw	s1,4(sp)
 740              		.cfi_restore 9
 741              	.LVL92:
 742 004e 13351500 		seqz	a0,a0
 743 0052 4101     		addi	sp,sp,16
 744              	.LCFI15:
 745              		.cfi_def_cfa_offset 0
 746 0054 8280     		jr	ra
 747              		.cfi_endproc
 748              	.LFE22:
 750              		.section	.text.disk_initialize,"ax",@progbits
 751              		.align	1
 752              		.globl	disk_initialize
 754              	disk_initialize:
 755              	.LFB15:
 292:lib/fatfs/src/tf_card.c **** 
 293:lib/fatfs/src/tf_card.c **** 
 294:lib/fatfs/src/tf_card.c **** 
 295:lib/fatfs/src/tf_card.c **** /*--------------------------------------------------------------------------
 296:lib/fatfs/src/tf_card.c **** 
 297:lib/fatfs/src/tf_card.c ****    Public Functions
 298:lib/fatfs/src/tf_card.c **** 
 299:lib/fatfs/src/tf_card.c **** ---------------------------------------------------------------------------*/
 300:lib/fatfs/src/tf_card.c **** 
 301:lib/fatfs/src/tf_card.c **** 
 302:lib/fatfs/src/tf_card.c **** /*-----------------------------------------------------------------------*/
 303:lib/fatfs/src/tf_card.c **** /* Initialize disk drive                                                 */
 304:lib/fatfs/src/tf_card.c **** /*-----------------------------------------------------------------------*/
 305:lib/fatfs/src/tf_card.c **** 
 306:lib/fatfs/src/tf_card.c **** DSTATUS disk_initialize (
 307:lib/fatfs/src/tf_card.c **** 	BYTE drv		/* Physical drive number (0) */
 308:lib/fatfs/src/tf_card.c **** )
 309:lib/fatfs/src/tf_card.c **** {
 756              		.loc 1 309 1 is_stmt 1
 757              		.cfi_startproc
 758              	.LVL93:
GAS LISTING C:\Users\Kalle\AppData\Local\Temp\ccyOiGeb.s 			page 22


 310:lib/fatfs/src/tf_card.c **** 	BYTE n, cmd, ty, ocr[4];
 759              		.loc 1 310 2
 311:lib/fatfs/src/tf_card.c **** 
 312:lib/fatfs/src/tf_card.c **** 
 313:lib/fatfs/src/tf_card.c **** 	if (drv) return STA_NOINIT;			/* Supports only drive 0 */
 760              		.loc 1 313 2
 761              		.loc 1 313 5 is_stmt 0
 762 0000 19C1     		beq	a0,zero,.L96
 763              		.loc 1 313 18
 764 0002 0545     		li	a0,1
 765              	.LVL94:
 314:lib/fatfs/src/tf_card.c **** 	init_spi();							/* Initialize SPI */
 315:lib/fatfs/src/tf_card.c ****     delay_1ms(10);
 316:lib/fatfs/src/tf_card.c ****     //init_timer2();
 317:lib/fatfs/src/tf_card.c **** 
 318:lib/fatfs/src/tf_card.c **** 	if (Stat & STA_NODISK) return Stat;	/* Is card existing in the soket? */
 319:lib/fatfs/src/tf_card.c **** 
 320:lib/fatfs/src/tf_card.c **** 	FCLK_SLOW();
 321:lib/fatfs/src/tf_card.c **** 	CS_LOW();
 322:lib/fatfs/src/tf_card.c **** 	for (n = 10; n; n--) xchg_spi(0xFF);	/* Send 80 dummy clocks */
 323:lib/fatfs/src/tf_card.c **** 
 324:lib/fatfs/src/tf_card.c **** 	ty = 0;
 325:lib/fatfs/src/tf_card.c **** 	if (send_cmd(CMD0, 0) == 1) {			/* Put the card SPI/Idle state */
 326:lib/fatfs/src/tf_card.c **** 		tf_start_timer(1000);						/* Initialization timeout = 1 sec */
 327:lib/fatfs/src/tf_card.c **** 		if (send_cmd(CMD8, 0x1AA) == 1) {	/* SDv2? */
 328:lib/fatfs/src/tf_card.c **** 			for (n = 0; n < 4; n++) ocr[n] = xchg_spi(0xFF);	/* Get 32 bit return value of R7 resp */
 329:lib/fatfs/src/tf_card.c **** 			if (ocr[2] == 0x01 && ocr[3] == 0xAA) {				/* Is the card supports vcc of 2.7-3.6V? */
 330:lib/fatfs/src/tf_card.c **** 				while (tf_timer_done() && send_cmd(ACMD41, 1UL << 30)) ;	/* Wait for end of initialization with
 331:lib/fatfs/src/tf_card.c **** 				if (tf_timer_done() && send_cmd(CMD58, 0) == 0) {		/* Check CCS bit in the OCR */
 332:lib/fatfs/src/tf_card.c **** 					for (n = 0; n < 4; n++) ocr[n] = xchg_spi(0xFF);
 333:lib/fatfs/src/tf_card.c **** 					ty = (ocr[0] & 0x40) ? CT_SD2 | CT_BLOCK : CT_SD2;	/* Card id SDv2 */
 334:lib/fatfs/src/tf_card.c **** 				}
 335:lib/fatfs/src/tf_card.c **** 			}
 336:lib/fatfs/src/tf_card.c **** 		} else {	/* Not SDv2 card */
 337:lib/fatfs/src/tf_card.c **** 			if (send_cmd(ACMD41, 0) <= 1) 	{	/* SDv1 or MMC? */
 338:lib/fatfs/src/tf_card.c **** 				ty = CT_SD1; cmd = ACMD41;	/* SDv1 (ACMD41(0)) */
 339:lib/fatfs/src/tf_card.c **** 			} else {
 340:lib/fatfs/src/tf_card.c **** 				ty = CT_MMC; cmd = CMD1;	/* MMCv3 (CMD1(0)) */
 341:lib/fatfs/src/tf_card.c **** 			}
 342:lib/fatfs/src/tf_card.c **** 			while (tf_timer_done() && send_cmd(cmd, 0)) ;		/* Wait for end of initialization */
 343:lib/fatfs/src/tf_card.c **** 			if (!tf_timer_done() || send_cmd(CMD16, 512) != 0)	/* Set block length: 512 */
 344:lib/fatfs/src/tf_card.c **** 				ty = 0;
 345:lib/fatfs/src/tf_card.c **** 		}
 346:lib/fatfs/src/tf_card.c **** 	}
 347:lib/fatfs/src/tf_card.c **** 	CardType = ty;	/* Card type */
 348:lib/fatfs/src/tf_card.c **** 	deselect();
 349:lib/fatfs/src/tf_card.c **** 
 350:lib/fatfs/src/tf_card.c **** 	if (ty) {			/* OK */
 351:lib/fatfs/src/tf_card.c **** 		FCLK_FAST();			/* Set fast clock */
 352:lib/fatfs/src/tf_card.c **** 		Stat &= ~STA_NOINIT;	/* Clear STA_NOINIT flag */
 353:lib/fatfs/src/tf_card.c **** 	} else {			/* Failed */
 354:lib/fatfs/src/tf_card.c **** 		Stat = STA_NOINIT;
 355:lib/fatfs/src/tf_card.c **** 	}
 356:lib/fatfs/src/tf_card.c **** 
 357:lib/fatfs/src/tf_card.c **** 	return Stat;
 358:lib/fatfs/src/tf_card.c **** }
 766              		.loc 1 358 1
GAS LISTING C:\Users\Kalle\AppData\Local\Temp\ccyOiGeb.s 			page 23


 767 0004 8280     		ret
 768              	.LVL95:
 769              	.L96:
 314:lib/fatfs/src/tf_card.c **** 	init_spi();							/* Initialize SPI */
 770              		.loc 1 314 2 is_stmt 1
 771              	.LBB54:
 772              	.LBB55:
  64:lib/fatfs/src/tf_card.c **** 
 773              		.loc 1 64 5
  66:lib/fatfs/src/tf_card.c **** 	rcu_periph_clock_enable(RCU_GPIOC);
 774              		.loc 1 66 5
 775              	.LBE55:
 776              	.LBE54:
 309:lib/fatfs/src/tf_card.c **** 	BYTE n, cmd, ty, ocr[4];
 777              		.loc 1 309 1 is_stmt 0
 778 0006 3971     		addi	sp,sp,-64
 779              	.LCFI16:
 780              		.cfi_def_cfa_offset 64
 781              	.LBB58:
 782              	.LBB56:
  66:lib/fatfs/src/tf_card.c **** 	rcu_periph_clock_enable(RCU_GPIOC);
 783              		.loc 1 66 5
 784 0008 13053060 		li	a0,1539
 785              	.LVL96:
 786              	.LBE56:
 787              	.LBE58:
 309:lib/fatfs/src/tf_card.c **** 	BYTE n, cmd, ty, ocr[4];
 788              		.loc 1 309 1
 789 000c 06DE     		sw	ra,60(sp)
 790 000e 22DC     		sw	s0,56(sp)
 791 0010 26DA     		sw	s1,52(sp)
 792 0012 4AD8     		sw	s2,48(sp)
 793 0014 4ED6     		sw	s3,44(sp)
 794              		.cfi_offset 1, -4
 795              		.cfi_offset 8, -8
 796              		.cfi_offset 9, -12
 797              		.cfi_offset 18, -16
 798              		.cfi_offset 19, -20
 799              	.LBB59:
 800              	.LBB57:
  66:lib/fatfs/src/tf_card.c **** 	rcu_periph_clock_enable(RCU_GPIOC);
 801              		.loc 1 66 5
 802 0016 97000000 		call	rcu_periph_clock_enable
 802      E7800000 
 803              	.LVL97:
  67:lib/fatfs/src/tf_card.c ****     rcu_periph_clock_enable(RCU_SPI1);
 804              		.loc 1 67 2 is_stmt 1
 805 001e 13054060 		li	a0,1540
 806 0022 97000000 		call	rcu_periph_clock_enable
 806      E7800000 
 807              	.LVL98:
  68:lib/fatfs/src/tf_card.c **** 
 808              		.loc 1 68 5
 809 002a 1305E070 		li	a0,1806
 810 002e 97000000 		call	rcu_periph_clock_enable
 810      E7800000 
 811              	.LVL99:
GAS LISTING C:\Users\Kalle\AppData\Local\Temp\ccyOiGeb.s 			page 24


  71:lib/fatfs/src/tf_card.c ****     gpio_init(GPIOB, GPIO_MODE_IN_FLOATING, GPIO_OSPEED_50MHZ, GPIO_PIN_14);
 812              		.loc 1 71 5
 813 0036 37140140 		li	s0,1073811456
 814 003a 130504C0 		addi	a0,s0,-1024
 815 003e A966     		li	a3,40960
 816 0040 0D46     		li	a2,3
 817 0042 E145     		li	a1,24
 818 0044 97000000 		call	gpio_init
 818      E7800000 
 819              	.LVL100:
  72:lib/fatfs/src/tf_card.c ****     /* SPI1_CS(PB12) GPIO pin configuration */
 820              		.loc 1 72 5
 821 004c 130504C0 		addi	a0,s0,-1024
 822 0050 9166     		li	a3,16384
 823 0052 0D46     		li	a2,3
 824 0054 9145     		li	a1,4
 825 0056 97000000 		call	gpio_init
 825      E7800000 
 826              	.LVL101:
  74:lib/fatfs/src/tf_card.c **** 
 827              		.loc 1 74 5
 828 005e 9166     		li	a3,16384
 829 0060 0D46     		li	a2,3
 830 0062 C145     		li	a1,16
 831 0064 37150140 		li	a0,1073811456
 832 0068 97000000 		call	gpio_init
 832      E7800000 
 833              	.LVL102:
  77:lib/fatfs/src/tf_card.c **** 
 834              		.loc 1 77 5
 835 0070 9165     		li	a1,16384
 836 0072 37150140 		li	a0,1073811456
 837 0076 97000000 		call	gpio_bit_set
 837      E7800000 
 838              	.LVL103:
  80:lib/fatfs/src/tf_card.c ****     spi_init_struct.device_mode          = SPI_MASTER;
 839              		.loc 1 80 5
  81:lib/fatfs/src/tf_card.c ****     spi_init_struct.frame_size           = SPI_FRAMESIZE_8BIT;
 840              		.loc 1 81 42 is_stmt 0
 841 007e 93074010 		li	a5,260
 842 0082 3EC2     		sw	a5,4(sp)
  83:lib/fatfs/src/tf_card.c ****     spi_init_struct.nss                  = SPI_NSS_SOFT;
 843              		.loc 1 83 42
 844 0084 8D47     		li	a5,3
  87:lib/fatfs/src/tf_card.c **** 
 845              		.loc 1 87 5
 846 0086 37440040 		li	s0,1073758208
  83:lib/fatfs/src/tf_card.c ****     spi_init_struct.nss                  = SPI_NSS_SOFT;
 847              		.loc 1 83 42
 848 008a 3ECC     		sw	a5,24(sp)
  84:lib/fatfs/src/tf_card.c ****     spi_init_struct.prescale             = SPI_PSC_32;
 849              		.loc 1 84 42
 850 008c 93070020 		li	a5,512
  87:lib/fatfs/src/tf_card.c **** 
 851              		.loc 1 87 5
 852 0090 4C00     		addi	a1,sp,4
 853 0092 13050480 		addi	a0,s0,-2048
GAS LISTING C:\Users\Kalle\AppData\Local\Temp\ccyOiGeb.s 			page 25


  84:lib/fatfs/src/tf_card.c ****     spi_init_struct.prescale             = SPI_PSC_32;
 854              		.loc 1 84 42
 855 0096 3EC8     		sw	a5,16(sp)
  85:lib/fatfs/src/tf_card.c ****     spi_init_struct.endian               = SPI_ENDIAN_MSB;
 856              		.loc 1 85 42
 857 0098 93070002 		li	a5,32
 858 009c 3ECE     		sw	a5,28(sp)
  80:lib/fatfs/src/tf_card.c ****     spi_init_struct.device_mode          = SPI_MASTER;
 859              		.loc 1 80 42
 860 009e 02C4     		sw	zero,8(sp)
  81:lib/fatfs/src/tf_card.c ****     spi_init_struct.frame_size           = SPI_FRAMESIZE_8BIT;
 861              		.loc 1 81 5 is_stmt 1
  82:lib/fatfs/src/tf_card.c ****     spi_init_struct.clock_polarity_phase = SPI_CK_PL_HIGH_PH_2EDGE;
 862              		.loc 1 82 5
  82:lib/fatfs/src/tf_card.c ****     spi_init_struct.clock_polarity_phase = SPI_CK_PL_HIGH_PH_2EDGE;
 863              		.loc 1 82 42 is_stmt 0
 864 00a0 02C6     		sw	zero,12(sp)
  83:lib/fatfs/src/tf_card.c ****     spi_init_struct.nss                  = SPI_NSS_SOFT;
 865              		.loc 1 83 5 is_stmt 1
  84:lib/fatfs/src/tf_card.c ****     spi_init_struct.prescale             = SPI_PSC_32;
 866              		.loc 1 84 5
  85:lib/fatfs/src/tf_card.c ****     spi_init_struct.endian               = SPI_ENDIAN_MSB;
 867              		.loc 1 85 5
  86:lib/fatfs/src/tf_card.c ****     spi_init(SPI1, &spi_init_struct);
 868              		.loc 1 86 5
  86:lib/fatfs/src/tf_card.c ****     spi_init(SPI1, &spi_init_struct);
 869              		.loc 1 86 42 is_stmt 0
 870 00a2 02CA     		sw	zero,20(sp)
  87:lib/fatfs/src/tf_card.c **** 
 871              		.loc 1 87 5 is_stmt 1
 872 00a4 97000000 		call	spi_init
 872      E7800000 
 873              	.LVL104:
  90:lib/fatfs/src/tf_card.c ****     /* enable SPI1 */
 874              		.loc 1 90 5
 875 00ac 9D45     		li	a1,7
 876 00ae 13050480 		addi	a0,s0,-2048
 877 00b2 97000000 		call	spi_crc_polynomial_set
 877      E7800000 
 878              	.LVL105:
  92:lib/fatfs/src/tf_card.c **** 
 879              		.loc 1 92 5
 880 00ba 13050480 		addi	a0,s0,-2048
 881 00be 97000000 		call	spi_enable
 881      E7800000 
 882              	.LVL106:
 883              	.LBE57:
 884              	.LBE59:
 315:lib/fatfs/src/tf_card.c ****     //init_timer2();
 885              		.loc 1 315 5
 886 00c6 2945     		li	a0,10
 318:lib/fatfs/src/tf_card.c **** 
 887              		.loc 1 318 11 is_stmt 0
 888 00c8 B7040000 		lui	s1,%hi(.LANCHOR0)
 315:lib/fatfs/src/tf_card.c ****     //init_timer2();
 889              		.loc 1 315 5
 890 00cc 97000000 		call	delay_1ms
GAS LISTING C:\Users\Kalle\AppData\Local\Temp\ccyOiGeb.s 			page 26


 890      E7800000 
 891              	.LVL107:
 318:lib/fatfs/src/tf_card.c **** 
 892              		.loc 1 318 2 is_stmt 1
 318:lib/fatfs/src/tf_card.c **** 
 893              		.loc 1 318 11 is_stmt 0
 894 00d4 93840400 		addi	s1,s1,%lo(.LANCHOR0)
 895 00d8 83C70400 		lbu	a5,0(s1)
 318:lib/fatfs/src/tf_card.c **** 
 896              		.loc 1 318 5
 897 00dc 898B     		andi	a5,a5,2
 898 00de ADEB     		bne	a5,zero,.L61
 320:lib/fatfs/src/tf_card.c **** 	CS_LOW();
 899              		.loc 1 320 2 is_stmt 1
 900 00e0 83270480 		lw	a5,-2048(s0)
 321:lib/fatfs/src/tf_card.c **** 	for (n = 10; n; n--) xchg_spi(0xFF);	/* Send 80 dummy clocks */
 901              		.loc 1 321 2 is_stmt 0
 902 00e4 9165     		li	a1,16384
 903 00e6 37150140 		li	a0,1073811456
 320:lib/fatfs/src/tf_card.c **** 	CS_LOW();
 904              		.loc 1 320 2
 905 00ea 93F777FC 		andi	a5,a5,-57
 906 00ee 93E78702 		ori	a5,a5,40
 907 00f2 2320F480 		sw	a5,-2048(s0)
 320:lib/fatfs/src/tf_card.c **** 	CS_LOW();
 908              		.loc 1 320 13 is_stmt 1
 321:lib/fatfs/src/tf_card.c **** 	for (n = 10; n; n--) xchg_spi(0xFF);	/* Send 80 dummy clocks */
 909              		.loc 1 321 2
 910 00f6 97000000 		call	gpio_bit_reset
 910      E7800000 
 911              	.LVL108:
 322:lib/fatfs/src/tf_card.c **** 
 912              		.loc 1 322 2
 321:lib/fatfs/src/tf_card.c **** 	for (n = 10; n; n--) xchg_spi(0xFF);	/* Send 80 dummy clocks */
 913              		.loc 1 321 2 is_stmt 0
 914 00fe 2944     		li	s0,10
 915              	.LVL109:
 916              	.L59:
 322:lib/fatfs/src/tf_card.c **** 
 917              		.loc 1 322 23 is_stmt 1 discriminator 3
 918 0100 7D14     		addi	s0,s0,-1
 919              	.LVL110:
 920 0102 1305F00F 		li	a0,255
 921 0106 1374F40F 		andi	s0,s0,0xff
 922 010a 97000000 		call	xchg_spi
 922      E7800000 
 923              	.LVL111:
 322:lib/fatfs/src/tf_card.c **** 
 924              		.loc 1 322 2 is_stmt 0 discriminator 3
 925 0112 7DF4     		bne	s0,zero,.L59
 324:lib/fatfs/src/tf_card.c **** 	if (send_cmd(CMD0, 0) == 1) {			/* Put the card SPI/Idle state */
 926              		.loc 1 324 2 is_stmt 1
 927              	.LVL112:
 325:lib/fatfs/src/tf_card.c **** 		tf_start_timer(1000);						/* Initialization timeout = 1 sec */
 928              		.loc 1 325 2
 325:lib/fatfs/src/tf_card.c **** 		tf_start_timer(1000);						/* Initialization timeout = 1 sec */
 929              		.loc 1 325 6 is_stmt 0
GAS LISTING C:\Users\Kalle\AppData\Local\Temp\ccyOiGeb.s 			page 27


 930 0114 8145     		li	a1,0
 931 0116 0145     		li	a0,0
 932 0118 97000000 		call	send_cmd
 932      E7800000 
 933              	.LVL113:
 325:lib/fatfs/src/tf_card.c **** 		tf_start_timer(1000);						/* Initialization timeout = 1 sec */
 934              		.loc 1 325 5
 935 0120 8547     		li	a5,1
 325:lib/fatfs/src/tf_card.c **** 		tf_start_timer(1000);						/* Initialization timeout = 1 sec */
 936              		.loc 1 325 6
 937 0122 2A84     		mv	s0,a0
 325:lib/fatfs/src/tf_card.c **** 		tf_start_timer(1000);						/* Initialization timeout = 1 sec */
 938              		.loc 1 325 5
 939 0124 6301F504 		beq	a0,a5,.L60
 940              	.LVL114:
 941              	.L64:
 347:lib/fatfs/src/tf_card.c **** 	deselect();
 942              		.loc 1 347 2 is_stmt 1
 347:lib/fatfs/src/tf_card.c **** 	deselect();
 943              		.loc 1 347 11 is_stmt 0
 944 0128 B7070000 		lui	a5,%hi(.LANCHOR1)
 945              	.LBB60:
 946              	.LBB61:
 177:lib/fatfs/src/tf_card.c **** 	xchg_spi(0xFF);	/* Dummy clock (force DO hi-z for multiple slave SPI) */
 947              		.loc 1 177 2
 948 012c 9165     		li	a1,16384
 949 012e 37150140 		li	a0,1073811456
 950              	.LBE61:
 951              	.LBE60:
 347:lib/fatfs/src/tf_card.c **** 	deselect();
 952              		.loc 1 347 11
 953 0132 23800700 		sb	zero,%lo(.LANCHOR1)(a5)
 348:lib/fatfs/src/tf_card.c **** 
 954              		.loc 1 348 2 is_stmt 1
 955              	.LBB68:
 956              	.LBB62:
 177:lib/fatfs/src/tf_card.c **** 	xchg_spi(0xFF);	/* Dummy clock (force DO hi-z for multiple slave SPI) */
 957              		.loc 1 177 2
 958 0136 97000000 		call	gpio_bit_set
 958      E7800000 
 959              	.LVL115:
 178:lib/fatfs/src/tf_card.c **** }
 960              		.loc 1 178 2
 961 013e 1305F00F 		li	a0,255
 962 0142 97000000 		call	xchg_spi
 962      E7800000 
 963              	.LVL116:
 964              	.LBE62:
 965              	.LBE68:
 350:lib/fatfs/src/tf_card.c **** 		FCLK_FAST();			/* Set fast clock */
 966              		.loc 1 350 2
 354:lib/fatfs/src/tf_card.c **** 	}
 967              		.loc 1 354 3
 354:lib/fatfs/src/tf_card.c **** 	}
 968              		.loc 1 354 8 is_stmt 0
 969 014a 8547     		li	a5,1
 970 014c 2380F400 		sb	a5,0(s1)
GAS LISTING C:\Users\Kalle\AppData\Local\Temp\ccyOiGeb.s 			page 28


 971              	.LVL117:
 972              	.L61:
 357:lib/fatfs/src/tf_card.c **** }
 973              		.loc 1 357 2 is_stmt 1
 357:lib/fatfs/src/tf_card.c **** }
 974              		.loc 1 357 9 is_stmt 0
 975 0150 03C50400 		lbu	a0,0(s1)
 976              		.loc 1 358 1
 977 0154 F250     		lw	ra,60(sp)
 978              		.cfi_remember_state
 979              		.cfi_restore 1
 980 0156 6254     		lw	s0,56(sp)
 981              		.cfi_restore 8
 982 0158 D254     		lw	s1,52(sp)
 983              		.cfi_restore 9
 984 015a 4259     		lw	s2,48(sp)
 985              		.cfi_restore 18
 986 015c B259     		lw	s3,44(sp)
 987              		.cfi_restore 19
 357:lib/fatfs/src/tf_card.c **** }
 988              		.loc 1 357 9
 989 015e 1375F50F 		andi	a0,a0,0xff
 990              		.loc 1 358 1
 991 0162 2161     		addi	sp,sp,64
 992              	.LCFI17:
 993              		.cfi_def_cfa_offset 0
 994 0164 8280     		jr	ra
 995              	.LVL118:
 996              	.L60:
 997              	.LCFI18:
 998              		.cfi_restore_state
 326:lib/fatfs/src/tf_card.c **** 		if (send_cmd(CMD8, 0x1AA) == 1) {	/* SDv2? */
 999              		.loc 1 326 3 is_stmt 1
 1000 0166 1305803E 		li	a0,1000
 1001 016a 97000000 		call	tf_start_timer
 1001      E7800000 
 1002              	.LVL119:
 327:lib/fatfs/src/tf_card.c **** 			for (n = 0; n < 4; n++) ocr[n] = xchg_spi(0xFF);	/* Get 32 bit return value of R7 resp */
 1003              		.loc 1 327 3
 327:lib/fatfs/src/tf_card.c **** 			for (n = 0; n < 4; n++) ocr[n] = xchg_spi(0xFF);	/* Get 32 bit return value of R7 resp */
 1004              		.loc 1 327 7 is_stmt 0
 1005 0172 9305A01A 		li	a1,426
 1006 0176 2145     		li	a0,8
 1007 0178 97000000 		call	send_cmd
 1007      E7800000 
 1008              	.LVL120:
 327:lib/fatfs/src/tf_card.c **** 			for (n = 0; n < 4; n++) ocr[n] = xchg_spi(0xFF);	/* Get 32 bit return value of R7 resp */
 1009              		.loc 1 327 6
 1010 0180 6319850C 		bne	a0,s0,.L62
 1011 0184 4000     		addi	s0,sp,4
 1012 0186 93098100 		addi	s3,sp,8
 1013 018a 2289     		mv	s2,s0
 1014              	.L63:
 1015              	.LVL121:
 328:lib/fatfs/src/tf_card.c **** 			if (ocr[2] == 0x01 && ocr[3] == 0xAA) {				/* Is the card supports vcc of 2.7-3.6V? */
 1016              		.loc 1 328 28 is_stmt 1 discriminator 3
 328:lib/fatfs/src/tf_card.c **** 			if (ocr[2] == 0x01 && ocr[3] == 0xAA) {				/* Is the card supports vcc of 2.7-3.6V? */
GAS LISTING C:\Users\Kalle\AppData\Local\Temp\ccyOiGeb.s 			page 29


 1017              		.loc 1 328 37 is_stmt 0 discriminator 3
 1018 018c 1305F00F 		li	a0,255
 1019 0190 97000000 		call	xchg_spi
 1019      E7800000 
 1020              	.LVL122:
 328:lib/fatfs/src/tf_card.c **** 			if (ocr[2] == 0x01 && ocr[3] == 0xAA) {				/* Is the card supports vcc of 2.7-3.6V? */
 1021              		.loc 1 328 35 discriminator 3
 1022 0198 2300A900 		sb	a0,0(s2)
 1023              	.LVL123:
 1024 019c 0509     		addi	s2,s2,1
 1025              	.LVL124:
 328:lib/fatfs/src/tf_card.c **** 			if (ocr[2] == 0x01 && ocr[3] == 0xAA) {				/* Is the card supports vcc of 2.7-3.6V? */
 1026              		.loc 1 328 4 discriminator 3
 1027 019e E39729FF 		bne	s3,s2,.L63
 329:lib/fatfs/src/tf_card.c **** 				while (tf_timer_done() && send_cmd(ACMD41, 1UL << 30)) ;	/* Wait for end of initialization with
 1028              		.loc 1 329 4 is_stmt 1
 329:lib/fatfs/src/tf_card.c **** 				while (tf_timer_done() && send_cmd(ACMD41, 1UL << 30)) ;	/* Wait for end of initialization with
 1029              		.loc 1 329 7 is_stmt 0
 1030 01a2 03476100 		lbu	a4,6(sp)
 1031 01a6 8547     		li	a5,1
 1032 01a8 E310F7F8 		bne	a4,a5,.L64
 329:lib/fatfs/src/tf_card.c **** 				while (tf_timer_done() && send_cmd(ACMD41, 1UL << 30)) ;	/* Wait for end of initialization with
 1033              		.loc 1 329 23 discriminator 1
 1034 01ac 03477100 		lbu	a4,7(sp)
 1035 01b0 9307A00A 		li	a5,170
 1036 01b4 E31AF7F6 		bne	a4,a5,.L64
 1037 01b8 01A8     		j	.L66
 1038              	.L97:
 330:lib/fatfs/src/tf_card.c **** 				if (tf_timer_done() && send_cmd(CMD58, 0) == 0) {		/* Check CCS bit in the OCR */
 1039              		.loc 1 330 31 discriminator 1
 1040 01ba 1305900A 		li	a0,169
 1041 01be 97000000 		call	send_cmd
 1041      E7800000 
 1042              	.LVL125:
 330:lib/fatfs/src/tf_card.c **** 				if (tf_timer_done() && send_cmd(CMD58, 0) == 0) {		/* Check CCS bit in the OCR */
 1043              		.loc 1 330 28 discriminator 1
 1044 01c6 01C9     		beq	a0,zero,.L65
 1045              	.L66:
 330:lib/fatfs/src/tf_card.c **** 				if (tf_timer_done() && send_cmd(CMD58, 0) == 0) {		/* Check CCS bit in the OCR */
 1046              		.loc 1 330 60 is_stmt 1 discriminator 2
 330:lib/fatfs/src/tf_card.c **** 				if (tf_timer_done() && send_cmd(CMD58, 0) == 0) {		/* Check CCS bit in the OCR */
 1047              		.loc 1 330 12 is_stmt 0 discriminator 2
 1048 01c8 97000000 		call	tf_timer_done
 1048      E7800000 
 1049              	.LVL126:
 330:lib/fatfs/src/tf_card.c **** 				if (tf_timer_done() && send_cmd(CMD58, 0) == 0) {		/* Check CCS bit in the OCR */
 1050              		.loc 1 330 31 discriminator 2
 1051 01d0 B7050040 		li	a1,1073741824
 330:lib/fatfs/src/tf_card.c **** 				if (tf_timer_done() && send_cmd(CMD58, 0) == 0) {		/* Check CCS bit in the OCR */
 1052              		.loc 1 330 11 discriminator 2
 1053 01d4 7DF1     		bne	a0,zero,.L97
 1054              	.L65:
 331:lib/fatfs/src/tf_card.c **** 					for (n = 0; n < 4; n++) ocr[n] = xchg_spi(0xFF);
 1055              		.loc 1 331 5 is_stmt 1
 331:lib/fatfs/src/tf_card.c **** 					for (n = 0; n < 4; n++) ocr[n] = xchg_spi(0xFF);
 1056              		.loc 1 331 9 is_stmt 0
 1057 01d6 97000000 		call	tf_timer_done
GAS LISTING C:\Users\Kalle\AppData\Local\Temp\ccyOiGeb.s 			page 30


 1057      E7800000 
 1058              	.LVL127:
 331:lib/fatfs/src/tf_card.c **** 					for (n = 0; n < 4; n++) ocr[n] = xchg_spi(0xFF);
 1059              		.loc 1 331 8
 1060 01de 29D5     		beq	a0,zero,.L64
 331:lib/fatfs/src/tf_card.c **** 					for (n = 0; n < 4; n++) ocr[n] = xchg_spi(0xFF);
 1061              		.loc 1 331 28 discriminator 1
 1062 01e0 8145     		li	a1,0
 1063 01e2 1305A003 		li	a0,58
 1064 01e6 97000000 		call	send_cmd
 1064      E7800000 
 1065              	.LVL128:
 331:lib/fatfs/src/tf_card.c **** 					for (n = 0; n < 4; n++) ocr[n] = xchg_spi(0xFF);
 1066              		.loc 1 331 25 discriminator 1
 1067 01ee 0DFD     		bne	a0,zero,.L64
 1068              	.L67:
 1069              	.LVL129:
 332:lib/fatfs/src/tf_card.c **** 					ty = (ocr[0] & 0x40) ? CT_SD2 | CT_BLOCK : CT_SD2;	/* Card id SDv2 */
 1070              		.loc 1 332 30 is_stmt 1 discriminator 3
 332:lib/fatfs/src/tf_card.c **** 					ty = (ocr[0] & 0x40) ? CT_SD2 | CT_BLOCK : CT_SD2;	/* Card id SDv2 */
 1071              		.loc 1 332 39 is_stmt 0 discriminator 3
 1072 01f0 1305F00F 		li	a0,255
 1073 01f4 97000000 		call	xchg_spi
 1073      E7800000 
 1074              	.LVL130:
 332:lib/fatfs/src/tf_card.c **** 					ty = (ocr[0] & 0x40) ? CT_SD2 | CT_BLOCK : CT_SD2;	/* Card id SDv2 */
 1075              		.loc 1 332 37 discriminator 3
 1076 01fc 2300A400 		sb	a0,0(s0)
 1077              	.LVL131:
 1078 0200 0504     		addi	s0,s0,1
 1079              	.LVL132:
 332:lib/fatfs/src/tf_card.c **** 					ty = (ocr[0] & 0x40) ? CT_SD2 | CT_BLOCK : CT_SD2;	/* Card id SDv2 */
 1080              		.loc 1 332 6 discriminator 3
 1081 0202 E39789FE 		bne	s3,s0,.L67
 333:lib/fatfs/src/tf_card.c **** 				}
 1082              		.loc 1 333 6 is_stmt 1
 333:lib/fatfs/src/tf_card.c **** 				}
 1083              		.loc 1 333 9 is_stmt 0
 1084 0206 83474100 		lbu	a5,4(sp)
 1085              	.LBB69:
 1086              	.LBB63:
 177:lib/fatfs/src/tf_card.c **** 	xchg_spi(0xFF);	/* Dummy clock (force DO hi-z for multiple slave SPI) */
 1087              		.loc 1 177 2
 1088 020a 9165     		li	a1,16384
 1089 020c 37150140 		li	a0,1073811456
 1090              	.LBE63:
 1091              	.LBE69:
 333:lib/fatfs/src/tf_card.c **** 				}
 1092              		.loc 1 333 9
 1093 0210 93F70704 		andi	a5,a5,64
 1094 0214 D5CB     		beq	a5,zero,.L68
 1095              	.LVL133:
 347:lib/fatfs/src/tf_card.c **** 	deselect();
 1096              		.loc 1 347 2 is_stmt 1
 347:lib/fatfs/src/tf_card.c **** 	deselect();
 1097              		.loc 1 347 11 is_stmt 0
 1098 0216 B7070000 		lui	a5,%hi(.LANCHOR1)
GAS LISTING C:\Users\Kalle\AppData\Local\Temp\ccyOiGeb.s 			page 31


 1099 021a 3147     		li	a4,12
 1100 021c 2380E700 		sb	a4,%lo(.LANCHOR1)(a5)
 348:lib/fatfs/src/tf_card.c **** 
 1101              		.loc 1 348 2 is_stmt 1
 1102              	.LBB70:
 1103              	.LBB64:
 177:lib/fatfs/src/tf_card.c **** 	xchg_spi(0xFF);	/* Dummy clock (force DO hi-z for multiple slave SPI) */
 1104              		.loc 1 177 2
 1105 0220 97000000 		call	gpio_bit_set
 1105      E7800000 
 1106              	.LVL134:
 178:lib/fatfs/src/tf_card.c **** }
 1107              		.loc 1 178 2
 1108 0228 1305F00F 		li	a0,255
 1109 022c 97000000 		call	xchg_spi
 1109      E7800000 
 1110              	.LVL135:
 1111              	.LBE64:
 1112              	.LBE70:
 350:lib/fatfs/src/tf_card.c **** 		FCLK_FAST();			/* Set fast clock */
 1113              		.loc 1 350 2
 1114              	.L69:
 351:lib/fatfs/src/tf_card.c **** 		Stat &= ~STA_NOINIT;	/* Clear STA_NOINIT flag */
 1115              		.loc 1 351 3
 1116 0234 37470040 		li	a4,1073758208
 1117 0238 83270780 		lw	a5,-2048(a4)
 1118 023c 93F777FC 		andi	a5,a5,-57
 1119 0240 2320F780 		sw	a5,-2048(a4)
 351:lib/fatfs/src/tf_card.c **** 		Stat &= ~STA_NOINIT;	/* Clear STA_NOINIT flag */
 1120              		.loc 1 351 14
 352:lib/fatfs/src/tf_card.c **** 	} else {			/* Failed */
 1121              		.loc 1 352 3
 352:lib/fatfs/src/tf_card.c **** 	} else {			/* Failed */
 1122              		.loc 1 352 8 is_stmt 0
 1123 0244 83C70400 		lbu	a5,0(s1)
 1124 0248 93F7E70F 		andi	a5,a5,254
 1125 024c 2380F400 		sb	a5,0(s1)
 1126 0250 01B7     		j	.L61
 1127              	.LVL136:
 1128              	.L62:
 337:lib/fatfs/src/tf_card.c **** 				ty = CT_SD1; cmd = ACMD41;	/* SDv1 (ACMD41(0)) */
 1129              		.loc 1 337 4 is_stmt 1
 337:lib/fatfs/src/tf_card.c **** 				ty = CT_SD1; cmd = ACMD41;	/* SDv1 (ACMD41(0)) */
 1130              		.loc 1 337 8 is_stmt 0
 1131 0252 8145     		li	a1,0
 1132 0254 1305900A 		li	a0,169
 1133 0258 97000000 		call	send_cmd
 1133      E7800000 
 1134              	.LVL137:
 340:lib/fatfs/src/tf_card.c **** 			}
 1135              		.loc 1 340 8
 1136 0260 0549     		li	s2,1
 337:lib/fatfs/src/tf_card.c **** 				ty = CT_SD1; cmd = ACMD41;	/* SDv1 (ACMD41(0)) */
 1137              		.loc 1 337 7
 1138 0262 636CA400 		bgtu	a0,s0,.L72
 338:lib/fatfs/src/tf_card.c **** 			} else {
 1139              		.loc 1 338 8
GAS LISTING C:\Users\Kalle\AppData\Local\Temp\ccyOiGeb.s 			page 32


 1140 0266 0949     		li	s2,2
 338:lib/fatfs/src/tf_card.c **** 			} else {
 1141              		.loc 1 338 22
 1142 0268 1304900A 		li	s0,169
 1143 026c 39A0     		j	.L72
 1144              	.LVL138:
 1145              	.L98:
 342:lib/fatfs/src/tf_card.c **** 			if (!tf_timer_done() || send_cmd(CMD16, 512) != 0)	/* Set block length: 512 */
 1146              		.loc 1 342 30 discriminator 1
 1147 026e 2285     		mv	a0,s0
 1148 0270 97000000 		call	send_cmd
 1148      E7800000 
 1149              	.LVL139:
 342:lib/fatfs/src/tf_card.c **** 			if (!tf_timer_done() || send_cmd(CMD16, 512) != 0)	/* Set block length: 512 */
 1150              		.loc 1 342 27 discriminator 1
 1151 0278 19C5     		beq	a0,zero,.L71
 1152              	.LVL140:
 1153              	.L72:
 342:lib/fatfs/src/tf_card.c **** 			if (!tf_timer_done() || send_cmd(CMD16, 512) != 0)	/* Set block length: 512 */
 1154              		.loc 1 342 48 is_stmt 1 discriminator 2
 342:lib/fatfs/src/tf_card.c **** 			if (!tf_timer_done() || send_cmd(CMD16, 512) != 0)	/* Set block length: 512 */
 1155              		.loc 1 342 11 is_stmt 0 discriminator 2
 1156 027a 97000000 		call	tf_timer_done
 1156      E7800000 
 1157              	.LVL141:
 342:lib/fatfs/src/tf_card.c **** 			if (!tf_timer_done() || send_cmd(CMD16, 512) != 0)	/* Set block length: 512 */
 1158              		.loc 1 342 30 discriminator 2
 1159 0282 8145     		li	a1,0
 342:lib/fatfs/src/tf_card.c **** 			if (!tf_timer_done() || send_cmd(CMD16, 512) != 0)	/* Set block length: 512 */
 1160              		.loc 1 342 10 discriminator 2
 1161 0284 6DF5     		bne	a0,zero,.L98
 1162              	.L71:
 343:lib/fatfs/src/tf_card.c **** 				ty = 0;
 1163              		.loc 1 343 4 is_stmt 1
 343:lib/fatfs/src/tf_card.c **** 				ty = 0;
 1164              		.loc 1 343 9 is_stmt 0
 1165 0286 97000000 		call	tf_timer_done
 1165      E7800000 
 1166              	.LVL142:
 343:lib/fatfs/src/tf_card.c **** 				ty = 0;
 1167              		.loc 1 343 7
 1168 028e E30D05E8 		beq	a0,zero,.L64
 343:lib/fatfs/src/tf_card.c **** 				ty = 0;
 1169              		.loc 1 343 28 discriminator 1
 1170 0292 93050020 		li	a1,512
 1171 0296 4145     		li	a0,16
 1172 0298 97000000 		call	send_cmd
 1172      E7800000 
 1173              	.LVL143:
 343:lib/fatfs/src/tf_card.c **** 				ty = 0;
 1174              		.loc 1 343 25 discriminator 1
 1175 02a0 E31405E8 		bne	a0,zero,.L64
 347:lib/fatfs/src/tf_card.c **** 	deselect();
 1176              		.loc 1 347 2 is_stmt 1
 347:lib/fatfs/src/tf_card.c **** 	deselect();
 1177              		.loc 1 347 11 is_stmt 0
 1178 02a4 B7070000 		lui	a5,%hi(.LANCHOR1)
GAS LISTING C:\Users\Kalle\AppData\Local\Temp\ccyOiGeb.s 			page 33


 1179              	.LBB71:
 1180              	.LBB65:
 177:lib/fatfs/src/tf_card.c **** 	xchg_spi(0xFF);	/* Dummy clock (force DO hi-z for multiple slave SPI) */
 1181              		.loc 1 177 2
 1182 02a8 37150140 		li	a0,1073811456
 1183 02ac 9165     		li	a1,16384
 1184              	.LBE65:
 1185              	.LBE71:
 347:lib/fatfs/src/tf_card.c **** 	deselect();
 1186              		.loc 1 347 11
 1187 02ae 23802701 		sb	s2,%lo(.LANCHOR1)(a5)
 348:lib/fatfs/src/tf_card.c **** 
 1188              		.loc 1 348 2 is_stmt 1
 1189              	.LBB72:
 1190              	.LBB66:
 177:lib/fatfs/src/tf_card.c **** 	xchg_spi(0xFF);	/* Dummy clock (force DO hi-z for multiple slave SPI) */
 1191              		.loc 1 177 2
 1192 02b2 97000000 		call	gpio_bit_set
 1192      E7800000 
 1193              	.LVL144:
 178:lib/fatfs/src/tf_card.c **** }
 1194              		.loc 1 178 2
 1195 02ba 1305F00F 		li	a0,255
 1196 02be 97000000 		call	xchg_spi
 1196      E7800000 
 1197              	.LVL145:
 1198              	.LBE66:
 1199              	.LBE72:
 350:lib/fatfs/src/tf_card.c **** 		FCLK_FAST();			/* Set fast clock */
 1200              		.loc 1 350 2
 1201 02c6 BDB7     		j	.L69
 1202              	.LVL146:
 1203              	.L68:
 347:lib/fatfs/src/tf_card.c **** 	deselect();
 1204              		.loc 1 347 2
 347:lib/fatfs/src/tf_card.c **** 	deselect();
 1205              		.loc 1 347 11 is_stmt 0
 1206 02c8 B7070000 		lui	a5,%hi(.LANCHOR1)
 1207 02cc 1147     		li	a4,4
 1208 02ce 2380E700 		sb	a4,%lo(.LANCHOR1)(a5)
 348:lib/fatfs/src/tf_card.c **** 
 1209              		.loc 1 348 2 is_stmt 1
 1210              	.LBB73:
 1211              	.LBB67:
 177:lib/fatfs/src/tf_card.c **** 	xchg_spi(0xFF);	/* Dummy clock (force DO hi-z for multiple slave SPI) */
 1212              		.loc 1 177 2
 1213 02d2 97000000 		call	gpio_bit_set
 1213      E7800000 
 1214              	.LVL147:
 178:lib/fatfs/src/tf_card.c **** }
 1215              		.loc 1 178 2
 1216 02da 1305F00F 		li	a0,255
 1217 02de 97000000 		call	xchg_spi
 1217      E7800000 
 1218              	.LVL148:
 1219              	.LBE67:
 1220              	.LBE73:
GAS LISTING C:\Users\Kalle\AppData\Local\Temp\ccyOiGeb.s 			page 34


 350:lib/fatfs/src/tf_card.c **** 		FCLK_FAST();			/* Set fast clock */
 1221              		.loc 1 350 2
 1222 02e6 B9B7     		j	.L69
 1223              		.cfi_endproc
 1224              	.LFE15:
 1226              		.section	.text.disk_status,"ax",@progbits
 1227              		.align	1
 1228              		.globl	disk_status
 1230              	disk_status:
 1231              	.LFB16:
 359:lib/fatfs/src/tf_card.c **** 
 360:lib/fatfs/src/tf_card.c **** 
 361:lib/fatfs/src/tf_card.c **** 
 362:lib/fatfs/src/tf_card.c **** /*-----------------------------------------------------------------------*/
 363:lib/fatfs/src/tf_card.c **** /* Get disk status                                                       */
 364:lib/fatfs/src/tf_card.c **** /*-----------------------------------------------------------------------*/
 365:lib/fatfs/src/tf_card.c **** 
 366:lib/fatfs/src/tf_card.c **** DSTATUS disk_status (
 367:lib/fatfs/src/tf_card.c **** 	BYTE drv		/* Physical drive number (0) */
 368:lib/fatfs/src/tf_card.c **** )
 369:lib/fatfs/src/tf_card.c **** {
 1232              		.loc 1 369 1
 1233              		.cfi_startproc
 1234              	.LVL149:
 370:lib/fatfs/src/tf_card.c **** 	if (drv) return STA_NOINIT;		/* Supports only drive 0 */
 1235              		.loc 1 370 2
 1236              		.loc 1 370 5 is_stmt 0
 1237 0000 01E9     		bne	a0,zero,.L101
 371:lib/fatfs/src/tf_card.c **** 
 372:lib/fatfs/src/tf_card.c **** 	return Stat;	/* Return disk status */
 1238              		.loc 1 372 2 is_stmt 1
 1239              		.loc 1 372 9 is_stmt 0
 1240 0002 B7070000 		lui	a5,%hi(.LANCHOR0)
 1241 0006 03C50700 		lbu	a0,%lo(.LANCHOR0)(a5)
 1242              	.LVL150:
 1243 000a 1375F50F 		andi	a0,a0,0xff
 1244 000e 8280     		ret
 1245              	.LVL151:
 1246              	.L101:
 370:lib/fatfs/src/tf_card.c **** 	if (drv) return STA_NOINIT;		/* Supports only drive 0 */
 1247              		.loc 1 370 18
 1248 0010 0545     		li	a0,1
 1249              	.LVL152:
 373:lib/fatfs/src/tf_card.c **** }
 1250              		.loc 1 373 1
 1251 0012 8280     		ret
 1252              		.cfi_endproc
 1253              	.LFE16:
 1255              		.section	.text.disk_read,"ax",@progbits
 1256              		.align	1
 1257              		.globl	disk_read
 1259              	disk_read:
 1260              	.LFB17:
 374:lib/fatfs/src/tf_card.c **** 
 375:lib/fatfs/src/tf_card.c **** 
 376:lib/fatfs/src/tf_card.c **** 
 377:lib/fatfs/src/tf_card.c **** /*-----------------------------------------------------------------------*/
GAS LISTING C:\Users\Kalle\AppData\Local\Temp\ccyOiGeb.s 			page 35


 378:lib/fatfs/src/tf_card.c **** /* Read sector(s)                                                        */
 379:lib/fatfs/src/tf_card.c **** /*-----------------------------------------------------------------------*/
 380:lib/fatfs/src/tf_card.c **** 
 381:lib/fatfs/src/tf_card.c **** DRESULT disk_read (
 382:lib/fatfs/src/tf_card.c **** 	BYTE drv,		/* Physical drive number (0) */
 383:lib/fatfs/src/tf_card.c **** 	BYTE *buff,		/* Pointer to the data buffer to store read data */
 384:lib/fatfs/src/tf_card.c **** 	DWORD sector,	/* Start sector number (LBA) */
 385:lib/fatfs/src/tf_card.c **** 	UINT count		/* Number of sectors to read (1..128) */
 386:lib/fatfs/src/tf_card.c **** )
 387:lib/fatfs/src/tf_card.c **** {
 1261              		.loc 1 387 1 is_stmt 1
 1262              		.cfi_startproc
 1263              	.LVL153:
 388:lib/fatfs/src/tf_card.c **** 	if (drv || !count) return RES_PARERR;		/* Check parameter */
 1264              		.loc 1 388 2
 387:lib/fatfs/src/tf_card.c **** 	if (drv || !count) return RES_PARERR;		/* Check parameter */
 1265              		.loc 1 387 1 is_stmt 0
 1266 0000 4111     		addi	sp,sp,-16
 1267              	.LCFI19:
 1268              		.cfi_def_cfa_offset 16
 1269 0002 4AC0     		sw	s2,0(sp)
 1270 0004 06C6     		sw	ra,12(sp)
 1271 0006 22C4     		sw	s0,8(sp)
 1272 0008 26C2     		sw	s1,4(sp)
 1273              		.cfi_offset 18, -16
 1274              		.cfi_offset 1, -4
 1275              		.cfi_offset 8, -8
 1276              		.cfi_offset 9, -12
 1277              		.loc 1 388 28
 1278 000a 1149     		li	s2,4
 1279              		.loc 1 388 5
 1280 000c 39E9     		bne	a0,zero,.L102
 1281 000e 3684     		mv	s0,a3
 1282              		.loc 1 388 28 discriminator 2
 1283 0010 1149     		li	s2,4
 1284              		.loc 1 388 10 discriminator 2
 1285 0012 A1CA     		beq	a3,zero,.L102
 389:lib/fatfs/src/tf_card.c **** 	if (Stat & STA_NOINIT) return RES_NOTRDY;	/* Check if drive is ready */
 1286              		.loc 1 389 2 is_stmt 1
 1287              		.loc 1 389 11 is_stmt 0
 1288 0014 B7070000 		lui	a5,%hi(.LANCHOR0)
 1289 0018 83C70700 		lbu	a5,%lo(.LANCHOR0)(a5)
 1290              		.loc 1 389 32
 1291 001c 0D49     		li	s2,3
 1292              		.loc 1 389 5
 1293 001e 858B     		andi	a5,a5,1
 1294 0020 A9E3     		bne	a5,zero,.L102
 390:lib/fatfs/src/tf_card.c **** 
 391:lib/fatfs/src/tf_card.c **** 	if (!(CardType & CT_BLOCK)) sector *= 512;	/* LBA ot BA conversion (byte addressing cards) */
 1295              		.loc 1 391 2 is_stmt 1
 1296              		.loc 1 391 17 is_stmt 0
 1297 0022 B7070000 		lui	a5,%hi(.LANCHOR1)
 1298              		.loc 1 391 5
 1299 0026 83C70700 		lbu	a5,%lo(.LANCHOR1)(a5)
 1300 002a AE84     		mv	s1,a1
 1301 002c A18B     		andi	a5,a5,8
 1302 002e 91E3     		bne	a5,zero,.L104
GAS LISTING C:\Users\Kalle\AppData\Local\Temp\ccyOiGeb.s 			page 36


 1303              		.loc 1 391 30 is_stmt 1 discriminator 1
 1304              		.loc 1 391 37 is_stmt 0 discriminator 1
 1305 0030 2606     		slli	a2,a2,9
 1306              	.LVL154:
 1307              	.L104:
 392:lib/fatfs/src/tf_card.c **** 
 393:lib/fatfs/src/tf_card.c **** 	if (count == 1) {	/* Single sector read */
 1308              		.loc 1 393 2 is_stmt 1
 1309              		.loc 1 393 5 is_stmt 0
 1310 0032 8547     		li	a5,1
 394:lib/fatfs/src/tf_card.c **** 		if ((send_cmd(CMD17, sector) == 0)	/* READ_SINGLE_BLOCK */
 1311              		.loc 1 394 8
 1312 0034 B285     		mv	a1,a2
 1313              	.LVL155:
 393:lib/fatfs/src/tf_card.c **** 		if ((send_cmd(CMD17, sector) == 0)	/* READ_SINGLE_BLOCK */
 1314              		.loc 1 393 5
 1315 0036 630EF406 		beq	s0,a5,.L118
 1316              	.LVL156:
 395:lib/fatfs/src/tf_card.c **** 			&& rcvr_datablock(buff, 512)) {
 396:lib/fatfs/src/tf_card.c **** 			count = 0;
 397:lib/fatfs/src/tf_card.c **** 		}
 398:lib/fatfs/src/tf_card.c **** 	}
 399:lib/fatfs/src/tf_card.c **** 	else {				/* Multiple sector read */
 400:lib/fatfs/src/tf_card.c **** 		if (send_cmd(CMD18, sector) == 0) {	/* READ_MULTIPLE_BLOCK */
 1317              		.loc 1 400 3 is_stmt 1
 1318              		.loc 1 400 7 is_stmt 0
 1319 003a 4945     		li	a0,18
 1320              	.LVL157:
 1321 003c 97000000 		call	send_cmd
 1321      E7800000 
 1322              	.LVL158:
 1323 0044 0549     		li	s2,1
 1324              		.loc 1 400 6
 1325 0046 05C9     		beq	a0,zero,.L108
 1326              	.L106:
 1327              	.LVL159:
 401:lib/fatfs/src/tf_card.c **** 			do {
 402:lib/fatfs/src/tf_card.c **** 				if (!rcvr_datablock(buff, 512)) break;
 403:lib/fatfs/src/tf_card.c **** 				buff += 512;
 404:lib/fatfs/src/tf_card.c **** 			} while (--count);
 405:lib/fatfs/src/tf_card.c **** 			send_cmd(CMD12, 0);				/* STOP_TRANSMISSION */
 406:lib/fatfs/src/tf_card.c **** 		}
 407:lib/fatfs/src/tf_card.c **** 	}
 408:lib/fatfs/src/tf_card.c **** 	deselect();
 1328              		.loc 1 408 2 is_stmt 1
 1329              	.LBB74:
 1330              	.LBB75:
 177:lib/fatfs/src/tf_card.c **** 	xchg_spi(0xFF);	/* Dummy clock (force DO hi-z for multiple slave SPI) */
 1331              		.loc 1 177 2
 1332 0048 37150140 		li	a0,1073811456
 1333 004c 9165     		li	a1,16384
 1334 004e 97000000 		call	gpio_bit_set
 1334      E7800000 
 1335              	.LVL160:
 178:lib/fatfs/src/tf_card.c **** }
 1336              		.loc 1 178 2
 1337 0056 1305F00F 		li	a0,255
GAS LISTING C:\Users\Kalle\AppData\Local\Temp\ccyOiGeb.s 			page 37


 1338 005a 97000000 		call	xchg_spi
 1338      E7800000 
 1339              	.LVL161:
 1340              	.LBE75:
 1341              	.LBE74:
 409:lib/fatfs/src/tf_card.c **** 
 410:lib/fatfs/src/tf_card.c **** 	return count ? RES_ERROR : RES_OK;	/* Return result */
 1342              		.loc 1 410 2
 1343              	.L102:
 411:lib/fatfs/src/tf_card.c **** }
 1344              		.loc 1 411 1 is_stmt 0
 1345 0062 B240     		lw	ra,12(sp)
 1346              		.cfi_remember_state
 1347              		.cfi_restore 1
 1348 0064 2244     		lw	s0,8(sp)
 1349              		.cfi_restore 8
 1350 0066 4A85     		mv	a0,s2
 1351 0068 9244     		lw	s1,4(sp)
 1352              		.cfi_restore 9
 1353 006a 0249     		lw	s2,0(sp)
 1354              		.cfi_restore 18
 1355 006c 4101     		addi	sp,sp,16
 1356              	.LCFI20:
 1357              		.cfi_def_cfa_offset 0
 1358 006e 8280     		jr	ra
 1359              	.LVL162:
 1360              	.L120:
 1361              	.LCFI21:
 1362              		.cfi_restore_state
 403:lib/fatfs/src/tf_card.c **** 			} while (--count);
 1363              		.loc 1 403 10
 1364 0070 93840420 		addi	s1,s1,512
 1365              	.LVL163:
 404:lib/fatfs/src/tf_card.c **** 			send_cmd(CMD12, 0);				/* STOP_TRANSMISSION */
 1366              		.loc 1 404 4
 1367 0074 25C0     		beq	s0,zero,.L119
 1368              	.L108:
 401:lib/fatfs/src/tf_card.c **** 				if (!rcvr_datablock(buff, 512)) break;
 1369              		.loc 1 401 4 is_stmt 1
 402:lib/fatfs/src/tf_card.c **** 				buff += 512;
 1370              		.loc 1 402 5
 402:lib/fatfs/src/tf_card.c **** 				buff += 512;
 1371              		.loc 1 402 10 is_stmt 0
 1372 0076 2685     		mv	a0,s1
 1373 0078 93050020 		li	a1,512
 1374 007c 97000000 		call	rcvr_datablock
 1374      E7800000 
 1375              	.LVL164:
 403:lib/fatfs/src/tf_card.c **** 			} while (--count);
 1376              		.loc 1 403 5 is_stmt 1
 404:lib/fatfs/src/tf_card.c **** 			send_cmd(CMD12, 0);				/* STOP_TRANSMISSION */
 1377              		.loc 1 404 4 is_stmt 0
 1378 0084 7D14     		addi	s0,s0,-1
 1379              	.LVL165:
 402:lib/fatfs/src/tf_card.c **** 				buff += 512;
 1380              		.loc 1 402 8
 1381 0086 6DF5     		bne	a0,zero,.L120
GAS LISTING C:\Users\Kalle\AppData\Local\Temp\ccyOiGeb.s 			page 38


 1382 0088 0549     		li	s2,1
 1383              	.LVL166:
 1384              	.L107:
 405:lib/fatfs/src/tf_card.c **** 		}
 1385              		.loc 1 405 4 is_stmt 1
 1386 008a 8145     		li	a1,0
 1387 008c 3145     		li	a0,12
 1388 008e 97000000 		call	send_cmd
 1388      E7800000 
 1389              	.LVL167:
 408:lib/fatfs/src/tf_card.c **** 
 1390              		.loc 1 408 2
 1391              	.LBB77:
 1392              	.LBB76:
 177:lib/fatfs/src/tf_card.c **** 	xchg_spi(0xFF);	/* Dummy clock (force DO hi-z for multiple slave SPI) */
 1393              		.loc 1 177 2
 1394 0096 9165     		li	a1,16384
 1395 0098 37150140 		li	a0,1073811456
 1396 009c 97000000 		call	gpio_bit_set
 1396      E7800000 
 1397              	.LVL168:
 178:lib/fatfs/src/tf_card.c **** }
 1398              		.loc 1 178 2
 1399 00a4 1305F00F 		li	a0,255
 1400 00a8 97000000 		call	xchg_spi
 1400      E7800000 
 1401              	.LVL169:
 1402              	.LBE76:
 1403              	.LBE77:
 410:lib/fatfs/src/tf_card.c **** }
 1404              		.loc 1 410 2
 1405 00b0 4DBF     		j	.L102
 1406              	.LVL170:
 1407              	.L118:
 394:lib/fatfs/src/tf_card.c **** 			&& rcvr_datablock(buff, 512)) {
 1408              		.loc 1 394 3
 394:lib/fatfs/src/tf_card.c **** 			&& rcvr_datablock(buff, 512)) {
 1409              		.loc 1 394 8 is_stmt 0
 1410 00b2 4545     		li	a0,17
 1411              	.LVL171:
 1412 00b4 97000000 		call	send_cmd
 1412      E7800000 
 1413              	.LVL172:
 1414 00bc 0549     		li	s2,1
 394:lib/fatfs/src/tf_card.c **** 			&& rcvr_datablock(buff, 512)) {
 1415              		.loc 1 394 6
 1416 00be 49F5     		bne	a0,zero,.L106
 395:lib/fatfs/src/tf_card.c **** 			count = 0;
 1417              		.loc 1 395 7
 1418 00c0 93050020 		li	a1,512
 1419 00c4 2685     		mv	a0,s1
 1420 00c6 97000000 		call	rcvr_datablock
 1420      E7800000 
 1421              	.LVL173:
 395:lib/fatfs/src/tf_card.c **** 			count = 0;
 1422              		.loc 1 395 4
 1423 00ce 13391500 		seqz	s2,a0
GAS LISTING C:\Users\Kalle\AppData\Local\Temp\ccyOiGeb.s 			page 39


 1424 00d2 9DBF     		j	.L106
 1425              	.L119:
 1426 00d4 0149     		li	s2,0
 1427 00d6 55BF     		j	.L107
 1428              		.cfi_endproc
 1429              	.LFE17:
 1431              		.section	.text.disk_write,"ax",@progbits
 1432              		.align	1
 1433              		.globl	disk_write
 1435              	disk_write:
 1436              	.LFB18:
 412:lib/fatfs/src/tf_card.c **** 
 413:lib/fatfs/src/tf_card.c **** 
 414:lib/fatfs/src/tf_card.c **** 
 415:lib/fatfs/src/tf_card.c **** /*-----------------------------------------------------------------------*/
 416:lib/fatfs/src/tf_card.c **** /* Write sector(s)                                                       */
 417:lib/fatfs/src/tf_card.c **** /*-----------------------------------------------------------------------*/
 418:lib/fatfs/src/tf_card.c **** 
 419:lib/fatfs/src/tf_card.c **** #if FF_FS_READONLY == 0
 420:lib/fatfs/src/tf_card.c **** DRESULT disk_write (
 421:lib/fatfs/src/tf_card.c **** 	BYTE drv,			/* Physical drive number (0) */
 422:lib/fatfs/src/tf_card.c **** 	const BYTE *buff,	/* Ponter to the data to write */
 423:lib/fatfs/src/tf_card.c **** 	DWORD sector,		/* Start sector number (LBA) */
 424:lib/fatfs/src/tf_card.c **** 	UINT count			/* Number of sectors to write (1..128) */
 425:lib/fatfs/src/tf_card.c **** )
 426:lib/fatfs/src/tf_card.c **** {
 1437              		.loc 1 426 1 is_stmt 1
 1438              		.cfi_startproc
 1439              	.LVL174:
 427:lib/fatfs/src/tf_card.c **** 	if (drv || !count) return RES_PARERR;		/* Check parameter */
 1440              		.loc 1 427 2
 426:lib/fatfs/src/tf_card.c **** 	if (drv || !count) return RES_PARERR;		/* Check parameter */
 1441              		.loc 1 426 1 is_stmt 0
 1442 0000 0111     		addi	sp,sp,-32
 1443              	.LCFI22:
 1444              		.cfi_def_cfa_offset 32
 1445 0002 4AC8     		sw	s2,16(sp)
 1446 0004 06CE     		sw	ra,28(sp)
 1447 0006 22CC     		sw	s0,24(sp)
 1448 0008 26CA     		sw	s1,20(sp)
 1449              		.cfi_offset 18, -16
 1450              		.cfi_offset 1, -4
 1451              		.cfi_offset 8, -8
 1452              		.cfi_offset 9, -12
 1453              		.loc 1 427 28
 1454 000a 1149     		li	s2,4
 1455              		.loc 1 427 5
 1456 000c 59E1     		bne	a0,zero,.L121
 1457 000e 3684     		mv	s0,a3
 1458              		.loc 1 427 28 discriminator 2
 1459 0010 1149     		li	s2,4
 1460              		.loc 1 427 10 discriminator 2
 1461 0012 C1C2     		beq	a3,zero,.L121
 428:lib/fatfs/src/tf_card.c **** 	if (Stat & STA_NOINIT) return RES_NOTRDY;	/* Check drive status */
 1462              		.loc 1 428 2 is_stmt 1
 1463              		.loc 1 428 11 is_stmt 0
 1464 0014 B7070000 		lui	a5,%hi(.LANCHOR0)
GAS LISTING C:\Users\Kalle\AppData\Local\Temp\ccyOiGeb.s 			page 40


 1465 0018 93870700 		addi	a5,a5,%lo(.LANCHOR0)
 1466 001c 03C70700 		lbu	a4,0(a5)
 1467              		.loc 1 428 32
 1468 0020 0D49     		li	s2,3
 1469              		.loc 1 428 5
 1470 0022 058B     		andi	a4,a4,1
 1471 0024 3DE7     		bne	a4,zero,.L121
 429:lib/fatfs/src/tf_card.c **** 	if (Stat & STA_PROTECT) return RES_WRPRT;	/* Check write protect */
 1472              		.loc 1 429 2 is_stmt 1
 1473              		.loc 1 429 11 is_stmt 0
 1474 0026 83C70700 		lbu	a5,0(a5)
 1475              		.loc 1 429 33
 1476 002a 0949     		li	s2,2
 1477              		.loc 1 429 5
 1478 002c 918B     		andi	a5,a5,4
 1479 002e B5E3     		bne	a5,zero,.L121
 430:lib/fatfs/src/tf_card.c **** 
 431:lib/fatfs/src/tf_card.c **** 	if (!(CardType & CT_BLOCK)) sector *= 512;	/* LBA ==> BA conversion (byte addressing cards) */
 1480              		.loc 1 431 2 is_stmt 1
 1481              		.loc 1 431 17 is_stmt 0
 1482 0030 B7070000 		lui	a5,%hi(.LANCHOR1)
 1483 0034 83C70700 		lbu	a5,%lo(.LANCHOR1)(a5)
 1484 0038 AE84     		mv	s1,a1
 1485              		.loc 1 431 5
 1486 003a 13F78700 		andi	a4,a5,8
 1487 003e 51C3     		beq	a4,zero,.L154
 1488              	.L123:
 432:lib/fatfs/src/tf_card.c **** 
 433:lib/fatfs/src/tf_card.c **** 	if (count == 1) {	/* Single sector write */
 1489              		.loc 1 433 2 is_stmt 1
 1490              		.loc 1 433 5 is_stmt 0
 1491 0040 0547     		li	a4,1
 1492 0042 6305E40A 		beq	s0,a4,.L155
 434:lib/fatfs/src/tf_card.c **** 		if ((send_cmd(CMD24, sector) == 0)	/* WRITE_BLOCK */
 435:lib/fatfs/src/tf_card.c **** 			&& xmit_datablock(buff, 0xFE)) {
 436:lib/fatfs/src/tf_card.c **** 			count = 0;
 437:lib/fatfs/src/tf_card.c **** 		}
 438:lib/fatfs/src/tf_card.c **** 	}
 439:lib/fatfs/src/tf_card.c **** 	else {				/* Multiple sector write */
 440:lib/fatfs/src/tf_card.c **** 		if (CardType & CT_SDC) send_cmd(ACMD23, count);	/* Predefine number of sectors */
 1493              		.loc 1 440 3 is_stmt 1
 1494              		.loc 1 440 6 is_stmt 0
 1495 0046 998B     		andi	a5,a5,6
 1496 0048 C1EB     		bne	a5,zero,.L156
 1497              	.LVL175:
 1498              	.L128:
 441:lib/fatfs/src/tf_card.c **** 		if (send_cmd(CMD25, sector) == 0) {	/* WRITE_MULTIPLE_BLOCK */
 1499              		.loc 1 441 3 is_stmt 1
 1500              		.loc 1 441 7 is_stmt 0
 1501 004a B285     		mv	a1,a2
 1502 004c 6545     		li	a0,25
 1503 004e 97000000 		call	send_cmd
 1503      E7800000 
 1504              	.LVL176:
 1505 0056 0549     		li	s2,1
 1506              		.loc 1 441 6
 1507 0058 05E1     		bne	a0,zero,.L126
GAS LISTING C:\Users\Kalle\AppData\Local\Temp\ccyOiGeb.s 			page 41


 1508              	.L130:
 442:lib/fatfs/src/tf_card.c **** 			do {
 1509              		.loc 1 442 4 is_stmt 1
 443:lib/fatfs/src/tf_card.c **** 				if (!xmit_datablock(buff, 0xFC)) break;
 1510              		.loc 1 443 5
 1511              	.LVL177:
 1512              	.LBB86:
 1513              	.LBB87:
 231:lib/fatfs/src/tf_card.c **** 
 1514              		.loc 1 231 2
 234:lib/fatfs/src/tf_card.c **** 
 1515              		.loc 1 234 2
 234:lib/fatfs/src/tf_card.c **** 
 1516              		.loc 1 234 7 is_stmt 0
 1517 005a 1305401F 		li	a0,500
 1518 005e 97000000 		call	wait_ready
 1518      E7800000 
 1519              	.LVL178:
 236:lib/fatfs/src/tf_card.c **** 	if (token != 0xFD) {				/* Send data if token is other than StopTran */
 1520              		.loc 1 236 2 is_stmt 1
 234:lib/fatfs/src/tf_card.c **** 
 1521              		.loc 1 234 5 is_stmt 0
 1522 0066 0DED     		bne	a0,zero,.L157
 1523              	.LVL179:
 1524              	.L129:
 1525              	.LBE87:
 1526              	.LBE86:
 444:lib/fatfs/src/tf_card.c **** 				buff += 512;
 445:lib/fatfs/src/tf_card.c **** 			} while (--count);
 446:lib/fatfs/src/tf_card.c **** 			if (!xmit_datablock(0, 0xFD)) count = 1;	/* STOP_TRAN token */
 1527              		.loc 1 446 4 is_stmt 1
 1528              	.LBB89:
 1529              	.LBB90:
 231:lib/fatfs/src/tf_card.c **** 
 1530              		.loc 1 231 2
 234:lib/fatfs/src/tf_card.c **** 
 1531              		.loc 1 234 2
 234:lib/fatfs/src/tf_card.c **** 
 1532              		.loc 1 234 7 is_stmt 0
 1533 0068 1305401F 		li	a0,500
 1534 006c 97000000 		call	wait_ready
 1534      E7800000 
 1535              	.LVL180:
 234:lib/fatfs/src/tf_card.c **** 
 1536              		.loc 1 234 5
 1537 0074 29E9     		bne	a0,zero,.L158
 1538              	.LVL181:
 1539              	.L127:
 1540              	.LBE90:
 1541              	.LBE89:
 426:lib/fatfs/src/tf_card.c **** 	if (drv || !count) return RES_PARERR;		/* Check parameter */
 1542              		.loc 1 426 1
 1543 0076 0549     		li	s2,1
 1544              	.L126:
 1545              	.LVL182:
 447:lib/fatfs/src/tf_card.c **** 		}
 448:lib/fatfs/src/tf_card.c **** 	}
GAS LISTING C:\Users\Kalle\AppData\Local\Temp\ccyOiGeb.s 			page 42


 449:lib/fatfs/src/tf_card.c **** 	deselect();
 1546              		.loc 1 449 2 is_stmt 1
 1547              	.LBB92:
 1548              	.LBB93:
 177:lib/fatfs/src/tf_card.c **** 	xchg_spi(0xFF);	/* Dummy clock (force DO hi-z for multiple slave SPI) */
 1549              		.loc 1 177 2
 1550 0078 37150140 		li	a0,1073811456
 1551 007c 9165     		li	a1,16384
 1552 007e 97000000 		call	gpio_bit_set
 1552      E7800000 
 1553              	.LVL183:
 178:lib/fatfs/src/tf_card.c **** }
 1554              		.loc 1 178 2
 1555 0086 1305F00F 		li	a0,255
 1556 008a 97000000 		call	xchg_spi
 1556      E7800000 
 1557              	.LVL184:
 1558              	.LBE93:
 1559              	.LBE92:
 450:lib/fatfs/src/tf_card.c **** 
 451:lib/fatfs/src/tf_card.c **** 	return count ? RES_ERROR : RES_OK;	/* Return result */
 1560              		.loc 1 451 2
 1561              	.L121:
 452:lib/fatfs/src/tf_card.c **** }
 1562              		.loc 1 452 1 is_stmt 0
 1563 0092 F240     		lw	ra,28(sp)
 1564              		.cfi_remember_state
 1565              		.cfi_restore 1
 1566 0094 6244     		lw	s0,24(sp)
 1567              		.cfi_restore 8
 1568 0096 4A85     		mv	a0,s2
 1569 0098 D244     		lw	s1,20(sp)
 1570              		.cfi_restore 9
 1571 009a 4249     		lw	s2,16(sp)
 1572              		.cfi_restore 18
 1573 009c 0561     		addi	sp,sp,32
 1574              	.LCFI23:
 1575              		.cfi_def_cfa_offset 0
 1576 009e 8280     		jr	ra
 1577              	.LVL185:
 1578              	.L157:
 1579              	.LCFI24:
 1580              		.cfi_restore_state
 1581              	.LBB94:
 1582              	.LBB88:
 236:lib/fatfs/src/tf_card.c **** 	if (token != 0xFD) {				/* Send data if token is other than StopTran */
 1583              		.loc 1 236 2
 1584 00a0 1305C00F 		li	a0,252
 1585 00a4 97000000 		call	xchg_spi
 1585      E7800000 
 1586              	.LVL186:
 237:lib/fatfs/src/tf_card.c **** 		xmit_spi_multi(buff, 512);		/* Data */
 1587              		.loc 1 237 2 is_stmt 1
 1588 00ac 2685     		mv	a0,s1
 1589 00ae 97000000 		call	xmit_datablock.part.2
 1589      E7800000 
 1590              	.LVL187:
GAS LISTING C:\Users\Kalle\AppData\Local\Temp\ccyOiGeb.s 			page 43


 1591              	.LBE88:
 1592              	.LBE94:
 444:lib/fatfs/src/tf_card.c **** 			} while (--count);
 1593              		.loc 1 444 5
 443:lib/fatfs/src/tf_card.c **** 				buff += 512;
 1594              		.loc 1 443 8 is_stmt 0
 1595 00b6 4DD9     		beq	a0,zero,.L129
 445:lib/fatfs/src/tf_card.c **** 			if (!xmit_datablock(0, 0xFD)) count = 1;	/* STOP_TRAN token */
 1596              		.loc 1 445 4
 1597 00b8 7D14     		addi	s0,s0,-1
 1598              	.LVL188:
 444:lib/fatfs/src/tf_card.c **** 			} while (--count);
 1599              		.loc 1 444 10
 1600 00ba 93840420 		addi	s1,s1,512
 1601              	.LVL189:
 445:lib/fatfs/src/tf_card.c **** 			if (!xmit_datablock(0, 0xFD)) count = 1;	/* STOP_TRAN token */
 1602              		.loc 1 445 4
 1603 00be 51FC     		bne	s0,zero,.L130
 1604 00c0 65B7     		j	.L129
 1605              	.LVL190:
 1606              	.L154:
 431:lib/fatfs/src/tf_card.c **** 
 1607              		.loc 1 431 30 is_stmt 1 discriminator 1
 431:lib/fatfs/src/tf_card.c **** 
 1608              		.loc 1 431 37 is_stmt 0 discriminator 1
 1609 00c2 2606     		slli	a2,a2,9
 1610              	.LVL191:
 1611 00c4 B5BF     		j	.L123
 1612              	.LVL192:
 1613              	.L158:
 1614              	.LBB95:
 1615              	.LBB91:
 236:lib/fatfs/src/tf_card.c **** 	if (token != 0xFD) {				/* Send data if token is other than StopTran */
 1616              		.loc 1 236 2 is_stmt 1
 1617 00c6 1305D00F 		li	a0,253
 1618 00ca 97000000 		call	xchg_spi
 1618      E7800000 
 1619              	.LVL193:
 237:lib/fatfs/src/tf_card.c **** 		xmit_spi_multi(buff, 512);		/* Data */
 1620              		.loc 1 237 2
 1621 00d2 33398000 		snez	s2,s0
 1622 00d6 4DB7     		j	.L126
 1623              	.LVL194:
 1624              	.L156:
 1625              	.LBE91:
 1626              	.LBE95:
 440:lib/fatfs/src/tf_card.c **** 		if (send_cmd(CMD25, sector) == 0) {	/* WRITE_MULTIPLE_BLOCK */
 1627              		.loc 1 440 26 is_stmt 0 discriminator 1
 1628 00d8 A285     		mv	a1,s0
 1629 00da 13057009 		li	a0,151
 1630              	.LVL195:
 1631 00de 32C6     		sw	a2,12(sp)
 440:lib/fatfs/src/tf_card.c **** 		if (send_cmd(CMD25, sector) == 0) {	/* WRITE_MULTIPLE_BLOCK */
 1632              		.loc 1 440 26 is_stmt 1 discriminator 1
 1633 00e0 97000000 		call	send_cmd
 1633      E7800000 
 1634              	.LVL196:
GAS LISTING C:\Users\Kalle\AppData\Local\Temp\ccyOiGeb.s 			page 44


 1635 00e8 3246     		lw	a2,12(sp)
 1636 00ea 85B7     		j	.L128
 1637              	.LVL197:
 1638              	.L155:
 434:lib/fatfs/src/tf_card.c **** 			&& xmit_datablock(buff, 0xFE)) {
 1639              		.loc 1 434 3
 434:lib/fatfs/src/tf_card.c **** 			&& xmit_datablock(buff, 0xFE)) {
 1640              		.loc 1 434 8 is_stmt 0
 1641 00ec B285     		mv	a1,a2
 1642 00ee 6145     		li	a0,24
 1643              	.LVL198:
 1644 00f0 97000000 		call	send_cmd
 1644      E7800000 
 1645              	.LVL199:
 434:lib/fatfs/src/tf_card.c **** 			&& xmit_datablock(buff, 0xFE)) {
 1646              		.loc 1 434 6
 1647 00f8 3DFD     		bne	a0,zero,.L127
 1648              	.LVL200:
 1649              	.LBB96:
 1650              	.LBB97:
 231:lib/fatfs/src/tf_card.c **** 
 1651              		.loc 1 231 2 is_stmt 1
 234:lib/fatfs/src/tf_card.c **** 
 1652              		.loc 1 234 2
 234:lib/fatfs/src/tf_card.c **** 
 1653              		.loc 1 234 7 is_stmt 0
 1654 00fa 1305401F 		li	a0,500
 1655 00fe 97000000 		call	wait_ready
 1655      E7800000 
 1656              	.LVL201:
 234:lib/fatfs/src/tf_card.c **** 
 1657              		.loc 1 234 5
 1658 0106 25D9     		beq	a0,zero,.L127
 236:lib/fatfs/src/tf_card.c **** 	if (token != 0xFD) {				/* Send data if token is other than StopTran */
 1659              		.loc 1 236 2 is_stmt 1
 1660 0108 1305E00F 		li	a0,254
 1661 010c 97000000 		call	xchg_spi
 1661      E7800000 
 1662              	.LVL202:
 237:lib/fatfs/src/tf_card.c **** 		xmit_spi_multi(buff, 512);		/* Data */
 1663              		.loc 1 237 2
 1664 0114 2685     		mv	a0,s1
 1665 0116 97000000 		call	xmit_datablock.part.2
 1665      E7800000 
 1666              	.LVL203:
 1667              	.LBE97:
 1668              	.LBE96:
 435:lib/fatfs/src/tf_card.c **** 			count = 0;
 1669              		.loc 1 435 4 is_stmt 0
 1670 011e 13391500 		seqz	s2,a0
 1671 0122 99BF     		j	.L126
 1672              		.cfi_endproc
 1673              	.LFE18:
 1675              		.section	.text.disk_ioctl,"ax",@progbits
 1676              		.align	1
 1677              		.globl	disk_ioctl
 1679              	disk_ioctl:
GAS LISTING C:\Users\Kalle\AppData\Local\Temp\ccyOiGeb.s 			page 45


 1680              	.LFB19:
 453:lib/fatfs/src/tf_card.c **** #endif
 454:lib/fatfs/src/tf_card.c **** 
 455:lib/fatfs/src/tf_card.c **** 
 456:lib/fatfs/src/tf_card.c **** /*-----------------------------------------------------------------------*/
 457:lib/fatfs/src/tf_card.c **** /* Miscellaneous drive controls other than data read/write               */
 458:lib/fatfs/src/tf_card.c **** /*-----------------------------------------------------------------------*/
 459:lib/fatfs/src/tf_card.c **** 
 460:lib/fatfs/src/tf_card.c **** DRESULT disk_ioctl (
 461:lib/fatfs/src/tf_card.c **** 	BYTE drv,		/* Physical drive number (0) */
 462:lib/fatfs/src/tf_card.c **** 	BYTE cmd,		/* Control command code */
 463:lib/fatfs/src/tf_card.c **** 	void *buff		/* Pointer to the conrtol data */
 464:lib/fatfs/src/tf_card.c **** )
 465:lib/fatfs/src/tf_card.c **** {
 1681              		.loc 1 465 1 is_stmt 1
 1682              		.cfi_startproc
 1683              	.LVL204:
 466:lib/fatfs/src/tf_card.c **** 	DRESULT res;
 1684              		.loc 1 466 2
 467:lib/fatfs/src/tf_card.c **** 	BYTE n, csd[16];
 1685              		.loc 1 467 2
 468:lib/fatfs/src/tf_card.c **** 	DWORD *dp, st, ed, csize;
 1686              		.loc 1 468 2
 469:lib/fatfs/src/tf_card.c **** 
 470:lib/fatfs/src/tf_card.c **** 
 471:lib/fatfs/src/tf_card.c **** 	if (drv) return RES_PARERR;					/* Check parameter */
 1687              		.loc 1 471 2
 465:lib/fatfs/src/tf_card.c **** 	DRESULT res;
 1688              		.loc 1 465 1 is_stmt 0
 1689 0000 0111     		addi	sp,sp,-32
 1690              	.LCFI25:
 1691              		.cfi_def_cfa_offset 32
 1692 0002 26CA     		sw	s1,20(sp)
 1693 0004 06CE     		sw	ra,28(sp)
 1694 0006 22CC     		sw	s0,24(sp)
 1695 0008 4AC8     		sw	s2,16(sp)
 1696              		.cfi_offset 9, -12
 1697              		.cfi_offset 1, -4
 1698              		.cfi_offset 8, -8
 1699              		.cfi_offset 18, -16
 1700              		.loc 1 471 18
 1701 000a 9144     		li	s1,4
 1702              		.loc 1 471 5
 1703 000c 29E1     		bne	a0,zero,.L159
 472:lib/fatfs/src/tf_card.c **** 	if (Stat & STA_NOINIT) return RES_NOTRDY;	/* Check if drive is ready */
 1704              		.loc 1 472 2 is_stmt 1
 1705              		.loc 1 472 11 is_stmt 0
 1706 000e B7070000 		lui	a5,%hi(.LANCHOR0)
 1707 0012 83C70700 		lbu	a5,%lo(.LANCHOR0)(a5)
 1708              		.loc 1 472 32
 1709 0016 8D44     		li	s1,3
 1710              		.loc 1 472 5
 1711 0018 858B     		andi	a5,a5,1
 1712 001a 95EB     		bne	a5,zero,.L159
 473:lib/fatfs/src/tf_card.c **** 
 474:lib/fatfs/src/tf_card.c **** 	res = RES_ERROR;
 475:lib/fatfs/src/tf_card.c **** 
GAS LISTING C:\Users\Kalle\AppData\Local\Temp\ccyOiGeb.s 			page 46


 476:lib/fatfs/src/tf_card.c **** 	switch (cmd) {
 1713              		.loc 1 476 2
 1714 001c 8547     		li	a5,1
 1715 001e 3289     		mv	s2,a2
 1716 0020 2E84     		mv	s0,a1
 474:lib/fatfs/src/tf_card.c **** 
 1717              		.loc 1 474 2 is_stmt 1
 1718              	.LVL205:
 1719              		.loc 1 476 2
 1720 0022 6383F50C 		beq	a1,a5,.L161
 1721 0026 D5C9     		beq	a1,zero,.L162
 1722 0028 63859504 		beq	a1,s1,.L163
 1723 002c 9147     		li	a5,4
 477:lib/fatfs/src/tf_card.c **** 	case CTRL_SYNC :		/* Wait for end of internal write process of the drive */
 478:lib/fatfs/src/tf_card.c **** 		if (_select()) res = RES_OK;
 479:lib/fatfs/src/tf_card.c **** 		break;
 480:lib/fatfs/src/tf_card.c **** 
 481:lib/fatfs/src/tf_card.c **** 	case GET_SECTOR_COUNT :	/* Get drive capacity in unit of sector (DWORD) */
 482:lib/fatfs/src/tf_card.c **** 		if ((send_cmd(CMD9, 0) == 0) && rcvr_datablock(csd, 16)) {
 483:lib/fatfs/src/tf_card.c **** 			if ((csd[0] >> 6) == 1) {	/* SDC ver 2.00 */
 484:lib/fatfs/src/tf_card.c **** 				csize = csd[9] + ((WORD)csd[8] << 8) + ((DWORD)(csd[7] & 63) << 16) + 1;
 485:lib/fatfs/src/tf_card.c **** 				*(DWORD*)buff = csize << 10;
 486:lib/fatfs/src/tf_card.c **** 			} else {					/* SDC ver 1.XX or MMC ver 3 */
 487:lib/fatfs/src/tf_card.c **** 				n = (csd[5] & 15) + ((csd[10] & 128) >> 7) + ((csd[9] & 3) << 1) + 2;
 488:lib/fatfs/src/tf_card.c **** 				csize = (csd[8] >> 6) + ((WORD)csd[7] << 2) + ((WORD)(csd[6] & 3) << 10) + 1;
 489:lib/fatfs/src/tf_card.c **** 				*(DWORD*)buff = csize << (n - 9);
 490:lib/fatfs/src/tf_card.c **** 			}
 491:lib/fatfs/src/tf_card.c **** 			res = RES_OK;
 492:lib/fatfs/src/tf_card.c **** 		}
 493:lib/fatfs/src/tf_card.c **** 		break;
 494:lib/fatfs/src/tf_card.c **** 
 495:lib/fatfs/src/tf_card.c **** 	case GET_BLOCK_SIZE :	/* Get erase block size in unit of sector (DWORD) */
 496:lib/fatfs/src/tf_card.c **** 		if (CardType & CT_SD2) {	/* SDC ver 2.00 */
 497:lib/fatfs/src/tf_card.c **** 			if (send_cmd(ACMD13, 0) == 0) {	/* Read SD status */
 498:lib/fatfs/src/tf_card.c **** 				xchg_spi(0xFF);
 499:lib/fatfs/src/tf_card.c **** 				if (rcvr_datablock(csd, 16)) {				/* Read partial block */
 500:lib/fatfs/src/tf_card.c **** 					for (n = 64 - 16; n; n--) xchg_spi(0xFF);	/* Purge trailing data */
 501:lib/fatfs/src/tf_card.c **** 					*(DWORD*)buff = 16UL << (csd[10] >> 4);
 502:lib/fatfs/src/tf_card.c **** 					res = RES_OK;
 503:lib/fatfs/src/tf_card.c **** 				}
 504:lib/fatfs/src/tf_card.c **** 			}
 505:lib/fatfs/src/tf_card.c **** 		} else {					/* SDC ver 1.XX or MMC */
 506:lib/fatfs/src/tf_card.c **** 			if ((send_cmd(CMD9, 0) == 0) && rcvr_datablock(csd, 16)) {	/* Read CSD */
 507:lib/fatfs/src/tf_card.c **** 				if (CardType & CT_SD1) {	/* SDC ver 1.XX */
 508:lib/fatfs/src/tf_card.c **** 					*(DWORD*)buff = (((csd[10] & 63) << 1) + ((WORD)(csd[11] & 128) >> 7) + 1) << ((csd[13] >> 6) 
 509:lib/fatfs/src/tf_card.c **** 				} else {					/* MMC */
 510:lib/fatfs/src/tf_card.c **** 					*(DWORD*)buff = ((WORD)((csd[10] & 124) >> 2) + 1) * (((csd[11] & 3) << 3) + ((csd[11] & 224) 
 511:lib/fatfs/src/tf_card.c **** 				}
 512:lib/fatfs/src/tf_card.c **** 				res = RES_OK;
 513:lib/fatfs/src/tf_card.c **** 			}
 514:lib/fatfs/src/tf_card.c **** 		}
 515:lib/fatfs/src/tf_card.c **** 		break;
 516:lib/fatfs/src/tf_card.c **** 
 517:lib/fatfs/src/tf_card.c **** 	case CTRL_TRIM :	/* Erase a block of sectors (used when _USE_ERASE == 1) */
 518:lib/fatfs/src/tf_card.c **** 		if (!(CardType & CT_SDC)) break;				/* Check if the card is SDC */
 519:lib/fatfs/src/tf_card.c **** 		if (disk_ioctl(drv, MMC_GET_CSD, csd)) break;	/* Get CSD */
 520:lib/fatfs/src/tf_card.c **** 		if (!(csd[0] >> 6) && !(csd[10] & 0x40)) break;	/* Check if sector erase can be applied to the ca
GAS LISTING C:\Users\Kalle\AppData\Local\Temp\ccyOiGeb.s 			page 47


 521:lib/fatfs/src/tf_card.c **** 		dp = buff; st = dp[0]; ed = dp[1];				/* Load sector block */
 522:lib/fatfs/src/tf_card.c **** 		if (!(CardType & CT_BLOCK)) {
 523:lib/fatfs/src/tf_card.c **** 			st *= 512; ed *= 512;
 524:lib/fatfs/src/tf_card.c **** 		}
 525:lib/fatfs/src/tf_card.c **** 		if (send_cmd(CMD32, st) == 0 && send_cmd(CMD33, ed) == 0 && send_cmd(CMD38, 0) == 0 && wait_ready
 526:lib/fatfs/src/tf_card.c **** 			res = RES_OK;	/* FatFs does not check result of this command */
 527:lib/fatfs/src/tf_card.c **** 		}
 528:lib/fatfs/src/tf_card.c **** 		break;
 529:lib/fatfs/src/tf_card.c **** 
 530:lib/fatfs/src/tf_card.c **** 	default:
 531:lib/fatfs/src/tf_card.c **** 		res = RES_PARERR;
 1724              		.loc 1 531 7 is_stmt 0
 1725 002e 9144     		li	s1,4
 476:lib/fatfs/src/tf_card.c **** 	case CTRL_SYNC :		/* Wait for end of internal write process of the drive */
 1726              		.loc 1 476 2
 1727 0030 6386F502 		beq	a1,a5,.L192
 1728              	.LVL206:
 1729              	.L165:
 532:lib/fatfs/src/tf_card.c **** 	}
 533:lib/fatfs/src/tf_card.c **** 
 534:lib/fatfs/src/tf_card.c **** 	deselect();
 1730              		.loc 1 534 2 is_stmt 1
 1731              	.LBB98:
 1732              	.LBB99:
 177:lib/fatfs/src/tf_card.c **** 	xchg_spi(0xFF);	/* Dummy clock (force DO hi-z for multiple slave SPI) */
 1733              		.loc 1 177 2
 1734 0034 37150140 		li	a0,1073811456
 1735 0038 9165     		li	a1,16384
 1736 003a 97000000 		call	gpio_bit_set
 1736      E7800000 
 1737              	.LVL207:
 178:lib/fatfs/src/tf_card.c **** }
 1738              		.loc 1 178 2
 1739 0042 1305F00F 		li	a0,255
 1740 0046 97000000 		call	xchg_spi
 1740      E7800000 
 1741              	.LVL208:
 1742              	.LBE99:
 1743              	.LBE98:
 535:lib/fatfs/src/tf_card.c **** 
 536:lib/fatfs/src/tf_card.c **** 	return res;
 1744              		.loc 1 536 2
 1745              	.L159:
 537:lib/fatfs/src/tf_card.c **** }
 1746              		.loc 1 537 1 is_stmt 0
 1747 004e F240     		lw	ra,28(sp)
 1748              		.cfi_remember_state
 1749              		.cfi_restore 1
 1750 0050 6244     		lw	s0,24(sp)
 1751              		.cfi_restore 8
 1752 0052 2685     		mv	a0,s1
 1753 0054 4249     		lw	s2,16(sp)
 1754              		.cfi_restore 18
 1755 0056 D244     		lw	s1,20(sp)
 1756              		.cfi_restore 9
 1757 0058 0561     		addi	sp,sp,32
 1758              	.LCFI26:
GAS LISTING C:\Users\Kalle\AppData\Local\Temp\ccyOiGeb.s 			page 48


 1759              		.cfi_def_cfa_offset 0
 1760 005a 8280     		jr	ra
 1761              	.LVL209:
 1762              	.L192:
 1763              	.LCFI27:
 1764              		.cfi_restore_state
 518:lib/fatfs/src/tf_card.c **** 		if (disk_ioctl(drv, MMC_GET_CSD, csd)) break;	/* Get CSD */
 1765              		.loc 1 518 3 is_stmt 1
 518:lib/fatfs/src/tf_card.c **** 		if (disk_ioctl(drv, MMC_GET_CSD, csd)) break;	/* Get CSD */
 1766              		.loc 1 518 18 is_stmt 0
 1767 005c 37040000 		lui	s0,%hi(.LANCHOR1)
 1768 0060 13040400 		addi	s0,s0,%lo(.LANCHOR1)
 518:lib/fatfs/src/tf_card.c **** 		if (disk_ioctl(drv, MMC_GET_CSD, csd)) break;	/* Get CSD */
 1769              		.loc 1 518 6
 1770 0064 83470400 		lbu	a5,0(s0)
 1771 0068 998B     		andi	a5,a5,6
 1772 006a 639A0712 		bne	a5,zero,.L193
 1773              	.LVL210:
 1774              	.L167:
 474:lib/fatfs/src/tf_card.c **** 
 1775              		.loc 1 474 6
 1776 006e 8544     		li	s1,1
 1777 0070 D1B7     		j	.L165
 1778              	.LVL211:
 1779              	.L163:
 496:lib/fatfs/src/tf_card.c **** 			if (send_cmd(ACMD13, 0) == 0) {	/* Read SD status */
 1780              		.loc 1 496 3 is_stmt 1
 496:lib/fatfs/src/tf_card.c **** 			if (send_cmd(ACMD13, 0) == 0) {	/* Read SD status */
 1781              		.loc 1 496 16 is_stmt 0
 1782 0072 37040000 		lui	s0,%hi(.LANCHOR1)
 1783 0076 13040400 		addi	s0,s0,%lo(.LANCHOR1)
 496:lib/fatfs/src/tf_card.c **** 			if (send_cmd(ACMD13, 0) == 0) {	/* Read SD status */
 1784              		.loc 1 496 6
 1785 007a 83470400 		lbu	a5,0(s0)
 497:lib/fatfs/src/tf_card.c **** 				xchg_spi(0xFF);
 1786              		.loc 1 497 8
 1787 007e 8145     		li	a1,0
 1788              	.LVL212:
 496:lib/fatfs/src/tf_card.c **** 			if (send_cmd(ACMD13, 0) == 0) {	/* Read SD status */
 1789              		.loc 1 496 6
 1790 0080 918B     		andi	a5,a5,4
 1791 0082 E9CB     		beq	a5,zero,.L169
 497:lib/fatfs/src/tf_card.c **** 				xchg_spi(0xFF);
 1792              		.loc 1 497 4 is_stmt 1
 497:lib/fatfs/src/tf_card.c **** 				xchg_spi(0xFF);
 1793              		.loc 1 497 8 is_stmt 0
 1794 0084 1305D008 		li	a0,141
 1795              	.LVL213:
 1796 0088 97000000 		call	send_cmd
 1796      E7800000 
 1797              	.LVL214:
 497:lib/fatfs/src/tf_card.c **** 				xchg_spi(0xFF);
 1798              		.loc 1 497 7
 1799 0090 79FD     		bne	a0,zero,.L167
 498:lib/fatfs/src/tf_card.c **** 				if (rcvr_datablock(csd, 16)) {				/* Read partial block */
 1800              		.loc 1 498 5 is_stmt 1
 1801 0092 1305F00F 		li	a0,255
GAS LISTING C:\Users\Kalle\AppData\Local\Temp\ccyOiGeb.s 			page 49


 1802 0096 97000000 		call	xchg_spi
 1802      E7800000 
 1803              	.LVL215:
 499:lib/fatfs/src/tf_card.c **** 					for (n = 64 - 16; n; n--) xchg_spi(0xFF);	/* Purge trailing data */
 1804              		.loc 1 499 5
 499:lib/fatfs/src/tf_card.c **** 					for (n = 64 - 16; n; n--) xchg_spi(0xFF);	/* Purge trailing data */
 1805              		.loc 1 499 9 is_stmt 0
 1806 009e C145     		li	a1,16
 1807 00a0 0A85     		mv	a0,sp
 1808 00a2 97000000 		call	rcvr_datablock
 1808      E7800000 
 1809              	.LVL216:
 499:lib/fatfs/src/tf_card.c **** 					for (n = 64 - 16; n; n--) xchg_spi(0xFF);	/* Purge trailing data */
 1810              		.loc 1 499 8
 1811 00aa 71D1     		beq	a0,zero,.L167
 1812 00ac 13040003 		li	s0,48
 1813              	.L170:
 1814              	.LVL217:
 500:lib/fatfs/src/tf_card.c **** 					*(DWORD*)buff = 16UL << (csd[10] >> 4);
 1815              		.loc 1 500 32 is_stmt 1 discriminator 3
 1816 00b0 7D14     		addi	s0,s0,-1
 1817              	.LVL218:
 1818 00b2 1305F00F 		li	a0,255
 1819 00b6 1374F40F 		andi	s0,s0,0xff
 1820 00ba 97000000 		call	xchg_spi
 1820      E7800000 
 1821              	.LVL219:
 500:lib/fatfs/src/tf_card.c **** 					*(DWORD*)buff = 16UL << (csd[10] >> 4);
 1822              		.loc 1 500 6 is_stmt 0 discriminator 3
 1823 00c2 7DF4     		bne	s0,zero,.L170
 501:lib/fatfs/src/tf_card.c **** 					res = RES_OK;
 1824              		.loc 1 501 6 is_stmt 1
 501:lib/fatfs/src/tf_card.c **** 					res = RES_OK;
 1825              		.loc 1 501 39 is_stmt 0
 1826 00c4 8347A100 		lbu	a5,10(sp)
 502:lib/fatfs/src/tf_card.c **** 				}
 1827              		.loc 1 502 10
 1828 00c8 8144     		li	s1,0
 501:lib/fatfs/src/tf_card.c **** 					res = RES_OK;
 1829              		.loc 1 501 39
 1830 00ca 13D74700 		srli	a4,a5,4
 501:lib/fatfs/src/tf_card.c **** 					res = RES_OK;
 1831              		.loc 1 501 27
 1832 00ce C147     		li	a5,16
 1833 00d0 B397E700 		sll	a5,a5,a4
 501:lib/fatfs/src/tf_card.c **** 					res = RES_OK;
 1834              		.loc 1 501 20
 1835 00d4 2320F900 		sw	a5,0(s2)
 502:lib/fatfs/src/tf_card.c **** 				}
 1836              		.loc 1 502 6 is_stmt 1
 1837              	.LVL220:
 1838 00d8 B1BF     		j	.L165
 1839              	.LVL221:
 1840              	.L162:
 478:lib/fatfs/src/tf_card.c **** 		break;
 1841              		.loc 1 478 3
 478:lib/fatfs/src/tf_card.c **** 		break;
GAS LISTING C:\Users\Kalle\AppData\Local\Temp\ccyOiGeb.s 			page 50


 1842              		.loc 1 478 7 is_stmt 0
 1843 00da 97000000 		call	_select
 1843      E7800000 
 1844              	.LVL222:
 478:lib/fatfs/src/tf_card.c **** 		break;
 1845              		.loc 1 478 6
 1846 00e2 93341500 		seqz	s1,a0
 1847 00e6 B9B7     		j	.L165
 1848              	.LVL223:
 1849              	.L161:
 482:lib/fatfs/src/tf_card.c **** 			if ((csd[0] >> 6) == 1) {	/* SDC ver 2.00 */
 1850              		.loc 1 482 3 is_stmt 1
 482:lib/fatfs/src/tf_card.c **** 			if ((csd[0] >> 6) == 1) {	/* SDC ver 2.00 */
 1851              		.loc 1 482 8 is_stmt 0
 1852 00e8 8145     		li	a1,0
 1853              	.LVL224:
 1854 00ea 2545     		li	a0,9
 1855              	.LVL225:
 1856 00ec 97000000 		call	send_cmd
 1856      E7800000 
 1857              	.LVL226:
 482:lib/fatfs/src/tf_card.c **** 			if ((csd[0] >> 6) == 1) {	/* SDC ver 2.00 */
 1858              		.loc 1 482 6
 1859 00f4 2DFD     		bne	a0,zero,.L167
 482:lib/fatfs/src/tf_card.c **** 			if ((csd[0] >> 6) == 1) {	/* SDC ver 2.00 */
 1860              		.loc 1 482 35 discriminator 1
 1861 00f6 C145     		li	a1,16
 1862 00f8 0A85     		mv	a0,sp
 1863 00fa 97000000 		call	rcvr_datablock
 1863      E7800000 
 1864              	.LVL227:
 482:lib/fatfs/src/tf_card.c **** 			if ((csd[0] >> 6) == 1) {	/* SDC ver 2.00 */
 1865              		.loc 1 482 32 discriminator 1
 1866 0102 35D5     		beq	a0,zero,.L167
 483:lib/fatfs/src/tf_card.c **** 				csize = csd[9] + ((WORD)csd[8] << 8) + ((DWORD)(csd[7] & 63) << 16) + 1;
 1867              		.loc 1 483 4 is_stmt 1
 483:lib/fatfs/src/tf_card.c **** 				csize = csd[9] + ((WORD)csd[8] << 8) + ((DWORD)(csd[7] & 63) << 16) + 1;
 1868              		.loc 1 483 22 is_stmt 0
 1869 0104 83470100 		lbu	a5,0(sp)
 483:lib/fatfs/src/tf_card.c **** 				csize = csd[9] + ((WORD)csd[8] << 8) + ((DWORD)(csd[7] & 63) << 16) + 1;
 1870              		.loc 1 483 7
 1871 0108 9983     		srli	a5,a5,6
 1872 010a 638A8710 		beq	a5,s0,.L194
 487:lib/fatfs/src/tf_card.c **** 				csize = (csd[8] >> 6) + ((WORD)csd[7] << 2) + ((WORD)(csd[6] & 3) << 10) + 1;
 1873              		.loc 1 487 5 is_stmt 1
 1874              	.LVL228:
 488:lib/fatfs/src/tf_card.c **** 				*(DWORD*)buff = csize << (n - 9);
 1875              		.loc 1 488 5
 489:lib/fatfs/src/tf_card.c **** 			}
 1876              		.loc 1 489 5
 488:lib/fatfs/src/tf_card.c **** 				*(DWORD*)buff = csize << (n - 9);
 1877              		.loc 1 488 21 is_stmt 0
 1878 010e 83478100 		lbu	a5,8(sp)
 488:lib/fatfs/src/tf_card.c **** 				*(DWORD*)buff = csize << (n - 9);
 1879              		.loc 1 488 30
 1880 0112 03457100 		lbu	a0,7(sp)
 1881              	.LVL229:
GAS LISTING C:\Users\Kalle\AppData\Local\Temp\ccyOiGeb.s 			page 51


 488:lib/fatfs/src/tf_card.c **** 				*(DWORD*)buff = csize << (n - 9);
 1882              		.loc 1 488 52
 1883 0116 03466100 		lbu	a2,6(sp)
 487:lib/fatfs/src/tf_card.c **** 				csize = (csd[8] >> 6) + ((WORD)csd[7] << 2) + ((WORD)(csd[6] & 3) << 10) + 1;
 1884              		.loc 1 487 17
 1885 011a 03475100 		lbu	a4,5(sp)
 487:lib/fatfs/src/tf_card.c **** 				csize = (csd[8] >> 6) + ((WORD)csd[7] << 2) + ((WORD)(csd[6] & 3) << 10) + 1;
 1886              		.loc 1 487 42
 1887 011e 8345A100 		lbu	a1,10(sp)
 487:lib/fatfs/src/tf_card.c **** 				csize = (csd[8] >> 6) + ((WORD)csd[7] << 2) + ((WORD)(csd[6] & 3) << 10) + 1;
 1888              		.loc 1 487 64
 1889 0122 83469100 		lbu	a3,9(sp)
 488:lib/fatfs/src/tf_card.c **** 				*(DWORD*)buff = csize << (n - 9);
 1890              		.loc 1 488 43
 1891 0126 0A05     		slli	a0,a0,2
 1892              	.LVL230:
 488:lib/fatfs/src/tf_card.c **** 				*(DWORD*)buff = csize << (n - 9);
 1893              		.loc 1 488 21
 1894 0128 9983     		srli	a5,a5,6
 488:lib/fatfs/src/tf_card.c **** 				*(DWORD*)buff = csize << (n - 9);
 1895              		.loc 1 488 27
 1896 012a AA97     		add	a5,a5,a0
 488:lib/fatfs/src/tf_card.c **** 				*(DWORD*)buff = csize << (n - 9);
 1897              		.loc 1 488 71
 1898 012c 0565     		li	a0,4096
 1899 012e 2A06     		slli	a2,a2,10
 1900              	.LVL231:
 487:lib/fatfs/src/tf_card.c **** 				csize = (csd[8] >> 6) + ((WORD)csd[7] << 2) + ((WORD)(csd[6] & 3) << 10) + 1;
 1901              		.loc 1 487 17
 1902 0130 3D8B     		andi	a4,a4,15
 487:lib/fatfs/src/tf_card.c **** 				csize = (csd[8] >> 6) + ((WORD)csd[7] << 2) + ((WORD)(csd[6] & 3) << 10) + 1;
 1903              		.loc 1 487 42
 1904 0132 9D81     		srli	a1,a1,7
 487:lib/fatfs/src/tf_card.c **** 				csize = (csd[8] >> 6) + ((WORD)csd[7] << 2) + ((WORD)(csd[6] & 3) << 10) + 1;
 1905              		.loc 1 487 64
 1906 0134 8606     		slli	a3,a3,1
 488:lib/fatfs/src/tf_card.c **** 				*(DWORD*)buff = csize << (n - 9);
 1907              		.loc 1 488 71
 1908 0136 130505C0 		addi	a0,a0,-1024
 1909 013a 698E     		and	a2,a2,a0
 1910              	.LVL232:
 487:lib/fatfs/src/tf_card.c **** 				csize = (csd[8] >> 6) + ((WORD)csd[7] << 2) + ((WORD)(csd[6] & 3) << 10) + 1;
 1911              		.loc 1 487 23
 1912 013c 2E97     		add	a4,a4,a1
 487:lib/fatfs/src/tf_card.c **** 				csize = (csd[8] >> 6) + ((WORD)csd[7] << 2) + ((WORD)(csd[6] & 3) << 10) + 1;
 1913              		.loc 1 487 64
 1914 013e 998A     		andi	a3,a3,6
 488:lib/fatfs/src/tf_card.c **** 				*(DWORD*)buff = csize << (n - 9);
 1915              		.loc 1 488 49
 1916 0140 B297     		add	a5,a5,a2
 489:lib/fatfs/src/tf_card.c **** 			}
 1917              		.loc 1 489 33
 1918 0142 3697     		add	a4,a4,a3
 488:lib/fatfs/src/tf_card.c **** 				*(DWORD*)buff = csize << (n - 9);
 1919              		.loc 1 488 78
 1920 0144 8507     		addi	a5,a5,1
 489:lib/fatfs/src/tf_card.c **** 			}
GAS LISTING C:\Users\Kalle\AppData\Local\Temp\ccyOiGeb.s 			page 52


 1921              		.loc 1 489 33
 1922 0146 6517     		addi	a4,a4,-7
 489:lib/fatfs/src/tf_card.c **** 			}
 1923              		.loc 1 489 27
 1924 0148 B397E700 		sll	a5,a5,a4
 489:lib/fatfs/src/tf_card.c **** 			}
 1925              		.loc 1 489 19
 1926 014c 2320F900 		sw	a5,0(s2)
 491:lib/fatfs/src/tf_card.c **** 		}
 1927              		.loc 1 491 8
 1928 0150 8144     		li	s1,0
 1929 0152 CDB5     		j	.L165
 1930              	.LVL233:
 1931              	.L169:
 506:lib/fatfs/src/tf_card.c **** 				if (CardType & CT_SD1) {	/* SDC ver 1.XX */
 1932              		.loc 1 506 4 is_stmt 1
 506:lib/fatfs/src/tf_card.c **** 				if (CardType & CT_SD1) {	/* SDC ver 1.XX */
 1933              		.loc 1 506 9 is_stmt 0
 1934 0154 2545     		li	a0,9
 1935              	.LVL234:
 1936 0156 97000000 		call	send_cmd
 1936      E7800000 
 1937              	.LVL235:
 506:lib/fatfs/src/tf_card.c **** 				if (CardType & CT_SD1) {	/* SDC ver 1.XX */
 1938              		.loc 1 506 7
 1939 015e 01F9     		bne	a0,zero,.L167
 506:lib/fatfs/src/tf_card.c **** 				if (CardType & CT_SD1) {	/* SDC ver 1.XX */
 1940              		.loc 1 506 36 discriminator 1
 1941 0160 C145     		li	a1,16
 1942 0162 0A85     		mv	a0,sp
 1943 0164 97000000 		call	rcvr_datablock
 1943      E7800000 
 1944              	.LVL236:
 506:lib/fatfs/src/tf_card.c **** 				if (CardType & CT_SD1) {	/* SDC ver 1.XX */
 1945              		.loc 1 506 33 discriminator 1
 1946 016c 09D1     		beq	a0,zero,.L167
 507:lib/fatfs/src/tf_card.c **** 					*(DWORD*)buff = (((csd[10] & 63) << 1) + ((WORD)(csd[11] & 128) >> 7) + 1) << ((csd[13] >> 6) 
 1947              		.loc 1 507 5 is_stmt 1
 507:lib/fatfs/src/tf_card.c **** 					*(DWORD*)buff = (((csd[10] & 63) << 1) + ((WORD)(csd[11] & 128) >> 7) + 1) << ((csd[13] >> 6) 
 1948              		.loc 1 507 8 is_stmt 0
 1949 016e 03470400 		lbu	a4,0(s0)
 1950 0172 8347A100 		lbu	a5,10(sp)
 1951 0176 8346B100 		lbu	a3,11(sp)
 1952 017a 098B     		andi	a4,a4,2
 1953 017c 61C7     		beq	a4,zero,.L171
 508:lib/fatfs/src/tf_card.c **** 				} else {					/* MMC */
 1954              		.loc 1 508 6 is_stmt 1
 508:lib/fatfs/src/tf_card.c **** 				} else {					/* MMC */
 1955              		.loc 1 508 94 is_stmt 0
 1956 017e 0347D100 		lbu	a4,13(sp)
 508:lib/fatfs/src/tf_card.c **** 				} else {					/* MMC */
 1957              		.loc 1 508 39
 1958 0182 8607     		slli	a5,a5,1
 1959 0184 93F7E707 		andi	a5,a5,126
 508:lib/fatfs/src/tf_card.c **** 				} else {					/* MMC */
 1960              		.loc 1 508 70
 1961 0188 9D82     		srli	a3,a3,7
GAS LISTING C:\Users\Kalle\AppData\Local\Temp\ccyOiGeb.s 			page 53


 508:lib/fatfs/src/tf_card.c **** 				} else {					/* MMC */
 1962              		.loc 1 508 45
 1963 018a B697     		add	a5,a5,a3
 508:lib/fatfs/src/tf_card.c **** 				} else {					/* MMC */
 1964              		.loc 1 508 94
 1965 018c 1983     		srli	a4,a4,6
 508:lib/fatfs/src/tf_card.c **** 				} else {					/* MMC */
 1966              		.loc 1 508 76
 1967 018e 8507     		addi	a5,a5,1
 508:lib/fatfs/src/tf_card.c **** 				} else {					/* MMC */
 1968              		.loc 1 508 100
 1969 0190 7D17     		addi	a4,a4,-1
 508:lib/fatfs/src/tf_card.c **** 				} else {					/* MMC */
 1970              		.loc 1 508 81
 1971 0192 B397E700 		sll	a5,a5,a4
 508:lib/fatfs/src/tf_card.c **** 				} else {					/* MMC */
 1972              		.loc 1 508 20
 1973 0196 2320F900 		sw	a5,0(s2)
 512:lib/fatfs/src/tf_card.c **** 			}
 1974              		.loc 1 512 9
 1975 019a 8144     		li	s1,0
 1976 019c 61BD     		j	.L165
 1977              	.LVL237:
 1978              	.L193:
 519:lib/fatfs/src/tf_card.c **** 		if (!(csd[0] >> 6) && !(csd[10] & 0x40)) break;	/* Check if sector erase can be applied to the ca
 1979              		.loc 1 519 3 is_stmt 1
 519:lib/fatfs/src/tf_card.c **** 		if (!(csd[0] >> 6) && !(csd[10] & 0x40)) break;	/* Check if sector erase can be applied to the ca
 1980              		.loc 1 519 7 is_stmt 0
 1981 019e 0A86     		mv	a2,sp
 1982              	.LVL238:
 1983 01a0 AD45     		li	a1,11
 1984              	.LVL239:
 1985 01a2 97000000 		call	disk_ioctl
 1985      E7800000 
 1986              	.LVL240:
 519:lib/fatfs/src/tf_card.c **** 		if (!(csd[0] >> 6) && !(csd[10] & 0x40)) break;	/* Check if sector erase can be applied to the ca
 1987              		.loc 1 519 6
 1988 01aa E31205EC 		bne	a0,zero,.L167
 520:lib/fatfs/src/tf_card.c **** 		dp = buff; st = dp[0]; ed = dp[1];				/* Load sector block */
 1989              		.loc 1 520 3 is_stmt 1
 520:lib/fatfs/src/tf_card.c **** 		dp = buff; st = dp[0]; ed = dp[1];				/* Load sector block */
 1990              		.loc 1 520 7 is_stmt 0
 1991 01ae 83470100 		lbu	a5,0(sp)
 520:lib/fatfs/src/tf_card.c **** 		dp = buff; st = dp[0]; ed = dp[1];				/* Load sector block */
 1992              		.loc 1 520 22
 1993 01b2 0347A100 		lbu	a4,10(sp)
 520:lib/fatfs/src/tf_card.c **** 		dp = buff; st = dp[0]; ed = dp[1];				/* Load sector block */
 1994              		.loc 1 520 7
 1995 01b6 9983     		srli	a5,a5,6
 520:lib/fatfs/src/tf_card.c **** 		dp = buff; st = dp[0]; ed = dp[1];				/* Load sector block */
 1996              		.loc 1 520 22
 1997 01b8 13770704 		andi	a4,a4,64
 1998 01bc D98F     		or	a5,a5,a4
 1999 01be E38807EA 		beq	a5,zero,.L167
 521:lib/fatfs/src/tf_card.c **** 		if (!(CardType & CT_BLOCK)) {
 2000              		.loc 1 521 3 is_stmt 1
 2001              	.LVL241:
GAS LISTING C:\Users\Kalle\AppData\Local\Temp\ccyOiGeb.s 			page 54


 521:lib/fatfs/src/tf_card.c **** 		if (!(CardType & CT_BLOCK)) {
 2002              		.loc 1 521 14
 522:lib/fatfs/src/tf_card.c **** 			st *= 512; ed *= 512;
 2003              		.loc 1 522 6 is_stmt 0
 2004 01c2 83470400 		lbu	a5,0(s0)
 521:lib/fatfs/src/tf_card.c **** 		if (!(CardType & CT_BLOCK)) {
 2005              		.loc 1 521 17
 2006 01c6 83250900 		lw	a1,0(s2)
 2007              	.LVL242:
 521:lib/fatfs/src/tf_card.c **** 		if (!(CardType & CT_BLOCK)) {
 2008              		.loc 1 521 26 is_stmt 1
 521:lib/fatfs/src/tf_card.c **** 		if (!(CardType & CT_BLOCK)) {
 2009              		.loc 1 521 29 is_stmt 0
 2010 01ca 03244900 		lw	s0,4(s2)
 2011              	.LVL243:
 522:lib/fatfs/src/tf_card.c **** 			st *= 512; ed *= 512;
 2012              		.loc 1 522 3 is_stmt 1
 522:lib/fatfs/src/tf_card.c **** 			st *= 512; ed *= 512;
 2013              		.loc 1 522 6 is_stmt 0
 2014 01ce A18B     		andi	a5,a5,8
 2015 01d0 99E3     		bne	a5,zero,.L172
 523:lib/fatfs/src/tf_card.c **** 		}
 2016              		.loc 1 523 4 is_stmt 1
 523:lib/fatfs/src/tf_card.c **** 		}
 2017              		.loc 1 523 7 is_stmt 0
 2018 01d2 A605     		slli	a1,a1,9
 2019              	.LVL244:
 523:lib/fatfs/src/tf_card.c **** 		}
 2020              		.loc 1 523 15 is_stmt 1
 523:lib/fatfs/src/tf_card.c **** 		}
 2021              		.loc 1 523 18 is_stmt 0
 2022 01d4 2604     		slli	s0,s0,9
 2023              	.LVL245:
 2024              	.L172:
 525:lib/fatfs/src/tf_card.c **** 			res = RES_OK;	/* FatFs does not check result of this command */
 2025              		.loc 1 525 3 is_stmt 1
 525:lib/fatfs/src/tf_card.c **** 			res = RES_OK;	/* FatFs does not check result of this command */
 2026              		.loc 1 525 7 is_stmt 0
 2027 01d6 13050002 		li	a0,32
 2028 01da 97000000 		call	send_cmd
 2028      E7800000 
 2029              	.LVL246:
 525:lib/fatfs/src/tf_card.c **** 			res = RES_OK;	/* FatFs does not check result of this command */
 2030              		.loc 1 525 6
 2031 01e2 E31605E8 		bne	a0,zero,.L167
 525:lib/fatfs/src/tf_card.c **** 			res = RES_OK;	/* FatFs does not check result of this command */
 2032              		.loc 1 525 35 discriminator 1
 2033 01e6 A285     		mv	a1,s0
 2034 01e8 13051002 		li	a0,33
 2035 01ec 97000000 		call	send_cmd
 2035      E7800000 
 2036              	.LVL247:
 525:lib/fatfs/src/tf_card.c **** 			res = RES_OK;	/* FatFs does not check result of this command */
 2037              		.loc 1 525 32 discriminator 1
 2038 01f4 E31D05E6 		bne	a0,zero,.L167
 525:lib/fatfs/src/tf_card.c **** 			res = RES_OK;	/* FatFs does not check result of this command */
 2039              		.loc 1 525 63 discriminator 2
GAS LISTING C:\Users\Kalle\AppData\Local\Temp\ccyOiGeb.s 			page 55


 2040 01f8 8145     		li	a1,0
 2041 01fa 13056002 		li	a0,38
 2042 01fe 97000000 		call	send_cmd
 2042      E7800000 
 2043              	.LVL248:
 525:lib/fatfs/src/tf_card.c **** 			res = RES_OK;	/* FatFs does not check result of this command */
 2044              		.loc 1 525 60 discriminator 2
 2045 0206 E31405E6 		bne	a0,zero,.L167
 525:lib/fatfs/src/tf_card.c **** 			res = RES_OK;	/* FatFs does not check result of this command */
 2046              		.loc 1 525 90 discriminator 3
 2047 020a 1D65     		li	a0,28672
 2048 020c 13050553 		addi	a0,a0,1328
 2049 0210 97000000 		call	wait_ready
 2049      E7800000 
 2050              	.LVL249:
 525:lib/fatfs/src/tf_card.c **** 			res = RES_OK;	/* FatFs does not check result of this command */
 2051              		.loc 1 525 87 discriminator 3
 2052 0218 93341500 		seqz	s1,a0
 2053 021c 21BD     		j	.L165
 2054              	.LVL250:
 2055              	.L194:
 484:lib/fatfs/src/tf_card.c **** 				*(DWORD*)buff = csize << 10;
 2056              		.loc 1 484 5 is_stmt 1
 485:lib/fatfs/src/tf_card.c **** 			} else {					/* SDC ver 1.XX or MMC ver 3 */
 2057              		.loc 1 485 5
 484:lib/fatfs/src/tf_card.c **** 				*(DWORD*)buff = csize << 10;
 2058              		.loc 1 484 60 is_stmt 0
 2059 021e 03477100 		lbu	a4,7(sp)
 484:lib/fatfs/src/tf_card.c **** 				*(DWORD*)buff = csize << 10;
 2060              		.loc 1 484 23
 2061 0222 83478100 		lbu	a5,8(sp)
 2062              	.LVL251:
 484:lib/fatfs/src/tf_card.c **** 				*(DWORD*)buff = csize << 10;
 2063              		.loc 1 484 16
 2064 0226 83469100 		lbu	a3,9(sp)
 484:lib/fatfs/src/tf_card.c **** 				*(DWORD*)buff = csize << 10;
 2065              		.loc 1 484 66
 2066 022a 4207     		slli	a4,a4,16
 2067              	.LVL252:
 2068 022c 37063F00 		li	a2,4128768
 484:lib/fatfs/src/tf_card.c **** 				*(DWORD*)buff = csize << 10;
 2069              		.loc 1 484 36
 2070 0230 A207     		slli	a5,a5,8
 2071              	.LVL253:
 484:lib/fatfs/src/tf_card.c **** 				*(DWORD*)buff = csize << 10;
 2072              		.loc 1 484 66
 2073 0232 718F     		and	a4,a4,a2
 2074              	.LVL254:
 484:lib/fatfs/src/tf_card.c **** 				*(DWORD*)buff = csize << 10;
 2075              		.loc 1 484 20
 2076 0234 B697     		add	a5,a5,a3
 484:lib/fatfs/src/tf_card.c **** 				*(DWORD*)buff = csize << 10;
 2077              		.loc 1 484 11
 2078 0236 0507     		addi	a4,a4,1
 2079 0238 BA97     		add	a5,a5,a4
 485:lib/fatfs/src/tf_card.c **** 			} else {					/* SDC ver 1.XX or MMC ver 3 */
 2080              		.loc 1 485 27
GAS LISTING C:\Users\Kalle\AppData\Local\Temp\ccyOiGeb.s 			page 56


 2081 023a AA07     		slli	a5,a5,10
 485:lib/fatfs/src/tf_card.c **** 			} else {					/* SDC ver 1.XX or MMC ver 3 */
 2082              		.loc 1 485 19
 2083 023c 2320F900 		sw	a5,0(s2)
 491:lib/fatfs/src/tf_card.c **** 		}
 2084              		.loc 1 491 8
 2085 0240 8144     		li	s1,0
 2086 0242 CDBB     		j	.L165
 2087              	.LVL255:
 2088              	.L171:
 510:lib/fatfs/src/tf_card.c **** 				}
 2089              		.loc 1 510 6 is_stmt 1
 510:lib/fatfs/src/tf_card.c **** 				}
 2090              		.loc 1 510 75 is_stmt 0
 2091 0244 13973600 		slli	a4,a3,3
 2092 0248 618B     		andi	a4,a4,24
 510:lib/fatfs/src/tf_card.c **** 				}
 2093              		.loc 1 510 100
 2094 024a 9582     		srli	a3,a3,5
 510:lib/fatfs/src/tf_card.c **** 				}
 2095              		.loc 1 510 46
 2096 024c 8987     		srai	a5,a5,2
 510:lib/fatfs/src/tf_card.c **** 				}
 2097              		.loc 1 510 81
 2098 024e 3697     		add	a4,a4,a3
 510:lib/fatfs/src/tf_card.c **** 				}
 2099              		.loc 1 510 23
 2100 0250 FD8B     		andi	a5,a5,31
 510:lib/fatfs/src/tf_card.c **** 				}
 2101              		.loc 1 510 106
 2102 0252 0507     		addi	a4,a4,1
 510:lib/fatfs/src/tf_card.c **** 				}
 2103              		.loc 1 510 52
 2104 0254 8507     		addi	a5,a5,1
 510:lib/fatfs/src/tf_card.c **** 				}
 2105              		.loc 1 510 57
 2106 0256 B307F702 		mul	a5,a4,a5
 512:lib/fatfs/src/tf_card.c **** 			}
 2107              		.loc 1 512 9
 2108 025a 8144     		li	s1,0
 510:lib/fatfs/src/tf_card.c **** 				}
 2109              		.loc 1 510 20
 2110 025c 2320F900 		sw	a5,0(s2)
 2111 0260 D1BB     		j	.L165
 2112              		.cfi_endproc
 2113              	.LFE19:
 2115              		.section	.rodata.wait_ready.cst8,"aM",@progbits,8
 2116              		.align	3
 2117              	.LC0:
 2118 0000 00000000 		.word	0
 2119 0004 0040AF40 		.word	1085227008
 2120              		.section	.sbss.CardType,"aw",@nobits
 2121              		.set	.LANCHOR1,. + 0
 2124              	CardType:
 2125 0000 00       		.zero	1
 2126              		.section	.sbss.delay_timer1,"aw",@nobits
 2127              		.align	2
GAS LISTING C:\Users\Kalle\AppData\Local\Temp\ccyOiGeb.s 			page 57


 2130              	delay_timer1:
 2131 0000 00000000 		.zero	4
 2132              		.section	.sbss.delay_timer2,"aw",@nobits
 2133              		.align	2
 2136              	delay_timer2:
 2137 0000 00000000 		.zero	4
 2138              		.section	.sdata.Stat,"aw"
 2139              		.set	.LANCHOR0,. + 0
 2142              	Stat:
 2143 0000 01       		.byte	1
 2144              		.text
 2145              	.Letext0:
 2146              		.file 2 "c:\\idrotttek-kurs\\toolchain-gd32v-win\\compiler\\riscv64-unknown-elf\\include\\machine\
 2147              		.file 3 "c:\\idrotttek-kurs\\toolchain-gd32v-win\\compiler\\riscv64-unknown-elf\\include\\sys\\_st
 2148              		.file 4 "../../firmware/GD32VF103_standard_peripheral/gd32vf103.h"
 2149              		.file 5 "../../firmware/GD32VF103_standard_peripheral/Include/gd32vf103_rcu.h"
 2150              		.file 6 "../../firmware/GD32VF103_standard_peripheral/Include/gd32vf103_spi.h"
 2151              		.file 7 "c:\\idrotttek-kurs\\toolchain-gd32v-win\\compiler\\lib\\gcc\\riscv64-unknown-elf\\8.3.0\\
 2152              		.file 8 "c:\\idrotttek-kurs\\toolchain-gd32v-win\\compiler\\riscv64-unknown-elf\\include\\sys\\_ty
 2153              		.file 9 "c:\\idrotttek-kurs\\toolchain-gd32v-win\\compiler\\riscv64-unknown-elf\\include\\sys\\ree
 2154              		.file 10 "c:\\idrotttek-kurs\\toolchain-gd32v-win\\compiler\\riscv64-unknown-elf\\include\\sys\\lo
 2155              		.file 11 "../../firmware/GD32VF103_standard_peripheral/system_gd32vf103.h"
 2156              		.file 12 "lib/fatfs/include/ff.h"
 2157              		.file 13 "lib/fatfs/include/diskio.h"
 2158              		.file 14 "../../firmware/GD32VF103_standard_peripheral/Include/gd32vf103_gpio.h"
 2159              		.file 15 "lib/delay/include/delay.h"
 2160              		.file 16 "lib/fatfs/include/tf_delay.h"
 2161              		.file 17 "../../firmware/RISCV/drivers/n200_func.h"
GAS LISTING C:\Users\Kalle\AppData\Local\Temp\ccyOiGeb.s 			page 58


DEFINED SYMBOLS
                            *ABS*:0000000000000000 tf_card.c
C:\Users\Kalle\AppData\Local\Temp\ccyOiGeb.s:12     .text.xchg_spi:0000000000000000 xchg_spi
C:\Users\Kalle\AppData\Local\Temp\ccyOiGeb.s:16     .text.xchg_spi:0000000000000000 .L0 
C:\Users\Kalle\AppData\Local\Temp\ccyOiGeb.s:18     .text.xchg_spi:0000000000000000 .L0 
C:\Users\Kalle\AppData\Local\Temp\ccyOiGeb.s:19     .text.xchg_spi:0000000000000000 .L0 
C:\Users\Kalle\AppData\Local\Temp\ccyOiGeb.s:20     .text.xchg_spi:0000000000000000 .L0 
C:\Users\Kalle\AppData\Local\Temp\ccyOiGeb.s:22     .text.xchg_spi:0000000000000002 .L0 
C:\Users\Kalle\AppData\Local\Temp\ccyOiGeb.s:24     .text.xchg_spi:0000000000000004 .L0 
C:\Users\Kalle\AppData\Local\Temp\ccyOiGeb.s:26     .text.xchg_spi:0000000000000004 .L0 
C:\Users\Kalle\AppData\Local\Temp\ccyOiGeb.s:28     .text.xchg_spi:0000000000000008 .L0 
C:\Users\Kalle\AppData\Local\Temp\ccyOiGeb.s:31     .text.xchg_spi:000000000000000e .L0 
C:\Users\Kalle\AppData\Local\Temp\ccyOiGeb.s:32     .text.xchg_spi:000000000000000e .L0 
C:\Users\Kalle\AppData\Local\Temp\ccyOiGeb.s:33     .text.xchg_spi:000000000000000e .L0 
C:\Users\Kalle\AppData\Local\Temp\ccyOiGeb.s:35     .text.xchg_spi:000000000000000e .L0 
C:\Users\Kalle\AppData\Local\Temp\ccyOiGeb.s:37     .text.xchg_spi:0000000000000010 .L0 
C:\Users\Kalle\AppData\Local\Temp\ccyOiGeb.s:41     .text.xchg_spi:0000000000000014 .L0 
C:\Users\Kalle\AppData\Local\Temp\ccyOiGeb.s:42     .text.xchg_spi:0000000000000014 .L0 
C:\Users\Kalle\AppData\Local\Temp\ccyOiGeb.s:47     .text.xchg_spi:0000000000000020 .L0 
C:\Users\Kalle\AppData\Local\Temp\ccyOiGeb.s:49     .text.xchg_spi:0000000000000022 .L0 
C:\Users\Kalle\AppData\Local\Temp\ccyOiGeb.s:52     .text.xchg_spi:0000000000000028 .L0 
C:\Users\Kalle\AppData\Local\Temp\ccyOiGeb.s:54     .text.xchg_spi:000000000000002c .L0 
C:\Users\Kalle\AppData\Local\Temp\ccyOiGeb.s:57     .text.xchg_spi:0000000000000034 .L0 
C:\Users\Kalle\AppData\Local\Temp\ccyOiGeb.s:58     .text.xchg_spi:0000000000000034 .L0 
C:\Users\Kalle\AppData\Local\Temp\ccyOiGeb.s:61     .text.xchg_spi:0000000000000038 .L0 
C:\Users\Kalle\AppData\Local\Temp\ccyOiGeb.s:62     .text.xchg_spi:0000000000000038 .L0 
C:\Users\Kalle\AppData\Local\Temp\ccyOiGeb.s:67     .text.xchg_spi:0000000000000044 .L0 
C:\Users\Kalle\AppData\Local\Temp\ccyOiGeb.s:69     .text.xchg_spi:0000000000000046 .L0 
C:\Users\Kalle\AppData\Local\Temp\ccyOiGeb.s:70     .text.xchg_spi:0000000000000046 .L0 
C:\Users\Kalle\AppData\Local\Temp\ccyOiGeb.s:74     .text.xchg_spi:0000000000000052 .L0 
C:\Users\Kalle\AppData\Local\Temp\ccyOiGeb.s:75     .text.xchg_spi:0000000000000054 .L0 
C:\Users\Kalle\AppData\Local\Temp\ccyOiGeb.s:77     .text.xchg_spi:0000000000000056 .L0 
C:\Users\Kalle\AppData\Local\Temp\ccyOiGeb.s:79     .text.xchg_spi:0000000000000058 .L0 
C:\Users\Kalle\AppData\Local\Temp\ccyOiGeb.s:81     .text.xchg_spi:000000000000005a .L0 
C:\Users\Kalle\AppData\Local\Temp\ccyOiGeb.s:85     .text.xchg_spi:0000000000000060 .L0 
C:\Users\Kalle\AppData\Local\Temp\ccyOiGeb.s:87     .text.xchg_spi:0000000000000062 .L0 
C:\Users\Kalle\AppData\Local\Temp\ccyOiGeb.s:98     .text.wait_ready:0000000000000000 wait_ready
C:\Users\Kalle\AppData\Local\Temp\ccyOiGeb.s:101    .text.wait_ready:0000000000000000 .L0 
C:\Users\Kalle\AppData\Local\Temp\ccyOiGeb.s:103    .text.wait_ready:0000000000000000 .L0 
C:\Users\Kalle\AppData\Local\Temp\ccyOiGeb.s:104    .text.wait_ready:0000000000000000 .L0 
C:\Users\Kalle\AppData\Local\Temp\ccyOiGeb.s:105    .text.wait_ready:0000000000000000 .L0 
C:\Users\Kalle\AppData\Local\Temp\ccyOiGeb.s:106    .text.wait_ready:0000000000000000 .L0 
C:\Users\Kalle\AppData\Local\Temp\ccyOiGeb.s:107    .text.wait_ready:0000000000000000 .L0 
C:\Users\Kalle\AppData\Local\Temp\ccyOiGeb.s:109    .text.wait_ready:0000000000000002 .L0 
C:\Users\Kalle\AppData\Local\Temp\ccyOiGeb.s:121    .text.wait_ready:0000000000000018 .L0 
C:\Users\Kalle\AppData\Local\Temp\ccyOiGeb.s:122    .text.wait_ready:0000000000000018 .L0 
C:\Users\Kalle\AppData\Local\Temp\ccyOiGeb.s:123    .text.wait_ready:0000000000000018 .L0 
C:\Users\Kalle\AppData\Local\Temp\ccyOiGeb.s:124    .text.wait_ready:0000000000000018 .L0 
C:\Users\Kalle\AppData\Local\Temp\ccyOiGeb.s:125    .text.wait_ready:0000000000000018 .L0 
C:\Users\Kalle\AppData\Local\Temp\ccyOiGeb.s:126    .text.wait_ready:0000000000000018 .L0 
C:\Users\Kalle\AppData\Local\Temp\ccyOiGeb.s:127    .text.wait_ready:0000000000000018 .L0 
C:\Users\Kalle\AppData\Local\Temp\ccyOiGeb.s:128    .text.wait_ready:0000000000000018 .L0 
C:\Users\Kalle\AppData\Local\Temp\ccyOiGeb.s:129    .text.wait_ready:0000000000000018 .L0 
C:\Users\Kalle\AppData\Local\Temp\ccyOiGeb.s:130    .text.wait_ready:0000000000000018 .L0 
C:\Users\Kalle\AppData\Local\Temp\ccyOiGeb.s:131    .text.wait_ready:0000000000000018 .L0 
C:\Users\Kalle\AppData\Local\Temp\ccyOiGeb.s:133    .text.wait_ready:0000000000000018 .L0 
C:\Users\Kalle\AppData\Local\Temp\ccyOiGeb.s:135    .text.wait_ready:000000000000001a .L0 
GAS LISTING C:\Users\Kalle\AppData\Local\Temp\ccyOiGeb.s 			page 59


C:\Users\Kalle\AppData\Local\Temp\ccyOiGeb.s:138    .text.wait_ready:0000000000000022 .L0 
C:\Users\Kalle\AppData\Local\Temp\ccyOiGeb.s:140    .text.wait_ready:0000000000000026 .L0 
C:\Users\Kalle\AppData\Local\Temp\ccyOiGeb.s:144    .text.wait_ready:000000000000002a .L0 
C:\Users\Kalle\AppData\Local\Temp\ccyOiGeb.s:151    .text.wait_ready:0000000000000038 .L0 
C:\Users\Kalle\AppData\Local\Temp\ccyOiGeb.s:158    .text.wait_ready:0000000000000044 .L0 
C:\Users\Kalle\AppData\Local\Temp\ccyOiGeb.s:160    .text.wait_ready:0000000000000048 .L0 
C:\Users\Kalle\AppData\Local\Temp\ccyOiGeb.s:162    .text.wait_ready:000000000000004a .L0 
C:\Users\Kalle\AppData\Local\Temp\ccyOiGeb.s:170    .text.wait_ready:0000000000000060 .L0 
C:\Users\Kalle\AppData\Local\Temp\ccyOiGeb.s:172    .text.wait_ready:0000000000000062 .L0 
C:\Users\Kalle\AppData\Local\Temp\ccyOiGeb.s:174    .text.wait_ready:0000000000000064 .L0 
C:\Users\Kalle\AppData\Local\Temp\ccyOiGeb.s:183    .text.wait_ready:000000000000007c .L0 
C:\Users\Kalle\AppData\Local\Temp\ccyOiGeb.s:192    .text.wait_ready:0000000000000090 .L0 
C:\Users\Kalle\AppData\Local\Temp\ccyOiGeb.s:193    .text.wait_ready:0000000000000090 .L0 
C:\Users\Kalle\AppData\Local\Temp\ccyOiGeb.s:194    .text.wait_ready:0000000000000090 .L0 
C:\Users\Kalle\AppData\Local\Temp\ccyOiGeb.s:197    .text.wait_ready:0000000000000098 .L0 
C:\Users\Kalle\AppData\Local\Temp\ccyOiGeb.s:198    .text.wait_ready:0000000000000098 .L0 
C:\Users\Kalle\AppData\Local\Temp\ccyOiGeb.s:203    .text.wait_ready:00000000000000a4 .L0 
C:\Users\Kalle\AppData\Local\Temp\ccyOiGeb.s:205    .text.wait_ready:00000000000000a8 .L0 
C:\Users\Kalle\AppData\Local\Temp\ccyOiGeb.s:208    .text.wait_ready:00000000000000ac .L0 
C:\Users\Kalle\AppData\Local\Temp\ccyOiGeb.s:209    .text.wait_ready:00000000000000ac .L0 
C:\Users\Kalle\AppData\Local\Temp\ccyOiGeb.s:212    .text.wait_ready:00000000000000b4 .L0 
C:\Users\Kalle\AppData\Local\Temp\ccyOiGeb.s:214    .text.wait_ready:00000000000000b8 .L0 
C:\Users\Kalle\AppData\Local\Temp\ccyOiGeb.s:216    .text.wait_ready:00000000000000ba .L0 
C:\Users\Kalle\AppData\Local\Temp\ccyOiGeb.s:221    .text.wait_ready:00000000000000c0 .L0 
C:\Users\Kalle\AppData\Local\Temp\ccyOiGeb.s:222    .text.wait_ready:00000000000000c0 .L0 
C:\Users\Kalle\AppData\Local\Temp\ccyOiGeb.s:223    .text.wait_ready:00000000000000c2 .L0 
C:\Users\Kalle\AppData\Local\Temp\ccyOiGeb.s:224    .text.wait_ready:00000000000000c2 .L0 
C:\Users\Kalle\AppData\Local\Temp\ccyOiGeb.s:226    .text.wait_ready:00000000000000c4 .L0 
C:\Users\Kalle\AppData\Local\Temp\ccyOiGeb.s:228    .text.wait_ready:00000000000000c6 .L0 
C:\Users\Kalle\AppData\Local\Temp\ccyOiGeb.s:230    .text.wait_ready:00000000000000c8 .L0 
C:\Users\Kalle\AppData\Local\Temp\ccyOiGeb.s:232    .text.wait_ready:00000000000000ca .L0 
C:\Users\Kalle\AppData\Local\Temp\ccyOiGeb.s:234    .text.wait_ready:00000000000000cc .L0 
C:\Users\Kalle\AppData\Local\Temp\ccyOiGeb.s:237    .text.wait_ready:00000000000000ce .L0 
C:\Users\Kalle\AppData\Local\Temp\ccyOiGeb.s:239    .text.wait_ready:00000000000000d0 .L0 
C:\Users\Kalle\AppData\Local\Temp\ccyOiGeb.s:241    .text.wait_ready:00000000000000d2 .L0 
C:\Users\Kalle\AppData\Local\Temp\ccyOiGeb.s:244    .text.wait_ready:00000000000000d4 .L0 
C:\Users\Kalle\AppData\Local\Temp\ccyOiGeb.s:246    .text.wait_ready:00000000000000d6 .L0 
C:\Users\Kalle\AppData\Local\Temp\ccyOiGeb.s:249    .text.wait_ready:00000000000000d8 .L0 
C:\Users\Kalle\AppData\Local\Temp\ccyOiGeb.s:254    .text.wait_ready:00000000000000da .L0 
C:\Users\Kalle\AppData\Local\Temp\ccyOiGeb.s:257    .text.wait_ready:00000000000000de .L0 
C:\Users\Kalle\AppData\Local\Temp\ccyOiGeb.s:263    .text.rcvr_datablock:0000000000000000 rcvr_datablock
C:\Users\Kalle\AppData\Local\Temp\ccyOiGeb.s:266    .text.rcvr_datablock:0000000000000000 .L0 
C:\Users\Kalle\AppData\Local\Temp\ccyOiGeb.s:268    .text.rcvr_datablock:0000000000000000 .L0 
C:\Users\Kalle\AppData\Local\Temp\ccyOiGeb.s:270    .text.rcvr_datablock:0000000000000002 .L0 
C:\Users\Kalle\AppData\Local\Temp\ccyOiGeb.s:272    .text.rcvr_datablock:0000000000000004 .L0 
C:\Users\Kalle\AppData\Local\Temp\ccyOiGeb.s:275    .text.rcvr_datablock:0000000000000006 .L0 
C:\Users\Kalle\AppData\Local\Temp\ccyOiGeb.s:276    .text.rcvr_datablock:0000000000000006 .L0 
C:\Users\Kalle\AppData\Local\Temp\ccyOiGeb.s:279    .text.rcvr_datablock:000000000000000a .L0 
C:\Users\Kalle\AppData\Local\Temp\ccyOiGeb.s:281    .text.rcvr_datablock:000000000000000e .L0 
C:\Users\Kalle\AppData\Local\Temp\ccyOiGeb.s:282    .text.rcvr_datablock:000000000000000e .L0 
C:\Users\Kalle\AppData\Local\Temp\ccyOiGeb.s:284    .text.rcvr_datablock:000000000000000e .L0 
C:\Users\Kalle\AppData\Local\Temp\ccyOiGeb.s:286    .text.rcvr_datablock:0000000000000010 .L0 
C:\Users\Kalle\AppData\Local\Temp\ccyOiGeb.s:292    .text.rcvr_datablock:000000000000001a .L0 
C:\Users\Kalle\AppData\Local\Temp\ccyOiGeb.s:295    .text.rcvr_datablock:0000000000000022 .L0 
C:\Users\Kalle\AppData\Local\Temp\ccyOiGeb.s:298    .text.rcvr_datablock:0000000000000024 .L0 
C:\Users\Kalle\AppData\Local\Temp\ccyOiGeb.s:299    .text.rcvr_datablock:0000000000000024 .L0 
C:\Users\Kalle\AppData\Local\Temp\ccyOiGeb.s:300    .text.rcvr_datablock:0000000000000024 .L0 
GAS LISTING C:\Users\Kalle\AppData\Local\Temp\ccyOiGeb.s 			page 60


C:\Users\Kalle\AppData\Local\Temp\ccyOiGeb.s:304    .text.rcvr_datablock:0000000000000030 .L0 
C:\Users\Kalle\AppData\Local\Temp\ccyOiGeb.s:307    .text.rcvr_datablock:0000000000000038 .L0 
C:\Users\Kalle\AppData\Local\Temp\ccyOiGeb.s:308    .text.rcvr_datablock:0000000000000038 .L0 
C:\Users\Kalle\AppData\Local\Temp\ccyOiGeb.s:318    .text.rcvr_datablock:0000000000000044 .L0 
C:\Users\Kalle\AppData\Local\Temp\ccyOiGeb.s:319    .text.rcvr_datablock:0000000000000044 .L0 
C:\Users\Kalle\AppData\Local\Temp\ccyOiGeb.s:320    .text.rcvr_datablock:0000000000000044 .L0 
C:\Users\Kalle\AppData\Local\Temp\ccyOiGeb.s:324    .text.rcvr_datablock:0000000000000050 .L0 
C:\Users\Kalle\AppData\Local\Temp\ccyOiGeb.s:327    .text.rcvr_datablock:0000000000000054 .L0 
C:\Users\Kalle\AppData\Local\Temp\ccyOiGeb.s:328    .text.rcvr_datablock:0000000000000054 .L0 
C:\Users\Kalle\AppData\Local\Temp\ccyOiGeb.s:331    .text.rcvr_datablock:0000000000000056 .L0 
C:\Users\Kalle\AppData\Local\Temp\ccyOiGeb.s:338    .text.rcvr_datablock:000000000000005a .L0 
C:\Users\Kalle\AppData\Local\Temp\ccyOiGeb.s:342    .text.rcvr_datablock:0000000000000066 .L0 
C:\Users\Kalle\AppData\Local\Temp\ccyOiGeb.s:348    .text.rcvr_datablock:0000000000000072 .L0 
C:\Users\Kalle\AppData\Local\Temp\ccyOiGeb.s:349    .text.rcvr_datablock:0000000000000072 .L0 
C:\Users\Kalle\AppData\Local\Temp\ccyOiGeb.s:350    .text.rcvr_datablock:0000000000000074 .L0 
C:\Users\Kalle\AppData\Local\Temp\ccyOiGeb.s:351    .text.rcvr_datablock:0000000000000074 .L0 
C:\Users\Kalle\AppData\Local\Temp\ccyOiGeb.s:353    .text.rcvr_datablock:0000000000000076 .L0 
C:\Users\Kalle\AppData\Local\Temp\ccyOiGeb.s:356    .text.rcvr_datablock:0000000000000078 .L0 
C:\Users\Kalle\AppData\Local\Temp\ccyOiGeb.s:360    .text.rcvr_datablock:0000000000000078 .L0 
C:\Users\Kalle\AppData\Local\Temp\ccyOiGeb.s:364    .text.rcvr_datablock:000000000000007a .L0 
C:\Users\Kalle\AppData\Local\Temp\ccyOiGeb.s:366    .text.rcvr_datablock:000000000000007c .L0 
C:\Users\Kalle\AppData\Local\Temp\ccyOiGeb.s:371    .text.rcvr_datablock:000000000000007e .L0 
C:\Users\Kalle\AppData\Local\Temp\ccyOiGeb.s:373    .text.rcvr_datablock:0000000000000080 .L0 
C:\Users\Kalle\AppData\Local\Temp\ccyOiGeb.s:375    .text.rcvr_datablock:0000000000000082 .L0 
C:\Users\Kalle\AppData\Local\Temp\ccyOiGeb.s:378    .text.rcvr_datablock:0000000000000084 .L0 
C:\Users\Kalle\AppData\Local\Temp\ccyOiGeb.s:381    .text.rcvr_datablock:0000000000000084 .L0 
C:\Users\Kalle\AppData\Local\Temp\ccyOiGeb.s:383    .text.rcvr_datablock:0000000000000086 .L0 
C:\Users\Kalle\AppData\Local\Temp\ccyOiGeb.s:385    .text.rcvr_datablock:0000000000000088 .L0 
C:\Users\Kalle\AppData\Local\Temp\ccyOiGeb.s:387    .text.rcvr_datablock:000000000000008a .L0 
C:\Users\Kalle\AppData\Local\Temp\ccyOiGeb.s:393    .text._select:0000000000000000 _select
C:\Users\Kalle\AppData\Local\Temp\ccyOiGeb.s:396    .text._select:0000000000000000 .L0 
C:\Users\Kalle\AppData\Local\Temp\ccyOiGeb.s:397    .text._select:0000000000000000 .L0 
C:\Users\Kalle\AppData\Local\Temp\ccyOiGeb.s:398    .text._select:0000000000000000 .L0 
C:\Users\Kalle\AppData\Local\Temp\ccyOiGeb.s:399    .text._select:0000000000000000 .L0 
C:\Users\Kalle\AppData\Local\Temp\ccyOiGeb.s:401    .text._select:0000000000000002 .L0 
C:\Users\Kalle\AppData\Local\Temp\ccyOiGeb.s:403    .text._select:0000000000000002 .L0 
C:\Users\Kalle\AppData\Local\Temp\ccyOiGeb.s:406    .text._select:0000000000000008 .L0 
C:\Users\Kalle\AppData\Local\Temp\ccyOiGeb.s:408    .text._select:000000000000000c .L0 
C:\Users\Kalle\AppData\Local\Temp\ccyOiGeb.s:409    .text._select:000000000000000c .L0 
C:\Users\Kalle\AppData\Local\Temp\ccyOiGeb.s:411    .text._select:000000000000000c .L0 
C:\Users\Kalle\AppData\Local\Temp\ccyOiGeb.s:414    .text._select:0000000000000014 .L0 
C:\Users\Kalle\AppData\Local\Temp\ccyOiGeb.s:418    .text._select:0000000000000020 .L0 
C:\Users\Kalle\AppData\Local\Temp\ccyOiGeb.s:419    .text._select:0000000000000020 .L0 
C:\Users\Kalle\AppData\Local\Temp\ccyOiGeb.s:423    .text._select:000000000000002c .L0 
C:\Users\Kalle\AppData\Local\Temp\ccyOiGeb.s:425    .text._select:000000000000002e .L0 
C:\Users\Kalle\AppData\Local\Temp\ccyOiGeb.s:431    .text._select:0000000000000032 .L0 
C:\Users\Kalle\AppData\Local\Temp\ccyOiGeb.s:432    .text._select:0000000000000032 .L0 
C:\Users\Kalle\AppData\Local\Temp\ccyOiGeb.s:437    .text._select:0000000000000040 .L0 
C:\Users\Kalle\AppData\Local\Temp\ccyOiGeb.s:445    .text._select:000000000000004c .L0 
C:\Users\Kalle\AppData\Local\Temp\ccyOiGeb.s:446    .text._select:000000000000004c .L0 
C:\Users\Kalle\AppData\Local\Temp\ccyOiGeb.s:448    .text._select:0000000000000050 .L0 
C:\Users\Kalle\AppData\Local\Temp\ccyOiGeb.s:450    .text._select:0000000000000052 .L0 
C:\Users\Kalle\AppData\Local\Temp\ccyOiGeb.s:453    .text._select:0000000000000054 .L0 
C:\Users\Kalle\AppData\Local\Temp\ccyOiGeb.s:455    .text._select:0000000000000056 .L0 
C:\Users\Kalle\AppData\Local\Temp\ccyOiGeb.s:461    .text.send_cmd:0000000000000000 send_cmd
C:\Users\Kalle\AppData\Local\Temp\ccyOiGeb.s:464    .text.send_cmd:0000000000000000 .L0 
C:\Users\Kalle\AppData\Local\Temp\ccyOiGeb.s:466    .text.send_cmd:0000000000000000 .L0 
GAS LISTING C:\Users\Kalle\AppData\Local\Temp\ccyOiGeb.s 			page 61


C:\Users\Kalle\AppData\Local\Temp\ccyOiGeb.s:467    .text.send_cmd:0000000000000000 .L0 
C:\Users\Kalle\AppData\Local\Temp\ccyOiGeb.s:468    .text.send_cmd:0000000000000000 .L0 
C:\Users\Kalle\AppData\Local\Temp\ccyOiGeb.s:469    .text.send_cmd:0000000000000000 .L0 
C:\Users\Kalle\AppData\Local\Temp\ccyOiGeb.s:471    .text.send_cmd:0000000000000002 .L0 
C:\Users\Kalle\AppData\Local\Temp\ccyOiGeb.s:473    .text.send_cmd:0000000000000002 .L0 
C:\Users\Kalle\AppData\Local\Temp\ccyOiGeb.s:475    .text.send_cmd:0000000000000006 .L0 
C:\Users\Kalle\AppData\Local\Temp\ccyOiGeb.s:478    .text.send_cmd:000000000000000c .L0 
C:\Users\Kalle\AppData\Local\Temp\ccyOiGeb.s:479    .text.send_cmd:000000000000000c .L0 
C:\Users\Kalle\AppData\Local\Temp\ccyOiGeb.s:480    .text.send_cmd:000000000000000c .L0 
C:\Users\Kalle\AppData\Local\Temp\ccyOiGeb.s:482    .text.send_cmd:000000000000000c .L0 
C:\Users\Kalle\AppData\Local\Temp\ccyOiGeb.s:484    .text.send_cmd:000000000000000e .L0 
C:\Users\Kalle\AppData\Local\Temp\ccyOiGeb.s:487    .text.send_cmd:0000000000000012 .L0 
C:\Users\Kalle\AppData\Local\Temp\ccyOiGeb.s:491    .text.send_cmd:0000000000000016 .L0 
C:\Users\Kalle\AppData\Local\Temp\ccyOiGeb.s:492    .text.send_cmd:0000000000000016 .L0 
C:\Users\Kalle\AppData\Local\Temp\ccyOiGeb.s:497    .text.send_cmd:000000000000001c .L0 
C:\Users\Kalle\AppData\Local\Temp\ccyOiGeb.s:498    .text.send_cmd:000000000000001c .L0 
C:\Users\Kalle\AppData\Local\Temp\ccyOiGeb.s:503    .text.send_cmd:000000000000002a .L0 
C:\Users\Kalle\AppData\Local\Temp\ccyOiGeb.s:509    .text.send_cmd:0000000000000036 .L0 
C:\Users\Kalle\AppData\Local\Temp\ccyOiGeb.s:510    .text.send_cmd:0000000000000036 .L0 
C:\Users\Kalle\AppData\Local\Temp\ccyOiGeb.s:513    .text.send_cmd:000000000000003e .L0 
C:\Users\Kalle\AppData\Local\Temp\ccyOiGeb.s:515    .text.send_cmd:0000000000000042 .L0 
C:\Users\Kalle\AppData\Local\Temp\ccyOiGeb.s:517    .text.send_cmd:0000000000000044 .L0 
C:\Users\Kalle\AppData\Local\Temp\ccyOiGeb.s:521    .text.send_cmd:0000000000000050 .L0 
C:\Users\Kalle\AppData\Local\Temp\ccyOiGeb.s:525    .text.send_cmd:000000000000005c .L0 
C:\Users\Kalle\AppData\Local\Temp\ccyOiGeb.s:526    .text.send_cmd:000000000000005c .L0 
C:\Users\Kalle\AppData\Local\Temp\ccyOiGeb.s:528    .text.send_cmd:0000000000000060 .L0 
C:\Users\Kalle\AppData\Local\Temp\ccyOiGeb.s:532    .text.send_cmd:000000000000006c .L0 
C:\Users\Kalle\AppData\Local\Temp\ccyOiGeb.s:533    .text.send_cmd:000000000000006c .L0 
C:\Users\Kalle\AppData\Local\Temp\ccyOiGeb.s:535    .text.send_cmd:0000000000000070 .L0 
C:\Users\Kalle\AppData\Local\Temp\ccyOiGeb.s:539    .text.send_cmd:000000000000007c .L0 
C:\Users\Kalle\AppData\Local\Temp\ccyOiGeb.s:543    .text.send_cmd:0000000000000088 .L0 
C:\Users\Kalle\AppData\Local\Temp\ccyOiGeb.s:544    .text.send_cmd:0000000000000088 .L0 
C:\Users\Kalle\AppData\Local\Temp\ccyOiGeb.s:545    .text.send_cmd:0000000000000088 .L0 
C:\Users\Kalle\AppData\Local\Temp\ccyOiGeb.s:548    .text.send_cmd:000000000000008a .L0 
C:\Users\Kalle\AppData\Local\Temp\ccyOiGeb.s:553    .text.send_cmd:0000000000000096 .L0 
C:\Users\Kalle\AppData\Local\Temp\ccyOiGeb.s:554    .text.send_cmd:0000000000000096 .L0 
C:\Users\Kalle\AppData\Local\Temp\ccyOiGeb.s:558    .text.send_cmd:0000000000000098 .L0 
C:\Users\Kalle\AppData\Local\Temp\ccyOiGeb.s:559    .text.send_cmd:0000000000000098 .L0 
C:\Users\Kalle\AppData\Local\Temp\ccyOiGeb.s:560    .text.send_cmd:0000000000000098 .L0 
C:\Users\Kalle\AppData\Local\Temp\ccyOiGeb.s:564    .text.send_cmd:00000000000000a4 .L0 
C:\Users\Kalle\AppData\Local\Temp\ccyOiGeb.s:569    .text.send_cmd:00000000000000ac .L0 
C:\Users\Kalle\AppData\Local\Temp\ccyOiGeb.s:573    .text.send_cmd:00000000000000b2 .L0 
C:\Users\Kalle\AppData\Local\Temp\ccyOiGeb.s:575    .text.send_cmd:00000000000000b6 .L0 
C:\Users\Kalle\AppData\Local\Temp\ccyOiGeb.s:579    .text.send_cmd:00000000000000b8 .L0 
C:\Users\Kalle\AppData\Local\Temp\ccyOiGeb.s:580    .text.send_cmd:00000000000000ba .L0 
C:\Users\Kalle\AppData\Local\Temp\ccyOiGeb.s:581    .text.send_cmd:00000000000000ba .L0 
C:\Users\Kalle\AppData\Local\Temp\ccyOiGeb.s:583    .text.send_cmd:00000000000000bc .L0 
C:\Users\Kalle\AppData\Local\Temp\ccyOiGeb.s:585    .text.send_cmd:00000000000000be .L0 
C:\Users\Kalle\AppData\Local\Temp\ccyOiGeb.s:590    .text.send_cmd:00000000000000c2 .L0 
C:\Users\Kalle\AppData\Local\Temp\ccyOiGeb.s:595    .text.send_cmd:00000000000000c4 .L0 
C:\Users\Kalle\AppData\Local\Temp\ccyOiGeb.s:597    .text.send_cmd:00000000000000c4 .L0 
C:\Users\Kalle\AppData\Local\Temp\ccyOiGeb.s:601    .text.send_cmd:00000000000000d0 .L0 
C:\Users\Kalle\AppData\Local\Temp\ccyOiGeb.s:605    .text.send_cmd:00000000000000dc .L0 
C:\Users\Kalle\AppData\Local\Temp\ccyOiGeb.s:606    .text.send_cmd:00000000000000dc .L0 
C:\Users\Kalle\AppData\Local\Temp\ccyOiGeb.s:608    .text.send_cmd:00000000000000e0 .L0 
C:\Users\Kalle\AppData\Local\Temp\ccyOiGeb.s:612    .text.send_cmd:00000000000000ec .L0 
C:\Users\Kalle\AppData\Local\Temp\ccyOiGeb.s:613    .text.send_cmd:00000000000000ec .L0 
GAS LISTING C:\Users\Kalle\AppData\Local\Temp\ccyOiGeb.s 			page 62


C:\Users\Kalle\AppData\Local\Temp\ccyOiGeb.s:615    .text.send_cmd:00000000000000f0 .L0 
C:\Users\Kalle\AppData\Local\Temp\ccyOiGeb.s:619    .text.send_cmd:00000000000000fc .L0 
C:\Users\Kalle\AppData\Local\Temp\ccyOiGeb.s:623    .text.send_cmd:0000000000000108 .L0 
C:\Users\Kalle\AppData\Local\Temp\ccyOiGeb.s:624    .text.send_cmd:0000000000000108 .L0 
C:\Users\Kalle\AppData\Local\Temp\ccyOiGeb.s:625    .text.send_cmd:0000000000000108 .L0 
C:\Users\Kalle\AppData\Local\Temp\ccyOiGeb.s:626    .text.send_cmd:0000000000000108 .L0 
C:\Users\Kalle\AppData\Local\Temp\ccyOiGeb.s:630    .text.send_cmd:0000000000000112 .L0 
C:\Users\Kalle\AppData\Local\Temp\ccyOiGeb.s:631    .text.send_cmd:0000000000000112 .L0 
C:\Users\Kalle\AppData\Local\Temp\ccyOiGeb.s:638    .text.send_cmd:0000000000000120 .L0 
C:\Users\Kalle\AppData\Local\Temp\ccyOiGeb.s:639    .text.send_cmd:0000000000000120 .L0 
C:\Users\Kalle\AppData\Local\Temp\ccyOiGeb.s:640    .text.send_cmd:0000000000000120 .L0 
C:\Users\Kalle\AppData\Local\Temp\ccyOiGeb.s:645    .text.send_cmd:000000000000012e .L0 
C:\Users\Kalle\AppData\Local\Temp\ccyOiGeb.s:647    .text.send_cmd:0000000000000130 .L0 
C:\Users\Kalle\AppData\Local\Temp\ccyOiGeb.s:650    .text.send_cmd:0000000000000132 .L0 
C:\Users\Kalle\AppData\Local\Temp\ccyOiGeb.s:651    .text.send_cmd:0000000000000132 .L0 
C:\Users\Kalle\AppData\Local\Temp\ccyOiGeb.s:653    .text.send_cmd:0000000000000136 .L0 
C:\Users\Kalle\AppData\Local\Temp\ccyOiGeb.s:659    .text.send_cmd:000000000000013c .L0 
C:\Users\Kalle\AppData\Local\Temp\ccyOiGeb.s:660    .text.send_cmd:000000000000013c .L0 
C:\Users\Kalle\AppData\Local\Temp\ccyOiGeb.s:664    .text.send_cmd:0000000000000142 .L0 
C:\Users\Kalle\AppData\Local\Temp\ccyOiGeb.s:665    .text.send_cmd:0000000000000142 .L0 
C:\Users\Kalle\AppData\Local\Temp\ccyOiGeb.s:669    .text.send_cmd:000000000000014e .L0 
C:\Users\Kalle\AppData\Local\Temp\ccyOiGeb.s:673    .text.send_cmd:0000000000000150 .L0 
C:\Users\Kalle\AppData\Local\Temp\ccyOiGeb.s:677    .text.send_cmd:000000000000015a .L0 
C:\Users\Kalle\AppData\Local\Temp\ccyOiGeb.s:678    .text.send_cmd:000000000000015c .L0 
C:\Users\Kalle\AppData\Local\Temp\ccyOiGeb.s:684    .text.xmit_datablock.part.2:0000000000000000 xmit_datablock.part.2
C:\Users\Kalle\AppData\Local\Temp\ccyOiGeb.s:687    .text.xmit_datablock.part.2:0000000000000000 .L0 
C:\Users\Kalle\AppData\Local\Temp\ccyOiGeb.s:689    .text.xmit_datablock.part.2:0000000000000000 .L0 
C:\Users\Kalle\AppData\Local\Temp\ccyOiGeb.s:691    .text.xmit_datablock.part.2:0000000000000002 .L0 
C:\Users\Kalle\AppData\Local\Temp\ccyOiGeb.s:695    .text.xmit_datablock.part.2:0000000000000008 .L0 
C:\Users\Kalle\AppData\Local\Temp\ccyOiGeb.s:696    .text.xmit_datablock.part.2:0000000000000008 .L0 
C:\Users\Kalle\AppData\Local\Temp\ccyOiGeb.s:697    .text.xmit_datablock.part.2:0000000000000008 .L0 
C:\Users\Kalle\AppData\Local\Temp\ccyOiGeb.s:699    .text.xmit_datablock.part.2:0000000000000008 .L0 
C:\Users\Kalle\AppData\Local\Temp\ccyOiGeb.s:706    .text.xmit_datablock.part.2:000000000000000e .L0 
C:\Users\Kalle\AppData\Local\Temp\ccyOiGeb.s:712    .text.xmit_datablock.part.2:000000000000001c .L0 
C:\Users\Kalle\AppData\Local\Temp\ccyOiGeb.s:716    .text.xmit_datablock.part.2:0000000000000020 .L0 
C:\Users\Kalle\AppData\Local\Temp\ccyOiGeb.s:720    .text.xmit_datablock.part.2:000000000000002c .L0 
C:\Users\Kalle\AppData\Local\Temp\ccyOiGeb.s:724    .text.xmit_datablock.part.2:0000000000000038 .L0 
C:\Users\Kalle\AppData\Local\Temp\ccyOiGeb.s:725    .text.xmit_datablock.part.2:0000000000000038 .L0 
C:\Users\Kalle\AppData\Local\Temp\ccyOiGeb.s:729    .text.xmit_datablock.part.2:0000000000000044 .L0 
C:\Users\Kalle\AppData\Local\Temp\ccyOiGeb.s:730    .text.xmit_datablock.part.2:0000000000000044 .L0 
C:\Users\Kalle\AppData\Local\Temp\ccyOiGeb.s:731    .text.xmit_datablock.part.2:0000000000000046 .L0 
C:\Users\Kalle\AppData\Local\Temp\ccyOiGeb.s:733    .text.xmit_datablock.part.2:0000000000000048 .L0 
C:\Users\Kalle\AppData\Local\Temp\ccyOiGeb.s:735    .text.xmit_datablock.part.2:0000000000000048 .L0 
C:\Users\Kalle\AppData\Local\Temp\ccyOiGeb.s:739    .text.xmit_datablock.part.2:000000000000004c .L0 
C:\Users\Kalle\AppData\Local\Temp\ccyOiGeb.s:740    .text.xmit_datablock.part.2:000000000000004e .L0 
C:\Users\Kalle\AppData\Local\Temp\ccyOiGeb.s:745    .text.xmit_datablock.part.2:0000000000000054 .L0 
C:\Users\Kalle\AppData\Local\Temp\ccyOiGeb.s:747    .text.xmit_datablock.part.2:0000000000000056 .L0 
C:\Users\Kalle\AppData\Local\Temp\ccyOiGeb.s:754    .text.disk_initialize:0000000000000000 disk_initialize
C:\Users\Kalle\AppData\Local\Temp\ccyOiGeb.s:757    .text.disk_initialize:0000000000000000 .L0 
C:\Users\Kalle\AppData\Local\Temp\ccyOiGeb.s:759    .text.disk_initialize:0000000000000000 .L0 
C:\Users\Kalle\AppData\Local\Temp\ccyOiGeb.s:760    .text.disk_initialize:0000000000000000 .L0 
C:\Users\Kalle\AppData\Local\Temp\ccyOiGeb.s:761    .text.disk_initialize:0000000000000000 .L0 
C:\Users\Kalle\AppData\Local\Temp\ccyOiGeb.s:762    .text.disk_initialize:0000000000000000 .L0 
C:\Users\Kalle\AppData\Local\Temp\ccyOiGeb.s:764    .text.disk_initialize:0000000000000002 .L0 
C:\Users\Kalle\AppData\Local\Temp\ccyOiGeb.s:767    .text.disk_initialize:0000000000000004 .L0 
C:\Users\Kalle\AppData\Local\Temp\ccyOiGeb.s:773    .text.disk_initialize:0000000000000006 .L0 
C:\Users\Kalle\AppData\Local\Temp\ccyOiGeb.s:774    .text.disk_initialize:0000000000000006 .L0 
GAS LISTING C:\Users\Kalle\AppData\Local\Temp\ccyOiGeb.s 			page 63


C:\Users\Kalle\AppData\Local\Temp\ccyOiGeb.s:777    .text.disk_initialize:0000000000000006 .L0 
C:\Users\Kalle\AppData\Local\Temp\ccyOiGeb.s:778    .text.disk_initialize:0000000000000006 .L0 
C:\Users\Kalle\AppData\Local\Temp\ccyOiGeb.s:780    .text.disk_initialize:0000000000000008 .L0 
C:\Users\Kalle\AppData\Local\Temp\ccyOiGeb.s:784    .text.disk_initialize:0000000000000008 .L0 
C:\Users\Kalle\AppData\Local\Temp\ccyOiGeb.s:789    .text.disk_initialize:000000000000000c .L0 
C:\Users\Kalle\AppData\Local\Temp\ccyOiGeb.s:794    .text.disk_initialize:0000000000000016 .L0 
C:\Users\Kalle\AppData\Local\Temp\ccyOiGeb.s:795    .text.disk_initialize:0000000000000016 .L0 
C:\Users\Kalle\AppData\Local\Temp\ccyOiGeb.s:796    .text.disk_initialize:0000000000000016 .L0 
C:\Users\Kalle\AppData\Local\Temp\ccyOiGeb.s:797    .text.disk_initialize:0000000000000016 .L0 
C:\Users\Kalle\AppData\Local\Temp\ccyOiGeb.s:798    .text.disk_initialize:0000000000000016 .L0 
C:\Users\Kalle\AppData\Local\Temp\ccyOiGeb.s:802    .text.disk_initialize:0000000000000016 .L0 
C:\Users\Kalle\AppData\Local\Temp\ccyOiGeb.s:805    .text.disk_initialize:000000000000001e .L0 
C:\Users\Kalle\AppData\Local\Temp\ccyOiGeb.s:809    .text.disk_initialize:000000000000002a .L0 
C:\Users\Kalle\AppData\Local\Temp\ccyOiGeb.s:813    .text.disk_initialize:0000000000000036 .L0 
C:\Users\Kalle\AppData\Local\Temp\ccyOiGeb.s:821    .text.disk_initialize:000000000000004c .L0 
C:\Users\Kalle\AppData\Local\Temp\ccyOiGeb.s:828    .text.disk_initialize:000000000000005e .L0 
C:\Users\Kalle\AppData\Local\Temp\ccyOiGeb.s:835    .text.disk_initialize:0000000000000070 .L0 
C:\Users\Kalle\AppData\Local\Temp\ccyOiGeb.s:840    .text.disk_initialize:000000000000007e .L0 
C:\Users\Kalle\AppData\Local\Temp\ccyOiGeb.s:841    .text.disk_initialize:000000000000007e .L0 
C:\Users\Kalle\AppData\Local\Temp\ccyOiGeb.s:844    .text.disk_initialize:0000000000000084 .L0 
C:\Users\Kalle\AppData\Local\Temp\ccyOiGeb.s:846    .text.disk_initialize:0000000000000086 .L0 
C:\Users\Kalle\AppData\Local\Temp\ccyOiGeb.s:848    .text.disk_initialize:000000000000008a .L0 
C:\Users\Kalle\AppData\Local\Temp\ccyOiGeb.s:850    .text.disk_initialize:000000000000008c .L0 
C:\Users\Kalle\AppData\Local\Temp\ccyOiGeb.s:852    .text.disk_initialize:0000000000000090 .L0 
C:\Users\Kalle\AppData\Local\Temp\ccyOiGeb.s:855    .text.disk_initialize:0000000000000096 .L0 
C:\Users\Kalle\AppData\Local\Temp\ccyOiGeb.s:857    .text.disk_initialize:0000000000000098 .L0 
C:\Users\Kalle\AppData\Local\Temp\ccyOiGeb.s:860    .text.disk_initialize:000000000000009e .L0 
C:\Users\Kalle\AppData\Local\Temp\ccyOiGeb.s:862    .text.disk_initialize:00000000000000a0 .L0 
C:\Users\Kalle\AppData\Local\Temp\ccyOiGeb.s:863    .text.disk_initialize:00000000000000a0 .L0 
C:\Users\Kalle\AppData\Local\Temp\ccyOiGeb.s:864    .text.disk_initialize:00000000000000a0 .L0 
C:\Users\Kalle\AppData\Local\Temp\ccyOiGeb.s:866    .text.disk_initialize:00000000000000a2 .L0 
C:\Users\Kalle\AppData\Local\Temp\ccyOiGeb.s:867    .text.disk_initialize:00000000000000a2 .L0 
C:\Users\Kalle\AppData\Local\Temp\ccyOiGeb.s:868    .text.disk_initialize:00000000000000a2 .L0 
C:\Users\Kalle\AppData\Local\Temp\ccyOiGeb.s:869    .text.disk_initialize:00000000000000a2 .L0 
C:\Users\Kalle\AppData\Local\Temp\ccyOiGeb.s:870    .text.disk_initialize:00000000000000a2 .L0 
C:\Users\Kalle\AppData\Local\Temp\ccyOiGeb.s:872    .text.disk_initialize:00000000000000a4 .L0 
C:\Users\Kalle\AppData\Local\Temp\ccyOiGeb.s:875    .text.disk_initialize:00000000000000ac .L0 
C:\Users\Kalle\AppData\Local\Temp\ccyOiGeb.s:880    .text.disk_initialize:00000000000000ba .L0 
C:\Users\Kalle\AppData\Local\Temp\ccyOiGeb.s:886    .text.disk_initialize:00000000000000c6 .L0 
C:\Users\Kalle\AppData\Local\Temp\ccyOiGeb.s:888    .text.disk_initialize:00000000000000c8 .L0 
C:\Users\Kalle\AppData\Local\Temp\ccyOiGeb.s:890    .text.disk_initialize:00000000000000cc .L0 
C:\Users\Kalle\AppData\Local\Temp\ccyOiGeb.s:893    .text.disk_initialize:00000000000000d4 .L0 
C:\Users\Kalle\AppData\Local\Temp\ccyOiGeb.s:894    .text.disk_initialize:00000000000000d4 .L0 
C:\Users\Kalle\AppData\Local\Temp\ccyOiGeb.s:897    .text.disk_initialize:00000000000000dc .L0 
C:\Users\Kalle\AppData\Local\Temp\ccyOiGeb.s:900    .text.disk_initialize:00000000000000e0 .L0 
C:\Users\Kalle\AppData\Local\Temp\ccyOiGeb.s:902    .text.disk_initialize:00000000000000e4 .L0 
C:\Users\Kalle\AppData\Local\Temp\ccyOiGeb.s:905    .text.disk_initialize:00000000000000ea .L0 
C:\Users\Kalle\AppData\Local\Temp\ccyOiGeb.s:909    .text.disk_initialize:00000000000000f6 .L0 
C:\Users\Kalle\AppData\Local\Temp\ccyOiGeb.s:910    .text.disk_initialize:00000000000000f6 .L0 
C:\Users\Kalle\AppData\Local\Temp\ccyOiGeb.s:913    .text.disk_initialize:00000000000000fe .L0 
C:\Users\Kalle\AppData\Local\Temp\ccyOiGeb.s:914    .text.disk_initialize:00000000000000fe .L0 
C:\Users\Kalle\AppData\Local\Temp\ccyOiGeb.s:918    .text.disk_initialize:0000000000000100 .L0 
C:\Users\Kalle\AppData\Local\Temp\ccyOiGeb.s:925    .text.disk_initialize:0000000000000112 .L0 
C:\Users\Kalle\AppData\Local\Temp\ccyOiGeb.s:928    .text.disk_initialize:0000000000000114 .L0 
C:\Users\Kalle\AppData\Local\Temp\ccyOiGeb.s:929    .text.disk_initialize:0000000000000114 .L0 
C:\Users\Kalle\AppData\Local\Temp\ccyOiGeb.s:930    .text.disk_initialize:0000000000000114 .L0 
C:\Users\Kalle\AppData\Local\Temp\ccyOiGeb.s:935    .text.disk_initialize:0000000000000120 .L0 
GAS LISTING C:\Users\Kalle\AppData\Local\Temp\ccyOiGeb.s 			page 64


C:\Users\Kalle\AppData\Local\Temp\ccyOiGeb.s:937    .text.disk_initialize:0000000000000122 .L0 
C:\Users\Kalle\AppData\Local\Temp\ccyOiGeb.s:939    .text.disk_initialize:0000000000000124 .L0 
C:\Users\Kalle\AppData\Local\Temp\ccyOiGeb.s:943    .text.disk_initialize:0000000000000128 .L0 
C:\Users\Kalle\AppData\Local\Temp\ccyOiGeb.s:944    .text.disk_initialize:0000000000000128 .L0 
C:\Users\Kalle\AppData\Local\Temp\ccyOiGeb.s:948    .text.disk_initialize:000000000000012c .L0 
C:\Users\Kalle\AppData\Local\Temp\ccyOiGeb.s:953    .text.disk_initialize:0000000000000132 .L0 
C:\Users\Kalle\AppData\Local\Temp\ccyOiGeb.s:957    .text.disk_initialize:0000000000000136 .L0 
C:\Users\Kalle\AppData\Local\Temp\ccyOiGeb.s:958    .text.disk_initialize:0000000000000136 .L0 
C:\Users\Kalle\AppData\Local\Temp\ccyOiGeb.s:961    .text.disk_initialize:000000000000013e .L0 
C:\Users\Kalle\AppData\Local\Temp\ccyOiGeb.s:967    .text.disk_initialize:000000000000014a .L0 
C:\Users\Kalle\AppData\Local\Temp\ccyOiGeb.s:968    .text.disk_initialize:000000000000014a .L0 
C:\Users\Kalle\AppData\Local\Temp\ccyOiGeb.s:969    .text.disk_initialize:000000000000014a .L0 
C:\Users\Kalle\AppData\Local\Temp\ccyOiGeb.s:974    .text.disk_initialize:0000000000000150 .L0 
C:\Users\Kalle\AppData\Local\Temp\ccyOiGeb.s:975    .text.disk_initialize:0000000000000150 .L0 
C:\Users\Kalle\AppData\Local\Temp\ccyOiGeb.s:977    .text.disk_initialize:0000000000000154 .L0 
C:\Users\Kalle\AppData\Local\Temp\ccyOiGeb.s:978    .text.disk_initialize:0000000000000156 .L0 
C:\Users\Kalle\AppData\Local\Temp\ccyOiGeb.s:979    .text.disk_initialize:0000000000000156 .L0 
C:\Users\Kalle\AppData\Local\Temp\ccyOiGeb.s:981    .text.disk_initialize:0000000000000158 .L0 
C:\Users\Kalle\AppData\Local\Temp\ccyOiGeb.s:983    .text.disk_initialize:000000000000015a .L0 
C:\Users\Kalle\AppData\Local\Temp\ccyOiGeb.s:985    .text.disk_initialize:000000000000015c .L0 
C:\Users\Kalle\AppData\Local\Temp\ccyOiGeb.s:987    .text.disk_initialize:000000000000015e .L0 
C:\Users\Kalle\AppData\Local\Temp\ccyOiGeb.s:989    .text.disk_initialize:000000000000015e .L0 
C:\Users\Kalle\AppData\Local\Temp\ccyOiGeb.s:991    .text.disk_initialize:0000000000000162 .L0 
C:\Users\Kalle\AppData\Local\Temp\ccyOiGeb.s:993    .text.disk_initialize:0000000000000164 .L0 
C:\Users\Kalle\AppData\Local\Temp\ccyOiGeb.s:998    .text.disk_initialize:0000000000000166 .L0 
C:\Users\Kalle\AppData\Local\Temp\ccyOiGeb.s:1000   .text.disk_initialize:0000000000000166 .L0 
C:\Users\Kalle\AppData\Local\Temp\ccyOiGeb.s:1004   .text.disk_initialize:0000000000000172 .L0 
C:\Users\Kalle\AppData\Local\Temp\ccyOiGeb.s:1005   .text.disk_initialize:0000000000000172 .L0 
C:\Users\Kalle\AppData\Local\Temp\ccyOiGeb.s:1010   .text.disk_initialize:0000000000000180 .L0 
C:\Users\Kalle\AppData\Local\Temp\ccyOiGeb.s:1017   .text.disk_initialize:000000000000018c .L0 
C:\Users\Kalle\AppData\Local\Temp\ccyOiGeb.s:1018   .text.disk_initialize:000000000000018c .L0 
C:\Users\Kalle\AppData\Local\Temp\ccyOiGeb.s:1022   .text.disk_initialize:0000000000000198 .L0 
C:\Users\Kalle\AppData\Local\Temp\ccyOiGeb.s:1027   .text.disk_initialize:000000000000019e .L0 
C:\Users\Kalle\AppData\Local\Temp\ccyOiGeb.s:1029   .text.disk_initialize:00000000000001a2 .L0 
C:\Users\Kalle\AppData\Local\Temp\ccyOiGeb.s:1030   .text.disk_initialize:00000000000001a2 .L0 
C:\Users\Kalle\AppData\Local\Temp\ccyOiGeb.s:1034   .text.disk_initialize:00000000000001ac .L0 
C:\Users\Kalle\AppData\Local\Temp\ccyOiGeb.s:1040   .text.disk_initialize:00000000000001ba .L0 
C:\Users\Kalle\AppData\Local\Temp\ccyOiGeb.s:1044   .text.disk_initialize:00000000000001c6 .L0 
C:\Users\Kalle\AppData\Local\Temp\ccyOiGeb.s:1047   .text.disk_initialize:00000000000001c8 .L0 
C:\Users\Kalle\AppData\Local\Temp\ccyOiGeb.s:1048   .text.disk_initialize:00000000000001c8 .L0 
C:\Users\Kalle\AppData\Local\Temp\ccyOiGeb.s:1051   .text.disk_initialize:00000000000001d0 .L0 
C:\Users\Kalle\AppData\Local\Temp\ccyOiGeb.s:1053   .text.disk_initialize:00000000000001d4 .L0 
C:\Users\Kalle\AppData\Local\Temp\ccyOiGeb.s:1056   .text.disk_initialize:00000000000001d6 .L0 
C:\Users\Kalle\AppData\Local\Temp\ccyOiGeb.s:1057   .text.disk_initialize:00000000000001d6 .L0 
C:\Users\Kalle\AppData\Local\Temp\ccyOiGeb.s:1060   .text.disk_initialize:00000000000001de .L0 
C:\Users\Kalle\AppData\Local\Temp\ccyOiGeb.s:1062   .text.disk_initialize:00000000000001e0 .L0 
C:\Users\Kalle\AppData\Local\Temp\ccyOiGeb.s:1067   .text.disk_initialize:00000000000001ee .L0 
C:\Users\Kalle\AppData\Local\Temp\ccyOiGeb.s:1071   .text.disk_initialize:00000000000001f0 .L0 
C:\Users\Kalle\AppData\Local\Temp\ccyOiGeb.s:1072   .text.disk_initialize:00000000000001f0 .L0 
C:\Users\Kalle\AppData\Local\Temp\ccyOiGeb.s:1076   .text.disk_initialize:00000000000001fc .L0 
C:\Users\Kalle\AppData\Local\Temp\ccyOiGeb.s:1081   .text.disk_initialize:0000000000000202 .L0 
C:\Users\Kalle\AppData\Local\Temp\ccyOiGeb.s:1083   .text.disk_initialize:0000000000000206 .L0 
C:\Users\Kalle\AppData\Local\Temp\ccyOiGeb.s:1084   .text.disk_initialize:0000000000000206 .L0 
C:\Users\Kalle\AppData\Local\Temp\ccyOiGeb.s:1088   .text.disk_initialize:000000000000020a .L0 
C:\Users\Kalle\AppData\Local\Temp\ccyOiGeb.s:1093   .text.disk_initialize:0000000000000210 .L0 
C:\Users\Kalle\AppData\Local\Temp\ccyOiGeb.s:1097   .text.disk_initialize:0000000000000216 .L0 
C:\Users\Kalle\AppData\Local\Temp\ccyOiGeb.s:1098   .text.disk_initialize:0000000000000216 .L0 
GAS LISTING C:\Users\Kalle\AppData\Local\Temp\ccyOiGeb.s 			page 65


C:\Users\Kalle\AppData\Local\Temp\ccyOiGeb.s:1104   .text.disk_initialize:0000000000000220 .L0 
C:\Users\Kalle\AppData\Local\Temp\ccyOiGeb.s:1105   .text.disk_initialize:0000000000000220 .L0 
C:\Users\Kalle\AppData\Local\Temp\ccyOiGeb.s:1108   .text.disk_initialize:0000000000000228 .L0 
C:\Users\Kalle\AppData\Local\Temp\ccyOiGeb.s:1115   .text.disk_initialize:0000000000000234 .L0 
C:\Users\Kalle\AppData\Local\Temp\ccyOiGeb.s:1116   .text.disk_initialize:0000000000000234 .L0 
C:\Users\Kalle\AppData\Local\Temp\ccyOiGeb.s:1121   .text.disk_initialize:0000000000000244 .L0 
C:\Users\Kalle\AppData\Local\Temp\ccyOiGeb.s:1122   .text.disk_initialize:0000000000000244 .L0 
C:\Users\Kalle\AppData\Local\Temp\ccyOiGeb.s:1123   .text.disk_initialize:0000000000000244 .L0 
C:\Users\Kalle\AppData\Local\Temp\ccyOiGeb.s:1130   .text.disk_initialize:0000000000000252 .L0 
C:\Users\Kalle\AppData\Local\Temp\ccyOiGeb.s:1131   .text.disk_initialize:0000000000000252 .L0 
C:\Users\Kalle\AppData\Local\Temp\ccyOiGeb.s:1136   .text.disk_initialize:0000000000000260 .L0 
C:\Users\Kalle\AppData\Local\Temp\ccyOiGeb.s:1138   .text.disk_initialize:0000000000000262 .L0 
C:\Users\Kalle\AppData\Local\Temp\ccyOiGeb.s:1140   .text.disk_initialize:0000000000000266 .L0 
C:\Users\Kalle\AppData\Local\Temp\ccyOiGeb.s:1142   .text.disk_initialize:0000000000000268 .L0 
C:\Users\Kalle\AppData\Local\Temp\ccyOiGeb.s:1147   .text.disk_initialize:000000000000026e .L0 
C:\Users\Kalle\AppData\Local\Temp\ccyOiGeb.s:1151   .text.disk_initialize:0000000000000278 .L0 
C:\Users\Kalle\AppData\Local\Temp\ccyOiGeb.s:1155   .text.disk_initialize:000000000000027a .L0 
C:\Users\Kalle\AppData\Local\Temp\ccyOiGeb.s:1156   .text.disk_initialize:000000000000027a .L0 
C:\Users\Kalle\AppData\Local\Temp\ccyOiGeb.s:1159   .text.disk_initialize:0000000000000282 .L0 
C:\Users\Kalle\AppData\Local\Temp\ccyOiGeb.s:1161   .text.disk_initialize:0000000000000284 .L0 
C:\Users\Kalle\AppData\Local\Temp\ccyOiGeb.s:1164   .text.disk_initialize:0000000000000286 .L0 
C:\Users\Kalle\AppData\Local\Temp\ccyOiGeb.s:1165   .text.disk_initialize:0000000000000286 .L0 
C:\Users\Kalle\AppData\Local\Temp\ccyOiGeb.s:1168   .text.disk_initialize:000000000000028e .L0 
C:\Users\Kalle\AppData\Local\Temp\ccyOiGeb.s:1170   .text.disk_initialize:0000000000000292 .L0 
C:\Users\Kalle\AppData\Local\Temp\ccyOiGeb.s:1175   .text.disk_initialize:00000000000002a0 .L0 
C:\Users\Kalle\AppData\Local\Temp\ccyOiGeb.s:1177   .text.disk_initialize:00000000000002a4 .L0 
C:\Users\Kalle\AppData\Local\Temp\ccyOiGeb.s:1178   .text.disk_initialize:00000000000002a4 .L0 
C:\Users\Kalle\AppData\Local\Temp\ccyOiGeb.s:1182   .text.disk_initialize:00000000000002a8 .L0 
C:\Users\Kalle\AppData\Local\Temp\ccyOiGeb.s:1187   .text.disk_initialize:00000000000002ae .L0 
C:\Users\Kalle\AppData\Local\Temp\ccyOiGeb.s:1191   .text.disk_initialize:00000000000002b2 .L0 
C:\Users\Kalle\AppData\Local\Temp\ccyOiGeb.s:1192   .text.disk_initialize:00000000000002b2 .L0 
C:\Users\Kalle\AppData\Local\Temp\ccyOiGeb.s:1195   .text.disk_initialize:00000000000002ba .L0 
C:\Users\Kalle\AppData\Local\Temp\ccyOiGeb.s:1201   .text.disk_initialize:00000000000002c6 .L0 
C:\Users\Kalle\AppData\Local\Temp\ccyOiGeb.s:1205   .text.disk_initialize:00000000000002c8 .L0 
C:\Users\Kalle\AppData\Local\Temp\ccyOiGeb.s:1206   .text.disk_initialize:00000000000002c8 .L0 
C:\Users\Kalle\AppData\Local\Temp\ccyOiGeb.s:1212   .text.disk_initialize:00000000000002d2 .L0 
C:\Users\Kalle\AppData\Local\Temp\ccyOiGeb.s:1213   .text.disk_initialize:00000000000002d2 .L0 
C:\Users\Kalle\AppData\Local\Temp\ccyOiGeb.s:1216   .text.disk_initialize:00000000000002da .L0 
C:\Users\Kalle\AppData\Local\Temp\ccyOiGeb.s:1222   .text.disk_initialize:00000000000002e6 .L0 
C:\Users\Kalle\AppData\Local\Temp\ccyOiGeb.s:1223   .text.disk_initialize:00000000000002e8 .L0 
C:\Users\Kalle\AppData\Local\Temp\ccyOiGeb.s:1230   .text.disk_status:0000000000000000 disk_status
C:\Users\Kalle\AppData\Local\Temp\ccyOiGeb.s:1233   .text.disk_status:0000000000000000 .L0 
C:\Users\Kalle\AppData\Local\Temp\ccyOiGeb.s:1235   .text.disk_status:0000000000000000 .L0 
C:\Users\Kalle\AppData\Local\Temp\ccyOiGeb.s:1236   .text.disk_status:0000000000000000 .L0 
C:\Users\Kalle\AppData\Local\Temp\ccyOiGeb.s:1237   .text.disk_status:0000000000000000 .L0 
C:\Users\Kalle\AppData\Local\Temp\ccyOiGeb.s:1239   .text.disk_status:0000000000000002 .L0 
C:\Users\Kalle\AppData\Local\Temp\ccyOiGeb.s:1240   .text.disk_status:0000000000000002 .L0 
C:\Users\Kalle\AppData\Local\Temp\ccyOiGeb.s:1248   .text.disk_status:0000000000000010 .L0 
C:\Users\Kalle\AppData\Local\Temp\ccyOiGeb.s:1251   .text.disk_status:0000000000000012 .L0 
C:\Users\Kalle\AppData\Local\Temp\ccyOiGeb.s:1252   .text.disk_status:0000000000000014 .L0 
C:\Users\Kalle\AppData\Local\Temp\ccyOiGeb.s:1259   .text.disk_read:0000000000000000 disk_read
C:\Users\Kalle\AppData\Local\Temp\ccyOiGeb.s:1262   .text.disk_read:0000000000000000 .L0 
C:\Users\Kalle\AppData\Local\Temp\ccyOiGeb.s:1264   .text.disk_read:0000000000000000 .L0 
C:\Users\Kalle\AppData\Local\Temp\ccyOiGeb.s:1265   .text.disk_read:0000000000000000 .L0 
C:\Users\Kalle\AppData\Local\Temp\ccyOiGeb.s:1266   .text.disk_read:0000000000000000 .L0 
C:\Users\Kalle\AppData\Local\Temp\ccyOiGeb.s:1268   .text.disk_read:0000000000000002 .L0 
C:\Users\Kalle\AppData\Local\Temp\ccyOiGeb.s:1273   .text.disk_read:000000000000000a .L0 
GAS LISTING C:\Users\Kalle\AppData\Local\Temp\ccyOiGeb.s 			page 66


C:\Users\Kalle\AppData\Local\Temp\ccyOiGeb.s:1274   .text.disk_read:000000000000000a .L0 
C:\Users\Kalle\AppData\Local\Temp\ccyOiGeb.s:1275   .text.disk_read:000000000000000a .L0 
C:\Users\Kalle\AppData\Local\Temp\ccyOiGeb.s:1276   .text.disk_read:000000000000000a .L0 
C:\Users\Kalle\AppData\Local\Temp\ccyOiGeb.s:1278   .text.disk_read:000000000000000a .L0 
C:\Users\Kalle\AppData\Local\Temp\ccyOiGeb.s:1280   .text.disk_read:000000000000000c .L0 
C:\Users\Kalle\AppData\Local\Temp\ccyOiGeb.s:1283   .text.disk_read:0000000000000010 .L0 
C:\Users\Kalle\AppData\Local\Temp\ccyOiGeb.s:1285   .text.disk_read:0000000000000012 .L0 
C:\Users\Kalle\AppData\Local\Temp\ccyOiGeb.s:1287   .text.disk_read:0000000000000014 .L0 
C:\Users\Kalle\AppData\Local\Temp\ccyOiGeb.s:1288   .text.disk_read:0000000000000014 .L0 
C:\Users\Kalle\AppData\Local\Temp\ccyOiGeb.s:1291   .text.disk_read:000000000000001c .L0 
C:\Users\Kalle\AppData\Local\Temp\ccyOiGeb.s:1293   .text.disk_read:000000000000001e .L0 
C:\Users\Kalle\AppData\Local\Temp\ccyOiGeb.s:1296   .text.disk_read:0000000000000022 .L0 
C:\Users\Kalle\AppData\Local\Temp\ccyOiGeb.s:1297   .text.disk_read:0000000000000022 .L0 
C:\Users\Kalle\AppData\Local\Temp\ccyOiGeb.s:1299   .text.disk_read:0000000000000026 .L0 
C:\Users\Kalle\AppData\Local\Temp\ccyOiGeb.s:1304   .text.disk_read:0000000000000030 .L0 
C:\Users\Kalle\AppData\Local\Temp\ccyOiGeb.s:1305   .text.disk_read:0000000000000030 .L0 
C:\Users\Kalle\AppData\Local\Temp\ccyOiGeb.s:1309   .text.disk_read:0000000000000032 .L0 
C:\Users\Kalle\AppData\Local\Temp\ccyOiGeb.s:1310   .text.disk_read:0000000000000032 .L0 
C:\Users\Kalle\AppData\Local\Temp\ccyOiGeb.s:1312   .text.disk_read:0000000000000034 .L0 
C:\Users\Kalle\AppData\Local\Temp\ccyOiGeb.s:1315   .text.disk_read:0000000000000036 .L0 
C:\Users\Kalle\AppData\Local\Temp\ccyOiGeb.s:1318   .text.disk_read:000000000000003a .L0 
C:\Users\Kalle\AppData\Local\Temp\ccyOiGeb.s:1319   .text.disk_read:000000000000003a .L0 
C:\Users\Kalle\AppData\Local\Temp\ccyOiGeb.s:1325   .text.disk_read:0000000000000046 .L0 
C:\Users\Kalle\AppData\Local\Temp\ccyOiGeb.s:1331   .text.disk_read:0000000000000048 .L0 
C:\Users\Kalle\AppData\Local\Temp\ccyOiGeb.s:1332   .text.disk_read:0000000000000048 .L0 
C:\Users\Kalle\AppData\Local\Temp\ccyOiGeb.s:1337   .text.disk_read:0000000000000056 .L0 
C:\Users\Kalle\AppData\Local\Temp\ccyOiGeb.s:1344   .text.disk_read:0000000000000062 .L0 
C:\Users\Kalle\AppData\Local\Temp\ccyOiGeb.s:1345   .text.disk_read:0000000000000062 .L0 
C:\Users\Kalle\AppData\Local\Temp\ccyOiGeb.s:1346   .text.disk_read:0000000000000064 .L0 
C:\Users\Kalle\AppData\Local\Temp\ccyOiGeb.s:1347   .text.disk_read:0000000000000064 .L0 
C:\Users\Kalle\AppData\Local\Temp\ccyOiGeb.s:1349   .text.disk_read:0000000000000066 .L0 
C:\Users\Kalle\AppData\Local\Temp\ccyOiGeb.s:1352   .text.disk_read:000000000000006a .L0 
C:\Users\Kalle\AppData\Local\Temp\ccyOiGeb.s:1354   .text.disk_read:000000000000006c .L0 
C:\Users\Kalle\AppData\Local\Temp\ccyOiGeb.s:1357   .text.disk_read:000000000000006e .L0 
C:\Users\Kalle\AppData\Local\Temp\ccyOiGeb.s:1362   .text.disk_read:0000000000000070 .L0 
C:\Users\Kalle\AppData\Local\Temp\ccyOiGeb.s:1364   .text.disk_read:0000000000000070 .L0 
C:\Users\Kalle\AppData\Local\Temp\ccyOiGeb.s:1367   .text.disk_read:0000000000000074 .L0 
C:\Users\Kalle\AppData\Local\Temp\ccyOiGeb.s:1370   .text.disk_read:0000000000000076 .L0 
C:\Users\Kalle\AppData\Local\Temp\ccyOiGeb.s:1371   .text.disk_read:0000000000000076 .L0 
C:\Users\Kalle\AppData\Local\Temp\ccyOiGeb.s:1372   .text.disk_read:0000000000000076 .L0 
C:\Users\Kalle\AppData\Local\Temp\ccyOiGeb.s:1377   .text.disk_read:0000000000000084 .L0 
C:\Users\Kalle\AppData\Local\Temp\ccyOiGeb.s:1378   .text.disk_read:0000000000000084 .L0 
C:\Users\Kalle\AppData\Local\Temp\ccyOiGeb.s:1381   .text.disk_read:0000000000000086 .L0 
C:\Users\Kalle\AppData\Local\Temp\ccyOiGeb.s:1386   .text.disk_read:000000000000008a .L0 
C:\Users\Kalle\AppData\Local\Temp\ccyOiGeb.s:1393   .text.disk_read:0000000000000096 .L0 
C:\Users\Kalle\AppData\Local\Temp\ccyOiGeb.s:1394   .text.disk_read:0000000000000096 .L0 
C:\Users\Kalle\AppData\Local\Temp\ccyOiGeb.s:1399   .text.disk_read:00000000000000a4 .L0 
C:\Users\Kalle\AppData\Local\Temp\ccyOiGeb.s:1405   .text.disk_read:00000000000000b0 .L0 
C:\Users\Kalle\AppData\Local\Temp\ccyOiGeb.s:1409   .text.disk_read:00000000000000b2 .L0 
C:\Users\Kalle\AppData\Local\Temp\ccyOiGeb.s:1410   .text.disk_read:00000000000000b2 .L0 
C:\Users\Kalle\AppData\Local\Temp\ccyOiGeb.s:1416   .text.disk_read:00000000000000be .L0 
C:\Users\Kalle\AppData\Local\Temp\ccyOiGeb.s:1418   .text.disk_read:00000000000000c0 .L0 
C:\Users\Kalle\AppData\Local\Temp\ccyOiGeb.s:1423   .text.disk_read:00000000000000ce .L0 
C:\Users\Kalle\AppData\Local\Temp\ccyOiGeb.s:1428   .text.disk_read:00000000000000d8 .L0 
C:\Users\Kalle\AppData\Local\Temp\ccyOiGeb.s:1435   .text.disk_write:0000000000000000 disk_write
C:\Users\Kalle\AppData\Local\Temp\ccyOiGeb.s:1438   .text.disk_write:0000000000000000 .L0 
C:\Users\Kalle\AppData\Local\Temp\ccyOiGeb.s:1440   .text.disk_write:0000000000000000 .L0 
GAS LISTING C:\Users\Kalle\AppData\Local\Temp\ccyOiGeb.s 			page 67


C:\Users\Kalle\AppData\Local\Temp\ccyOiGeb.s:1441   .text.disk_write:0000000000000000 .L0 
C:\Users\Kalle\AppData\Local\Temp\ccyOiGeb.s:1442   .text.disk_write:0000000000000000 .L0 
C:\Users\Kalle\AppData\Local\Temp\ccyOiGeb.s:1444   .text.disk_write:0000000000000002 .L0 
C:\Users\Kalle\AppData\Local\Temp\ccyOiGeb.s:1449   .text.disk_write:000000000000000a .L0 
C:\Users\Kalle\AppData\Local\Temp\ccyOiGeb.s:1450   .text.disk_write:000000000000000a .L0 
C:\Users\Kalle\AppData\Local\Temp\ccyOiGeb.s:1451   .text.disk_write:000000000000000a .L0 
C:\Users\Kalle\AppData\Local\Temp\ccyOiGeb.s:1452   .text.disk_write:000000000000000a .L0 
C:\Users\Kalle\AppData\Local\Temp\ccyOiGeb.s:1454   .text.disk_write:000000000000000a .L0 
C:\Users\Kalle\AppData\Local\Temp\ccyOiGeb.s:1456   .text.disk_write:000000000000000c .L0 
C:\Users\Kalle\AppData\Local\Temp\ccyOiGeb.s:1459   .text.disk_write:0000000000000010 .L0 
C:\Users\Kalle\AppData\Local\Temp\ccyOiGeb.s:1461   .text.disk_write:0000000000000012 .L0 
C:\Users\Kalle\AppData\Local\Temp\ccyOiGeb.s:1463   .text.disk_write:0000000000000014 .L0 
C:\Users\Kalle\AppData\Local\Temp\ccyOiGeb.s:1464   .text.disk_write:0000000000000014 .L0 
C:\Users\Kalle\AppData\Local\Temp\ccyOiGeb.s:1468   .text.disk_write:0000000000000020 .L0 
C:\Users\Kalle\AppData\Local\Temp\ccyOiGeb.s:1470   .text.disk_write:0000000000000022 .L0 
C:\Users\Kalle\AppData\Local\Temp\ccyOiGeb.s:1473   .text.disk_write:0000000000000026 .L0 
C:\Users\Kalle\AppData\Local\Temp\ccyOiGeb.s:1474   .text.disk_write:0000000000000026 .L0 
C:\Users\Kalle\AppData\Local\Temp\ccyOiGeb.s:1476   .text.disk_write:000000000000002a .L0 
C:\Users\Kalle\AppData\Local\Temp\ccyOiGeb.s:1478   .text.disk_write:000000000000002c .L0 
C:\Users\Kalle\AppData\Local\Temp\ccyOiGeb.s:1481   .text.disk_write:0000000000000030 .L0 
C:\Users\Kalle\AppData\Local\Temp\ccyOiGeb.s:1482   .text.disk_write:0000000000000030 .L0 
C:\Users\Kalle\AppData\Local\Temp\ccyOiGeb.s:1486   .text.disk_write:000000000000003a .L0 
C:\Users\Kalle\AppData\Local\Temp\ccyOiGeb.s:1490   .text.disk_write:0000000000000040 .L0 
C:\Users\Kalle\AppData\Local\Temp\ccyOiGeb.s:1491   .text.disk_write:0000000000000040 .L0 
C:\Users\Kalle\AppData\Local\Temp\ccyOiGeb.s:1494   .text.disk_write:0000000000000046 .L0 
C:\Users\Kalle\AppData\Local\Temp\ccyOiGeb.s:1495   .text.disk_write:0000000000000046 .L0 
C:\Users\Kalle\AppData\Local\Temp\ccyOiGeb.s:1500   .text.disk_write:000000000000004a .L0 
C:\Users\Kalle\AppData\Local\Temp\ccyOiGeb.s:1501   .text.disk_write:000000000000004a .L0 
C:\Users\Kalle\AppData\Local\Temp\ccyOiGeb.s:1507   .text.disk_write:0000000000000058 .L0 
C:\Users\Kalle\AppData\Local\Temp\ccyOiGeb.s:1510   .text.disk_write:000000000000005a .L0 
C:\Users\Kalle\AppData\Local\Temp\ccyOiGeb.s:1514   .text.disk_write:000000000000005a .L0 
C:\Users\Kalle\AppData\Local\Temp\ccyOiGeb.s:1515   .text.disk_write:000000000000005a .L0 
C:\Users\Kalle\AppData\Local\Temp\ccyOiGeb.s:1516   .text.disk_write:000000000000005a .L0 
C:\Users\Kalle\AppData\Local\Temp\ccyOiGeb.s:1517   .text.disk_write:000000000000005a .L0 
C:\Users\Kalle\AppData\Local\Temp\ccyOiGeb.s:1521   .text.disk_write:0000000000000066 .L0 
C:\Users\Kalle\AppData\Local\Temp\ccyOiGeb.s:1522   .text.disk_write:0000000000000066 .L0 
C:\Users\Kalle\AppData\Local\Temp\ccyOiGeb.s:1530   .text.disk_write:0000000000000068 .L0 
C:\Users\Kalle\AppData\Local\Temp\ccyOiGeb.s:1531   .text.disk_write:0000000000000068 .L0 
C:\Users\Kalle\AppData\Local\Temp\ccyOiGeb.s:1532   .text.disk_write:0000000000000068 .L0 
C:\Users\Kalle\AppData\Local\Temp\ccyOiGeb.s:1533   .text.disk_write:0000000000000068 .L0 
C:\Users\Kalle\AppData\Local\Temp\ccyOiGeb.s:1537   .text.disk_write:0000000000000074 .L0 
C:\Users\Kalle\AppData\Local\Temp\ccyOiGeb.s:1543   .text.disk_write:0000000000000076 .L0 
C:\Users\Kalle\AppData\Local\Temp\ccyOiGeb.s:1549   .text.disk_write:0000000000000078 .L0 
C:\Users\Kalle\AppData\Local\Temp\ccyOiGeb.s:1550   .text.disk_write:0000000000000078 .L0 
C:\Users\Kalle\AppData\Local\Temp\ccyOiGeb.s:1555   .text.disk_write:0000000000000086 .L0 
C:\Users\Kalle\AppData\Local\Temp\ccyOiGeb.s:1562   .text.disk_write:0000000000000092 .L0 
C:\Users\Kalle\AppData\Local\Temp\ccyOiGeb.s:1563   .text.disk_write:0000000000000092 .L0 
C:\Users\Kalle\AppData\Local\Temp\ccyOiGeb.s:1564   .text.disk_write:0000000000000094 .L0 
C:\Users\Kalle\AppData\Local\Temp\ccyOiGeb.s:1565   .text.disk_write:0000000000000094 .L0 
C:\Users\Kalle\AppData\Local\Temp\ccyOiGeb.s:1567   .text.disk_write:0000000000000096 .L0 
C:\Users\Kalle\AppData\Local\Temp\ccyOiGeb.s:1570   .text.disk_write:000000000000009a .L0 
C:\Users\Kalle\AppData\Local\Temp\ccyOiGeb.s:1572   .text.disk_write:000000000000009c .L0 
C:\Users\Kalle\AppData\Local\Temp\ccyOiGeb.s:1575   .text.disk_write:000000000000009e .L0 
C:\Users\Kalle\AppData\Local\Temp\ccyOiGeb.s:1580   .text.disk_write:00000000000000a0 .L0 
C:\Users\Kalle\AppData\Local\Temp\ccyOiGeb.s:1584   .text.disk_write:00000000000000a0 .L0 
C:\Users\Kalle\AppData\Local\Temp\ccyOiGeb.s:1588   .text.disk_write:00000000000000ac .L0 
C:\Users\Kalle\AppData\Local\Temp\ccyOiGeb.s:1594   .text.disk_write:00000000000000b6 .L0 
GAS LISTING C:\Users\Kalle\AppData\Local\Temp\ccyOiGeb.s 			page 68


C:\Users\Kalle\AppData\Local\Temp\ccyOiGeb.s:1595   .text.disk_write:00000000000000b6 .L0 
C:\Users\Kalle\AppData\Local\Temp\ccyOiGeb.s:1597   .text.disk_write:00000000000000b8 .L0 
C:\Users\Kalle\AppData\Local\Temp\ccyOiGeb.s:1600   .text.disk_write:00000000000000ba .L0 
C:\Users\Kalle\AppData\Local\Temp\ccyOiGeb.s:1603   .text.disk_write:00000000000000be .L0 
C:\Users\Kalle\AppData\Local\Temp\ccyOiGeb.s:1608   .text.disk_write:00000000000000c2 .L0 
C:\Users\Kalle\AppData\Local\Temp\ccyOiGeb.s:1609   .text.disk_write:00000000000000c2 .L0 
C:\Users\Kalle\AppData\Local\Temp\ccyOiGeb.s:1617   .text.disk_write:00000000000000c6 .L0 
C:\Users\Kalle\AppData\Local\Temp\ccyOiGeb.s:1621   .text.disk_write:00000000000000d2 .L0 
C:\Users\Kalle\AppData\Local\Temp\ccyOiGeb.s:1628   .text.disk_write:00000000000000d8 .L0 
C:\Users\Kalle\AppData\Local\Temp\ccyOiGeb.s:1633   .text.disk_write:00000000000000e0 .L0 
C:\Users\Kalle\AppData\Local\Temp\ccyOiGeb.s:1640   .text.disk_write:00000000000000ec .L0 
C:\Users\Kalle\AppData\Local\Temp\ccyOiGeb.s:1641   .text.disk_write:00000000000000ec .L0 
C:\Users\Kalle\AppData\Local\Temp\ccyOiGeb.s:1647   .text.disk_write:00000000000000f8 .L0 
C:\Users\Kalle\AppData\Local\Temp\ccyOiGeb.s:1652   .text.disk_write:00000000000000fa .L0 
C:\Users\Kalle\AppData\Local\Temp\ccyOiGeb.s:1653   .text.disk_write:00000000000000fa .L0 
C:\Users\Kalle\AppData\Local\Temp\ccyOiGeb.s:1654   .text.disk_write:00000000000000fa .L0 
C:\Users\Kalle\AppData\Local\Temp\ccyOiGeb.s:1658   .text.disk_write:0000000000000106 .L0 
C:\Users\Kalle\AppData\Local\Temp\ccyOiGeb.s:1660   .text.disk_write:0000000000000108 .L0 
C:\Users\Kalle\AppData\Local\Temp\ccyOiGeb.s:1664   .text.disk_write:0000000000000114 .L0 
C:\Users\Kalle\AppData\Local\Temp\ccyOiGeb.s:1670   .text.disk_write:000000000000011e .L0 
C:\Users\Kalle\AppData\Local\Temp\ccyOiGeb.s:1672   .text.disk_write:0000000000000124 .L0 
C:\Users\Kalle\AppData\Local\Temp\ccyOiGeb.s:1679   .text.disk_ioctl:0000000000000000 disk_ioctl
C:\Users\Kalle\AppData\Local\Temp\ccyOiGeb.s:1682   .text.disk_ioctl:0000000000000000 .L0 
C:\Users\Kalle\AppData\Local\Temp\ccyOiGeb.s:1684   .text.disk_ioctl:0000000000000000 .L0 
C:\Users\Kalle\AppData\Local\Temp\ccyOiGeb.s:1685   .text.disk_ioctl:0000000000000000 .L0 
C:\Users\Kalle\AppData\Local\Temp\ccyOiGeb.s:1686   .text.disk_ioctl:0000000000000000 .L0 
C:\Users\Kalle\AppData\Local\Temp\ccyOiGeb.s:1687   .text.disk_ioctl:0000000000000000 .L0 
C:\Users\Kalle\AppData\Local\Temp\ccyOiGeb.s:1688   .text.disk_ioctl:0000000000000000 .L0 
C:\Users\Kalle\AppData\Local\Temp\ccyOiGeb.s:1689   .text.disk_ioctl:0000000000000000 .L0 
C:\Users\Kalle\AppData\Local\Temp\ccyOiGeb.s:1691   .text.disk_ioctl:0000000000000002 .L0 
C:\Users\Kalle\AppData\Local\Temp\ccyOiGeb.s:1696   .text.disk_ioctl:000000000000000a .L0 
C:\Users\Kalle\AppData\Local\Temp\ccyOiGeb.s:1697   .text.disk_ioctl:000000000000000a .L0 
C:\Users\Kalle\AppData\Local\Temp\ccyOiGeb.s:1698   .text.disk_ioctl:000000000000000a .L0 
C:\Users\Kalle\AppData\Local\Temp\ccyOiGeb.s:1699   .text.disk_ioctl:000000000000000a .L0 
C:\Users\Kalle\AppData\Local\Temp\ccyOiGeb.s:1701   .text.disk_ioctl:000000000000000a .L0 
C:\Users\Kalle\AppData\Local\Temp\ccyOiGeb.s:1703   .text.disk_ioctl:000000000000000c .L0 
C:\Users\Kalle\AppData\Local\Temp\ccyOiGeb.s:1705   .text.disk_ioctl:000000000000000e .L0 
C:\Users\Kalle\AppData\Local\Temp\ccyOiGeb.s:1706   .text.disk_ioctl:000000000000000e .L0 
C:\Users\Kalle\AppData\Local\Temp\ccyOiGeb.s:1709   .text.disk_ioctl:0000000000000016 .L0 
C:\Users\Kalle\AppData\Local\Temp\ccyOiGeb.s:1711   .text.disk_ioctl:0000000000000018 .L0 
C:\Users\Kalle\AppData\Local\Temp\ccyOiGeb.s:1714   .text.disk_ioctl:000000000000001c .L0 
C:\Users\Kalle\AppData\Local\Temp\ccyOiGeb.s:1719   .text.disk_ioctl:0000000000000022 .L0 
C:\Users\Kalle\AppData\Local\Temp\ccyOiGeb.s:1720   .text.disk_ioctl:0000000000000022 .L0 
C:\Users\Kalle\AppData\Local\Temp\ccyOiGeb.s:1725   .text.disk_ioctl:000000000000002e .L0 
C:\Users\Kalle\AppData\Local\Temp\ccyOiGeb.s:1727   .text.disk_ioctl:0000000000000030 .L0 
C:\Users\Kalle\AppData\Local\Temp\ccyOiGeb.s:1733   .text.disk_ioctl:0000000000000034 .L0 
C:\Users\Kalle\AppData\Local\Temp\ccyOiGeb.s:1734   .text.disk_ioctl:0000000000000034 .L0 
C:\Users\Kalle\AppData\Local\Temp\ccyOiGeb.s:1739   .text.disk_ioctl:0000000000000042 .L0 
C:\Users\Kalle\AppData\Local\Temp\ccyOiGeb.s:1746   .text.disk_ioctl:000000000000004e .L0 
C:\Users\Kalle\AppData\Local\Temp\ccyOiGeb.s:1747   .text.disk_ioctl:000000000000004e .L0 
C:\Users\Kalle\AppData\Local\Temp\ccyOiGeb.s:1748   .text.disk_ioctl:0000000000000050 .L0 
C:\Users\Kalle\AppData\Local\Temp\ccyOiGeb.s:1749   .text.disk_ioctl:0000000000000050 .L0 
C:\Users\Kalle\AppData\Local\Temp\ccyOiGeb.s:1751   .text.disk_ioctl:0000000000000052 .L0 
C:\Users\Kalle\AppData\Local\Temp\ccyOiGeb.s:1754   .text.disk_ioctl:0000000000000056 .L0 
C:\Users\Kalle\AppData\Local\Temp\ccyOiGeb.s:1756   .text.disk_ioctl:0000000000000058 .L0 
C:\Users\Kalle\AppData\Local\Temp\ccyOiGeb.s:1759   .text.disk_ioctl:000000000000005a .L0 
C:\Users\Kalle\AppData\Local\Temp\ccyOiGeb.s:1764   .text.disk_ioctl:000000000000005c .L0 
GAS LISTING C:\Users\Kalle\AppData\Local\Temp\ccyOiGeb.s 			page 69


C:\Users\Kalle\AppData\Local\Temp\ccyOiGeb.s:1766   .text.disk_ioctl:000000000000005c .L0 
C:\Users\Kalle\AppData\Local\Temp\ccyOiGeb.s:1767   .text.disk_ioctl:000000000000005c .L0 
C:\Users\Kalle\AppData\Local\Temp\ccyOiGeb.s:1770   .text.disk_ioctl:0000000000000064 .L0 
C:\Users\Kalle\AppData\Local\Temp\ccyOiGeb.s:1776   .text.disk_ioctl:000000000000006e .L0 
C:\Users\Kalle\AppData\Local\Temp\ccyOiGeb.s:1781   .text.disk_ioctl:0000000000000072 .L0 
C:\Users\Kalle\AppData\Local\Temp\ccyOiGeb.s:1782   .text.disk_ioctl:0000000000000072 .L0 
C:\Users\Kalle\AppData\Local\Temp\ccyOiGeb.s:1785   .text.disk_ioctl:000000000000007a .L0 
C:\Users\Kalle\AppData\Local\Temp\ccyOiGeb.s:1787   .text.disk_ioctl:000000000000007e .L0 
C:\Users\Kalle\AppData\Local\Temp\ccyOiGeb.s:1790   .text.disk_ioctl:0000000000000080 .L0 
C:\Users\Kalle\AppData\Local\Temp\ccyOiGeb.s:1793   .text.disk_ioctl:0000000000000084 .L0 
C:\Users\Kalle\AppData\Local\Temp\ccyOiGeb.s:1794   .text.disk_ioctl:0000000000000084 .L0 
C:\Users\Kalle\AppData\Local\Temp\ccyOiGeb.s:1799   .text.disk_ioctl:0000000000000090 .L0 
C:\Users\Kalle\AppData\Local\Temp\ccyOiGeb.s:1801   .text.disk_ioctl:0000000000000092 .L0 
C:\Users\Kalle\AppData\Local\Temp\ccyOiGeb.s:1805   .text.disk_ioctl:000000000000009e .L0 
C:\Users\Kalle\AppData\Local\Temp\ccyOiGeb.s:1806   .text.disk_ioctl:000000000000009e .L0 
C:\Users\Kalle\AppData\Local\Temp\ccyOiGeb.s:1811   .text.disk_ioctl:00000000000000aa .L0 
C:\Users\Kalle\AppData\Local\Temp\ccyOiGeb.s:1816   .text.disk_ioctl:00000000000000b0 .L0 
C:\Users\Kalle\AppData\Local\Temp\ccyOiGeb.s:1823   .text.disk_ioctl:00000000000000c2 .L0 
C:\Users\Kalle\AppData\Local\Temp\ccyOiGeb.s:1825   .text.disk_ioctl:00000000000000c4 .L0 
C:\Users\Kalle\AppData\Local\Temp\ccyOiGeb.s:1826   .text.disk_ioctl:00000000000000c4 .L0 
C:\Users\Kalle\AppData\Local\Temp\ccyOiGeb.s:1828   .text.disk_ioctl:00000000000000c8 .L0 
C:\Users\Kalle\AppData\Local\Temp\ccyOiGeb.s:1830   .text.disk_ioctl:00000000000000ca .L0 
C:\Users\Kalle\AppData\Local\Temp\ccyOiGeb.s:1832   .text.disk_ioctl:00000000000000ce .L0 
C:\Users\Kalle\AppData\Local\Temp\ccyOiGeb.s:1835   .text.disk_ioctl:00000000000000d4 .L0 
C:\Users\Kalle\AppData\Local\Temp\ccyOiGeb.s:1838   .text.disk_ioctl:00000000000000d8 .L0 
C:\Users\Kalle\AppData\Local\Temp\ccyOiGeb.s:1842   .text.disk_ioctl:00000000000000da .L0 
C:\Users\Kalle\AppData\Local\Temp\ccyOiGeb.s:1843   .text.disk_ioctl:00000000000000da .L0 
C:\Users\Kalle\AppData\Local\Temp\ccyOiGeb.s:1846   .text.disk_ioctl:00000000000000e2 .L0 
C:\Users\Kalle\AppData\Local\Temp\ccyOiGeb.s:1851   .text.disk_ioctl:00000000000000e8 .L0 
C:\Users\Kalle\AppData\Local\Temp\ccyOiGeb.s:1852   .text.disk_ioctl:00000000000000e8 .L0 
C:\Users\Kalle\AppData\Local\Temp\ccyOiGeb.s:1859   .text.disk_ioctl:00000000000000f4 .L0 
C:\Users\Kalle\AppData\Local\Temp\ccyOiGeb.s:1861   .text.disk_ioctl:00000000000000f6 .L0 
C:\Users\Kalle\AppData\Local\Temp\ccyOiGeb.s:1866   .text.disk_ioctl:0000000000000102 .L0 
C:\Users\Kalle\AppData\Local\Temp\ccyOiGeb.s:1868   .text.disk_ioctl:0000000000000104 .L0 
C:\Users\Kalle\AppData\Local\Temp\ccyOiGeb.s:1869   .text.disk_ioctl:0000000000000104 .L0 
C:\Users\Kalle\AppData\Local\Temp\ccyOiGeb.s:1871   .text.disk_ioctl:0000000000000108 .L0 
C:\Users\Kalle\AppData\Local\Temp\ccyOiGeb.s:1875   .text.disk_ioctl:000000000000010e .L0 
C:\Users\Kalle\AppData\Local\Temp\ccyOiGeb.s:1876   .text.disk_ioctl:000000000000010e .L0 
C:\Users\Kalle\AppData\Local\Temp\ccyOiGeb.s:1877   .text.disk_ioctl:000000000000010e .L0 
C:\Users\Kalle\AppData\Local\Temp\ccyOiGeb.s:1878   .text.disk_ioctl:000000000000010e .L0 
C:\Users\Kalle\AppData\Local\Temp\ccyOiGeb.s:1880   .text.disk_ioctl:0000000000000112 .L0 
C:\Users\Kalle\AppData\Local\Temp\ccyOiGeb.s:1883   .text.disk_ioctl:0000000000000116 .L0 
C:\Users\Kalle\AppData\Local\Temp\ccyOiGeb.s:1885   .text.disk_ioctl:000000000000011a .L0 
C:\Users\Kalle\AppData\Local\Temp\ccyOiGeb.s:1887   .text.disk_ioctl:000000000000011e .L0 
C:\Users\Kalle\AppData\Local\Temp\ccyOiGeb.s:1889   .text.disk_ioctl:0000000000000122 .L0 
C:\Users\Kalle\AppData\Local\Temp\ccyOiGeb.s:1891   .text.disk_ioctl:0000000000000126 .L0 
C:\Users\Kalle\AppData\Local\Temp\ccyOiGeb.s:1894   .text.disk_ioctl:0000000000000128 .L0 
C:\Users\Kalle\AppData\Local\Temp\ccyOiGeb.s:1896   .text.disk_ioctl:000000000000012a .L0 
C:\Users\Kalle\AppData\Local\Temp\ccyOiGeb.s:1898   .text.disk_ioctl:000000000000012c .L0 
C:\Users\Kalle\AppData\Local\Temp\ccyOiGeb.s:1902   .text.disk_ioctl:0000000000000130 .L0 
C:\Users\Kalle\AppData\Local\Temp\ccyOiGeb.s:1904   .text.disk_ioctl:0000000000000132 .L0 
C:\Users\Kalle\AppData\Local\Temp\ccyOiGeb.s:1906   .text.disk_ioctl:0000000000000134 .L0 
C:\Users\Kalle\AppData\Local\Temp\ccyOiGeb.s:1908   .text.disk_ioctl:0000000000000136 .L0 
C:\Users\Kalle\AppData\Local\Temp\ccyOiGeb.s:1912   .text.disk_ioctl:000000000000013c .L0 
C:\Users\Kalle\AppData\Local\Temp\ccyOiGeb.s:1914   .text.disk_ioctl:000000000000013e .L0 
C:\Users\Kalle\AppData\Local\Temp\ccyOiGeb.s:1916   .text.disk_ioctl:0000000000000140 .L0 
C:\Users\Kalle\AppData\Local\Temp\ccyOiGeb.s:1918   .text.disk_ioctl:0000000000000142 .L0 
GAS LISTING C:\Users\Kalle\AppData\Local\Temp\ccyOiGeb.s 			page 70


C:\Users\Kalle\AppData\Local\Temp\ccyOiGeb.s:1920   .text.disk_ioctl:0000000000000144 .L0 
C:\Users\Kalle\AppData\Local\Temp\ccyOiGeb.s:1922   .text.disk_ioctl:0000000000000146 .L0 
C:\Users\Kalle\AppData\Local\Temp\ccyOiGeb.s:1924   .text.disk_ioctl:0000000000000148 .L0 
C:\Users\Kalle\AppData\Local\Temp\ccyOiGeb.s:1926   .text.disk_ioctl:000000000000014c .L0 
C:\Users\Kalle\AppData\Local\Temp\ccyOiGeb.s:1928   .text.disk_ioctl:0000000000000150 .L0 
C:\Users\Kalle\AppData\Local\Temp\ccyOiGeb.s:1933   .text.disk_ioctl:0000000000000154 .L0 
C:\Users\Kalle\AppData\Local\Temp\ccyOiGeb.s:1934   .text.disk_ioctl:0000000000000154 .L0 
C:\Users\Kalle\AppData\Local\Temp\ccyOiGeb.s:1939   .text.disk_ioctl:000000000000015e .L0 
C:\Users\Kalle\AppData\Local\Temp\ccyOiGeb.s:1941   .text.disk_ioctl:0000000000000160 .L0 
C:\Users\Kalle\AppData\Local\Temp\ccyOiGeb.s:1946   .text.disk_ioctl:000000000000016c .L0 
C:\Users\Kalle\AppData\Local\Temp\ccyOiGeb.s:1948   .text.disk_ioctl:000000000000016e .L0 
C:\Users\Kalle\AppData\Local\Temp\ccyOiGeb.s:1949   .text.disk_ioctl:000000000000016e .L0 
C:\Users\Kalle\AppData\Local\Temp\ccyOiGeb.s:1955   .text.disk_ioctl:000000000000017e .L0 
C:\Users\Kalle\AppData\Local\Temp\ccyOiGeb.s:1956   .text.disk_ioctl:000000000000017e .L0 
C:\Users\Kalle\AppData\Local\Temp\ccyOiGeb.s:1958   .text.disk_ioctl:0000000000000182 .L0 
C:\Users\Kalle\AppData\Local\Temp\ccyOiGeb.s:1961   .text.disk_ioctl:0000000000000188 .L0 
C:\Users\Kalle\AppData\Local\Temp\ccyOiGeb.s:1963   .text.disk_ioctl:000000000000018a .L0 
C:\Users\Kalle\AppData\Local\Temp\ccyOiGeb.s:1965   .text.disk_ioctl:000000000000018c .L0 
C:\Users\Kalle\AppData\Local\Temp\ccyOiGeb.s:1967   .text.disk_ioctl:000000000000018e .L0 
C:\Users\Kalle\AppData\Local\Temp\ccyOiGeb.s:1969   .text.disk_ioctl:0000000000000190 .L0 
C:\Users\Kalle\AppData\Local\Temp\ccyOiGeb.s:1971   .text.disk_ioctl:0000000000000192 .L0 
C:\Users\Kalle\AppData\Local\Temp\ccyOiGeb.s:1973   .text.disk_ioctl:0000000000000196 .L0 
C:\Users\Kalle\AppData\Local\Temp\ccyOiGeb.s:1975   .text.disk_ioctl:000000000000019a .L0 
C:\Users\Kalle\AppData\Local\Temp\ccyOiGeb.s:1980   .text.disk_ioctl:000000000000019e .L0 
C:\Users\Kalle\AppData\Local\Temp\ccyOiGeb.s:1981   .text.disk_ioctl:000000000000019e .L0 
C:\Users\Kalle\AppData\Local\Temp\ccyOiGeb.s:1988   .text.disk_ioctl:00000000000001aa .L0 
C:\Users\Kalle\AppData\Local\Temp\ccyOiGeb.s:1990   .text.disk_ioctl:00000000000001ae .L0 
C:\Users\Kalle\AppData\Local\Temp\ccyOiGeb.s:1991   .text.disk_ioctl:00000000000001ae .L0 
C:\Users\Kalle\AppData\Local\Temp\ccyOiGeb.s:1993   .text.disk_ioctl:00000000000001b2 .L0 
C:\Users\Kalle\AppData\Local\Temp\ccyOiGeb.s:1995   .text.disk_ioctl:00000000000001b6 .L0 
C:\Users\Kalle\AppData\Local\Temp\ccyOiGeb.s:1997   .text.disk_ioctl:00000000000001b8 .L0 
C:\Users\Kalle\AppData\Local\Temp\ccyOiGeb.s:2002   .text.disk_ioctl:00000000000001c2 .L0 
C:\Users\Kalle\AppData\Local\Temp\ccyOiGeb.s:2003   .text.disk_ioctl:00000000000001c2 .L0 
C:\Users\Kalle\AppData\Local\Temp\ccyOiGeb.s:2004   .text.disk_ioctl:00000000000001c2 .L0 
C:\Users\Kalle\AppData\Local\Temp\ccyOiGeb.s:2006   .text.disk_ioctl:00000000000001c6 .L0 
C:\Users\Kalle\AppData\Local\Temp\ccyOiGeb.s:2009   .text.disk_ioctl:00000000000001ca .L0 
C:\Users\Kalle\AppData\Local\Temp\ccyOiGeb.s:2010   .text.disk_ioctl:00000000000001ca .L0 
C:\Users\Kalle\AppData\Local\Temp\ccyOiGeb.s:2013   .text.disk_ioctl:00000000000001ce .L0 
C:\Users\Kalle\AppData\Local\Temp\ccyOiGeb.s:2014   .text.disk_ioctl:00000000000001ce .L0 
C:\Users\Kalle\AppData\Local\Temp\ccyOiGeb.s:2017   .text.disk_ioctl:00000000000001d2 .L0 
C:\Users\Kalle\AppData\Local\Temp\ccyOiGeb.s:2018   .text.disk_ioctl:00000000000001d2 .L0 
C:\Users\Kalle\AppData\Local\Temp\ccyOiGeb.s:2021   .text.disk_ioctl:00000000000001d4 .L0 
C:\Users\Kalle\AppData\Local\Temp\ccyOiGeb.s:2022   .text.disk_ioctl:00000000000001d4 .L0 
C:\Users\Kalle\AppData\Local\Temp\ccyOiGeb.s:2026   .text.disk_ioctl:00000000000001d6 .L0 
C:\Users\Kalle\AppData\Local\Temp\ccyOiGeb.s:2027   .text.disk_ioctl:00000000000001d6 .L0 
C:\Users\Kalle\AppData\Local\Temp\ccyOiGeb.s:2031   .text.disk_ioctl:00000000000001e2 .L0 
C:\Users\Kalle\AppData\Local\Temp\ccyOiGeb.s:2033   .text.disk_ioctl:00000000000001e6 .L0 
C:\Users\Kalle\AppData\Local\Temp\ccyOiGeb.s:2038   .text.disk_ioctl:00000000000001f4 .L0 
C:\Users\Kalle\AppData\Local\Temp\ccyOiGeb.s:2040   .text.disk_ioctl:00000000000001f8 .L0 
C:\Users\Kalle\AppData\Local\Temp\ccyOiGeb.s:2045   .text.disk_ioctl:0000000000000206 .L0 
C:\Users\Kalle\AppData\Local\Temp\ccyOiGeb.s:2047   .text.disk_ioctl:000000000000020a .L0 
C:\Users\Kalle\AppData\Local\Temp\ccyOiGeb.s:2052   .text.disk_ioctl:0000000000000218 .L0 
C:\Users\Kalle\AppData\Local\Temp\ccyOiGeb.s:2057   .text.disk_ioctl:000000000000021e .L0 
C:\Users\Kalle\AppData\Local\Temp\ccyOiGeb.s:2058   .text.disk_ioctl:000000000000021e .L0 
C:\Users\Kalle\AppData\Local\Temp\ccyOiGeb.s:2059   .text.disk_ioctl:000000000000021e .L0 
C:\Users\Kalle\AppData\Local\Temp\ccyOiGeb.s:2061   .text.disk_ioctl:0000000000000222 .L0 
C:\Users\Kalle\AppData\Local\Temp\ccyOiGeb.s:2064   .text.disk_ioctl:0000000000000226 .L0 
GAS LISTING C:\Users\Kalle\AppData\Local\Temp\ccyOiGeb.s 			page 71


C:\Users\Kalle\AppData\Local\Temp\ccyOiGeb.s:2066   .text.disk_ioctl:000000000000022a .L0 
C:\Users\Kalle\AppData\Local\Temp\ccyOiGeb.s:2070   .text.disk_ioctl:0000000000000230 .L0 
C:\Users\Kalle\AppData\Local\Temp\ccyOiGeb.s:2073   .text.disk_ioctl:0000000000000232 .L0 
C:\Users\Kalle\AppData\Local\Temp\ccyOiGeb.s:2076   .text.disk_ioctl:0000000000000234 .L0 
C:\Users\Kalle\AppData\Local\Temp\ccyOiGeb.s:2078   .text.disk_ioctl:0000000000000236 .L0 
C:\Users\Kalle\AppData\Local\Temp\ccyOiGeb.s:2081   .text.disk_ioctl:000000000000023a .L0 
C:\Users\Kalle\AppData\Local\Temp\ccyOiGeb.s:2083   .text.disk_ioctl:000000000000023c .L0 
C:\Users\Kalle\AppData\Local\Temp\ccyOiGeb.s:2085   .text.disk_ioctl:0000000000000240 .L0 
C:\Users\Kalle\AppData\Local\Temp\ccyOiGeb.s:2090   .text.disk_ioctl:0000000000000244 .L0 
C:\Users\Kalle\AppData\Local\Temp\ccyOiGeb.s:2091   .text.disk_ioctl:0000000000000244 .L0 
C:\Users\Kalle\AppData\Local\Temp\ccyOiGeb.s:2094   .text.disk_ioctl:000000000000024a .L0 
C:\Users\Kalle\AppData\Local\Temp\ccyOiGeb.s:2096   .text.disk_ioctl:000000000000024c .L0 
C:\Users\Kalle\AppData\Local\Temp\ccyOiGeb.s:2098   .text.disk_ioctl:000000000000024e .L0 
C:\Users\Kalle\AppData\Local\Temp\ccyOiGeb.s:2100   .text.disk_ioctl:0000000000000250 .L0 
C:\Users\Kalle\AppData\Local\Temp\ccyOiGeb.s:2102   .text.disk_ioctl:0000000000000252 .L0 
C:\Users\Kalle\AppData\Local\Temp\ccyOiGeb.s:2104   .text.disk_ioctl:0000000000000254 .L0 
C:\Users\Kalle\AppData\Local\Temp\ccyOiGeb.s:2106   .text.disk_ioctl:0000000000000256 .L0 
C:\Users\Kalle\AppData\Local\Temp\ccyOiGeb.s:2108   .text.disk_ioctl:000000000000025a .L0 
C:\Users\Kalle\AppData\Local\Temp\ccyOiGeb.s:2110   .text.disk_ioctl:000000000000025c .L0 
C:\Users\Kalle\AppData\Local\Temp\ccyOiGeb.s:2112   .text.disk_ioctl:0000000000000262 .L0 
C:\Users\Kalle\AppData\Local\Temp\ccyOiGeb.s:2121   .sbss.CardType:0000000000000000 .LANCHOR1
C:\Users\Kalle\AppData\Local\Temp\ccyOiGeb.s:2124   .sbss.CardType:0000000000000000 CardType
C:\Users\Kalle\AppData\Local\Temp\ccyOiGeb.s:2130   .sbss.delay_timer1:0000000000000000 delay_timer1
C:\Users\Kalle\AppData\Local\Temp\ccyOiGeb.s:2136   .sbss.delay_timer2:0000000000000000 delay_timer2
C:\Users\Kalle\AppData\Local\Temp\ccyOiGeb.s:2139   .sdata.Stat:0000000000000000 .LANCHOR0
C:\Users\Kalle\AppData\Local\Temp\ccyOiGeb.s:2142   .sdata.Stat:0000000000000000 Stat
C:\Users\Kalle\AppData\Local\Temp\ccyOiGeb.s:95     .text.xchg_spi:0000000000000062 .L0 
C:\Users\Kalle\AppData\Local\Temp\ccyOiGeb.s:260    .text.wait_ready:00000000000000de .L0 
C:\Users\Kalle\AppData\Local\Temp\ccyOiGeb.s:390    .text.rcvr_datablock:000000000000008a .L0 
C:\Users\Kalle\AppData\Local\Temp\ccyOiGeb.s:458    .text._select:0000000000000056 .L0 
C:\Users\Kalle\AppData\Local\Temp\ccyOiGeb.s:681    .text.send_cmd:000000000000015c .L0 
C:\Users\Kalle\AppData\Local\Temp\ccyOiGeb.s:750    .text.xmit_datablock.part.2:0000000000000056 .L0 
C:\Users\Kalle\AppData\Local\Temp\ccyOiGeb.s:1226   .text.disk_initialize:00000000000002e8 .L0 
C:\Users\Kalle\AppData\Local\Temp\ccyOiGeb.s:1255   .text.disk_status:0000000000000014 .L0 
C:\Users\Kalle\AppData\Local\Temp\ccyOiGeb.s:1431   .text.disk_read:00000000000000d8 .L0 
C:\Users\Kalle\AppData\Local\Temp\ccyOiGeb.s:1675   .text.disk_write:0000000000000124 .L0 
C:\Users\Kalle\AppData\Local\Temp\ccyOiGeb.s:2115   .text.disk_ioctl:0000000000000262 .L0 
                     .debug_frame:0000000000000000 .L0 
C:\Users\Kalle\AppData\Local\Temp\ccyOiGeb.s:39     .text.xchg_spi:0000000000000014 .L2
C:\Users\Kalle\AppData\Local\Temp\ccyOiGeb.s:59     .text.xchg_spi:0000000000000038 .L3
C:\Users\Kalle\AppData\Local\Temp\ccyOiGeb.s:2117   .rodata.wait_ready.cst8:0000000000000000 .LC0
C:\Users\Kalle\AppData\Local\Temp\ccyOiGeb.s:190    .text.wait_ready:0000000000000090 .L12
C:\Users\Kalle\AppData\Local\Temp\ccyOiGeb.s:252    .text.wait_ready:00000000000000da .L16
C:\Users\Kalle\AppData\Local\Temp\ccyOiGeb.s:149    .text.wait_ready:0000000000000038 .L17
C:\Users\Kalle\AppData\Local\Temp\ccyOiGeb.s:220    .text.wait_ready:00000000000000c0 .L10
C:\Users\Kalle\AppData\Local\Temp\ccyOiGeb.s:296    .text.rcvr_datablock:0000000000000024 .L20
C:\Users\Kalle\AppData\Local\Temp\ccyOiGeb.s:369    .text.rcvr_datablock:000000000000007e .L22
C:\Users\Kalle\AppData\Local\Temp\ccyOiGeb.s:290    .text.rcvr_datablock:000000000000001a .L27
C:\Users\Kalle\AppData\Local\Temp\ccyOiGeb.s:314    .text.rcvr_datablock:0000000000000044 .L23
C:\Users\Kalle\AppData\Local\Temp\ccyOiGeb.s:444    .text._select:000000000000004c .L28
C:\Users\Kalle\AppData\Local\Temp\ccyOiGeb.s:636    .text.send_cmd:0000000000000120 .L49
C:\Users\Kalle\AppData\Local\Temp\ccyOiGeb.s:593    .text.send_cmd:00000000000000c4 .L35
C:\Users\Kalle\AppData\Local\Temp\ccyOiGeb.s:577    .text.send_cmd:00000000000000b8 .L43
C:\Users\Kalle\AppData\Local\Temp\ccyOiGeb.s:657    .text.send_cmd:000000000000013c .L50
C:\Users\Kalle\AppData\Local\Temp\ccyOiGeb.s:556    .text.send_cmd:0000000000000098 .L38
C:\Users\Kalle\AppData\Local\Temp\ccyOiGeb.s:552    .text.send_cmd:0000000000000096 .L39
C:\Users\Kalle\AppData\Local\Temp\ccyOiGeb.s:489    .text.send_cmd:0000000000000016 .L33
GAS LISTING C:\Users\Kalle\AppData\Local\Temp\ccyOiGeb.s 			page 72


C:\Users\Kalle\AppData\Local\Temp\ccyOiGeb.s:671    .text.send_cmd:0000000000000150 .L51
C:\Users\Kalle\AppData\Local\Temp\ccyOiGeb.s:702    .text.xmit_datablock.part.2:000000000000000e .L53
C:\Users\Kalle\AppData\Local\Temp\ccyOiGeb.s:769    .text.disk_initialize:0000000000000006 .L96
C:\Users\Kalle\AppData\Local\Temp\ccyOiGeb.s:972    .text.disk_initialize:0000000000000150 .L61
C:\Users\Kalle\AppData\Local\Temp\ccyOiGeb.s:916    .text.disk_initialize:0000000000000100 .L59
C:\Users\Kalle\AppData\Local\Temp\ccyOiGeb.s:996    .text.disk_initialize:0000000000000166 .L60
C:\Users\Kalle\AppData\Local\Temp\ccyOiGeb.s:1128   .text.disk_initialize:0000000000000252 .L62
C:\Users\Kalle\AppData\Local\Temp\ccyOiGeb.s:1014   .text.disk_initialize:000000000000018c .L63
C:\Users\Kalle\AppData\Local\Temp\ccyOiGeb.s:941    .text.disk_initialize:0000000000000128 .L64
C:\Users\Kalle\AppData\Local\Temp\ccyOiGeb.s:1045   .text.disk_initialize:00000000000001c8 .L66
C:\Users\Kalle\AppData\Local\Temp\ccyOiGeb.s:1054   .text.disk_initialize:00000000000001d6 .L65
C:\Users\Kalle\AppData\Local\Temp\ccyOiGeb.s:1038   .text.disk_initialize:00000000000001ba .L97
C:\Users\Kalle\AppData\Local\Temp\ccyOiGeb.s:1068   .text.disk_initialize:00000000000001f0 .L67
C:\Users\Kalle\AppData\Local\Temp\ccyOiGeb.s:1203   .text.disk_initialize:00000000000002c8 .L68
C:\Users\Kalle\AppData\Local\Temp\ccyOiGeb.s:1153   .text.disk_initialize:000000000000027a .L72
C:\Users\Kalle\AppData\Local\Temp\ccyOiGeb.s:1162   .text.disk_initialize:0000000000000286 .L71
C:\Users\Kalle\AppData\Local\Temp\ccyOiGeb.s:1145   .text.disk_initialize:000000000000026e .L98
C:\Users\Kalle\AppData\Local\Temp\ccyOiGeb.s:1114   .text.disk_initialize:0000000000000234 .L69
C:\Users\Kalle\AppData\Local\Temp\ccyOiGeb.s:1246   .text.disk_status:0000000000000010 .L101
C:\Users\Kalle\AppData\Local\Temp\ccyOiGeb.s:1343   .text.disk_read:0000000000000062 .L102
C:\Users\Kalle\AppData\Local\Temp\ccyOiGeb.s:1307   .text.disk_read:0000000000000032 .L104
C:\Users\Kalle\AppData\Local\Temp\ccyOiGeb.s:1407   .text.disk_read:00000000000000b2 .L118
C:\Users\Kalle\AppData\Local\Temp\ccyOiGeb.s:1368   .text.disk_read:0000000000000076 .L108
C:\Users\Kalle\AppData\Local\Temp\ccyOiGeb.s:1425   .text.disk_read:00000000000000d4 .L119
C:\Users\Kalle\AppData\Local\Temp\ccyOiGeb.s:1360   .text.disk_read:0000000000000070 .L120
C:\Users\Kalle\AppData\Local\Temp\ccyOiGeb.s:1326   .text.disk_read:0000000000000048 .L106
C:\Users\Kalle\AppData\Local\Temp\ccyOiGeb.s:1384   .text.disk_read:000000000000008a .L107
C:\Users\Kalle\AppData\Local\Temp\ccyOiGeb.s:1561   .text.disk_write:0000000000000092 .L121
C:\Users\Kalle\AppData\Local\Temp\ccyOiGeb.s:1606   .text.disk_write:00000000000000c2 .L154
C:\Users\Kalle\AppData\Local\Temp\ccyOiGeb.s:1638   .text.disk_write:00000000000000ec .L155
C:\Users\Kalle\AppData\Local\Temp\ccyOiGeb.s:1624   .text.disk_write:00000000000000d8 .L156
C:\Users\Kalle\AppData\Local\Temp\ccyOiGeb.s:1544   .text.disk_write:0000000000000078 .L126
C:\Users\Kalle\AppData\Local\Temp\ccyOiGeb.s:1578   .text.disk_write:00000000000000a0 .L157
C:\Users\Kalle\AppData\Local\Temp\ccyOiGeb.s:1613   .text.disk_write:00000000000000c6 .L158
C:\Users\Kalle\AppData\Local\Temp\ccyOiGeb.s:1524   .text.disk_write:0000000000000068 .L129
C:\Users\Kalle\AppData\Local\Temp\ccyOiGeb.s:1508   .text.disk_write:000000000000005a .L130
C:\Users\Kalle\AppData\Local\Temp\ccyOiGeb.s:1488   .text.disk_write:0000000000000040 .L123
C:\Users\Kalle\AppData\Local\Temp\ccyOiGeb.s:1498   .text.disk_write:000000000000004a .L128
C:\Users\Kalle\AppData\Local\Temp\ccyOiGeb.s:1539   .text.disk_write:0000000000000076 .L127
C:\Users\Kalle\AppData\Local\Temp\ccyOiGeb.s:1745   .text.disk_ioctl:000000000000004e .L159
C:\Users\Kalle\AppData\Local\Temp\ccyOiGeb.s:1849   .text.disk_ioctl:00000000000000e8 .L161
C:\Users\Kalle\AppData\Local\Temp\ccyOiGeb.s:1840   .text.disk_ioctl:00000000000000da .L162
C:\Users\Kalle\AppData\Local\Temp\ccyOiGeb.s:1779   .text.disk_ioctl:0000000000000072 .L163
C:\Users\Kalle\AppData\Local\Temp\ccyOiGeb.s:1762   .text.disk_ioctl:000000000000005c .L192
C:\Users\Kalle\AppData\Local\Temp\ccyOiGeb.s:1978   .text.disk_ioctl:000000000000019e .L193
C:\Users\Kalle\AppData\Local\Temp\ccyOiGeb.s:1729   .text.disk_ioctl:0000000000000034 .L165
C:\Users\Kalle\AppData\Local\Temp\ccyOiGeb.s:1931   .text.disk_ioctl:0000000000000154 .L169
C:\Users\Kalle\AppData\Local\Temp\ccyOiGeb.s:1774   .text.disk_ioctl:000000000000006e .L167
C:\Users\Kalle\AppData\Local\Temp\ccyOiGeb.s:1813   .text.disk_ioctl:00000000000000b0 .L170
C:\Users\Kalle\AppData\Local\Temp\ccyOiGeb.s:2055   .text.disk_ioctl:000000000000021e .L194
C:\Users\Kalle\AppData\Local\Temp\ccyOiGeb.s:2088   .text.disk_ioctl:0000000000000244 .L171
C:\Users\Kalle\AppData\Local\Temp\ccyOiGeb.s:2024   .text.disk_ioctl:00000000000001d6 .L172
C:\Users\Kalle\AppData\Local\Temp\ccyOiGeb.s:6188   .debug_abbrev:0000000000000000 .Ldebug_abbrev0
C:\Users\Kalle\AppData\Local\Temp\ccyOiGeb.s:9181   .debug_str:0000000000000128 .LASF225
C:\Users\Kalle\AppData\Local\Temp\ccyOiGeb.s:9265   .debug_str:0000000000000341 .LASF226
C:\Users\Kalle\AppData\Local\Temp\ccyOiGeb.s:9513   .debug_str:0000000000000833 .LASF227
C:\Users\Kalle\AppData\Local\Temp\ccyOiGeb.s:9045   .debug_ranges:0000000000000000 .Ldebug_ranges0
GAS LISTING C:\Users\Kalle\AppData\Local\Temp\ccyOiGeb.s 			page 73


C:\Users\Kalle\AppData\Local\Temp\ccyOiGeb.s:9119   .debug_line:0000000000000000 .Ldebug_line0
C:\Users\Kalle\AppData\Local\Temp\ccyOiGeb.s:9373   .debug_str:000000000000055d .LASF0
C:\Users\Kalle\AppData\Local\Temp\ccyOiGeb.s:9227   .debug_str:000000000000027a .LASF1
C:\Users\Kalle\AppData\Local\Temp\ccyOiGeb.s:9189   .debug_str:00000000000001c3 .LASF4
C:\Users\Kalle\AppData\Local\Temp\ccyOiGeb.s:9241   .debug_str:00000000000002be .LASF2
C:\Users\Kalle\AppData\Local\Temp\ccyOiGeb.s:9505   .debug_str:0000000000000806 .LASF3
C:\Users\Kalle\AppData\Local\Temp\ccyOiGeb.s:9263   .debug_str:0000000000000336 .LASF5
C:\Users\Kalle\AppData\Local\Temp\ccyOiGeb.s:9557   .debug_str:0000000000000920 .LASF6
C:\Users\Kalle\AppData\Local\Temp\ccyOiGeb.s:9203   .debug_str:0000000000000207 .LASF7
C:\Users\Kalle\AppData\Local\Temp\ccyOiGeb.s:9329   .debug_str:0000000000000493 .LASF8
C:\Users\Kalle\AppData\Local\Temp\ccyOiGeb.s:9293   .debug_str:00000000000003c8 .LASF9
C:\Users\Kalle\AppData\Local\Temp\ccyOiGeb.s:9337   .debug_str:00000000000004bb .LASF10
C:\Users\Kalle\AppData\Local\Temp\ccyOiGeb.s:9289   .debug_str:00000000000003b8 .LASF11
C:\Users\Kalle\AppData\Local\Temp\ccyOiGeb.s:9445   .debug_str:00000000000006b8 .LASF12
C:\Users\Kalle\AppData\Local\Temp\ccyOiGeb.s:9229   .debug_str:0000000000000286 .LASF13
C:\Users\Kalle\AppData\Local\Temp\ccyOiGeb.s:9449   .debug_str:00000000000006de .LASF14
C:\Users\Kalle\AppData\Local\Temp\ccyOiGeb.s:9543   .debug_str:00000000000008eb .LASF15
C:\Users\Kalle\AppData\Local\Temp\ccyOiGeb.s:9507   .debug_str:0000000000000810 .LASF16
C:\Users\Kalle\AppData\Local\Temp\ccyOiGeb.s:9303   .debug_str:0000000000000404 .LASF171
C:\Users\Kalle\AppData\Local\Temp\ccyOiGeb.s:9477   .debug_str:000000000000077b .LASF17
C:\Users\Kalle\AppData\Local\Temp\ccyOiGeb.s:9485   .debug_str:00000000000007a7 .LASF18
C:\Users\Kalle\AppData\Local\Temp\ccyOiGeb.s:9487   .debug_str:00000000000007b0 .LASF19
C:\Users\Kalle\AppData\Local\Temp\ccyOiGeb.s:9377   .debug_str:0000000000000571 .LASF20
C:\Users\Kalle\AppData\Local\Temp\ccyOiGeb.s:9535   .debug_str:00000000000008cb .LASF21
C:\Users\Kalle\AppData\Local\Temp\ccyOiGeb.s:9323   .debug_str:0000000000000476 .LASF22
C:\Users\Kalle\AppData\Local\Temp\ccyOiGeb.s:9159   .debug_str:00000000000000b8 .LASF23
C:\Users\Kalle\AppData\Local\Temp\ccyOiGeb.s:9161   .debug_str:00000000000000c3 .LASF24
C:\Users\Kalle\AppData\Local\Temp\ccyOiGeb.s:9163   .debug_str:00000000000000ce .LASF25
C:\Users\Kalle\AppData\Local\Temp\ccyOiGeb.s:9165   .debug_str:00000000000000d9 .LASF26
C:\Users\Kalle\AppData\Local\Temp\ccyOiGeb.s:9167   .debug_str:00000000000000e4 .LASF27
C:\Users\Kalle\AppData\Local\Temp\ccyOiGeb.s:9169   .debug_str:00000000000000ef .LASF28
C:\Users\Kalle\AppData\Local\Temp\ccyOiGeb.s:9411   .debug_str:000000000000061e .LASF29
C:\Users\Kalle\AppData\Local\Temp\ccyOiGeb.s:9221   .debug_str:000000000000025b .LASF30
C:\Users\Kalle\AppData\Local\Temp\ccyOiGeb.s:9223   .debug_str:0000000000000264 .LASF31
C:\Users\Kalle\AppData\Local\Temp\ccyOiGeb.s:9173   .debug_str:0000000000000105 .LASF32
C:\Users\Kalle\AppData\Local\Temp\ccyOiGeb.s:9175   .debug_str:0000000000000110 .LASF33
C:\Users\Kalle\AppData\Local\Temp\ccyOiGeb.s:9143   .debug_str:000000000000006c .LASF34
C:\Users\Kalle\AppData\Local\Temp\ccyOiGeb.s:9145   .debug_str:0000000000000076 .LASF35
C:\Users\Kalle\AppData\Local\Temp\ccyOiGeb.s:9545   .debug_str:00000000000008f4 .LASF36
C:\Users\Kalle\AppData\Local\Temp\ccyOiGeb.s:9547   .debug_str:00000000000008fd .LASF37
C:\Users\Kalle\AppData\Local\Temp\ccyOiGeb.s:9253   .debug_str:0000000000000313 .LASF38
C:\Users\Kalle\AppData\Local\Temp\ccyOiGeb.s:9255   .debug_str:000000000000031c .LASF39
C:\Users\Kalle\AppData\Local\Temp\ccyOiGeb.s:9519   .debug_str:0000000000000886 .LASF40
C:\Users\Kalle\AppData\Local\Temp\ccyOiGeb.s:9133   .debug_str:000000000000003e .LASF41
C:\Users\Kalle\AppData\Local\Temp\ccyOiGeb.s:9231   .debug_str:000000000000028e .LASF42
C:\Users\Kalle\AppData\Local\Temp\ccyOiGeb.s:9429   .debug_str:000000000000066c .LASF43
C:\Users\Kalle\AppData\Local\Temp\ccyOiGeb.s:9305   .debug_str:0000000000000414 .LASF44
C:\Users\Kalle\AppData\Local\Temp\ccyOiGeb.s:9341   .debug_str:00000000000004d5 .LASF45
C:\Users\Kalle\AppData\Local\Temp\ccyOiGeb.s:9343   .debug_str:00000000000004df .LASF46
C:\Users\Kalle\AppData\Local\Temp\ccyOiGeb.s:9345   .debug_str:00000000000004e9 .LASF47
C:\Users\Kalle\AppData\Local\Temp\ccyOiGeb.s:9347   .debug_str:00000000000004f3 .LASF48
C:\Users\Kalle\AppData\Local\Temp\ccyOiGeb.s:9349   .debug_str:00000000000004fd .LASF49
C:\Users\Kalle\AppData\Local\Temp\ccyOiGeb.s:9333   .debug_str:00000000000004a9 .LASF50
C:\Users\Kalle\AppData\Local\Temp\ccyOiGeb.s:9335   .debug_str:00000000000004b2 .LASF51
C:\Users\Kalle\AppData\Local\Temp\ccyOiGeb.s:9157   .debug_str:00000000000000ad .LASF52
C:\Users\Kalle\AppData\Local\Temp\ccyOiGeb.s:9219   .debug_str:0000000000000252 .LASF53
C:\Users\Kalle\AppData\Local\Temp\ccyOiGeb.s:9171   .debug_str:00000000000000fa .LASF54
GAS LISTING C:\Users\Kalle\AppData\Local\Temp\ccyOiGeb.s 			page 74


C:\Users\Kalle\AppData\Local\Temp\ccyOiGeb.s:9283   .debug_str:000000000000039c .LASF55
C:\Users\Kalle\AppData\Local\Temp\ccyOiGeb.s:9523   .debug_str:0000000000000898 .LASF56
C:\Users\Kalle\AppData\Local\Temp\ccyOiGeb.s:9577   .debug_str:00000000000009a6 .LASF57
C:\Users\Kalle\AppData\Local\Temp\ccyOiGeb.s:9177   .debug_str:000000000000011b .LASF58
C:\Users\Kalle\AppData\Local\Temp\ccyOiGeb.s:9183   .debug_str:00000000000001a2 .LASF59
C:\Users\Kalle\AppData\Local\Temp\ccyOiGeb.s:9563   .debug_str:000000000000094e .LASF60
C:\Users\Kalle\AppData\Local\Temp\ccyOiGeb.s:9471   .debug_str:0000000000000756 .LASF61
C:\Users\Kalle\AppData\Local\Temp\ccyOiGeb.s:9419   .debug_str:0000000000000640 .LASF62
C:\Users\Kalle\AppData\Local\Temp\ccyOiGeb.s:9491   .debug_str:00000000000007c3 .LASF63
C:\Users\Kalle\AppData\Local\Temp\ccyOiGeb.s:9553   .debug_str:0000000000000914 .LASF64
C:\Users\Kalle\AppData\Local\Temp\ccyOiGeb.s:9435   .debug_str:0000000000000680 .LASF65
C:\Users\Kalle\AppData\Local\Temp\ccyOiGeb.s:9121   .debug_str:0000000000000000 .LASF66
C:\Users\Kalle\AppData\Local\Temp\ccyOiGeb.s:9187   .debug_str:00000000000001bd .LASF67
C:\Users\Kalle\AppData\Local\Temp\ccyOiGeb.s:9437   .debug_str:0000000000000688 .LASF68
C:\Users\Kalle\AppData\Local\Temp\ccyOiGeb.s:9413   .debug_str:0000000000000628 .LASF69
C:\Users\Kalle\AppData\Local\Temp\ccyOiGeb.s:9125   .debug_str:0000000000000014 .LASF70
C:\Users\Kalle\AppData\Local\Temp\ccyOiGeb.s:9481   .debug_str:0000000000000797 .LASF71
C:\Users\Kalle\AppData\Local\Temp\ccyOiGeb.s:9541   .debug_str:00000000000008e3 .LASF72
C:\Users\Kalle\AppData\Local\Temp\ccyOiGeb.s:9307   .debug_str:000000000000041b .LASF73
C:\Users\Kalle\AppData\Local\Temp\ccyOiGeb.s:9473   .debug_str:000000000000076b .LASF74
C:\Users\Kalle\AppData\Local\Temp\ccyOiGeb.s:9317   .debug_str:000000000000045e .LASF79
C:\Users\Kalle\AppData\Local\Temp\ccyOiGeb.s:9495   .debug_str:00000000000007d4 .LASF75
C:\Users\Kalle\AppData\Local\Temp\ccyOiGeb.s:9321   .debug_str:000000000000046e .LASF76
C:\Users\Kalle\AppData\Local\Temp\ccyOiGeb.s:9365   .debug_str:0000000000000544 .LASF77
C:\Users\Kalle\AppData\Local\Temp\ccyOiGeb.s:9279   .debug_str:000000000000038d .LASF78
C:\Users\Kalle\AppData\Local\Temp\ccyOiGeb.s:9149   .debug_str:0000000000000088 .LASF80
C:\Users\Kalle\AppData\Local\Temp\ccyOiGeb.s:9155   .debug_str:00000000000000a4 .LASF81
C:\Users\Kalle\AppData\Local\Temp\ccyOiGeb.s:9579   .debug_str:00000000000009b1 .LASF82
C:\Users\Kalle\AppData\Local\Temp\ccyOiGeb.s:9559   .debug_str:0000000000000933 .LASF83
C:\Users\Kalle\AppData\Local\Temp\ccyOiGeb.s:9389   .debug_str:00000000000005bc .LASF84
C:\Users\Kalle\AppData\Local\Temp\ccyOiGeb.s:9217   .debug_str:0000000000000249 .LASF85
C:\Users\Kalle\AppData\Local\Temp\ccyOiGeb.s:9517   .debug_str:000000000000087c .LASF86
C:\Users\Kalle\AppData\Local\Temp\ccyOiGeb.s:9417   .debug_str:0000000000000636 .LASF87
C:\Users\Kalle\AppData\Local\Temp\ccyOiGeb.s:9423   .debug_str:0000000000000652 .LASF88
C:\Users\Kalle\AppData\Local\Temp\ccyOiGeb.s:9575   .debug_str:000000000000099b .LASF89
C:\Users\Kalle\AppData\Local\Temp\ccyOiGeb.s:9195   .debug_str:00000000000001d8 .LASF90
C:\Users\Kalle\AppData\Local\Temp\ccyOiGeb.s:9573   .debug_str:0000000000000993 .LASF91
C:\Users\Kalle\AppData\Local\Temp\ccyOiGeb.s:9451   .debug_str:00000000000006e7 .LASF92
C:\Users\Kalle\AppData\Local\Temp\ccyOiGeb.s:9515   .debug_str:0000000000000873 .LASF93
C:\Users\Kalle\AppData\Local\Temp\ccyOiGeb.s:9533   .debug_str:00000000000008c3 .LASF94
C:\Users\Kalle\AppData\Local\Temp\ccyOiGeb.s:9409   .debug_str:0000000000000616 .LASF95
C:\Users\Kalle\AppData\Local\Temp\ccyOiGeb.s:9527   .debug_str:00000000000008a8 .LASF96
C:\Users\Kalle\AppData\Local\Temp\ccyOiGeb.s:9259   .debug_str:000000000000032a .LASF97
C:\Users\Kalle\AppData\Local\Temp\ccyOiGeb.s:9531   .debug_str:00000000000008bc .LASF98
C:\Users\Kalle\AppData\Local\Temp\ccyOiGeb.s:9461   .debug_str:0000000000000717 .LASF99
C:\Users\Kalle\AppData\Local\Temp\ccyOiGeb.s:9211   .debug_str:000000000000022b .LASF100
C:\Users\Kalle\AppData\Local\Temp\ccyOiGeb.s:9297   .debug_str:00000000000003e9 .LASF101
C:\Users\Kalle\AppData\Local\Temp\ccyOiGeb.s:9405   .debug_str:000000000000060a .LASF102
C:\Users\Kalle\AppData\Local\Temp\ccyOiGeb.s:9193   .debug_str:00000000000001d2 .LASF103
C:\Users\Kalle\AppData\Local\Temp\ccyOiGeb.s:9521   .debug_str:000000000000088f .LASF104
C:\Users\Kalle\AppData\Local\Temp\ccyOiGeb.s:9277   .debug_str:0000000000000385 .LASF105
C:\Users\Kalle\AppData\Local\Temp\ccyOiGeb.s:9131   .debug_str:0000000000000038 .LASF106
C:\Users\Kalle\AppData\Local\Temp\ccyOiGeb.s:9135   .debug_str:0000000000000046 .LASF107
C:\Users\Kalle\AppData\Local\Temp\ccyOiGeb.s:9433   .debug_str:000000000000067a .LASF108
C:\Users\Kalle\AppData\Local\Temp\ccyOiGeb.s:9261   .debug_str:000000000000032f .LASF109
C:\Users\Kalle\AppData\Local\Temp\ccyOiGeb.s:9393   .debug_str:00000000000005cb .LASF110
C:\Users\Kalle\AppData\Local\Temp\ccyOiGeb.s:9153   .debug_str:000000000000009e .LASF111
GAS LISTING C:\Users\Kalle\AppData\Local\Temp\ccyOiGeb.s 			page 75


C:\Users\Kalle\AppData\Local\Temp\ccyOiGeb.s:9457   .debug_str:0000000000000703 .LASF112
C:\Users\Kalle\AppData\Local\Temp\ccyOiGeb.s:9285   .debug_str:00000000000003a8 .LASF113
C:\Users\Kalle\AppData\Local\Temp\ccyOiGeb.s:9497   .debug_str:00000000000007da .LASF114
C:\Users\Kalle\AppData\Local\Temp\ccyOiGeb.s:9179   .debug_str:0000000000000122 .LASF115
C:\Users\Kalle\AppData\Local\Temp\ccyOiGeb.s:9399   .debug_str:00000000000005e7 .LASF116
C:\Users\Kalle\AppData\Local\Temp\ccyOiGeb.s:9301   .debug_str:00000000000003fc .LASF117
C:\Users\Kalle\AppData\Local\Temp\ccyOiGeb.s:9247   .debug_str:00000000000002f1 .LASF118
C:\Users\Kalle\AppData\Local\Temp\ccyOiGeb.s:9311   .debug_str:000000000000043d .LASF119
C:\Users\Kalle\AppData\Local\Temp\ccyOiGeb.s:9267   .debug_str:0000000000000359 .LASF120
C:\Users\Kalle\AppData\Local\Temp\ccyOiGeb.s:9455   .debug_str:00000000000006fb .LASF121
C:\Users\Kalle\AppData\Local\Temp\ccyOiGeb.s:9395   .debug_str:00000000000005d1 .LASF122
C:\Users\Kalle\AppData\Local\Temp\ccyOiGeb.s:9525   .debug_str:00000000000008a3 .LASF123
C:\Users\Kalle\AppData\Local\Temp\ccyOiGeb.s:9331   .debug_str:000000000000049e .LASF124
C:\Users\Kalle\AppData\Local\Temp\ccyOiGeb.s:9245   .debug_str:00000000000002d8 .LASF125
C:\Users\Kalle\AppData\Local\Temp\ccyOiGeb.s:9539   .debug_str:00000000000008db .LASF126
C:\Users\Kalle\AppData\Local\Temp\ccyOiGeb.s:9299   .debug_str:00000000000003f1 .LASF127
C:\Users\Kalle\AppData\Local\Temp\ccyOiGeb.s:9325   .debug_str:0000000000000480 .LASF128
C:\Users\Kalle\AppData\Local\Temp\ccyOiGeb.s:9549   .debug_str:0000000000000906 .LASF129
C:\Users\Kalle\AppData\Local\Temp\ccyOiGeb.s:9209   .debug_str:0000000000000221 .LASF130
C:\Users\Kalle\AppData\Local\Temp\ccyOiGeb.s:9291   .debug_str:00000000000003c3 .LASF131
C:\Users\Kalle\AppData\Local\Temp\ccyOiGeb.s:9359   .debug_str:000000000000052e .LASF132
C:\Users\Kalle\AppData\Local\Temp\ccyOiGeb.s:9139   .debug_str:000000000000005a .LASF133
C:\Users\Kalle\AppData\Local\Temp\ccyOiGeb.s:9287   .debug_str:00000000000003b0 .LASF134
C:\Users\Kalle\AppData\Local\Temp\ccyOiGeb.s:9391   .debug_str:00000000000005c6 .LASF135
C:\Users\Kalle\AppData\Local\Temp\ccyOiGeb.s:9327   .debug_str:000000000000048a .LASF136
C:\Users\Kalle\AppData\Local\Temp\ccyOiGeb.s:9281   .debug_str:0000000000000392 .LASF137
C:\Users\Kalle\AppData\Local\Temp\ccyOiGeb.s:9353   .debug_str:000000000000050e .LASF138
C:\Users\Kalle\AppData\Local\Temp\ccyOiGeb.s:9127   .debug_str:000000000000001c .LASF139
C:\Users\Kalle\AppData\Local\Temp\ccyOiGeb.s:9257   .debug_str:0000000000000325 .LASF140
C:\Users\Kalle\AppData\Local\Temp\ccyOiGeb.s:9475   .debug_str:0000000000000774 .LASF141
C:\Users\Kalle\AppData\Local\Temp\ccyOiGeb.s:9363   .debug_str:000000000000053e .LASF142
C:\Users\Kalle\AppData\Local\Temp\ccyOiGeb.s:9351   .debug_str:0000000000000507 .LASF143
C:\Users\Kalle\AppData\Local\Temp\ccyOiGeb.s:9361   .debug_str:0000000000000538 .LASF144
C:\Users\Kalle\AppData\Local\Temp\ccyOiGeb.s:9453   .debug_str:00000000000006f3 .LASF145
C:\Users\Kalle\AppData\Local\Temp\ccyOiGeb.s:9431   .debug_str:0000000000000674 .LASF146
C:\Users\Kalle\AppData\Local\Temp\ccyOiGeb.s:9185   .debug_str:00000000000001b7 .LASF147
C:\Users\Kalle\AppData\Local\Temp\ccyOiGeb.s:9555   .debug_str:000000000000091b .LASF148
C:\Users\Kalle\AppData\Local\Temp\ccyOiGeb.s:9225   .debug_str:000000000000026d .LASF149
C:\Users\Kalle\AppData\Local\Temp\ccyOiGeb.s:9465   .debug_str:000000000000072d .LASF150
C:\Users\Kalle\AppData\Local\Temp\ccyOiGeb.s:9137   .debug_str:000000000000004d .LASF151
C:\Users\Kalle\AppData\Local\Temp\ccyOiGeb.s:9213   .debug_str:0000000000000231 .LASF152
C:\Users\Kalle\AppData\Local\Temp\ccyOiGeb.s:9357   .debug_str:000000000000051f .LASF153
C:\Users\Kalle\AppData\Local\Temp\ccyOiGeb.s:9403   .debug_str:00000000000005ff .LASF154
C:\Users\Kalle\AppData\Local\Temp\ccyOiGeb.s:9483   .debug_str:00000000000007a2 .LASF155
C:\Users\Kalle\AppData\Local\Temp\ccyOiGeb.s:9503   .debug_str:00000000000007f9 .LASF156
C:\Users\Kalle\AppData\Local\Temp\ccyOiGeb.s:9441   .debug_str:0000000000000699 .LASF157
C:\Users\Kalle\AppData\Local\Temp\ccyOiGeb.s:9397   .debug_str:00000000000005d9 .LASF158
C:\Users\Kalle\AppData\Local\Temp\ccyOiGeb.s:9439   .debug_str:000000000000068f .LASF159
C:\Users\Kalle\AppData\Local\Temp\ccyOiGeb.s:9315   .debug_str:0000000000000452 .LASF160
C:\Users\Kalle\AppData\Local\Temp\ccyOiGeb.s:9581   .debug_str:00000000000009ba .LASF161
C:\Users\Kalle\AppData\Local\Temp\ccyOiGeb.s:9201   .debug_str:00000000000001f9 .LASF162
C:\Users\Kalle\AppData\Local\Temp\ccyOiGeb.s:9469   .debug_str:0000000000000747 .LASF163
C:\Users\Kalle\AppData\Local\Temp\ccyOiGeb.s:9561   .debug_str:000000000000093d .LASF164
C:\Users\Kalle\AppData\Local\Temp\ccyOiGeb.s:9387   .debug_str:00000000000005ad .LASF165
C:\Users\Kalle\AppData\Local\Temp\ccyOiGeb.s:9151   .debug_str:000000000000008d .LASF166
C:\Users\Kalle\AppData\Local\Temp\ccyOiGeb.s:9379   .debug_str:0000000000000579 .LASF167
C:\Users\Kalle\AppData\Local\Temp\ccyOiGeb.s:9537   .debug_str:00000000000008d4 .LASF168
GAS LISTING C:\Users\Kalle\AppData\Local\Temp\ccyOiGeb.s 			page 76


C:\Users\Kalle\AppData\Local\Temp\ccyOiGeb.s:9355   .debug_str:0000000000000516 .LASF169
C:\Users\Kalle\AppData\Local\Temp\ccyOiGeb.s:9147   .debug_str:0000000000000080 .LASF170
C:\Users\Kalle\AppData\Local\Temp\ccyOiGeb.s:9123   .debug_str:0000000000000009 .LASF228
C:\Users\Kalle\AppData\Local\Temp\ccyOiGeb.s:9205   .debug_str:0000000000000210 .LASF172
C:\Users\Kalle\AppData\Local\Temp\ccyOiGeb.s:9249   .debug_str:00000000000002f8 .LASF173
C:\Users\Kalle\AppData\Local\Temp\ccyOiGeb.s:9269   .debug_str:0000000000000360 .LASF174
C:\Users\Kalle\AppData\Local\Temp\ccyOiGeb.s:9191   .debug_str:00000000000001cd .LASF175
C:\Users\Kalle\AppData\Local\Temp\ccyOiGeb.s:9427   .debug_str:0000000000000667 .LASF176
C:\Users\Kalle\AppData\Local\Temp\ccyOiGeb.s:9415   .debug_str:0000000000000630 .LASF177
C:\Users\Kalle\AppData\Local\Temp\ccyOiGeb.s:9369   .debug_str:000000000000054f .LASF178
C:\Users\Kalle\AppData\Local\Temp\ccyOiGeb.s:9385   .debug_str:00000000000005a6 .LASF179
C:\Users\Kalle\AppData\Local\Temp\ccyOiGeb.s:9197   .debug_str:00000000000001e6 .LASF180
C:\Users\Kalle\AppData\Local\Temp\ccyOiGeb.s:9141   .debug_str:0000000000000062 .LASF181
C:\Users\Kalle\AppData\Local\Temp\ccyOiGeb.s:9459   .debug_str:000000000000070c .LASF182
C:\Users\Kalle\AppData\Local\Temp\ccyOiGeb.s:9235   .debug_str:000000000000029f .LASF183
C:\Users\Kalle\AppData\Local\Temp\ccyOiGeb.s:9251   .debug_str:000000000000030b .LASF184
C:\Users\Kalle\AppData\Local\Temp\ccyOiGeb.s:9407   .debug_str:0000000000000611 .LASF185
C:\Users\Kalle\AppData\Local\Temp\ccyOiGeb.s:9509   .debug_str:0000000000000819 .LASF186
C:\Users\Kalle\AppData\Local\Temp\ccyOiGeb.s:9511   .debug_str:0000000000000826 .LASF187
C:\Users\Kalle\AppData\Local\Temp\ccyOiGeb.s:9237   .debug_str:00000000000002aa .LASF188
C:\Users\Kalle\AppData\Local\Temp\ccyOiGeb.s:9275   .debug_str:000000000000037a .LASF191
C:\Users\Kalle\AppData\Local\Temp\ccyOiGeb.s:1680   .text.disk_ioctl:0000000000000000 .LFB19
C:\Users\Kalle\AppData\Local\Temp\ccyOiGeb.s:2113   .text.disk_ioctl:0000000000000262 .LFE19
C:\Users\Kalle\AppData\Local\Temp\ccyOiGeb.s:7346   .debug_loc:0000000000000000 .LLST47
C:\Users\Kalle\AppData\Local\Temp\ccyOiGeb.s:7369   .debug_loc:0000000000000038 .LLST48
C:\Users\Kalle\AppData\Local\Temp\ccyOiGeb.s:7449   .debug_loc:00000000000000ef .LLST49
C:\Users\Kalle\AppData\Local\Temp\ccyOiGeb.s:9367   .debug_str:000000000000054a .LASF189
C:\Users\Kalle\AppData\Local\Temp\ccyOiGeb.s:7518   .debug_loc:000000000000018d .LLST50
C:\Users\Kalle\AppData\Local\Temp\ccyOiGeb.s:7584   .debug_loc:000000000000023d .LLST51
C:\Users\Kalle\AppData\Local\Temp\ccyOiGeb.s:7611   .debug_loc:0000000000000280 .LLST52
C:\Users\Kalle\AppData\Local\Temp\ccyOiGeb.s:7646   .debug_loc:00000000000002b6 .LLST53
C:\Users\Kalle\AppData\Local\Temp\ccyOiGeb.s:7653   .debug_loc:00000000000002c9 .LLST54
C:\Users\Kalle\AppData\Local\Temp\ccyOiGeb.s:7660   .debug_loc:00000000000002dc .LLST55
C:\Users\Kalle\AppData\Local\Temp\ccyOiGeb.s:9421   .debug_str:000000000000064c .LASF190
C:\Users\Kalle\AppData\Local\Temp\ccyOiGeb.s:7667   .debug_loc:00000000000002ef .LLST56
C:\Users\Kalle\AppData\Local\Temp\ccyOiGeb.s:1731   .text.disk_ioctl:0000000000000034 .LBB98
C:\Users\Kalle\AppData\Local\Temp\ccyOiGeb.s:1743   .text.disk_ioctl:000000000000004e .LBE98
C:\Users\Kalle\AppData\Local\Temp\ccyOiGeb.s:1737   .text.disk_ioctl:0000000000000042 .LVL207
C:\Users\Kalle\AppData\Local\Temp\ccyOiGeb.s:1741   .text.disk_ioctl:000000000000004e .LVL208
C:\Users\Kalle\AppData\Local\Temp\ccyOiGeb.s:1797   .text.disk_ioctl:0000000000000090 .LVL214
C:\Users\Kalle\AppData\Local\Temp\ccyOiGeb.s:1803   .text.disk_ioctl:000000000000009e .LVL215
C:\Users\Kalle\AppData\Local\Temp\ccyOiGeb.s:1809   .text.disk_ioctl:00000000000000aa .LVL216
C:\Users\Kalle\AppData\Local\Temp\ccyOiGeb.s:1821   .text.disk_ioctl:00000000000000c2 .LVL219
C:\Users\Kalle\AppData\Local\Temp\ccyOiGeb.s:1844   .text.disk_ioctl:00000000000000e2 .LVL222
C:\Users\Kalle\AppData\Local\Temp\ccyOiGeb.s:1857   .text.disk_ioctl:00000000000000f4 .LVL226
C:\Users\Kalle\AppData\Local\Temp\ccyOiGeb.s:1864   .text.disk_ioctl:0000000000000102 .LVL227
C:\Users\Kalle\AppData\Local\Temp\ccyOiGeb.s:1937   .text.disk_ioctl:000000000000015e .LVL235
C:\Users\Kalle\AppData\Local\Temp\ccyOiGeb.s:1944   .text.disk_ioctl:000000000000016c .LVL236
C:\Users\Kalle\AppData\Local\Temp\ccyOiGeb.s:1986   .text.disk_ioctl:00000000000001aa .LVL240
C:\Users\Kalle\AppData\Local\Temp\ccyOiGeb.s:2029   .text.disk_ioctl:00000000000001e2 .LVL246
C:\Users\Kalle\AppData\Local\Temp\ccyOiGeb.s:2036   .text.disk_ioctl:00000000000001f4 .LVL247
C:\Users\Kalle\AppData\Local\Temp\ccyOiGeb.s:2043   .text.disk_ioctl:0000000000000206 .LVL248
C:\Users\Kalle\AppData\Local\Temp\ccyOiGeb.s:2050   .text.disk_ioctl:0000000000000218 .LVL249
C:\Users\Kalle\AppData\Local\Temp\ccyOiGeb.s:9425   .debug_str:000000000000065c .LASF192
C:\Users\Kalle\AppData\Local\Temp\ccyOiGeb.s:1436   .text.disk_write:0000000000000000 .LFB18
C:\Users\Kalle\AppData\Local\Temp\ccyOiGeb.s:1673   .text.disk_write:0000000000000124 .LFE18
C:\Users\Kalle\AppData\Local\Temp\ccyOiGeb.s:8014   .debug_loc:000000000000049a .LLST36
GAS LISTING C:\Users\Kalle\AppData\Local\Temp\ccyOiGeb.s 			page 77


C:\Users\Kalle\AppData\Local\Temp\ccyOiGeb.s:8037   .debug_loc:00000000000004d2 .LLST37
C:\Users\Kalle\AppData\Local\Temp\ccyOiGeb.s:8084   .debug_loc:000000000000053e .LLST38
C:\Users\Kalle\AppData\Local\Temp\ccyOiGeb.s:9375   .debug_str:000000000000056a .LASF193
C:\Users\Kalle\AppData\Local\Temp\ccyOiGeb.s:8099   .debug_loc:0000000000000567 .LLST39
C:\Users\Kalle\AppData\Local\Temp\ccyOiGeb.s:9371   .debug_str:0000000000000557 .LASF194
C:\Users\Kalle\AppData\Local\Temp\ccyOiGeb.s:8123   .debug_loc:00000000000005a7 .LLST40
C:\Users\Kalle\AppData\Local\Temp\ccyOiGeb.s:1512   .text.disk_write:000000000000005a .LBB86
C:\Users\Kalle\AppData\Local\Temp\ccyOiGeb.s:8148   .debug_loc:00000000000005e8 .LLST41
C:\Users\Kalle\AppData\Local\Temp\ccyOiGeb.s:8163   .debug_loc:000000000000060a .LLST42
C:\Users\Kalle\AppData\Local\Temp\ccyOiGeb.s:1519   .text.disk_write:0000000000000066 .LVL178
C:\Users\Kalle\AppData\Local\Temp\ccyOiGeb.s:1586   .text.disk_write:00000000000000ac .LVL186
C:\Users\Kalle\AppData\Local\Temp\ccyOiGeb.s:1590   .text.disk_write:00000000000000b6 .LVL187
C:\Users\Kalle\AppData\Local\Temp\ccyOiGeb.s:1528   .text.disk_write:0000000000000068 .LBB89
C:\Users\Kalle\AppData\Local\Temp\ccyOiGeb.s:8174   .debug_loc:0000000000000628 .LLST43
C:\Users\Kalle\AppData\Local\Temp\ccyOiGeb.s:8189   .debug_loc:000000000000064a .LLST44
C:\Users\Kalle\AppData\Local\Temp\ccyOiGeb.s:1535   .text.disk_write:0000000000000074 .LVL180
C:\Users\Kalle\AppData\Local\Temp\ccyOiGeb.s:1619   .text.disk_write:00000000000000d2 .LVL193
C:\Users\Kalle\AppData\Local\Temp\ccyOiGeb.s:1547   .text.disk_write:0000000000000078 .LBB92
C:\Users\Kalle\AppData\Local\Temp\ccyOiGeb.s:1559   .text.disk_write:0000000000000092 .LBE92
C:\Users\Kalle\AppData\Local\Temp\ccyOiGeb.s:1553   .text.disk_write:0000000000000086 .LVL183
C:\Users\Kalle\AppData\Local\Temp\ccyOiGeb.s:1557   .text.disk_write:0000000000000092 .LVL184
C:\Users\Kalle\AppData\Local\Temp\ccyOiGeb.s:1649   .text.disk_write:00000000000000fa .LBB96
C:\Users\Kalle\AppData\Local\Temp\ccyOiGeb.s:1668   .text.disk_write:000000000000011e .LBE96
C:\Users\Kalle\AppData\Local\Temp\ccyOiGeb.s:8202   .debug_loc:000000000000066a .LLST45
C:\Users\Kalle\AppData\Local\Temp\ccyOiGeb.s:8211   .debug_loc:000000000000067f .LLST46
C:\Users\Kalle\AppData\Local\Temp\ccyOiGeb.s:1650   .text.disk_write:00000000000000fa .LBB97
C:\Users\Kalle\AppData\Local\Temp\ccyOiGeb.s:1667   .text.disk_write:000000000000011e .LBE97
C:\Users\Kalle\AppData\Local\Temp\ccyOiGeb.s:1656   .text.disk_write:0000000000000106 .LVL201
C:\Users\Kalle\AppData\Local\Temp\ccyOiGeb.s:1662   .text.disk_write:0000000000000114 .LVL202
C:\Users\Kalle\AppData\Local\Temp\ccyOiGeb.s:1666   .text.disk_write:000000000000011e .LVL203
C:\Users\Kalle\AppData\Local\Temp\ccyOiGeb.s:1504   .text.disk_write:0000000000000056 .LVL176
C:\Users\Kalle\AppData\Local\Temp\ccyOiGeb.s:1634   .text.disk_write:00000000000000e8 .LVL196
C:\Users\Kalle\AppData\Local\Temp\ccyOiGeb.s:1645   .text.disk_write:00000000000000f8 .LVL199
C:\Users\Kalle\AppData\Local\Temp\ccyOiGeb.s:9501   .debug_str:00000000000007ef .LASF195
C:\Users\Kalle\AppData\Local\Temp\ccyOiGeb.s:1260   .text.disk_read:0000000000000000 .LFB17
C:\Users\Kalle\AppData\Local\Temp\ccyOiGeb.s:1429   .text.disk_read:00000000000000d8 .LFE17
C:\Users\Kalle\AppData\Local\Temp\ccyOiGeb.s:8218   .debug_loc:0000000000000692 .LLST31
C:\Users\Kalle\AppData\Local\Temp\ccyOiGeb.s:8241   .debug_loc:00000000000006ca .LLST32
C:\Users\Kalle\AppData\Local\Temp\ccyOiGeb.s:8266   .debug_loc:0000000000000704 .LLST33
C:\Users\Kalle\AppData\Local\Temp\ccyOiGeb.s:8281   .debug_loc:000000000000072d .LLST34
C:\Users\Kalle\AppData\Local\Temp\ccyOiGeb.s:8300   .debug_loc:0000000000000761 .LLST35
C:\Users\Kalle\AppData\Local\Temp\ccyOiGeb.s:1329   .text.disk_read:0000000000000048 .LBB74
C:\Users\Kalle\AppData\Local\Temp\ccyOiGeb.s:1335   .text.disk_read:0000000000000056 .LVL160
C:\Users\Kalle\AppData\Local\Temp\ccyOiGeb.s:1339   .text.disk_read:0000000000000062 .LVL161
C:\Users\Kalle\AppData\Local\Temp\ccyOiGeb.s:1397   .text.disk_read:00000000000000a4 .LVL168
C:\Users\Kalle\AppData\Local\Temp\ccyOiGeb.s:1401   .text.disk_read:00000000000000b0 .LVL169
C:\Users\Kalle\AppData\Local\Temp\ccyOiGeb.s:1322   .text.disk_read:0000000000000044 .LVL158
C:\Users\Kalle\AppData\Local\Temp\ccyOiGeb.s:1375   .text.disk_read:0000000000000084 .LVL164
C:\Users\Kalle\AppData\Local\Temp\ccyOiGeb.s:1389   .text.disk_read:0000000000000096 .LVL167
C:\Users\Kalle\AppData\Local\Temp\ccyOiGeb.s:1413   .text.disk_read:00000000000000bc .LVL172
C:\Users\Kalle\AppData\Local\Temp\ccyOiGeb.s:1421   .text.disk_read:00000000000000ce .LVL173
C:\Users\Kalle\AppData\Local\Temp\ccyOiGeb.s:9243   .debug_str:00000000000002cc .LASF196
C:\Users\Kalle\AppData\Local\Temp\ccyOiGeb.s:1231   .text.disk_status:0000000000000000 .LFB16
C:\Users\Kalle\AppData\Local\Temp\ccyOiGeb.s:1253   .text.disk_status:0000000000000014 .LFE16
C:\Users\Kalle\AppData\Local\Temp\ccyOiGeb.s:8331   .debug_loc:00000000000007af .LLST30
C:\Users\Kalle\AppData\Local\Temp\ccyOiGeb.s:9567   .debug_str:000000000000096f .LASF197
C:\Users\Kalle\AppData\Local\Temp\ccyOiGeb.s:755    .text.disk_initialize:0000000000000000 .LFB15
GAS LISTING C:\Users\Kalle\AppData\Local\Temp\ccyOiGeb.s 			page 78


C:\Users\Kalle\AppData\Local\Temp\ccyOiGeb.s:1224   .text.disk_initialize:00000000000002e8 .LFE15
C:\Users\Kalle\AppData\Local\Temp\ccyOiGeb.s:8356   .debug_loc:00000000000007e9 .LLST25
C:\Users\Kalle\AppData\Local\Temp\ccyOiGeb.s:8379   .debug_loc:0000000000000823 .LLST26
C:\Users\Kalle\AppData\Local\Temp\ccyOiGeb.s:8404   .debug_loc:000000000000085d .LLST27
C:\Users\Kalle\AppData\Local\Temp\ccyOiGeb.s:8456   .debug_loc:00000000000008c0 .LLST28
C:\Users\Kalle\AppData\Local\Temp\ccyOiGeb.s:8463   .debug_loc:00000000000008d3 .LLST29
C:\Users\Kalle\AppData\Local\Temp\ccyOiGeb.s:771    .text.disk_initialize:0000000000000006 .LBB54
C:\Users\Kalle\AppData\Local\Temp\ccyOiGeb.s:803    .text.disk_initialize:000000000000001e .LVL97
C:\Users\Kalle\AppData\Local\Temp\ccyOiGeb.s:807    .text.disk_initialize:000000000000002a .LVL98
C:\Users\Kalle\AppData\Local\Temp\ccyOiGeb.s:811    .text.disk_initialize:0000000000000036 .LVL99
C:\Users\Kalle\AppData\Local\Temp\ccyOiGeb.s:819    .text.disk_initialize:000000000000004c .LVL100
C:\Users\Kalle\AppData\Local\Temp\ccyOiGeb.s:826    .text.disk_initialize:000000000000005e .LVL101
C:\Users\Kalle\AppData\Local\Temp\ccyOiGeb.s:833    .text.disk_initialize:0000000000000070 .LVL102
C:\Users\Kalle\AppData\Local\Temp\ccyOiGeb.s:838    .text.disk_initialize:000000000000007e .LVL103
C:\Users\Kalle\AppData\Local\Temp\ccyOiGeb.s:873    .text.disk_initialize:00000000000000ac .LVL104
C:\Users\Kalle\AppData\Local\Temp\ccyOiGeb.s:878    .text.disk_initialize:00000000000000ba .LVL105
C:\Users\Kalle\AppData\Local\Temp\ccyOiGeb.s:882    .text.disk_initialize:00000000000000c6 .LVL106
C:\Users\Kalle\AppData\Local\Temp\ccyOiGeb.s:945    .text.disk_initialize:000000000000012c .LBB60
C:\Users\Kalle\AppData\Local\Temp\ccyOiGeb.s:959    .text.disk_initialize:000000000000013e .LVL115
C:\Users\Kalle\AppData\Local\Temp\ccyOiGeb.s:963    .text.disk_initialize:000000000000014a .LVL116
C:\Users\Kalle\AppData\Local\Temp\ccyOiGeb.s:1106   .text.disk_initialize:0000000000000228 .LVL134
C:\Users\Kalle\AppData\Local\Temp\ccyOiGeb.s:1110   .text.disk_initialize:0000000000000234 .LVL135
C:\Users\Kalle\AppData\Local\Temp\ccyOiGeb.s:1193   .text.disk_initialize:00000000000002ba .LVL144
C:\Users\Kalle\AppData\Local\Temp\ccyOiGeb.s:1197   .text.disk_initialize:00000000000002c6 .LVL145
C:\Users\Kalle\AppData\Local\Temp\ccyOiGeb.s:1214   .text.disk_initialize:00000000000002da .LVL147
C:\Users\Kalle\AppData\Local\Temp\ccyOiGeb.s:1218   .text.disk_initialize:00000000000002e6 .LVL148
C:\Users\Kalle\AppData\Local\Temp\ccyOiGeb.s:891    .text.disk_initialize:00000000000000d4 .LVL107
C:\Users\Kalle\AppData\Local\Temp\ccyOiGeb.s:911    .text.disk_initialize:00000000000000fe .LVL108
C:\Users\Kalle\AppData\Local\Temp\ccyOiGeb.s:923    .text.disk_initialize:0000000000000112 .LVL111
C:\Users\Kalle\AppData\Local\Temp\ccyOiGeb.s:933    .text.disk_initialize:0000000000000120 .LVL113
C:\Users\Kalle\AppData\Local\Temp\ccyOiGeb.s:1002   .text.disk_initialize:0000000000000172 .LVL119
C:\Users\Kalle\AppData\Local\Temp\ccyOiGeb.s:1008   .text.disk_initialize:0000000000000180 .LVL120
C:\Users\Kalle\AppData\Local\Temp\ccyOiGeb.s:1020   .text.disk_initialize:0000000000000198 .LVL122
C:\Users\Kalle\AppData\Local\Temp\ccyOiGeb.s:1042   .text.disk_initialize:00000000000001c6 .LVL125
C:\Users\Kalle\AppData\Local\Temp\ccyOiGeb.s:1049   .text.disk_initialize:00000000000001d0 .LVL126
C:\Users\Kalle\AppData\Local\Temp\ccyOiGeb.s:1058   .text.disk_initialize:00000000000001de .LVL127
C:\Users\Kalle\AppData\Local\Temp\ccyOiGeb.s:1065   .text.disk_initialize:00000000000001ee .LVL128
C:\Users\Kalle\AppData\Local\Temp\ccyOiGeb.s:1074   .text.disk_initialize:00000000000001fc .LVL130
C:\Users\Kalle\AppData\Local\Temp\ccyOiGeb.s:1134   .text.disk_initialize:0000000000000260 .LVL137
C:\Users\Kalle\AppData\Local\Temp\ccyOiGeb.s:1149   .text.disk_initialize:0000000000000278 .LVL139
C:\Users\Kalle\AppData\Local\Temp\ccyOiGeb.s:1157   .text.disk_initialize:0000000000000282 .LVL141
C:\Users\Kalle\AppData\Local\Temp\ccyOiGeb.s:1166   .text.disk_initialize:000000000000028e .LVL142
C:\Users\Kalle\AppData\Local\Temp\ccyOiGeb.s:1173   .text.disk_initialize:00000000000002a0 .LVL143
C:\Users\Kalle\AppData\Local\Temp\ccyOiGeb.s:9199   .debug_str:00000000000001f0 .LASF202
C:\Users\Kalle\AppData\Local\Temp\ccyOiGeb.s:462    .text.send_cmd:0000000000000000 .LFB14
C:\Users\Kalle\AppData\Local\Temp\ccyOiGeb.s:679    .text.send_cmd:000000000000015c .LFE14
C:\Users\Kalle\AppData\Local\Temp\ccyOiGeb.s:8495   .debug_loc:0000000000000922 .LLST16
C:\Users\Kalle\AppData\Local\Temp\ccyOiGeb.s:8518   .debug_loc:000000000000095a .LLST17
C:\Users\Kalle\AppData\Local\Temp\ccyOiGeb.s:8546   .debug_loc:000000000000099e .LLST18
C:\Users\Kalle\AppData\Local\Temp\ccyOiGeb.s:8568   .debug_loc:00000000000009d5 .LLST19
C:\Users\Kalle\AppData\Local\Temp\ccyOiGeb.s:8613   .debug_loc:0000000000000a3f .LLST20
C:\Users\Kalle\AppData\Local\Temp\ccyOiGeb.s:495    .text.send_cmd:000000000000001c .LBB46
C:\Users\Kalle\AppData\Local\Temp\ccyOiGeb.s:507    .text.send_cmd:0000000000000036 .LBE46
C:\Users\Kalle\AppData\Local\Temp\ccyOiGeb.s:501    .text.send_cmd:000000000000002a .LVL51
C:\Users\Kalle\AppData\Local\Temp\ccyOiGeb.s:505    .text.send_cmd:0000000000000036 .LVL52
C:\Users\Kalle\AppData\Local\Temp\ccyOiGeb.s:511    .text.send_cmd:000000000000003e .LVL53
C:\Users\Kalle\AppData\Local\Temp\ccyOiGeb.s:519    .text.send_cmd:0000000000000050 .LVL54
GAS LISTING C:\Users\Kalle\AppData\Local\Temp\ccyOiGeb.s 			page 79


C:\Users\Kalle\AppData\Local\Temp\ccyOiGeb.s:523    .text.send_cmd:000000000000005c .LVL55
C:\Users\Kalle\AppData\Local\Temp\ccyOiGeb.s:530    .text.send_cmd:000000000000006c .LVL56
C:\Users\Kalle\AppData\Local\Temp\ccyOiGeb.s:537    .text.send_cmd:000000000000007c .LVL57
C:\Users\Kalle\AppData\Local\Temp\ccyOiGeb.s:541    .text.send_cmd:0000000000000088 .LVL58
C:\Users\Kalle\AppData\Local\Temp\ccyOiGeb.s:550    .text.send_cmd:0000000000000096 .LVL60
C:\Users\Kalle\AppData\Local\Temp\ccyOiGeb.s:562    .text.send_cmd:00000000000000a4 .LVL62
C:\Users\Kalle\AppData\Local\Temp\ccyOiGeb.s:599    .text.send_cmd:00000000000000d0 .LVL68
C:\Users\Kalle\AppData\Local\Temp\ccyOiGeb.s:603    .text.send_cmd:00000000000000dc .LVL69
C:\Users\Kalle\AppData\Local\Temp\ccyOiGeb.s:610    .text.send_cmd:00000000000000ec .LVL70
C:\Users\Kalle\AppData\Local\Temp\ccyOiGeb.s:617    .text.send_cmd:00000000000000fc .LVL71
C:\Users\Kalle\AppData\Local\Temp\ccyOiGeb.s:621    .text.send_cmd:0000000000000108 .LVL72
C:\Users\Kalle\AppData\Local\Temp\ccyOiGeb.s:628    .text.send_cmd:0000000000000112 .LVL73
C:\Users\Kalle\AppData\Local\Temp\ccyOiGeb.s:633    .text.send_cmd:000000000000011e .LVL74
C:\Users\Kalle\AppData\Local\Temp\ccyOiGeb.s:643    .text.send_cmd:000000000000012e .LVL76
C:\Users\Kalle\AppData\Local\Temp\ccyOiGeb.s:667    .text.send_cmd:000000000000014e .LVL81
C:\Users\Kalle\AppData\Local\Temp\ccyOiGeb.s:675    .text.send_cmd:000000000000015a .LVL83
C:\Users\Kalle\AppData\Local\Temp\ccyOiGeb.s:9447   .debug_str:00000000000006cf .LASF199
C:\Users\Kalle\AppData\Local\Temp\ccyOiGeb.s:9551   .debug_str:000000000000090e .LASF198
C:\Users\Kalle\AppData\Local\Temp\ccyOiGeb.s:9207   .debug_str:000000000000021c .LASF201
C:\Users\Kalle\AppData\Local\Temp\ccyOiGeb.s:9401   .debug_str:00000000000005f0 .LASF200
C:\Users\Kalle\AppData\Local\Temp\ccyOiGeb.s:9319   .debug_str:0000000000000466 .LASF229
C:\Users\Kalle\AppData\Local\Temp\ccyOiGeb.s:9215   .debug_str:0000000000000240 .LASF230
C:\Users\Kalle\AppData\Local\Temp\ccyOiGeb.s:9239   .debug_str:00000000000002b3 .LASF203
C:\Users\Kalle\AppData\Local\Temp\ccyOiGeb.s:99     .text.wait_ready:0000000000000000 .LFB9
C:\Users\Kalle\AppData\Local\Temp\ccyOiGeb.s:258    .text.wait_ready:00000000000000de .LFE9
C:\Users\Kalle\AppData\Local\Temp\ccyOiGeb.s:8624   .debug_loc:0000000000000a5d .LLST2
C:\Users\Kalle\AppData\Local\Temp\ccyOiGeb.s:8647   .debug_loc:0000000000000a95 .LLST3
C:\Users\Kalle\AppData\Local\Temp\ccyOiGeb.s:9273   .debug_str:000000000000036e .LASF204
C:\Users\Kalle\AppData\Local\Temp\ccyOiGeb.s:8669   .debug_loc:0000000000000acc .LLST4
C:\Users\Kalle\AppData\Local\Temp\ccyOiGeb.s:9339   .debug_str:00000000000004c9 .LASF205
C:\Users\Kalle\AppData\Local\Temp\ccyOiGeb.s:8699   .debug_loc:0000000000000b04 .LLST5
C:\Users\Kalle\AppData\Local\Temp\ccyOiGeb.s:8729   .debug_loc:0000000000000b3c .LLST6
C:\Users\Kalle\AppData\Local\Temp\ccyOiGeb.s:136    .text.wait_ready:0000000000000022 .LVL7
C:\Users\Kalle\AppData\Local\Temp\ccyOiGeb.s:195    .text.wait_ready:0000000000000098 .LVL18
C:\Users\Kalle\AppData\Local\Temp\ccyOiGeb.s:210    .text.wait_ready:00000000000000b4 .LVL21
C:\Users\Kalle\AppData\Local\Temp\ccyOiGeb.s:9381   .debug_str:0000000000000582 .LASF206
C:\Users\Kalle\AppData\Local\Temp\ccyOiGeb.s:9499   .debug_str:00000000000007e0 .LASF207
C:\Users\Kalle\AppData\Local\Temp\ccyOiGeb.s:9569   .debug_str:000000000000097f .LASF208
C:\Users\Kalle\AppData\Local\Temp\ccyOiGeb.s:13     .text.xchg_spi:0000000000000000 .LFB6
C:\Users\Kalle\AppData\Local\Temp\ccyOiGeb.s:88     .text.xchg_spi:0000000000000062 .LFE6
C:\Users\Kalle\AppData\Local\Temp\ccyOiGeb.s:8740   .debug_loc:0000000000000b5a .LLST0
C:\Users\Kalle\AppData\Local\Temp\ccyOiGeb.s:8758   .debug_loc:0000000000000b86 .LLST1
C:\Users\Kalle\AppData\Local\Temp\ccyOiGeb.s:45     .text.xchg_spi:0000000000000020 .LVL2
C:\Users\Kalle\AppData\Local\Temp\ccyOiGeb.s:55     .text.xchg_spi:0000000000000034 .LVL3
C:\Users\Kalle\AppData\Local\Temp\ccyOiGeb.s:65     .text.xchg_spi:0000000000000044 .LVL4
C:\Users\Kalle\AppData\Local\Temp\ccyOiGeb.s:72     .text.xchg_spi:0000000000000052 .LVL5
C:\Users\Kalle\AppData\Local\Temp\ccyOiGeb.s:9271   .debug_str:0000000000000365 .LASF209
C:\Users\Kalle\AppData\Local\Temp\ccyOiGeb.s:9463   .debug_str:000000000000071d .LASF210
C:\Users\Kalle\AppData\Local\Temp\ccyOiGeb.s:264    .text.rcvr_datablock:0000000000000000 .LFB12
C:\Users\Kalle\AppData\Local\Temp\ccyOiGeb.s:388    .text.rcvr_datablock:000000000000008a .LFE12
C:\Users\Kalle\AppData\Local\Temp\ccyOiGeb.s:8772   .debug_loc:0000000000000ba7 .LLST7
C:\Users\Kalle\AppData\Local\Temp\ccyOiGeb.s:8800   .debug_loc:0000000000000beb .LLST8
C:\Users\Kalle\AppData\Local\Temp\ccyOiGeb.s:8829   .debug_loc:0000000000000c30 .LLST9
C:\Users\Kalle\AppData\Local\Temp\ccyOiGeb.s:8864   .debug_loc:0000000000000c82 .LLST10
C:\Users\Kalle\AppData\Local\Temp\ccyOiGeb.s:315    .text.rcvr_datablock:0000000000000044 .LBB33
C:\Users\Kalle\AppData\Local\Temp\ccyOiGeb.s:334    .text.rcvr_datablock:000000000000005a .LBE33
C:\Users\Kalle\AppData\Local\Temp\ccyOiGeb.s:8875   .debug_loc:0000000000000ca0 .LLST11
GAS LISTING C:\Users\Kalle\AppData\Local\Temp\ccyOiGeb.s 			page 80


C:\Users\Kalle\AppData\Local\Temp\ccyOiGeb.s:8885   .debug_loc:0000000000000cb6 .LLST12
C:\Users\Kalle\AppData\Local\Temp\ccyOiGeb.s:322    .text.rcvr_datablock:0000000000000050 .LVL34
C:\Users\Kalle\AppData\Local\Temp\ccyOiGeb.s:335    .text.rcvr_datablock:000000000000005a .LBB35
C:\Users\Kalle\AppData\Local\Temp\ccyOiGeb.s:8902   .debug_loc:0000000000000ce1 .LLST13
C:\Users\Kalle\AppData\Local\Temp\ccyOiGeb.s:8909   .debug_loc:0000000000000cf4 .LLST14
C:\Users\Kalle\AppData\Local\Temp\ccyOiGeb.s:340    .text.rcvr_datablock:0000000000000066 .LVL38
C:\Users\Kalle\AppData\Local\Temp\ccyOiGeb.s:344    .text.rcvr_datablock:0000000000000072 .LVL39
C:\Users\Kalle\AppData\Local\Temp\ccyOiGeb.s:287    .text.rcvr_datablock:0000000000000018 .LVL28
C:\Users\Kalle\AppData\Local\Temp\ccyOiGeb.s:293    .text.rcvr_datablock:0000000000000022 .LVL30
C:\Users\Kalle\AppData\Local\Temp\ccyOiGeb.s:302    .text.rcvr_datablock:0000000000000030 .LVL31
C:\Users\Kalle\AppData\Local\Temp\ccyOiGeb.s:394    .text._select:0000000000000000 .LFB11
C:\Users\Kalle\AppData\Local\Temp\ccyOiGeb.s:456    .text._select:0000000000000056 .LFE11
C:\Users\Kalle\AppData\Local\Temp\ccyOiGeb.s:8919   .debug_loc:0000000000000d0a .LLST15
C:\Users\Kalle\AppData\Local\Temp\ccyOiGeb.s:428    .text._select:0000000000000032 .LBB43
C:\Users\Kalle\AppData\Local\Temp\ccyOiGeb.s:442    .text._select:000000000000004c .LBE43
C:\Users\Kalle\AppData\Local\Temp\ccyOiGeb.s:429    .text._select:0000000000000032 .LBB44
C:\Users\Kalle\AppData\Local\Temp\ccyOiGeb.s:441    .text._select:000000000000004c .LBE44
C:\Users\Kalle\AppData\Local\Temp\ccyOiGeb.s:435    .text._select:0000000000000040 .LVL47
C:\Users\Kalle\AppData\Local\Temp\ccyOiGeb.s:439    .text._select:000000000000004c .LVL48
C:\Users\Kalle\AppData\Local\Temp\ccyOiGeb.s:412    .text._select:0000000000000014 .LVL44
C:\Users\Kalle\AppData\Local\Temp\ccyOiGeb.s:416    .text._select:0000000000000020 .LVL45
C:\Users\Kalle\AppData\Local\Temp\ccyOiGeb.s:421    .text._select:000000000000002c .LVL46
C:\Users\Kalle\AppData\Local\Temp\ccyOiGeb.s:685    .text.xmit_datablock.part.2:0000000000000000 .LFB22
C:\Users\Kalle\AppData\Local\Temp\ccyOiGeb.s:748    .text.xmit_datablock.part.2:0000000000000056 .LFE22
C:\Users\Kalle\AppData\Local\Temp\ccyOiGeb.s:8937   .debug_loc:0000000000000d36 .LLST21
C:\Users\Kalle\AppData\Local\Temp\ccyOiGeb.s:8955   .debug_loc:0000000000000d62 .LLST22
C:\Users\Kalle\AppData\Local\Temp\ccyOiGeb.s:8975   .debug_loc:0000000000000d91 .LLST23
C:\Users\Kalle\AppData\Local\Temp\ccyOiGeb.s:703    .text.xmit_datablock.part.2:000000000000000e .LBB48
C:\Users\Kalle\AppData\Local\Temp\ccyOiGeb.s:714    .text.xmit_datablock.part.2:0000000000000020 .LBE48
C:\Users\Kalle\AppData\Local\Temp\ccyOiGeb.s:704    .text.xmit_datablock.part.2:000000000000000e .LBB49
C:\Users\Kalle\AppData\Local\Temp\ccyOiGeb.s:713    .text.xmit_datablock.part.2:0000000000000020 .LBE49
C:\Users\Kalle\AppData\Local\Temp\ccyOiGeb.s:8982   .debug_loc:0000000000000da4 .LLST24
C:\Users\Kalle\AppData\Local\Temp\ccyOiGeb.s:710    .text.xmit_datablock.part.2:000000000000001c .LVL87
C:\Users\Kalle\AppData\Local\Temp\ccyOiGeb.s:718    .text.xmit_datablock.part.2:000000000000002c .LVL88
C:\Users\Kalle\AppData\Local\Temp\ccyOiGeb.s:722    .text.xmit_datablock.part.2:0000000000000038 .LVL89
C:\Users\Kalle\AppData\Local\Temp\ccyOiGeb.s:727    .text.xmit_datablock.part.2:0000000000000044 .LVL90
C:\Users\Kalle\AppData\Local\Temp\ccyOiGeb.s:9467   .debug_str:000000000000073a .LASF211
C:\Users\Kalle\AppData\Local\Temp\ccyOiGeb.s:9565   .debug_str:0000000000000957 .LASF212
C:\Users\Kalle\AppData\Local\Temp\ccyOiGeb.s:9489   .debug_str:00000000000007b9 .LASF213
C:\Users\Kalle\AppData\Local\Temp\ccyOiGeb.s:9233   .debug_str:0000000000000296 .LASF214
C:\Users\Kalle\AppData\Local\Temp\ccyOiGeb.s:9129   .debug_str:0000000000000021 .LASF215
C:\Users\Kalle\AppData\Local\Temp\ccyOiGeb.s:9571   .debug_str:0000000000000988 .LASF216
C:\Users\Kalle\AppData\Local\Temp\ccyOiGeb.s:9493   .debug_str:00000000000007ca .LASF217
C:\Users\Kalle\AppData\Local\Temp\ccyOiGeb.s:9295   .debug_str:00000000000003da .LASF218
C:\Users\Kalle\AppData\Local\Temp\ccyOiGeb.s:9529   .debug_str:00000000000008ad .LASF219
C:\Users\Kalle\AppData\Local\Temp\ccyOiGeb.s:9313   .debug_str:0000000000000444 .LASF220
C:\Users\Kalle\AppData\Local\Temp\ccyOiGeb.s:9309   .debug_str:000000000000042d .LASF221
C:\Users\Kalle\AppData\Local\Temp\ccyOiGeb.s:9443   .debug_str:00000000000006a7 .LASF222
C:\Users\Kalle\AppData\Local\Temp\ccyOiGeb.s:9479   .debug_str:0000000000000781 .LASF223
C:\Users\Kalle\AppData\Local\Temp\ccyOiGeb.s:9383   .debug_str:0000000000000591 .LASF224
C:\Users\Kalle\AppData\Local\Temp\ccyOiGeb.s:1690   .text.disk_ioctl:0000000000000002 .LCFI25
C:\Users\Kalle\AppData\Local\Temp\ccyOiGeb.s:1758   .text.disk_ioctl:000000000000005a .LCFI26
C:\Users\Kalle\AppData\Local\Temp\ccyOiGeb.s:1763   .text.disk_ioctl:000000000000005c .LCFI27
C:\Users\Kalle\AppData\Local\Temp\ccyOiGeb.s:1683   .text.disk_ioctl:0000000000000000 .LVL204
C:\Users\Kalle\AppData\Local\Temp\ccyOiGeb.s:1728   .text.disk_ioctl:0000000000000034 .LVL206
C:\Users\Kalle\AppData\Local\Temp\ccyOiGeb.s:1761   .text.disk_ioctl:000000000000005c .LVL209
C:\Users\Kalle\AppData\Local\Temp\ccyOiGeb.s:1773   .text.disk_ioctl:000000000000006e .LVL210
GAS LISTING C:\Users\Kalle\AppData\Local\Temp\ccyOiGeb.s 			page 81


C:\Users\Kalle\AppData\Local\Temp\ccyOiGeb.s:1778   .text.disk_ioctl:0000000000000072 .LVL211
C:\Users\Kalle\AppData\Local\Temp\ccyOiGeb.s:1795   .text.disk_ioctl:0000000000000088 .LVL213
C:\Users\Kalle\AppData\Local\Temp\ccyOiGeb.s:1839   .text.disk_ioctl:00000000000000da .LVL221
C:\Users\Kalle\AppData\Local\Temp\ccyOiGeb.s:1848   .text.disk_ioctl:00000000000000e8 .LVL223
C:\Users\Kalle\AppData\Local\Temp\ccyOiGeb.s:1855   .text.disk_ioctl:00000000000000ec .LVL225
C:\Users\Kalle\AppData\Local\Temp\ccyOiGeb.s:1930   .text.disk_ioctl:0000000000000154 .LVL233
C:\Users\Kalle\AppData\Local\Temp\ccyOiGeb.s:1935   .text.disk_ioctl:0000000000000156 .LVL234
C:\Users\Kalle\AppData\Local\Temp\ccyOiGeb.s:1977   .text.disk_ioctl:000000000000019e .LVL237
C:\Users\Kalle\AppData\Local\Temp\ccyOiGeb.s:1788   .text.disk_ioctl:0000000000000080 .LVL212
C:\Users\Kalle\AppData\Local\Temp\ccyOiGeb.s:1853   .text.disk_ioctl:00000000000000ea .LVL224
C:\Users\Kalle\AppData\Local\Temp\ccyOiGeb.s:1984   .text.disk_ioctl:00000000000001a2 .LVL239
C:\Users\Kalle\AppData\Local\Temp\ccyOiGeb.s:1982   .text.disk_ioctl:00000000000001a0 .LVL238
C:\Users\Kalle\AppData\Local\Temp\ccyOiGeb.s:1718   .text.disk_ioctl:0000000000000022 .LVL205
C:\Users\Kalle\AppData\Local\Temp\ccyOiGeb.s:1837   .text.disk_ioctl:00000000000000d8 .LVL220
C:\Users\Kalle\AppData\Local\Temp\ccyOiGeb.s:1814   .text.disk_ioctl:00000000000000b0 .LVL217
C:\Users\Kalle\AppData\Local\Temp\ccyOiGeb.s:1817   .text.disk_ioctl:00000000000000b2 .LVL218
C:\Users\Kalle\AppData\Local\Temp\ccyOiGeb.s:1874   .text.disk_ioctl:000000000000010e .LVL228
C:\Users\Kalle\AppData\Local\Temp\ccyOiGeb.s:2001   .text.disk_ioctl:00000000000001c2 .LVL241
C:\Users\Kalle\AppData\Local\Temp\ccyOiGeb.s:2054   .text.disk_ioctl:000000000000021e .LVL250
C:\Users\Kalle\AppData\Local\Temp\ccyOiGeb.s:2007   .text.disk_ioctl:00000000000001ca .LVL242
C:\Users\Kalle\AppData\Local\Temp\ccyOiGeb.s:2011   .text.disk_ioctl:00000000000001ce .LVL243
C:\Users\Kalle\AppData\Local\Temp\ccyOiGeb.s:1881   .text.disk_ioctl:0000000000000116 .LVL229
C:\Users\Kalle\AppData\Local\Temp\ccyOiGeb.s:1892   .text.disk_ioctl:0000000000000128 .LVL230
C:\Users\Kalle\AppData\Local\Temp\ccyOiGeb.s:1900   .text.disk_ioctl:0000000000000130 .LVL231
C:\Users\Kalle\AppData\Local\Temp\ccyOiGeb.s:1910   .text.disk_ioctl:000000000000013c .LVL232
C:\Users\Kalle\AppData\Local\Temp\ccyOiGeb.s:2062   .text.disk_ioctl:0000000000000226 .LVL251
C:\Users\Kalle\AppData\Local\Temp\ccyOiGeb.s:2067   .text.disk_ioctl:000000000000022c .LVL252
C:\Users\Kalle\AppData\Local\Temp\ccyOiGeb.s:2071   .text.disk_ioctl:0000000000000232 .LVL253
C:\Users\Kalle\AppData\Local\Temp\ccyOiGeb.s:2074   .text.disk_ioctl:0000000000000234 .LVL254
C:\Users\Kalle\AppData\Local\Temp\ccyOiGeb.s:2087   .text.disk_ioctl:0000000000000244 .LVL255
C:\Users\Kalle\AppData\Local\Temp\ccyOiGeb.s:1443   .text.disk_write:0000000000000002 .LCFI22
C:\Users\Kalle\AppData\Local\Temp\ccyOiGeb.s:1574   .text.disk_write:000000000000009e .LCFI23
C:\Users\Kalle\AppData\Local\Temp\ccyOiGeb.s:1579   .text.disk_write:00000000000000a0 .LCFI24
C:\Users\Kalle\AppData\Local\Temp\ccyOiGeb.s:1439   .text.disk_write:0000000000000000 .LVL174
C:\Users\Kalle\AppData\Local\Temp\ccyOiGeb.s:1497   .text.disk_write:000000000000004a .LVL175
C:\Users\Kalle\AppData\Local\Temp\ccyOiGeb.s:1605   .text.disk_write:00000000000000c2 .LVL190
C:\Users\Kalle\AppData\Local\Temp\ccyOiGeb.s:1612   .text.disk_write:00000000000000c6 .LVL192
C:\Users\Kalle\AppData\Local\Temp\ccyOiGeb.s:1623   .text.disk_write:00000000000000d8 .LVL194
C:\Users\Kalle\AppData\Local\Temp\ccyOiGeb.s:1630   .text.disk_write:00000000000000de .LVL195
C:\Users\Kalle\AppData\Local\Temp\ccyOiGeb.s:1637   .text.disk_write:00000000000000ec .LVL197
C:\Users\Kalle\AppData\Local\Temp\ccyOiGeb.s:1643   .text.disk_write:00000000000000f0 .LVL198
C:\Users\Kalle\AppData\Local\Temp\ccyOiGeb.s:1577   .text.disk_write:00000000000000a0 .LVL185
C:\Users\Kalle\AppData\Local\Temp\ccyOiGeb.s:1545   .text.disk_write:0000000000000078 .LVL182
C:\Users\Kalle\AppData\Local\Temp\ccyOiGeb.s:1598   .text.disk_write:00000000000000ba .LVL188
C:\Users\Kalle\AppData\Local\Temp\ccyOiGeb.s:1601   .text.disk_write:00000000000000be .LVL189
C:\Users\Kalle\AppData\Local\Temp\ccyOiGeb.s:1511   .text.disk_write:000000000000005a .LVL177
C:\Users\Kalle\AppData\Local\Temp\ccyOiGeb.s:1523   .text.disk_write:0000000000000068 .LVL179
C:\Users\Kalle\AppData\Local\Temp\ccyOiGeb.s:1538   .text.disk_write:0000000000000076 .LVL181
C:\Users\Kalle\AppData\Local\Temp\ccyOiGeb.s:1648   .text.disk_write:00000000000000fa .LVL200
C:\Users\Kalle\AppData\Local\Temp\ccyOiGeb.s:1267   .text.disk_read:0000000000000002 .LCFI19
C:\Users\Kalle\AppData\Local\Temp\ccyOiGeb.s:1356   .text.disk_read:000000000000006e .LCFI20
C:\Users\Kalle\AppData\Local\Temp\ccyOiGeb.s:1361   .text.disk_read:0000000000000070 .LCFI21
C:\Users\Kalle\AppData\Local\Temp\ccyOiGeb.s:1263   .text.disk_read:0000000000000000 .LVL153
C:\Users\Kalle\AppData\Local\Temp\ccyOiGeb.s:1320   .text.disk_read:000000000000003c .LVL157
C:\Users\Kalle\AppData\Local\Temp\ccyOiGeb.s:1406   .text.disk_read:00000000000000b2 .LVL170
C:\Users\Kalle\AppData\Local\Temp\ccyOiGeb.s:1411   .text.disk_read:00000000000000b4 .LVL171
C:\Users\Kalle\AppData\Local\Temp\ccyOiGeb.s:1313   .text.disk_read:0000000000000036 .LVL155
GAS LISTING C:\Users\Kalle\AppData\Local\Temp\ccyOiGeb.s 			page 82


C:\Users\Kalle\AppData\Local\Temp\ccyOiGeb.s:1359   .text.disk_read:0000000000000070 .LVL162
C:\Users\Kalle\AppData\Local\Temp\ccyOiGeb.s:1306   .text.disk_read:0000000000000032 .LVL154
C:\Users\Kalle\AppData\Local\Temp\ccyOiGeb.s:1316   .text.disk_read:000000000000003a .LVL156
C:\Users\Kalle\AppData\Local\Temp\ccyOiGeb.s:1327   .text.disk_read:0000000000000048 .LVL159
C:\Users\Kalle\AppData\Local\Temp\ccyOiGeb.s:1365   .text.disk_read:0000000000000074 .LVL163
C:\Users\Kalle\AppData\Local\Temp\ccyOiGeb.s:1379   .text.disk_read:0000000000000086 .LVL165
C:\Users\Kalle\AppData\Local\Temp\ccyOiGeb.s:1383   .text.disk_read:000000000000008a .LVL166
C:\Users\Kalle\AppData\Local\Temp\ccyOiGeb.s:1234   .text.disk_status:0000000000000000 .LVL149
C:\Users\Kalle\AppData\Local\Temp\ccyOiGeb.s:1242   .text.disk_status:000000000000000a .LVL150
C:\Users\Kalle\AppData\Local\Temp\ccyOiGeb.s:1245   .text.disk_status:0000000000000010 .LVL151
C:\Users\Kalle\AppData\Local\Temp\ccyOiGeb.s:1249   .text.disk_status:0000000000000012 .LVL152
C:\Users\Kalle\AppData\Local\Temp\ccyOiGeb.s:779    .text.disk_initialize:0000000000000008 .LCFI16
C:\Users\Kalle\AppData\Local\Temp\ccyOiGeb.s:992    .text.disk_initialize:0000000000000164 .LCFI17
C:\Users\Kalle\AppData\Local\Temp\ccyOiGeb.s:997    .text.disk_initialize:0000000000000166 .LCFI18
C:\Users\Kalle\AppData\Local\Temp\ccyOiGeb.s:758    .text.disk_initialize:0000000000000000 .LVL93
C:\Users\Kalle\AppData\Local\Temp\ccyOiGeb.s:765    .text.disk_initialize:0000000000000004 .LVL94
C:\Users\Kalle\AppData\Local\Temp\ccyOiGeb.s:768    .text.disk_initialize:0000000000000006 .LVL95
C:\Users\Kalle\AppData\Local\Temp\ccyOiGeb.s:785    .text.disk_initialize:000000000000000c .LVL96
C:\Users\Kalle\AppData\Local\Temp\ccyOiGeb.s:915    .text.disk_initialize:0000000000000100 .LVL109
C:\Users\Kalle\AppData\Local\Temp\ccyOiGeb.s:919    .text.disk_initialize:0000000000000102 .LVL110
C:\Users\Kalle\AppData\Local\Temp\ccyOiGeb.s:1015   .text.disk_initialize:000000000000018c .LVL121
C:\Users\Kalle\AppData\Local\Temp\ccyOiGeb.s:1023   .text.disk_initialize:000000000000019c .LVL123
C:\Users\Kalle\AppData\Local\Temp\ccyOiGeb.s:1025   .text.disk_initialize:000000000000019e .LVL124
C:\Users\Kalle\AppData\Local\Temp\ccyOiGeb.s:1069   .text.disk_initialize:00000000000001f0 .LVL129
C:\Users\Kalle\AppData\Local\Temp\ccyOiGeb.s:1077   .text.disk_initialize:0000000000000200 .LVL131
C:\Users\Kalle\AppData\Local\Temp\ccyOiGeb.s:1079   .text.disk_initialize:0000000000000202 .LVL132
C:\Users\Kalle\AppData\Local\Temp\ccyOiGeb.s:1144   .text.disk_initialize:000000000000026e .LVL138
C:\Users\Kalle\AppData\Local\Temp\ccyOiGeb.s:1202   .text.disk_initialize:00000000000002c8 .LVL146
C:\Users\Kalle\AppData\Local\Temp\ccyOiGeb.s:927    .text.disk_initialize:0000000000000114 .LVL112
C:\Users\Kalle\AppData\Local\Temp\ccyOiGeb.s:971    .text.disk_initialize:0000000000000150 .LVL117
C:\Users\Kalle\AppData\Local\Temp\ccyOiGeb.s:995    .text.disk_initialize:0000000000000166 .LVL118
C:\Users\Kalle\AppData\Local\Temp\ccyOiGeb.s:1095   .text.disk_initialize:0000000000000216 .LVL133
C:\Users\Kalle\AppData\Local\Temp\ccyOiGeb.s:1127   .text.disk_initialize:0000000000000252 .LVL136
C:\Users\Kalle\AppData\Local\Temp\ccyOiGeb.s:470    .text.send_cmd:0000000000000002 .LCFI11
C:\Users\Kalle\AppData\Local\Temp\ccyOiGeb.s:589    .text.send_cmd:00000000000000c2 .LCFI12
C:\Users\Kalle\AppData\Local\Temp\ccyOiGeb.s:594    .text.send_cmd:00000000000000c4 .LCFI13
C:\Users\Kalle\AppData\Local\Temp\ccyOiGeb.s:465    .text.send_cmd:0000000000000000 .LVL49
C:\Users\Kalle\AppData\Local\Temp\ccyOiGeb.s:488    .text.send_cmd:0000000000000016 .LVL50
C:\Users\Kalle\AppData\Local\Temp\ccyOiGeb.s:555    .text.send_cmd:0000000000000098 .LVL61
C:\Users\Kalle\AppData\Local\Temp\ccyOiGeb.s:592    .text.send_cmd:00000000000000c4 .LVL67
C:\Users\Kalle\AppData\Local\Temp\ccyOiGeb.s:635    .text.send_cmd:0000000000000120 .LVL75
C:\Users\Kalle\AppData\Local\Temp\ccyOiGeb.s:654    .text.send_cmd:000000000000013a .LVL78
C:\Users\Kalle\AppData\Local\Temp\ccyOiGeb.s:656    .text.send_cmd:000000000000013c .LVL79
C:\Users\Kalle\AppData\Local\Temp\ccyOiGeb.s:586    .text.send_cmd:00000000000000be .LVL66
C:\Users\Kalle\AppData\Local\Temp\ccyOiGeb.s:546    .text.send_cmd:000000000000008a .LVL59
C:\Users\Kalle\AppData\Local\Temp\ccyOiGeb.s:566    .text.send_cmd:00000000000000aa .LVL63
C:\Users\Kalle\AppData\Local\Temp\ccyOiGeb.s:663    .text.send_cmd:0000000000000142 .LVL80
C:\Users\Kalle\AppData\Local\Temp\ccyOiGeb.s:670    .text.send_cmd:0000000000000150 .LVL82
C:\Users\Kalle\AppData\Local\Temp\ccyOiGeb.s:570    .text.send_cmd:00000000000000ae .LVL64
C:\Users\Kalle\AppData\Local\Temp\ccyOiGeb.s:576    .text.send_cmd:00000000000000b8 .LVL65
C:\Users\Kalle\AppData\Local\Temp\ccyOiGeb.s:648    .text.send_cmd:0000000000000132 .LVL77
C:\Users\Kalle\AppData\Local\Temp\ccyOiGeb.s:108    .text.wait_ready:0000000000000002 .LCFI2
C:\Users\Kalle\AppData\Local\Temp\ccyOiGeb.s:248    .text.wait_ready:00000000000000d8 .LCFI3
C:\Users\Kalle\AppData\Local\Temp\ccyOiGeb.s:253    .text.wait_ready:00000000000000da .LCFI4
C:\Users\Kalle\AppData\Local\Temp\ccyOiGeb.s:102    .text.wait_ready:0000000000000000 .LVL6
C:\Users\Kalle\AppData\Local\Temp\ccyOiGeb.s:242    .text.wait_ready:00000000000000d2 .LVL24
C:\Users\Kalle\AppData\Local\Temp\ccyOiGeb.s:251    .text.wait_ready:00000000000000da .LVL25
GAS LISTING C:\Users\Kalle\AppData\Local\Temp\ccyOiGeb.s 			page 83


C:\Users\Kalle\AppData\Local\Temp\ccyOiGeb.s:142    .text.wait_ready:000000000000002a .LVL8
C:\Users\Kalle\AppData\Local\Temp\ccyOiGeb.s:148    .text.wait_ready:0000000000000038 .LVL9
C:\Users\Kalle\AppData\Local\Temp\ccyOiGeb.s:235    .text.wait_ready:00000000000000cc .LVL23
C:\Users\Kalle\AppData\Local\Temp\ccyOiGeb.s:156    .text.wait_ready:0000000000000044 .LVL12
C:\Users\Kalle\AppData\Local\Temp\ccyOiGeb.s:201    .text.wait_ready:00000000000000a4 .LVL19
C:\Users\Kalle\AppData\Local\Temp\ccyOiGeb.s:206    .text.wait_ready:00000000000000ac .LVL20
C:\Users\Kalle\AppData\Local\Temp\ccyOiGeb.s:218    .text.wait_ready:00000000000000c0 .LVL22
C:\Users\Kalle\AppData\Local\Temp\ccyOiGeb.s:152    .text.wait_ready:000000000000003a .LVL10
C:\Users\Kalle\AppData\Local\Temp\ccyOiGeb.s:21     .text.xchg_spi:0000000000000002 .LCFI0
C:\Users\Kalle\AppData\Local\Temp\ccyOiGeb.s:84     .text.xchg_spi:0000000000000060 .LCFI1
C:\Users\Kalle\AppData\Local\Temp\ccyOiGeb.s:17     .text.xchg_spi:0000000000000000 .LVL0
C:\Users\Kalle\AppData\Local\Temp\ccyOiGeb.s:38     .text.xchg_spi:0000000000000014 .LVL1
C:\Users\Kalle\AppData\Local\Temp\ccyOiGeb.s:269    .text.rcvr_datablock:0000000000000002 .LCFI5
C:\Users\Kalle\AppData\Local\Temp\ccyOiGeb.s:365    .text.rcvr_datablock:000000000000007c .LCFI6
C:\Users\Kalle\AppData\Local\Temp\ccyOiGeb.s:370    .text.rcvr_datablock:000000000000007e .LCFI7
C:\Users\Kalle\AppData\Local\Temp\ccyOiGeb.s:384    .text.rcvr_datablock:0000000000000088 .LCFI8
C:\Users\Kalle\AppData\Local\Temp\ccyOiGeb.s:267    .text.rcvr_datablock:0000000000000000 .LVL26
C:\Users\Kalle\AppData\Local\Temp\ccyOiGeb.s:277    .text.rcvr_datablock:000000000000000a .LVL27
C:\Users\Kalle\AppData\Local\Temp\ccyOiGeb.s:313    .text.rcvr_datablock:0000000000000044 .LVL33
C:\Users\Kalle\AppData\Local\Temp\ccyOiGeb.s:368    .text.rcvr_datablock:000000000000007e .LVL41
C:\Users\Kalle\AppData\Local\Temp\ccyOiGeb.s:376    .text.rcvr_datablock:0000000000000082 .LVL42
C:\Users\Kalle\AppData\Local\Temp\ccyOiGeb.s:311    .text.rcvr_datablock:0000000000000042 .LVL32
C:\Users\Kalle\AppData\Local\Temp\ccyOiGeb.s:379    .text.rcvr_datablock:0000000000000084 .LVL43
C:\Users\Kalle\AppData\Local\Temp\ccyOiGeb.s:289    .text.rcvr_datablock:000000000000001a .LVL29
C:\Users\Kalle\AppData\Local\Temp\ccyOiGeb.s:326    .text.rcvr_datablock:0000000000000054 .LVL35
C:\Users\Kalle\AppData\Local\Temp\ccyOiGeb.s:329    .text.rcvr_datablock:0000000000000056 .LVL36
C:\Users\Kalle\AppData\Local\Temp\ccyOiGeb.s:354    .text.rcvr_datablock:0000000000000076 .LVL40
C:\Users\Kalle\AppData\Local\Temp\ccyOiGeb.s:332    .text.rcvr_datablock:000000000000005a .LVL37
C:\Users\Kalle\AppData\Local\Temp\ccyOiGeb.s:400    .text._select:0000000000000002 .LCFI9
C:\Users\Kalle\AppData\Local\Temp\ccyOiGeb.s:452    .text._select:0000000000000054 .LCFI10
C:\Users\Kalle\AppData\Local\Temp\ccyOiGeb.s:690    .text.xmit_datablock.part.2:0000000000000002 .LCFI14
C:\Users\Kalle\AppData\Local\Temp\ccyOiGeb.s:744    .text.xmit_datablock.part.2:0000000000000054 .LCFI15
C:\Users\Kalle\AppData\Local\Temp\ccyOiGeb.s:688    .text.xmit_datablock.part.2:0000000000000000 .LVL84
C:\Users\Kalle\AppData\Local\Temp\ccyOiGeb.s:701    .text.xmit_datablock.part.2:000000000000000e .LVL85
C:\Users\Kalle\AppData\Local\Temp\ccyOiGeb.s:741    .text.xmit_datablock.part.2:000000000000004e .LVL92
C:\Users\Kalle\AppData\Local\Temp\ccyOiGeb.s:736    .text.xmit_datablock.part.2:000000000000004a .LVL91
C:\Users\Kalle\AppData\Local\Temp\ccyOiGeb.s:708    .text.xmit_datablock.part.2:0000000000000014 .LVL86
C:\Users\Kalle\AppData\Local\Temp\ccyOiGeb.s:2163   .debug_info:0000000000000000 .Ldebug_info0
C:\Users\Kalle\AppData\Local\Temp\ccyOiGeb.s:347    .text.rcvr_datablock:0000000000000072 .LBE35
C:\Users\Kalle\AppData\Local\Temp\ccyOiGeb.s:357    .text.rcvr_datablock:0000000000000078 .LBB38
C:\Users\Kalle\AppData\Local\Temp\ccyOiGeb.s:362    .text.rcvr_datablock:000000000000007a .LBE38
C:\Users\Kalle\AppData\Local\Temp\ccyOiGeb.s:776    .text.disk_initialize:0000000000000006 .LBE54
C:\Users\Kalle\AppData\Local\Temp\ccyOiGeb.s:781    .text.disk_initialize:0000000000000008 .LBB58
C:\Users\Kalle\AppData\Local\Temp\ccyOiGeb.s:787    .text.disk_initialize:000000000000000c .LBE58
C:\Users\Kalle\AppData\Local\Temp\ccyOiGeb.s:799    .text.disk_initialize:0000000000000016 .LBB59
C:\Users\Kalle\AppData\Local\Temp\ccyOiGeb.s:884    .text.disk_initialize:00000000000000c6 .LBE59
C:\Users\Kalle\AppData\Local\Temp\ccyOiGeb.s:951    .text.disk_initialize:0000000000000132 .LBE60
C:\Users\Kalle\AppData\Local\Temp\ccyOiGeb.s:955    .text.disk_initialize:0000000000000136 .LBB68
C:\Users\Kalle\AppData\Local\Temp\ccyOiGeb.s:965    .text.disk_initialize:000000000000014a .LBE68
C:\Users\Kalle\AppData\Local\Temp\ccyOiGeb.s:1085   .text.disk_initialize:000000000000020a .LBB69
C:\Users\Kalle\AppData\Local\Temp\ccyOiGeb.s:1091   .text.disk_initialize:0000000000000210 .LBE69
C:\Users\Kalle\AppData\Local\Temp\ccyOiGeb.s:1102   .text.disk_initialize:0000000000000220 .LBB70
C:\Users\Kalle\AppData\Local\Temp\ccyOiGeb.s:1112   .text.disk_initialize:0000000000000234 .LBE70
C:\Users\Kalle\AppData\Local\Temp\ccyOiGeb.s:1179   .text.disk_initialize:00000000000002a8 .LBB71
C:\Users\Kalle\AppData\Local\Temp\ccyOiGeb.s:1185   .text.disk_initialize:00000000000002ae .LBE71
C:\Users\Kalle\AppData\Local\Temp\ccyOiGeb.s:1189   .text.disk_initialize:00000000000002b2 .LBB72
C:\Users\Kalle\AppData\Local\Temp\ccyOiGeb.s:1199   .text.disk_initialize:00000000000002c6 .LBE72
GAS LISTING C:\Users\Kalle\AppData\Local\Temp\ccyOiGeb.s 			page 84


C:\Users\Kalle\AppData\Local\Temp\ccyOiGeb.s:1210   .text.disk_initialize:00000000000002d2 .LBB73
C:\Users\Kalle\AppData\Local\Temp\ccyOiGeb.s:1220   .text.disk_initialize:00000000000002e6 .LBE73
C:\Users\Kalle\AppData\Local\Temp\ccyOiGeb.s:1341   .text.disk_read:0000000000000062 .LBE74
C:\Users\Kalle\AppData\Local\Temp\ccyOiGeb.s:1391   .text.disk_read:0000000000000096 .LBB77
C:\Users\Kalle\AppData\Local\Temp\ccyOiGeb.s:1403   .text.disk_read:00000000000000b0 .LBE77
C:\Users\Kalle\AppData\Local\Temp\ccyOiGeb.s:1526   .text.disk_write:0000000000000068 .LBE86
C:\Users\Kalle\AppData\Local\Temp\ccyOiGeb.s:1581   .text.disk_write:00000000000000a0 .LBB94
C:\Users\Kalle\AppData\Local\Temp\ccyOiGeb.s:1592   .text.disk_write:00000000000000b6 .LBE94
C:\Users\Kalle\AppData\Local\Temp\ccyOiGeb.s:1541   .text.disk_write:0000000000000076 .LBE89
C:\Users\Kalle\AppData\Local\Temp\ccyOiGeb.s:1614   .text.disk_write:00000000000000c6 .LBB95
C:\Users\Kalle\AppData\Local\Temp\ccyOiGeb.s:1626   .text.disk_write:00000000000000d8 .LBE95

UNDEFINED SYMBOLS
spi_i2s_flag_get
spi_i2s_data_transmit
spi_i2s_data_receive
__floatundidf
__floatunsidf
__divdf3
__muldf3
__ltdf2
get_timer_value
SystemCoreClock
tf_start_timer
tf_timer_done
gpio_bit_reset
gpio_bit_set
rcu_periph_clock_enable
gpio_init
spi_init
spi_crc_polynomial_set
spi_enable
delay_1ms
