GAS LISTING C:\Users\Kalle\AppData\Local\Temp\ccqeQAZY.s 			page 1


   1              		.file	"tf_delay.c"
   2              		.option nopic
   3              		.attribute arch, "rv32i2p0_m2p0_a2p0_c2p0"
   4              		.attribute unaligned_access, 0
   5              		.attribute stack_align, 16
   6              		.text
   7              	.Ltext0:
   8              		.cfi_sections	.debug_frame
   9              		.section	.text.tf_start_timer,"ax",@progbits
  10              		.align	1
  11              		.globl	tf_start_timer
  13              	tf_start_timer:
  14              	.LFB2:
  15              		.file 1 "lib/fatfs/src/tf_delay.c"
   1:lib/fatfs/src/tf_delay.c **** #include "delay.h"
   2:lib/fatfs/src/tf_delay.c **** #include "gd32vf103.h"
   3:lib/fatfs/src/tf_delay.c **** 
   4:lib/fatfs/src/tf_delay.c **** 
   5:lib/fatfs/src/tf_delay.c **** volatile uint64_t tf_current_time = 0;
   6:lib/fatfs/src/tf_delay.c **** volatile uint64_t tf_delay_until = 0;
   7:lib/fatfs/src/tf_delay.c **** 
   8:lib/fatfs/src/tf_delay.c **** void tf_start_timer(int32_t millis){
  16              		.loc 1 8 36
  17              		.cfi_startproc
  18              	.LVL0:
   9:lib/fatfs/src/tf_delay.c ****     tf_current_time = get_timer_value();
  19              		.loc 1 9 5
   8:lib/fatfs/src/tf_delay.c ****     tf_current_time = get_timer_value();
  20              		.loc 1 8 36 is_stmt 0
  21 0000 4111     		addi	sp,sp,-16
  22              	.LCFI0:
  23              		.cfi_def_cfa_offset 16
  24 0002 22C4     		sw	s0,8(sp)
  25 0004 06C6     		sw	ra,12(sp)
  26              		.cfi_offset 8, -8
  27              		.cfi_offset 1, -4
   8:lib/fatfs/src/tf_delay.c ****     tf_current_time = get_timer_value();
  28              		.loc 1 8 36
  29 0006 2A84     		mv	s0,a0
  30              		.loc 1 9 23
  31 0008 97000000 		call	get_timer_value
  31      E7800000 
  32              	.LVL1:
  10:lib/fatfs/src/tf_delay.c ****     tf_delay_until = tf_current_time + ((SystemCoreClock/4000)*millis);
  33              		.loc 1 10 57
  34 0010 B7070000 		lui	a5,%hi(SystemCoreClock)
  35 0014 83A70700 		lw	a5,%lo(SystemCoreClock)(a5)
  36 0018 0567     		li	a4,4096
  37 001a 130707FA 		addi	a4,a4,-96
  38 001e B3D7E702 		divu	a5,a5,a4
   9:lib/fatfs/src/tf_delay.c ****     tf_current_time = get_timer_value();
  39              		.loc 1 9 21
  40 0022 37070000 		lui	a4,%hi(.LANCHOR0)
  41 0026 13070700 		addi	a4,a4,%lo(.LANCHOR0)
  42 002a 08C3     		sw	a0,0(a4)
  43 002c 4CC3     		sw	a1,4(a4)
  44              		.loc 1 10 5 is_stmt 1
GAS LISTING C:\Users\Kalle\AppData\Local\Temp\ccqeQAZY.s 			page 2


  45              		.loc 1 10 38 is_stmt 0
  46 002e 03280700 		lw	a6,0(a4)
  47 0032 83284700 		lw	a7,4(a4)
  48              		.loc 1 10 20
  49 0036 B7050000 		lui	a1,%hi(.LANCHOR1)
  11:lib/fatfs/src/tf_delay.c **** }
  50              		.loc 1 11 1
  51 003a B240     		lw	ra,12(sp)
  52              		.cfi_restore 1
  10:lib/fatfs/src/tf_delay.c ****     tf_delay_until = tf_current_time + ((SystemCoreClock/4000)*millis);
  53              		.loc 1 10 63
  54 003c 33858702 		mul	a0,a5,s0
  55              		.loc 1 11 1
  56 0040 2244     		lw	s0,8(sp)
  57              		.cfi_restore 8
  58              	.LVL2:
  10:lib/fatfs/src/tf_delay.c ****     tf_delay_until = tf_current_time + ((SystemCoreClock/4000)*millis);
  59              		.loc 1 10 38
  60 0042 33060501 		add	a2,a0,a6
  61 0046 3335A600 		sltu	a0,a2,a0
  10:lib/fatfs/src/tf_delay.c ****     tf_delay_until = tf_current_time + ((SystemCoreClock/4000)*millis);
  62              		.loc 1 10 20
  63 004a 23A0C500 		sw	a2,%lo(.LANCHOR1)(a1)
  10:lib/fatfs/src/tf_delay.c ****     tf_delay_until = tf_current_time + ((SystemCoreClock/4000)*millis);
  64              		.loc 1 10 38
  65 004e B3071501 		add	a5,a0,a7
  10:lib/fatfs/src/tf_delay.c ****     tf_delay_until = tf_current_time + ((SystemCoreClock/4000)*millis);
  66              		.loc 1 10 20
  67 0052 23A2F500 		sw	a5,%lo(.LANCHOR1+4)(a1)
  68              		.loc 1 11 1
  69 0056 4101     		addi	sp,sp,16
  70              	.LCFI1:
  71              		.cfi_def_cfa_offset 0
  72 0058 8280     		jr	ra
  73              		.cfi_endproc
  74              	.LFE2:
  76              		.section	.text.tf_timer_done,"ax",@progbits
  77              		.align	1
  78              		.globl	tf_timer_done
  80              	tf_timer_done:
  81              	.LFB3:
  12:lib/fatfs/src/tf_delay.c **** uint32_t tf_timer_done(void){
  82              		.loc 1 12 29 is_stmt 1
  83              		.cfi_startproc
  13:lib/fatfs/src/tf_delay.c ****     
  14:lib/fatfs/src/tf_delay.c ****     tf_current_time = get_timer_value();
  84              		.loc 1 14 5
  12:lib/fatfs/src/tf_delay.c **** uint32_t tf_timer_done(void){
  85              		.loc 1 12 29 is_stmt 0
  86 0000 4111     		addi	sp,sp,-16
  87              	.LCFI2:
  88              		.cfi_def_cfa_offset 16
  89 0002 06C6     		sw	ra,12(sp)
  90              		.cfi_offset 1, -4
  91              		.loc 1 14 23
  92 0004 97000000 		call	get_timer_value
  92      E7800000 
GAS LISTING C:\Users\Kalle\AppData\Local\Temp\ccqeQAZY.s 			page 3


  93              	.LVL3:
  94              		.loc 1 14 21
  95 000c B7070000 		lui	a5,%hi(.LANCHOR0)
  96 0010 93870700 		addi	a5,a5,%lo(.LANCHOR0)
  97 0014 88C3     		sw	a0,0(a5)
  98 0016 CCC3     		sw	a1,4(a5)
  15:lib/fatfs/src/tf_delay.c ****     //if(tf_delay_start > tf_delay_until) return tf_delay_start > current_time && current_time > tf
  16:lib/fatfs/src/tf_delay.c ****     if(tf_current_time > tf_delay_until) return 0;   //No overflow
  99              		.loc 1 16 5 is_stmt 1
 100              		.loc 1 16 24 is_stmt 0
 101 0018 37070000 		lui	a4,%hi(.LANCHOR1)
 102 001c 9043     		lw	a2,0(a5)
 103 001e D443     		lw	a3,4(a5)
 104 0020 03280700 		lw	a6,%lo(.LANCHOR1)(a4)
 105 0024 83284700 		lw	a7,%lo(.LANCHOR1+4)(a4)
 106              		.loc 1 16 7
 107 0028 63EAD800 		bgtu	a3,a7,.L6
 108 002c 0545     		li	a0,1
 109 002e 63851601 		beq	a3,a7,.L8
 110              	.L5:
  17:lib/fatfs/src/tf_delay.c ****     return 1;
  18:lib/fatfs/src/tf_delay.c **** }...
 111              		.loc 1 18 1
 112 0032 B240     		lw	ra,12(sp)
 113              		.cfi_remember_state
 114              		.cfi_restore 1
 115 0034 4101     		addi	sp,sp,16
 116              	.LCFI3:
 117              		.cfi_def_cfa_offset 0
 118 0036 8280     		jr	ra
 119              	.L8:
 120              	.LCFI4:
 121              		.cfi_restore_state
  16:lib/fatfs/src/tf_delay.c ****     if(tf_current_time > tf_delay_until) return 0;   //No overflow
 122              		.loc 1 16 7
 123 0038 E37DC8FE 		bgeu	a6,a2,.L5
 124              	.L6:
 125              		.loc 1 18 1
 126 003c B240     		lw	ra,12(sp)
 127              		.cfi_restore 1
  16:lib/fatfs/src/tf_delay.c ****     if(tf_current_time > tf_delay_until) return 0;   //No overflow
 128              		.loc 1 16 7
 129 003e 0145     		li	a0,0
 130              		.loc 1 18 1
 131 0040 4101     		addi	sp,sp,16
 132              	.LCFI5:
 133              		.cfi_def_cfa_offset 0
 134 0042 8280     		jr	ra
 135              		.cfi_endproc
 136              	.LFE3:
 138              		.globl	tf_delay_until
 139              		.globl	tf_current_time
 140              		.section	.sbss.tf_current_time,"aw",@nobits
 141              		.align	3
 142              		.set	.LANCHOR0,. + 0
 145              	tf_current_time:
 146 0000 00000000 		.zero	8
GAS LISTING C:\Users\Kalle\AppData\Local\Temp\ccqeQAZY.s 			page 4


 146      00000000 
 147              		.section	.sbss.tf_delay_until,"aw",@nobits
 148              		.align	3
 149              		.set	.LANCHOR1,. + 0
 152              	tf_delay_until:
 153 0000 00000000 		.zero	8
 153      00000000 
 154              		.text
 155              	.Letext0:
 156              		.file 2 "c:\\idrotttek-kurs\\toolchain-gd32v-win\\compiler\\riscv64-unknown-elf\\include\\machine\
 157              		.file 3 "c:\\idrotttek-kurs\\toolchain-gd32v-win\\compiler\\riscv64-unknown-elf\\include\\sys\\_st
 158              		.file 4 "../../firmware/GD32VF103_standard_peripheral/system_gd32vf103.h"
 159              		.file 5 "../../firmware/RISCV/drivers/n200_func.h"
GAS LISTING C:\Users\Kalle\AppData\Local\Temp\ccqeQAZY.s 			page 5


DEFINED SYMBOLS
                            *ABS*:0000000000000000 tf_delay.c
C:\Users\Kalle\AppData\Local\Temp\ccqeQAZY.s:13     .text.tf_start_timer:0000000000000000 tf_start_timer
C:\Users\Kalle\AppData\Local\Temp\ccqeQAZY.s:17     .text.tf_start_timer:0000000000000000 .L0 
C:\Users\Kalle\AppData\Local\Temp\ccqeQAZY.s:19     .text.tf_start_timer:0000000000000000 .L0 
C:\Users\Kalle\AppData\Local\Temp\ccqeQAZY.s:20     .text.tf_start_timer:0000000000000000 .L0 
C:\Users\Kalle\AppData\Local\Temp\ccqeQAZY.s:21     .text.tf_start_timer:0000000000000000 .L0 
C:\Users\Kalle\AppData\Local\Temp\ccqeQAZY.s:23     .text.tf_start_timer:0000000000000002 .L0 
C:\Users\Kalle\AppData\Local\Temp\ccqeQAZY.s:26     .text.tf_start_timer:0000000000000006 .L0 
C:\Users\Kalle\AppData\Local\Temp\ccqeQAZY.s:27     .text.tf_start_timer:0000000000000006 .L0 
C:\Users\Kalle\AppData\Local\Temp\ccqeQAZY.s:29     .text.tf_start_timer:0000000000000006 .L0 
C:\Users\Kalle\AppData\Local\Temp\ccqeQAZY.s:31     .text.tf_start_timer:0000000000000008 .L0 
C:\Users\Kalle\AppData\Local\Temp\ccqeQAZY.s:34     .text.tf_start_timer:0000000000000010 .L0 
C:\Users\Kalle\AppData\Local\Temp\ccqeQAZY.s:40     .text.tf_start_timer:0000000000000022 .L0 
C:\Users\Kalle\AppData\Local\Temp\ccqeQAZY.s:45     .text.tf_start_timer:000000000000002e .L0 
C:\Users\Kalle\AppData\Local\Temp\ccqeQAZY.s:46     .text.tf_start_timer:000000000000002e .L0 
C:\Users\Kalle\AppData\Local\Temp\ccqeQAZY.s:49     .text.tf_start_timer:0000000000000036 .L0 
C:\Users\Kalle\AppData\Local\Temp\ccqeQAZY.s:51     .text.tf_start_timer:000000000000003a .L0 
C:\Users\Kalle\AppData\Local\Temp\ccqeQAZY.s:52     .text.tf_start_timer:000000000000003c .L0 
C:\Users\Kalle\AppData\Local\Temp\ccqeQAZY.s:54     .text.tf_start_timer:000000000000003c .L0 
C:\Users\Kalle\AppData\Local\Temp\ccqeQAZY.s:56     .text.tf_start_timer:0000000000000040 .L0 
C:\Users\Kalle\AppData\Local\Temp\ccqeQAZY.s:57     .text.tf_start_timer:0000000000000042 .L0 
C:\Users\Kalle\AppData\Local\Temp\ccqeQAZY.s:60     .text.tf_start_timer:0000000000000042 .L0 
C:\Users\Kalle\AppData\Local\Temp\ccqeQAZY.s:63     .text.tf_start_timer:000000000000004a .L0 
C:\Users\Kalle\AppData\Local\Temp\ccqeQAZY.s:65     .text.tf_start_timer:000000000000004e .L0 
C:\Users\Kalle\AppData\Local\Temp\ccqeQAZY.s:67     .text.tf_start_timer:0000000000000052 .L0 
C:\Users\Kalle\AppData\Local\Temp\ccqeQAZY.s:69     .text.tf_start_timer:0000000000000056 .L0 
C:\Users\Kalle\AppData\Local\Temp\ccqeQAZY.s:71     .text.tf_start_timer:0000000000000058 .L0 
C:\Users\Kalle\AppData\Local\Temp\ccqeQAZY.s:73     .text.tf_start_timer:000000000000005a .L0 
C:\Users\Kalle\AppData\Local\Temp\ccqeQAZY.s:80     .text.tf_timer_done:0000000000000000 tf_timer_done
C:\Users\Kalle\AppData\Local\Temp\ccqeQAZY.s:83     .text.tf_timer_done:0000000000000000 .L0 
C:\Users\Kalle\AppData\Local\Temp\ccqeQAZY.s:84     .text.tf_timer_done:0000000000000000 .L0 
C:\Users\Kalle\AppData\Local\Temp\ccqeQAZY.s:85     .text.tf_timer_done:0000000000000000 .L0 
C:\Users\Kalle\AppData\Local\Temp\ccqeQAZY.s:86     .text.tf_timer_done:0000000000000000 .L0 
C:\Users\Kalle\AppData\Local\Temp\ccqeQAZY.s:88     .text.tf_timer_done:0000000000000002 .L0 
C:\Users\Kalle\AppData\Local\Temp\ccqeQAZY.s:90     .text.tf_timer_done:0000000000000004 .L0 
C:\Users\Kalle\AppData\Local\Temp\ccqeQAZY.s:92     .text.tf_timer_done:0000000000000004 .L0 
C:\Users\Kalle\AppData\Local\Temp\ccqeQAZY.s:95     .text.tf_timer_done:000000000000000c .L0 
C:\Users\Kalle\AppData\Local\Temp\ccqeQAZY.s:100    .text.tf_timer_done:0000000000000018 .L0 
C:\Users\Kalle\AppData\Local\Temp\ccqeQAZY.s:101    .text.tf_timer_done:0000000000000018 .L0 
C:\Users\Kalle\AppData\Local\Temp\ccqeQAZY.s:107    .text.tf_timer_done:0000000000000028 .L0 
C:\Users\Kalle\AppData\Local\Temp\ccqeQAZY.s:112    .text.tf_timer_done:0000000000000032 .L0 
C:\Users\Kalle\AppData\Local\Temp\ccqeQAZY.s:113    .text.tf_timer_done:0000000000000034 .L0 
C:\Users\Kalle\AppData\Local\Temp\ccqeQAZY.s:114    .text.tf_timer_done:0000000000000034 .L0 
C:\Users\Kalle\AppData\Local\Temp\ccqeQAZY.s:117    .text.tf_timer_done:0000000000000036 .L0 
C:\Users\Kalle\AppData\Local\Temp\ccqeQAZY.s:121    .text.tf_timer_done:0000000000000038 .L0 
C:\Users\Kalle\AppData\Local\Temp\ccqeQAZY.s:123    .text.tf_timer_done:0000000000000038 .L0 
C:\Users\Kalle\AppData\Local\Temp\ccqeQAZY.s:126    .text.tf_timer_done:000000000000003c .L0 
C:\Users\Kalle\AppData\Local\Temp\ccqeQAZY.s:127    .text.tf_timer_done:000000000000003e .L0 
C:\Users\Kalle\AppData\Local\Temp\ccqeQAZY.s:129    .text.tf_timer_done:000000000000003e .L0 
C:\Users\Kalle\AppData\Local\Temp\ccqeQAZY.s:131    .text.tf_timer_done:0000000000000040 .L0 
C:\Users\Kalle\AppData\Local\Temp\ccqeQAZY.s:133    .text.tf_timer_done:0000000000000042 .L0 
C:\Users\Kalle\AppData\Local\Temp\ccqeQAZY.s:135    .text.tf_timer_done:0000000000000044 .L0 
C:\Users\Kalle\AppData\Local\Temp\ccqeQAZY.s:152    .sbss.tf_delay_until:0000000000000000 tf_delay_until
C:\Users\Kalle\AppData\Local\Temp\ccqeQAZY.s:145    .sbss.tf_current_time:0000000000000000 tf_current_time
C:\Users\Kalle\AppData\Local\Temp\ccqeQAZY.s:142    .sbss.tf_current_time:0000000000000000 .LANCHOR0
C:\Users\Kalle\AppData\Local\Temp\ccqeQAZY.s:149    .sbss.tf_delay_until:0000000000000000 .LANCHOR1
GAS LISTING C:\Users\Kalle\AppData\Local\Temp\ccqeQAZY.s 			page 6


C:\Users\Kalle\AppData\Local\Temp\ccqeQAZY.s:76     .text.tf_start_timer:000000000000005a .L0 
C:\Users\Kalle\AppData\Local\Temp\ccqeQAZY.s:140    .text.tf_timer_done:0000000000000044 .L0 
                     .debug_frame:0000000000000000 .L0 
C:\Users\Kalle\AppData\Local\Temp\ccqeQAZY.s:124    .text.tf_timer_done:000000000000003c .L6
C:\Users\Kalle\AppData\Local\Temp\ccqeQAZY.s:119    .text.tf_timer_done:0000000000000038 .L8
C:\Users\Kalle\AppData\Local\Temp\ccqeQAZY.s:110    .text.tf_timer_done:0000000000000032 .L5
C:\Users\Kalle\AppData\Local\Temp\ccqeQAZY.s:347    .debug_abbrev:0000000000000000 .Ldebug_abbrev0
C:\Users\Kalle\AppData\Local\Temp\ccqeQAZY.s:658    .debug_str:0000000000000099 .LASF21
C:\Users\Kalle\AppData\Local\Temp\ccqeQAZY.s:698    .debug_str:00000000000001f9 .LASF22
C:\Users\Kalle\AppData\Local\Temp\ccqeQAZY.s:648    .debug_str:000000000000001b .LASF23
C:\Users\Kalle\AppData\Local\Temp\ccqeQAZY.s:634    .debug_ranges:0000000000000000 .Ldebug_ranges0
C:\Users\Kalle\AppData\Local\Temp\ccqeQAZY.s:642    .debug_line:0000000000000000 .Ldebug_line0
C:\Users\Kalle\AppData\Local\Temp\ccqeQAZY.s:684    .debug_str:00000000000001aa .LASF0
C:\Users\Kalle\AppData\Local\Temp\ccqeQAZY.s:650    .debug_str:000000000000005b .LASF4
C:\Users\Kalle\AppData\Local\Temp\ccqeQAZY.s:668    .debug_str:0000000000000142 .LASF1
C:\Users\Kalle\AppData\Local\Temp\ccqeQAZY.s:692    .debug_str:00000000000001dc .LASF2
C:\Users\Kalle\AppData\Local\Temp\ccqeQAZY.s:682    .debug_str:0000000000000197 .LASF3
C:\Users\Kalle\AppData\Local\Temp\ccqeQAZY.s:686    .debug_str:00000000000001b6 .LASF5
C:\Users\Kalle\AppData\Local\Temp\ccqeQAZY.s:680    .debug_str:000000000000018e .LASF6
C:\Users\Kalle\AppData\Local\Temp\ccqeQAZY.s:652    .debug_str:0000000000000065 .LASF7
C:\Users\Kalle\AppData\Local\Temp\ccqeQAZY.s:654    .debug_str:0000000000000070 .LASF8
C:\Users\Kalle\AppData\Local\Temp\ccqeQAZY.s:644    .debug_str:0000000000000000 .LASF9
C:\Users\Kalle\AppData\Local\Temp\ccqeQAZY.s:696    .debug_str:00000000000001ee .LASF10
C:\Users\Kalle\AppData\Local\Temp\ccqeQAZY.s:656    .debug_str:0000000000000082 .LASF11
C:\Users\Kalle\AppData\Local\Temp\ccqeQAZY.s:646    .debug_str:000000000000000e .LASF12
C:\Users\Kalle\AppData\Local\Temp\ccqeQAZY.s:666    .debug_str:000000000000013a .LASF13
C:\Users\Kalle\AppData\Local\Temp\ccqeQAZY.s:694    .debug_str:00000000000001e6 .LASF14
C:\Users\Kalle\AppData\Local\Temp\ccqeQAZY.s:674    .debug_str:000000000000016e .LASF15
C:\Users\Kalle\AppData\Local\Temp\ccqeQAZY.s:660    .debug_str:0000000000000113 .LASF16
C:\Users\Kalle\AppData\Local\Temp\ccqeQAZY.s:676    .debug_str:0000000000000177 .LASF18
C:\Users\Kalle\AppData\Local\Temp\ccqeQAZY.s:690    .debug_str:00000000000001d0 .LASF17
C:\Users\Kalle\AppData\Local\Temp\ccqeQAZY.s:662    .debug_str:000000000000011c .LASF19
C:\Users\Kalle\AppData\Local\Temp\ccqeQAZY.s:670    .debug_str:0000000000000150 .LASF20
C:\Users\Kalle\AppData\Local\Temp\ccqeQAZY.s:664    .debug_str:000000000000012c .LASF24
C:\Users\Kalle\AppData\Local\Temp\ccqeQAZY.s:81     .text.tf_timer_done:0000000000000000 .LFB3
C:\Users\Kalle\AppData\Local\Temp\ccqeQAZY.s:136    .text.tf_timer_done:0000000000000044 .LFE3
C:\Users\Kalle\AppData\Local\Temp\ccqeQAZY.s:555    .debug_loc:0000000000000000 .LLST2
C:\Users\Kalle\AppData\Local\Temp\ccqeQAZY.s:93     .text.tf_timer_done:000000000000000c .LVL3
C:\Users\Kalle\AppData\Local\Temp\ccqeQAZY.s:672    .debug_str:000000000000015f .LASF25
C:\Users\Kalle\AppData\Local\Temp\ccqeQAZY.s:14     .text.tf_start_timer:0000000000000000 .LFB2
C:\Users\Kalle\AppData\Local\Temp\ccqeQAZY.s:74     .text.tf_start_timer:000000000000005a .LFE2
C:\Users\Kalle\AppData\Local\Temp\ccqeQAZY.s:583    .debug_loc:0000000000000044 .LLST0
C:\Users\Kalle\AppData\Local\Temp\ccqeQAZY.s:678    .debug_str:0000000000000187 .LASF26
C:\Users\Kalle\AppData\Local\Temp\ccqeQAZY.s:601    .debug_loc:0000000000000070 .LLST1
C:\Users\Kalle\AppData\Local\Temp\ccqeQAZY.s:32     .text.tf_start_timer:0000000000000010 .LVL1
C:\Users\Kalle\AppData\Local\Temp\ccqeQAZY.s:688    .debug_str:00000000000001c0 .LASF27
C:\Users\Kalle\AppData\Local\Temp\ccqeQAZY.s:87     .text.tf_timer_done:0000000000000002 .LCFI2
C:\Users\Kalle\AppData\Local\Temp\ccqeQAZY.s:116    .text.tf_timer_done:0000000000000036 .LCFI3
C:\Users\Kalle\AppData\Local\Temp\ccqeQAZY.s:120    .text.tf_timer_done:0000000000000038 .LCFI4
C:\Users\Kalle\AppData\Local\Temp\ccqeQAZY.s:132    .text.tf_timer_done:0000000000000042 .LCFI5
C:\Users\Kalle\AppData\Local\Temp\ccqeQAZY.s:22     .text.tf_start_timer:0000000000000002 .LCFI0
C:\Users\Kalle\AppData\Local\Temp\ccqeQAZY.s:70     .text.tf_start_timer:0000000000000058 .LCFI1
C:\Users\Kalle\AppData\Local\Temp\ccqeQAZY.s:18     .text.tf_start_timer:0000000000000000 .LVL0
C:\Users\Kalle\AppData\Local\Temp\ccqeQAZY.s:58     .text.tf_start_timer:0000000000000042 .LVL2
C:\Users\Kalle\AppData\Local\Temp\ccqeQAZY.s:161    .debug_info:0000000000000000 .Ldebug_info0

UNDEFINED SYMBOLS
GAS LISTING C:\Users\Kalle\AppData\Local\Temp\ccqeQAZY.s 			page 7


get_timer_value
SystemCoreClock
